ARM GAS  /tmp/cc0lvdnj.s 			page 1


   1              		.cpu cortex-m0
   2              		.eabi_attribute 20, 1
   3              		.eabi_attribute 21, 1
   4              		.eabi_attribute 23, 3
   5              		.eabi_attribute 24, 1
   6              		.eabi_attribute 25, 1
   7              		.eabi_attribute 26, 1
   8              		.eabi_attribute 30, 2
   9              		.eabi_attribute 34, 0
  10              		.eabi_attribute 18, 4
  11              		.file	"chcore_v6m.c"
  12              		.text
  13              	.Ltext0:
  14              		.cfi_sections	.debug_frame
  15              		.section	.text.NMI_Handler,"ax",%progbits
  16              		.align	1
  17              		.p2align 4,,15
  18              		.global	NMI_Handler
  19              		.arch armv6s-m
  20              		.syntax unified
  21              		.code	16
  22              		.thumb_func
  23              		.fpu softvfp
  24              		.type	NMI_Handler, %function
  25              	NMI_Handler:
  26              	.LFB121:
  27              		.file 1 "ChibiOS/os/common/ports/ARMCMx/chcore_v6m.c"
  28              		.loc 1 61 24 view -0
  29              		.cfi_startproc
  30              		@ args = 0, pretend = 0, frame = 0
  31              		@ frame_needed = 1, uses_anonymous_args = 0
  32              		.loc 1 65 3 view .LVU1
  33              	.LBB42:
  34              	.LBI42:
  35              		.file 2 "ChibiOS/os/common/ext/CMSIS/include/core_cmFunc.h"
  36              		.loc 2 426 61 view .LVU2
  37              	.LBB43:
  38              		.loc 2 428 3 view .LVU3
  39              		.loc 2 430 3 view .LVU4
  40              	.LBE43:
  41              	.LBE42:
  42              		.loc 1 61 24 is_stmt 0 view .LVU5
  43 0000 80B5     		push	{r7, lr}
  44              		.cfi_def_cfa_offset 8
  45              		.cfi_offset 7, -8
  46              		.cfi_offset 14, -4
  47 0002 00AF     		add	r7, sp, #0
  48              		.cfi_def_cfa_register 7
  49              	.LBB45:
  50              	.LBB44:
  51              		.loc 2 430 3 view .LVU6
  52              		.syntax divided
  53              	@ 430 "ChibiOS/os/common/ext/CMSIS/include/core_cmFunc.h" 1
  54 0004 EFF30983 		MRS r3, psp
  55              	
  56              	@ 0 "" 2
  57              	.LVL0:
ARM GAS  /tmp/cc0lvdnj.s 			page 2


  58              		.loc 2 431 3 is_stmt 1 view .LVU7
  59              		.loc 2 431 3 is_stmt 0 view .LVU8
  60              		.thumb
  61              		.syntax unified
  62              	.LBE44:
  63              	.LBE45:
  64              		.loc 1 69 3 is_stmt 1 view .LVU9
  65              		.loc 1 72 3 view .LVU10
  66              	.LBB46:
  67              	.LBI46:
  68              		.loc 2 441 57 view .LVU11
  69              	.LBB47:
  70              		.loc 2 443 3 view .LVU12
  71              	.LBE47:
  72              	.LBE46:
  73              		.loc 1 69 7 is_stmt 0 view .LVU13
  74 0008 2033     		adds	r3, r3, #32
  75              	.LVL1:
  76              	.LBB49:
  77              	.LBB48:
  78              		.loc 2 443 3 view .LVU14
  79              		.syntax divided
  80              	@ 443 "ChibiOS/os/common/ext/CMSIS/include/core_cmFunc.h" 1
  81 000a 83F30988 		MSR psp, r3
  82              	
  83              	@ 0 "" 2
  84              	.LVL2:
  85              		.loc 2 443 3 view .LVU15
  86              		.thumb
  87              		.syntax unified
  88              	.LBE48:
  89              	.LBE49:
  90              		.loc 1 75 3 is_stmt 1 view .LVU16
  91              	.LBB50:
  92              	.LBI50:
  93              		.file 3 "ChibiOS/os/common/ports/ARMCMx/chcore_v6m.h"
  94              		.loc 3 400 20 view .LVU17
  95              	.LBE50:
  96              		.loc 3 402 3 view .LVU18
  97              	.LBB55:
  98              	.LBB51:
  99              	.LBI51:
 100              		.loc 3 380 20 view .LVU19
 101              	.LBE51:
 102              	.LBE55:
 103              		.loc 3 382 3 view .LVU20
 104              	.LBB56:
 105              	.LBB54:
 106              	.LBB52:
 107              	.LBI52:
 108              		.loc 2 331 57 view .LVU21
 109              	.LBB53:
 110              		.loc 2 333 3 view .LVU22
 111              		.syntax divided
 112              	@ 333 "ChibiOS/os/common/ext/CMSIS/include/core_cmFunc.h" 1
 113 000e 62B6     		cpsie i
 114              	@ 0 "" 2
ARM GAS  /tmp/cc0lvdnj.s 			page 3


 115              		.thumb
 116              		.syntax unified
 117              	.LBE53:
 118              	.LBE52:
 119              	.LBE54:
 120              	.LBE56:
 121              		.loc 1 76 1 is_stmt 0 view .LVU23
 122 0010 BD46     		mov	sp, r7
 123              		@ sp needed
 124 0012 80BD     		pop	{r7, pc}
 125              		.cfi_endproc
 126              	.LFE121:
 127              		.size	NMI_Handler, .-NMI_Handler
 128              		.section	.text._port_irq_epilogue,"ax",%progbits
 129              		.align	1
 130              		.p2align 4,,15
 131              		.global	_port_irq_epilogue
 132              		.syntax unified
 133              		.code	16
 134              		.thumb_func
 135              		.fpu softvfp
 136              		.type	_port_irq_epilogue, %function
 137              	_port_irq_epilogue:
 138              	.LVL3:
 139              	.LFB122:
 140              		.loc 1 110 38 is_stmt 1 view -0
 141              		.cfi_startproc
 142              		@ args = 0, pretend = 0, frame = 0
 143              		@ frame_needed = 1, uses_anonymous_args = 0
 144              		.loc 1 112 3 view .LVU25
 145              		.loc 1 110 38 is_stmt 0 view .LVU26
 146 0000 B0B5     		push	{r4, r5, r7, lr}
 147              		.cfi_def_cfa_offset 16
 148              		.cfi_offset 4, -16
 149              		.cfi_offset 5, -12
 150              		.cfi_offset 7, -8
 151              		.cfi_offset 14, -4
 152 0002 00AF     		add	r7, sp, #0
 153              		.cfi_def_cfa_register 7
 154              		.loc 1 112 6 view .LVU27
 155 0004 0F30     		adds	r0, r0, #15
 156 0006 0ED0     		beq	.L3
 157              	.LVL4:
 158              	.LBB57:
 159              		.loc 1 113 5 is_stmt 1 view .LVU28
 160              		.loc 1 115 5 view .LVU29
 161              	.LBB58:
 162              	.LBI58:
 163              		.loc 3 390 20 view .LVU30
 164              	.LBE58:
 165              	.LBE57:
 166              		.loc 3 392 3 view .LVU31
 167              	.LBB71:
 168              	.LBB63:
 169              	.LBB59:
 170              	.LBI59:
 171              		.loc 3 371 20 view .LVU32
ARM GAS  /tmp/cc0lvdnj.s 			page 4


 172              	.LBE59:
 173              	.LBE63:
 174              	.LBE71:
 175              		.loc 3 373 3 view .LVU33
 176              	.LBB72:
 177              	.LBB64:
 178              	.LBB62:
 179              	.LBB60:
 180              	.LBI60:
 181              		.loc 2 342 57 view .LVU34
 182              	.LBB61:
 183              		.loc 2 344 3 view .LVU35
 184              		.syntax divided
 185              	@ 344 "ChibiOS/os/common/ext/CMSIS/include/core_cmFunc.h" 1
 186 0008 72B6     		cpsid i
 187              	@ 0 "" 2
 188              		.thumb
 189              		.syntax unified
 190              	.LBE61:
 191              	.LBE60:
 192              	.LBE62:
 193              	.LBE64:
 194              		.loc 1 118 5 view .LVU36
 195              	.LBB65:
 196              	.LBI65:
 197              		.loc 2 426 61 view .LVU37
 198              	.LBB66:
 199              		.loc 2 428 3 view .LVU38
 200              		.loc 2 430 3 view .LVU39
 201              		.syntax divided
 202              	@ 430 "ChibiOS/os/common/ext/CMSIS/include/core_cmFunc.h" 1
 203 000a EFF30984 		MRS r4, psp
 204              	
 205              	@ 0 "" 2
 206              	.LVL5:
 207              		.loc 2 431 3 view .LVU40
 208              		.loc 2 431 3 is_stmt 0 view .LVU41
 209              		.thumb
 210              		.syntax unified
 211              	.LBE66:
 212              	.LBE65:
 213              		.loc 1 122 5 is_stmt 1 view .LVU42
 214              		.loc 1 125 5 view .LVU43
 215              	.LBB67:
 216              	.LBI67:
 217              		.loc 2 441 57 view .LVU44
 218              	.LBB68:
 219              		.loc 2 443 3 view .LVU45
 220              	.LBE68:
 221              	.LBE67:
 222              		.loc 1 122 9 is_stmt 0 view .LVU46
 223 000e 203C     		subs	r4, r4, #32
 224              	.LVL6:
 225              	.LBB70:
 226              	.LBB69:
 227              		.loc 2 443 3 view .LVU47
 228              		.syntax divided
ARM GAS  /tmp/cc0lvdnj.s 			page 5


 229              	@ 443 "ChibiOS/os/common/ext/CMSIS/include/core_cmFunc.h" 1
 230 0010 84F30988 		MSR psp, r4
 231              	
 232              	@ 0 "" 2
 233              	.LVL7:
 234              		.loc 2 443 3 view .LVU48
 235              		.thumb
 236              		.syntax unified
 237              	.LBE69:
 238              	.LBE70:
 239              		.loc 1 128 5 is_stmt 1 view .LVU49
 240              		.loc 1 128 16 is_stmt 0 view .LVU50
 241 0014 8023     		movs	r3, #128
 242 0016 5B04     		lsls	r3, r3, #17
 243 0018 E361     		str	r3, [r4, #28]
 244              		.loc 1 132 5 is_stmt 1 view .LVU51
 245              		.loc 1 132 9 is_stmt 0 view .LVU52
 246 001a FFF7FEFF 		bl	chSchIsPreemptionRequired
 247              	.LVL8:
 248              		.loc 1 132 8 view .LVU53
 249 001e 0028     		cmp	r0, #0
 250 0020 03D0     		beq	.L5
 251              		.loc 1 134 7 is_stmt 1 view .LVU54
 252              		.loc 1 134 16 is_stmt 0 view .LVU55
 253 0022 034B     		ldr	r3, .L9
 254 0024 A361     		str	r3, [r4, #24]
 255              	.LVL9:
 256              	.L3:
 257              		.loc 1 134 16 view .LVU56
 258              	.LBE72:
 259              		.loc 1 145 1 view .LVU57
 260 0026 BD46     		mov	sp, r7
 261              		@ sp needed
 262 0028 B0BD     		pop	{r4, r5, r7, pc}
 263              	.LVL10:
 264              	.L5:
 265              	.LBB73:
 266              		.loc 1 139 7 is_stmt 1 view .LVU58
 267              		.loc 1 139 16 is_stmt 0 view .LVU59
 268 002a 024B     		ldr	r3, .L9+4
 269 002c A361     		str	r3, [r4, #24]
 270              	.LBE73:
 271              		.loc 1 145 1 view .LVU60
 272 002e FAE7     		b	.L3
 273              	.L10:
 274              		.align	2
 275              	.L9:
 276 0030 00000000 		.word	_port_switch_from_isr
 277 0034 00000000 		.word	_port_exit_from_isr
 278              		.cfi_endproc
 279              	.LFE122:
 280              		.size	_port_irq_epilogue, .-_port_irq_epilogue
 281              		.text
 282              	.Letext0:
 283              		.file 4 "/opt/nanovna/gcc-arm-none-eabi-8-2018-q4-major/arm-none-eabi/include/machine/_default_typ
 284              		.file 5 "/opt/nanovna/gcc-arm-none-eabi-8-2018-q4-major/arm-none-eabi/include/sys/_stdint.h"
 285              		.file 6 "ChibiOS/os/common/ports/ARMCMx/compilers/GCC/chtypes.h"
ARM GAS  /tmp/cc0lvdnj.s 			page 6


 286              		.file 7 "ChibiOS/os/rt/include/chsystypes.h"
 287              		.file 8 "ChibiOS/os/rt/include/chschd.h"
 288              		.file 9 "ChibiOS/os/common/ports/ARMCMx/chcore.h"
 289              		.file 10 "ChibiOS/os/rt/include/chmtx.h"
 290              		.file 11 "ChibiOS/os/common/ext/CMSIS/ST/STM32F0xx/system_stm32f0xx.h"
 291              		.file 12 "ChibiOS/os/rt/include/chsys.h"
 292              		.file 13 "ChibiOS/os/rt/include/chregistry.h"
 293              		.section	.debug_info,"",%progbits
 294              	.Ldebug_info0:
 295 0000 BC090000 		.4byte	0x9bc
 296 0004 0400     		.2byte	0x4
 297 0006 00000000 		.4byte	.Ldebug_abbrev0
 298 000a 04       		.byte	0x4
 299 000b 01       		.uleb128 0x1
 300 000c 51010000 		.4byte	.LASF117
 301 0010 0C       		.byte	0xc
 302 0011 7B050000 		.4byte	.LASF118
 303 0015 55040000 		.4byte	.LASF119
 304 0019 B0000000 		.4byte	.Ldebug_ranges0+0xb0
 305 001d 00000000 		.4byte	0
 306 0021 00000000 		.4byte	.Ldebug_line0
 307 0025 02       		.uleb128 0x2
 308 0026 04       		.byte	0x4
 309 0027 05       		.byte	0x5
 310 0028 696E7400 		.ascii	"int\000"
 311 002c 03       		.uleb128 0x3
 312 002d 04       		.byte	0x4
 313 002e 07       		.byte	0x7
 314 002f 5B000000 		.4byte	.LASF0
 315 0033 03       		.uleb128 0x3
 316 0034 08       		.byte	0x8
 317 0035 05       		.byte	0x5
 318 0036 D0030000 		.4byte	.LASF1
 319 003a 03       		.uleb128 0x3
 320 003b 08       		.byte	0x8
 321 003c 04       		.byte	0x4
 322 003d 23040000 		.4byte	.LASF2
 323 0041 03       		.uleb128 0x3
 324 0042 01       		.byte	0x1
 325 0043 06       		.byte	0x6
 326 0044 E5050000 		.4byte	.LASF3
 327 0048 04       		.uleb128 0x4
 328 0049 B5040000 		.4byte	.LASF6
 329 004d 04       		.byte	0x4
 330 004e 2B       		.byte	0x2b
 331 004f 18       		.byte	0x18
 332 0050 54000000 		.4byte	0x54
 333 0054 03       		.uleb128 0x3
 334 0055 01       		.byte	0x1
 335 0056 08       		.byte	0x8
 336 0057 44050000 		.4byte	.LASF4
 337 005b 03       		.uleb128 0x3
 338 005c 02       		.byte	0x2
 339 005d 05       		.byte	0x5
 340 005e D4000000 		.4byte	.LASF5
 341 0062 04       		.uleb128 0x4
 342 0063 AD020000 		.4byte	.LASF7
ARM GAS  /tmp/cc0lvdnj.s 			page 7


 343 0067 04       		.byte	0x4
 344 0068 39       		.byte	0x39
 345 0069 19       		.byte	0x19
 346 006a 6E000000 		.4byte	0x6e
 347 006e 03       		.uleb128 0x3
 348 006f 02       		.byte	0x2
 349 0070 07       		.byte	0x7
 350 0071 F7050000 		.4byte	.LASF8
 351 0075 04       		.uleb128 0x4
 352 0076 84000000 		.4byte	.LASF9
 353 007a 04       		.byte	0x4
 354 007b 4D       		.byte	0x4d
 355 007c 18       		.byte	0x18
 356 007d 81000000 		.4byte	0x81
 357 0081 03       		.uleb128 0x3
 358 0082 04       		.byte	0x4
 359 0083 05       		.byte	0x5
 360 0084 71040000 		.4byte	.LASF10
 361 0088 04       		.uleb128 0x4
 362 0089 52050000 		.4byte	.LASF11
 363 008d 04       		.byte	0x4
 364 008e 4F       		.byte	0x4f
 365 008f 19       		.byte	0x19
 366 0090 94000000 		.4byte	0x94
 367 0094 03       		.uleb128 0x3
 368 0095 04       		.byte	0x4
 369 0096 07       		.byte	0x7
 370 0097 F4040000 		.4byte	.LASF12
 371 009b 04       		.uleb128 0x4
 372 009c 4A030000 		.4byte	.LASF13
 373 00a0 04       		.byte	0x4
 374 00a1 69       		.byte	0x69
 375 00a2 19       		.byte	0x19
 376 00a3 A7000000 		.4byte	0xa7
 377 00a7 03       		.uleb128 0x3
 378 00a8 08       		.byte	0x8
 379 00a9 07       		.byte	0x7
 380 00aa 7C020000 		.4byte	.LASF14
 381 00ae 04       		.uleb128 0x4
 382 00af A6030000 		.4byte	.LASF15
 383 00b3 05       		.byte	0x5
 384 00b4 18       		.byte	0x18
 385 00b5 13       		.byte	0x13
 386 00b6 48000000 		.4byte	0x48
 387 00ba 04       		.uleb128 0x4
 388 00bb 2F040000 		.4byte	.LASF16
 389 00bf 05       		.byte	0x5
 390 00c0 24       		.byte	0x24
 391 00c1 14       		.byte	0x14
 392 00c2 62000000 		.4byte	0x62
 393 00c6 04       		.uleb128 0x4
 394 00c7 19050000 		.4byte	.LASF17
 395 00cb 05       		.byte	0x5
 396 00cc 2C       		.byte	0x2c
 397 00cd 13       		.byte	0x13
 398 00ce 75000000 		.4byte	0x75
 399 00d2 04       		.uleb128 0x4
ARM GAS  /tmp/cc0lvdnj.s 			page 8


 400 00d3 31010000 		.4byte	.LASF18
 401 00d7 05       		.byte	0x5
 402 00d8 30       		.byte	0x30
 403 00d9 14       		.byte	0x14
 404 00da 88000000 		.4byte	0x88
 405 00de 04       		.uleb128 0x4
 406 00df A6040000 		.4byte	.LASF19
 407 00e3 05       		.byte	0x5
 408 00e4 3C       		.byte	0x3c
 409 00e5 14       		.byte	0x14
 410 00e6 9B000000 		.4byte	0x9b
 411 00ea 04       		.uleb128 0x4
 412 00eb 10040000 		.4byte	.LASF20
 413 00ef 06       		.byte	0x6
 414 00f0 3C       		.byte	0x3c
 415 00f1 1D       		.byte	0x1d
 416 00f2 AE000000 		.4byte	0xae
 417 00f6 04       		.uleb128 0x4
 418 00f7 9D030000 		.4byte	.LASF21
 419 00fb 06       		.byte	0x6
 420 00fc 3D       		.byte	0x3d
 421 00fd 1D       		.byte	0x1d
 422 00fe AE000000 		.4byte	0xae
 423 0102 04       		.uleb128 0x4
 424 0103 EC040000 		.4byte	.LASF22
 425 0107 06       		.byte	0x6
 426 0108 3E       		.byte	0x3e
 427 0109 1D       		.byte	0x1d
 428 010a AE000000 		.4byte	0xae
 429 010e 04       		.uleb128 0x4
 430 010f 5C020000 		.4byte	.LASF23
 431 0113 06       		.byte	0x6
 432 0114 40       		.byte	0x40
 433 0115 1D       		.byte	0x1d
 434 0116 D2000000 		.4byte	0xd2
 435 011a 04       		.uleb128 0x4
 436 011b E3030000 		.4byte	.LASF24
 437 011f 06       		.byte	0x6
 438 0120 41       		.byte	0x41
 439 0121 1D       		.byte	0x1d
 440 0122 C6000000 		.4byte	0xc6
 441 0126 04       		.uleb128 0x4
 442 0127 3A010000 		.4byte	.LASF25
 443 012b 06       		.byte	0x6
 444 012c 43       		.byte	0x43
 445 012d 1D       		.byte	0x1d
 446 012e D2000000 		.4byte	0xd2
 447 0132 04       		.uleb128 0x4
 448 0133 B8020000 		.4byte	.LASF26
 449 0137 06       		.byte	0x6
 450 0138 45       		.byte	0x45
 451 0139 1D       		.byte	0x1d
 452 013a C6000000 		.4byte	0xc6
 453 013e 04       		.uleb128 0x4
 454 013f 3F000000 		.4byte	.LASF27
 455 0143 07       		.byte	0x7
 456 0144 33       		.byte	0x33
ARM GAS  /tmp/cc0lvdnj.s 			page 9


 457 0145 12       		.byte	0x12
 458 0146 D2000000 		.4byte	0xd2
 459 014a 04       		.uleb128 0x4
 460 014b 0F030000 		.4byte	.LASF28
 461 014f 07       		.byte	0x7
 462 0150 3F       		.byte	0x3f
 463 0151 1A       		.byte	0x1a
 464 0152 56010000 		.4byte	0x156
 465 0156 05       		.uleb128 0x5
 466 0157 AE030000 		.4byte	.LASF44
 467 015b 38       		.byte	0x38
 468 015c 08       		.byte	0x8
 469 015d 9A       		.byte	0x9a
 470 015e 08       		.byte	0x8
 471 015f 2A020000 		.4byte	0x22a
 472 0163 06       		.uleb128 0x6
 473 0164 13050000 		.4byte	.LASF29
 474 0168 08       		.byte	0x8
 475 0169 9B       		.byte	0x9b
 476 016a 19       		.byte	0x19
 477 016b 63020000 		.4byte	0x263
 478 016f 00       		.byte	0
 479 0170 06       		.uleb128 0x6
 480 0171 67030000 		.4byte	.LASF30
 481 0175 08       		.byte	0x8
 482 0176 9C       		.byte	0x9c
 483 0177 19       		.byte	0x19
 484 0178 0E010000 		.4byte	0x10e
 485 017c 08       		.byte	0x8
 486 017d 07       		.uleb128 0x7
 487 017e 63747800 		.ascii	"ctx\000"
 488 0182 08       		.byte	0x8
 489 0183 9D       		.byte	0x9d
 490 0184 19       		.byte	0x19
 491 0185 79040000 		.4byte	0x479
 492 0189 0C       		.byte	0xc
 493 018a 06       		.uleb128 0x6
 494 018b 29050000 		.4byte	.LASF31
 495 018f 08       		.byte	0x8
 496 0190 9F       		.byte	0x9f
 497 0191 1A       		.byte	0x1a
 498 0192 36020000 		.4byte	0x236
 499 0196 10       		.byte	0x10
 500 0197 06       		.uleb128 0x6
 501 0198 3B060000 		.4byte	.LASF32
 502 019c 08       		.byte	0x8
 503 019d A0       		.byte	0xa0
 504 019e 1A       		.byte	0x1a
 505 019f 36020000 		.4byte	0x236
 506 01a3 14       		.byte	0x14
 507 01a4 06       		.uleb128 0x6
 508 01a5 CB040000 		.4byte	.LASF33
 509 01a9 08       		.byte	0x8
 510 01aa A7       		.byte	0xa7
 511 01ab 1A       		.byte	0x1a
 512 01ac 28060000 		.4byte	0x628
 513 01b0 18       		.byte	0x18
ARM GAS  /tmp/cc0lvdnj.s 			page 10


 514 01b1 06       		.uleb128 0x6
 515 01b2 84030000 		.4byte	.LASF34
 516 01b6 08       		.byte	0x8
 517 01b7 B0       		.byte	0xb0
 518 01b8 1A       		.byte	0x1a
 519 01b9 3F060000 		.4byte	0x63f
 520 01bd 1C       		.byte	0x1c
 521 01be 06       		.uleb128 0x6
 522 01bf C6050000 		.4byte	.LASF35
 523 01c3 08       		.byte	0x8
 524 01c4 B5       		.byte	0xb5
 525 01c5 19       		.byte	0x19
 526 01c6 F6000000 		.4byte	0xf6
 527 01ca 20       		.byte	0x20
 528 01cb 06       		.uleb128 0x6
 529 01cc 39000000 		.4byte	.LASF36
 530 01d0 08       		.byte	0x8
 531 01d1 B9       		.byte	0xb9
 532 01d2 19       		.byte	0x19
 533 01d3 EA000000 		.4byte	0xea
 534 01d7 21       		.byte	0x21
 535 01d8 06       		.uleb128 0x6
 536 01d9 8E000000 		.4byte	.LASF37
 537 01dd 08       		.byte	0x8
 538 01de BE       		.byte	0xbe
 539 01df 19       		.byte	0x19
 540 01e0 02010000 		.4byte	0x102
 541 01e4 22       		.byte	0x22
 542 01e5 08       		.uleb128 0x8
 543 01e6 7500     		.ascii	"u\000"
 544 01e8 08       		.byte	0x8
 545 01e9 0F01     		.2byte	0x10f
 546 01eb 19       		.byte	0x19
 547 01ec 86050000 		.4byte	0x586
 548 01f0 24       		.byte	0x24
 549 01f1 09       		.uleb128 0x9
 550 01f2 5D050000 		.4byte	.LASF38
 551 01f6 08       		.byte	0x8
 552 01f7 1401     		.2byte	0x114
 553 01f9 19       		.byte	0x19
 554 01fa 3C020000 		.4byte	0x23c
 555 01fe 28       		.byte	0x28
 556 01ff 09       		.uleb128 0x9
 557 0200 52000000 		.4byte	.LASF39
 558 0204 08       		.byte	0x8
 559 0205 2001     		.2byte	0x120
 560 0207 19       		.byte	0x19
 561 0208 26010000 		.4byte	0x126
 562 020c 2C       		.byte	0x2c
 563 020d 09       		.uleb128 0x9
 564 020e F0020000 		.4byte	.LASF40
 565 0212 08       		.byte	0x8
 566 0213 2701     		.2byte	0x127
 567 0215 1A       		.byte	0x1a
 568 0216 22060000 		.4byte	0x622
 569 021a 30       		.byte	0x30
 570 021b 09       		.uleb128 0x9
ARM GAS  /tmp/cc0lvdnj.s 			page 11


 571 021c 49000000 		.4byte	.LASF41
 572 0220 08       		.byte	0x8
 573 0221 2B01     		.2byte	0x12b
 574 0223 19       		.byte	0x19
 575 0224 0E010000 		.4byte	0x10e
 576 0228 34       		.byte	0x34
 577 0229 00       		.byte	0
 578 022a 04       		.uleb128 0x4
 579 022b 71030000 		.4byte	.LASF42
 580 022f 07       		.byte	0x7
 581 0230 44       		.byte	0x44
 582 0231 14       		.byte	0x14
 583 0232 36020000 		.4byte	0x236
 584 0236 0A       		.uleb128 0xa
 585 0237 04       		.byte	0x4
 586 0238 4A010000 		.4byte	0x14a
 587 023c 04       		.uleb128 0x4
 588 023d 75000000 		.4byte	.LASF43
 589 0241 07       		.byte	0x7
 590 0242 49       		.byte	0x49
 591 0243 20       		.byte	0x20
 592 0244 48020000 		.4byte	0x248
 593 0248 05       		.uleb128 0x5
 594 0249 00000000 		.4byte	.LASF45
 595 024d 04       		.byte	0x4
 596 024e 08       		.byte	0x8
 597 024f 88       		.byte	0x88
 598 0250 08       		.byte	0x8
 599 0251 63020000 		.4byte	0x263
 600 0255 06       		.uleb128 0x6
 601 0256 68000000 		.4byte	.LASF46
 602 025a 08       		.byte	0x8
 603 025b 89       		.byte	0x89
 604 025c 1A       		.byte	0x1a
 605 025d 36020000 		.4byte	0x236
 606 0261 00       		.byte	0
 607 0262 00       		.byte	0
 608 0263 04       		.uleb128 0x4
 609 0264 D1020000 		.4byte	.LASF47
 610 0268 07       		.byte	0x7
 611 0269 50       		.byte	0x50
 612 026a 21       		.byte	0x21
 613 026b 6F020000 		.4byte	0x26f
 614 026f 05       		.uleb128 0x5
 615 0270 FD000000 		.4byte	.LASF48
 616 0274 08       		.byte	0x8
 617 0275 08       		.byte	0x8
 618 0276 8F       		.byte	0x8f
 619 0277 08       		.byte	0x8
 620 0278 97020000 		.4byte	0x297
 621 027c 06       		.uleb128 0x6
 622 027d 68000000 		.4byte	.LASF46
 623 0281 08       		.byte	0x8
 624 0282 90       		.byte	0x90
 625 0283 1A       		.byte	0x1a
 626 0284 36020000 		.4byte	0x236
 627 0288 00       		.byte	0
ARM GAS  /tmp/cc0lvdnj.s 			page 12


 628 0289 06       		.uleb128 0x6
 629 028a F8000000 		.4byte	.LASF49
 630 028e 08       		.byte	0x8
 631 028f 91       		.byte	0x91
 632 0290 1A       		.byte	0x1a
 633 0291 36020000 		.4byte	0x236
 634 0295 04       		.byte	0x4
 635 0296 00       		.byte	0
 636 0297 04       		.uleb128 0x4
 637 0298 06050000 		.4byte	.LASF50
 638 029c 07       		.byte	0x7
 639 029d 57       		.byte	0x57
 640 029e 1E       		.byte	0x1e
 641 029f A3020000 		.4byte	0x2a3
 642 02a3 0B       		.uleb128 0xb
 643 02a4 DE000000 		.4byte	.LASF51
 644 02a8 1C       		.byte	0x1c
 645 02a9 08       		.byte	0x8
 646 02aa 6A01     		.2byte	0x16a
 647 02ac 08       		.byte	0x8
 648 02ad 06030000 		.4byte	0x306
 649 02b1 09       		.uleb128 0x9
 650 02b2 13050000 		.4byte	.LASF29
 651 02b6 08       		.byte	0x8
 652 02b7 6B01     		.2byte	0x16b
 653 02b9 19       		.byte	0x19
 654 02ba 63020000 		.4byte	0x263
 655 02be 00       		.byte	0
 656 02bf 09       		.uleb128 0x9
 657 02c0 67030000 		.4byte	.LASF30
 658 02c4 08       		.byte	0x8
 659 02c5 6C01     		.2byte	0x16c
 660 02c7 19       		.byte	0x19
 661 02c8 0E010000 		.4byte	0x10e
 662 02cc 08       		.byte	0x8
 663 02cd 08       		.uleb128 0x8
 664 02ce 63747800 		.ascii	"ctx\000"
 665 02d2 08       		.byte	0x8
 666 02d3 6E01     		.2byte	0x16e
 667 02d5 19       		.byte	0x19
 668 02d6 79040000 		.4byte	0x479
 669 02da 0C       		.byte	0xc
 670 02db 09       		.uleb128 0x9
 671 02dc 29050000 		.4byte	.LASF31
 672 02e0 08       		.byte	0x8
 673 02e1 7101     		.2byte	0x171
 674 02e3 1A       		.byte	0x1a
 675 02e4 36020000 		.4byte	0x236
 676 02e8 10       		.byte	0x10
 677 02e9 09       		.uleb128 0x9
 678 02ea 3B060000 		.4byte	.LASF32
 679 02ee 08       		.byte	0x8
 680 02ef 7201     		.2byte	0x172
 681 02f1 1A       		.byte	0x1a
 682 02f2 36020000 		.4byte	0x236
 683 02f6 14       		.byte	0x14
 684 02f7 09       		.uleb128 0x9
ARM GAS  /tmp/cc0lvdnj.s 			page 13


 685 02f8 1E060000 		.4byte	.LASF52
 686 02fc 08       		.byte	0x8
 687 02fd 7501     		.2byte	0x175
 688 02ff 1A       		.byte	0x1a
 689 0300 36020000 		.4byte	0x236
 690 0304 18       		.byte	0x18
 691 0305 00       		.byte	0
 692 0306 04       		.uleb128 0x4
 693 0307 18010000 		.4byte	.LASF53
 694 030b 07       		.byte	0x7
 695 030c 5C       		.byte	0x5c
 696 030d 10       		.byte	0x10
 697 030e 12030000 		.4byte	0x312
 698 0312 0A       		.uleb128 0xa
 699 0313 04       		.byte	0x4
 700 0314 18030000 		.4byte	0x318
 701 0318 0C       		.uleb128 0xc
 702 0319 23030000 		.4byte	0x323
 703 031d 0D       		.uleb128 0xd
 704 031e 23030000 		.4byte	0x323
 705 0322 00       		.byte	0
 706 0323 0E       		.uleb128 0xe
 707 0324 04       		.byte	0x4
 708 0325 04       		.uleb128 0x4
 709 0326 E9030000 		.4byte	.LASF54
 710 032a 07       		.byte	0x7
 711 032b 61       		.byte	0x61
 712 032c 21       		.byte	0x21
 713 032d 31030000 		.4byte	0x331
 714 0331 0B       		.uleb128 0xb
 715 0332 64020000 		.4byte	.LASF55
 716 0336 14       		.byte	0x14
 717 0337 08       		.byte	0x8
 718 0338 4501     		.2byte	0x145
 719 033a 08       		.byte	0x8
 720 033b 86030000 		.4byte	0x386
 721 033f 09       		.uleb128 0x9
 722 0340 68000000 		.4byte	.LASF46
 723 0344 08       		.byte	0x8
 724 0345 4601     		.2byte	0x146
 725 0347 1A       		.byte	0x1a
 726 0348 45060000 		.4byte	0x645
 727 034c 00       		.byte	0
 728 034d 09       		.uleb128 0x9
 729 034e F8000000 		.4byte	.LASF49
 730 0352 08       		.byte	0x8
 731 0353 4701     		.2byte	0x147
 732 0355 1A       		.byte	0x1a
 733 0356 45060000 		.4byte	0x645
 734 035a 04       		.byte	0x4
 735 035b 09       		.uleb128 0x9
 736 035c F1050000 		.4byte	.LASF56
 737 0360 08       		.byte	0x8
 738 0361 4801     		.2byte	0x148
 739 0363 19       		.byte	0x19
 740 0364 3E010000 		.4byte	0x13e
 741 0368 08       		.byte	0x8
ARM GAS  /tmp/cc0lvdnj.s 			page 14


 742 0369 09       		.uleb128 0x9
 743 036a EC000000 		.4byte	.LASF57
 744 036e 08       		.byte	0x8
 745 036f 4901     		.2byte	0x149
 746 0371 19       		.byte	0x19
 747 0372 06030000 		.4byte	0x306
 748 0376 0C       		.byte	0xc
 749 0377 08       		.uleb128 0x8
 750 0378 70617200 		.ascii	"par\000"
 751 037c 08       		.byte	0x8
 752 037d 4B01     		.2byte	0x14b
 753 037f 1A       		.byte	0x1a
 754 0380 23030000 		.4byte	0x323
 755 0384 10       		.byte	0x10
 756 0385 00       		.byte	0
 757 0386 04       		.uleb128 0x4
 758 0387 65050000 		.4byte	.LASF58
 759 038b 07       		.byte	0x7
 760 038c 66       		.byte	0x66
 761 038d 28       		.byte	0x28
 762 038e 92030000 		.4byte	0x392
 763 0392 0B       		.uleb128 0xb
 764 0393 F8020000 		.4byte	.LASF59
 765 0397 10       		.byte	0x10
 766 0398 08       		.byte	0x8
 767 0399 5501     		.2byte	0x155
 768 039b 08       		.byte	0x8
 769 039c D9030000 		.4byte	0x3d9
 770 03a0 09       		.uleb128 0x9
 771 03a1 68000000 		.4byte	.LASF46
 772 03a5 08       		.byte	0x8
 773 03a6 5601     		.2byte	0x156
 774 03a8 1A       		.byte	0x1a
 775 03a9 45060000 		.4byte	0x645
 776 03ad 00       		.byte	0
 777 03ae 09       		.uleb128 0x9
 778 03af F8000000 		.4byte	.LASF49
 779 03b3 08       		.byte	0x8
 780 03b4 5801     		.2byte	0x158
 781 03b6 1A       		.byte	0x1a
 782 03b7 45060000 		.4byte	0x645
 783 03bb 04       		.byte	0x4
 784 03bc 09       		.uleb128 0x9
 785 03bd F1050000 		.4byte	.LASF56
 786 03c1 08       		.byte	0x8
 787 03c2 5A01     		.2byte	0x15a
 788 03c4 19       		.byte	0x19
 789 03c5 3E010000 		.4byte	0x13e
 790 03c9 08       		.byte	0x8
 791 03ca 09       		.uleb128 0x9
 792 03cb 9D040000 		.4byte	.LASF60
 793 03cf 08       		.byte	0x8
 794 03d0 6201     		.2byte	0x162
 795 03d2 19       		.byte	0x19
 796 03d3 3E010000 		.4byte	0x13e
 797 03d7 0C       		.byte	0xc
 798 03d8 00       		.byte	0
ARM GAS  /tmp/cc0lvdnj.s 			page 15


 799 03d9 04       		.uleb128 0x4
 800 03da C1030000 		.4byte	.LASF61
 801 03de 07       		.byte	0x7
 802 03df 6B       		.byte	0x6b
 803 03e0 20       		.byte	0x20
 804 03e1 E5030000 		.4byte	0x3e5
 805 03e5 0B       		.uleb128 0xb
 806 03e6 21010000 		.4byte	.LASF62
 807 03ea 04       		.byte	0x4
 808 03eb 08       		.byte	0x8
 809 03ec 7C01     		.2byte	0x17c
 810 03ee 08       		.byte	0x8
 811 03ef 02040000 		.4byte	0x402
 812 03f3 09       		.uleb128 0x9
 813 03f4 06040000 		.4byte	.LASF63
 814 03f8 08       		.byte	0x8
 815 03f9 8401     		.2byte	0x184
 816 03fb 24       		.byte	0x24
 817 03fc 2E060000 		.4byte	0x62e
 818 0400 00       		.byte	0
 819 0401 00       		.byte	0
 820 0402 04       		.uleb128 0x4
 821 0403 D3050000 		.4byte	.LASF64
 822 0407 07       		.byte	0x7
 823 0408 70       		.byte	0x70
 824 0409 1A       		.byte	0x1a
 825 040a 0E040000 		.4byte	0x40e
 826 040e 0B       		.uleb128 0xb
 827 040f 93040000 		.4byte	.LASF65
 828 0413 68       		.byte	0x68
 829 0414 08       		.byte	0x8
 830 0415 9C01     		.2byte	0x19c
 831 0417 08       		.byte	0x8
 832 0418 55040000 		.4byte	0x455
 833 041c 09       		.uleb128 0x9
 834 041d AF040000 		.4byte	.LASF66
 835 0421 08       		.byte	0x8
 836 0422 A001     		.2byte	0x1a0
 837 0424 19       		.byte	0x19
 838 0425 97020000 		.4byte	0x297
 839 0429 00       		.byte	0
 840 042a 09       		.uleb128 0x9
 841 042b AD000000 		.4byte	.LASF67
 842 042f 08       		.byte	0x8
 843 0430 A401     		.2byte	0x1a4
 844 0432 19       		.byte	0x19
 845 0433 86030000 		.4byte	0x386
 846 0437 1C       		.byte	0x1c
 847 0438 08       		.uleb128 0x8
 848 0439 64626700 		.ascii	"dbg\000"
 849 043d 08       		.byte	0x8
 850 043e A801     		.2byte	0x1a8
 851 0440 19       		.byte	0x19
 852 0441 D9030000 		.4byte	0x3d9
 853 0445 2C       		.byte	0x2c
 854 0446 09       		.uleb128 0x9
 855 0447 18040000 		.4byte	.LASF68
ARM GAS  /tmp/cc0lvdnj.s 			page 16


 856 044b 08       		.byte	0x8
 857 044c AC01     		.2byte	0x1ac
 858 044e 19       		.byte	0x19
 859 044f 4A010000 		.4byte	0x14a
 860 0453 30       		.byte	0x30
 861 0454 00       		.byte	0
 862 0455 0F       		.uleb128 0xf
 863 0456 19000000 		.4byte	.LASF85
 864 045a 0B       		.byte	0xb
 865 045b 4C       		.byte	0x4c
 866 045c 11       		.byte	0x11
 867 045d D2000000 		.4byte	0xd2
 868 0461 04       		.uleb128 0x4
 869 0462 30000000 		.4byte	.LASF69
 870 0466 09       		.byte	0x9
 871 0467 65       		.byte	0x65
 872 0468 0F       		.byte	0xf
 873 0469 23030000 		.4byte	0x323
 874 046d 04       		.uleb128 0x4
 875 046e 0A060000 		.4byte	.LASF70
 876 0472 09       		.byte	0x9
 877 0473 6D       		.byte	0x6d
 878 0474 12       		.byte	0x12
 879 0475 DE000000 		.4byte	0xde
 880 0479 05       		.uleb128 0x5
 881 047a B4000000 		.4byte	.LASF71
 882 047e 04       		.byte	0x4
 883 047f 09       		.byte	0x9
 884 0480 89       		.byte	0x89
 885 0481 08       		.byte	0x8
 886 0482 93040000 		.4byte	0x493
 887 0486 07       		.uleb128 0x7
 888 0487 737000   		.ascii	"sp\000"
 889 048a 09       		.byte	0x9
 890 048b 8A       		.byte	0x8a
 891 048c 17       		.byte	0x17
 892 048d 0F050000 		.4byte	0x50f
 893 0491 00       		.byte	0
 894 0492 00       		.byte	0
 895 0493 05       		.uleb128 0x5
 896 0494 7A040000 		.4byte	.LASF72
 897 0498 24       		.byte	0x24
 898 0499 03       		.byte	0x3
 899 049a C3       		.byte	0xc3
 900 049b 08       		.byte	0x8
 901 049c 0F050000 		.4byte	0x50f
 902 04a0 07       		.uleb128 0x7
 903 04a1 723800   		.ascii	"r8\000"
 904 04a4 03       		.byte	0x3
 905 04a5 C4       		.byte	0xc4
 906 04a6 11       		.byte	0x11
 907 04a7 61040000 		.4byte	0x461
 908 04ab 00       		.byte	0
 909 04ac 07       		.uleb128 0x7
 910 04ad 723900   		.ascii	"r9\000"
 911 04b0 03       		.byte	0x3
 912 04b1 C5       		.byte	0xc5
ARM GAS  /tmp/cc0lvdnj.s 			page 17


 913 04b2 11       		.byte	0x11
 914 04b3 61040000 		.4byte	0x461
 915 04b7 04       		.byte	0x4
 916 04b8 07       		.uleb128 0x7
 917 04b9 72313000 		.ascii	"r10\000"
 918 04bd 03       		.byte	0x3
 919 04be C6       		.byte	0xc6
 920 04bf 11       		.byte	0x11
 921 04c0 61040000 		.4byte	0x461
 922 04c4 08       		.byte	0x8
 923 04c5 07       		.uleb128 0x7
 924 04c6 72313100 		.ascii	"r11\000"
 925 04ca 03       		.byte	0x3
 926 04cb C7       		.byte	0xc7
 927 04cc 11       		.byte	0x11
 928 04cd 61040000 		.4byte	0x461
 929 04d1 0C       		.byte	0xc
 930 04d2 07       		.uleb128 0x7
 931 04d3 723400   		.ascii	"r4\000"
 932 04d6 03       		.byte	0x3
 933 04d7 C8       		.byte	0xc8
 934 04d8 11       		.byte	0x11
 935 04d9 61040000 		.4byte	0x461
 936 04dd 10       		.byte	0x10
 937 04de 07       		.uleb128 0x7
 938 04df 723500   		.ascii	"r5\000"
 939 04e2 03       		.byte	0x3
 940 04e3 C9       		.byte	0xc9
 941 04e4 11       		.byte	0x11
 942 04e5 61040000 		.4byte	0x461
 943 04e9 14       		.byte	0x14
 944 04ea 07       		.uleb128 0x7
 945 04eb 723600   		.ascii	"r6\000"
 946 04ee 03       		.byte	0x3
 947 04ef CA       		.byte	0xca
 948 04f0 11       		.byte	0x11
 949 04f1 61040000 		.4byte	0x461
 950 04f5 18       		.byte	0x18
 951 04f6 07       		.uleb128 0x7
 952 04f7 723700   		.ascii	"r7\000"
 953 04fa 03       		.byte	0x3
 954 04fb CB       		.byte	0xcb
 955 04fc 11       		.byte	0x11
 956 04fd 61040000 		.4byte	0x461
 957 0501 1C       		.byte	0x1c
 958 0502 07       		.uleb128 0x7
 959 0503 6C7200   		.ascii	"lr\000"
 960 0506 03       		.byte	0x3
 961 0507 CC       		.byte	0xcc
 962 0508 11       		.byte	0x11
 963 0509 61040000 		.4byte	0x461
 964 050d 20       		.byte	0x20
 965 050e 00       		.byte	0
 966 050f 0A       		.uleb128 0xa
 967 0510 04       		.byte	0x4
 968 0511 93040000 		.4byte	0x493
 969 0515 05       		.uleb128 0x5
ARM GAS  /tmp/cc0lvdnj.s 			page 18


 970 0516 BF040000 		.4byte	.LASF73
 971 051a 20       		.byte	0x20
 972 051b 03       		.byte	0x3
 973 051c B8       		.byte	0xb8
 974 051d 08       		.byte	0x8
 975 051e 86050000 		.4byte	0x586
 976 0522 07       		.uleb128 0x7
 977 0523 723000   		.ascii	"r0\000"
 978 0526 03       		.byte	0x3
 979 0527 B9       		.byte	0xb9
 980 0528 11       		.byte	0x11
 981 0529 61040000 		.4byte	0x461
 982 052d 00       		.byte	0
 983 052e 07       		.uleb128 0x7
 984 052f 723100   		.ascii	"r1\000"
 985 0532 03       		.byte	0x3
 986 0533 BA       		.byte	0xba
 987 0534 11       		.byte	0x11
 988 0535 61040000 		.4byte	0x461
 989 0539 04       		.byte	0x4
 990 053a 07       		.uleb128 0x7
 991 053b 723200   		.ascii	"r2\000"
 992 053e 03       		.byte	0x3
 993 053f BB       		.byte	0xbb
 994 0540 11       		.byte	0x11
 995 0541 61040000 		.4byte	0x461
 996 0545 08       		.byte	0x8
 997 0546 07       		.uleb128 0x7
 998 0547 723300   		.ascii	"r3\000"
 999 054a 03       		.byte	0x3
 1000 054b BC       		.byte	0xbc
 1001 054c 11       		.byte	0x11
 1002 054d 61040000 		.4byte	0x461
 1003 0551 0C       		.byte	0xc
 1004 0552 07       		.uleb128 0x7
 1005 0553 72313200 		.ascii	"r12\000"
 1006 0557 03       		.byte	0x3
 1007 0558 BD       		.byte	0xbd
 1008 0559 11       		.byte	0x11
 1009 055a 61040000 		.4byte	0x461
 1010 055e 10       		.byte	0x10
 1011 055f 06       		.uleb128 0x6
 1012 0560 CC050000 		.4byte	.LASF74
 1013 0564 03       		.byte	0x3
 1014 0565 BE       		.byte	0xbe
 1015 0566 11       		.byte	0x11
 1016 0567 61040000 		.4byte	0x461
 1017 056b 14       		.byte	0x14
 1018 056c 07       		.uleb128 0x7
 1019 056d 706300   		.ascii	"pc\000"
 1020 0570 03       		.byte	0x3
 1021 0571 BF       		.byte	0xbf
 1022 0572 11       		.byte	0x11
 1023 0573 61040000 		.4byte	0x461
 1024 0577 18       		.byte	0x18
 1025 0578 06       		.uleb128 0x6
 1026 0579 E7040000 		.4byte	.LASF75
ARM GAS  /tmp/cc0lvdnj.s 			page 19


 1027 057d 03       		.byte	0x3
 1028 057e C0       		.byte	0xc0
 1029 057f 11       		.byte	0x11
 1030 0580 61040000 		.4byte	0x461
 1031 0584 1C       		.byte	0x1c
 1032 0585 00       		.byte	0
 1033 0586 10       		.uleb128 0x10
 1034 0587 04       		.byte	0x4
 1035 0588 08       		.byte	0x8
 1036 0589 D2       		.byte	0xd2
 1037 058a 03       		.byte	0x3
 1038 058b DA050000 		.4byte	0x5da
 1039 058f 11       		.uleb128 0x11
 1040 0590 2C030000 		.4byte	.LASF76
 1041 0594 08       		.byte	0x8
 1042 0595 D9       		.byte	0xd9
 1043 0596 19       		.byte	0x19
 1044 0597 1A010000 		.4byte	0x11a
 1045 059b 11       		.uleb128 0x11
 1046 059c 41060000 		.4byte	.LASF77
 1047 05a0 08       		.byte	0x8
 1048 05a1 E0       		.byte	0xe0
 1049 05a2 19       		.byte	0x19
 1050 05a3 1A010000 		.4byte	0x11a
 1051 05a7 11       		.uleb128 0x11
 1052 05a8 9C000000 		.4byte	.LASF78
 1053 05ac 08       		.byte	0x8
 1054 05ad E7       		.byte	0xe7
 1055 05ae 1A       		.byte	0x1a
 1056 05af 23030000 		.4byte	0x323
 1057 05b3 11       		.uleb128 0x11
 1058 05b4 DF050000 		.4byte	.LASF79
 1059 05b8 08       		.byte	0x8
 1060 05b9 EE       		.byte	0xee
 1061 05ba 1A       		.byte	0x1a
 1062 05bb DA050000 		.4byte	0x5da
 1063 05bf 12       		.uleb128 0x12
 1064 05c0 29000000 		.4byte	.LASF80
 1065 05c4 08       		.byte	0x8
 1066 05c5 0501     		.2byte	0x105
 1067 05c7 1A       		.byte	0x1a
 1068 05c8 22060000 		.4byte	0x622
 1069 05cc 12       		.uleb128 0x12
 1070 05cd F1000000 		.4byte	.LASF81
 1071 05d1 08       		.byte	0x8
 1072 05d2 0D01     		.2byte	0x10d
 1073 05d4 19       		.byte	0x19
 1074 05d5 26010000 		.4byte	0x126
 1075 05d9 00       		.byte	0
 1076 05da 0A       		.uleb128 0xa
 1077 05db 04       		.byte	0x4
 1078 05dc 2A020000 		.4byte	0x22a
 1079 05e0 05       		.uleb128 0x5
 1080 05e1 41030000 		.4byte	.LASF82
 1081 05e5 14       		.byte	0x14
 1082 05e6 0A       		.byte	0xa
 1083 05e7 39       		.byte	0x39
ARM GAS  /tmp/cc0lvdnj.s 			page 20


 1084 05e8 08       		.byte	0x8
 1085 05e9 22060000 		.4byte	0x622
 1086 05ed 06       		.uleb128 0x6
 1087 05ee 13050000 		.4byte	.LASF29
 1088 05f2 0A       		.byte	0xa
 1089 05f3 3A       		.byte	0x3a
 1090 05f4 19       		.byte	0x19
 1091 05f5 63020000 		.4byte	0x263
 1092 05f9 00       		.byte	0
 1093 05fa 06       		.uleb128 0x6
 1094 05fb CB020000 		.4byte	.LASF83
 1095 05ff 0A       		.byte	0xa
 1096 0600 3C       		.byte	0x3c
 1097 0601 1A       		.byte	0x1a
 1098 0602 36020000 		.4byte	0x236
 1099 0606 08       		.byte	0x8
 1100 0607 06       		.uleb128 0x6
 1101 0608 68000000 		.4byte	.LASF46
 1102 060c 0A       		.byte	0xa
 1103 060d 3E       		.byte	0x3e
 1104 060e 1A       		.byte	0x1a
 1105 060f 9C070000 		.4byte	0x79c
 1106 0613 0C       		.byte	0xc
 1107 0614 07       		.uleb128 0x7
 1108 0615 636E7400 		.ascii	"cnt\000"
 1109 0619 0A       		.byte	0xa
 1110 061a 41       		.byte	0x41
 1111 061b 19       		.byte	0x19
 1112 061c 32010000 		.4byte	0x132
 1113 0620 10       		.byte	0x10
 1114 0621 00       		.byte	0
 1115 0622 0A       		.uleb128 0xa
 1116 0623 04       		.byte	0x4
 1117 0624 E0050000 		.4byte	0x5e0
 1118 0628 0A       		.uleb128 0xa
 1119 0629 04       		.byte	0x4
 1120 062a 3A060000 		.4byte	0x63a
 1121 062e 13       		.uleb128 0x13
 1122 062f 28060000 		.4byte	0x628
 1123 0633 03       		.uleb128 0x3
 1124 0634 01       		.byte	0x1
 1125 0635 08       		.byte	0x8
 1126 0636 6C030000 		.4byte	.LASF84
 1127 063a 14       		.uleb128 0x14
 1128 063b 33060000 		.4byte	0x633
 1129 063f 0A       		.uleb128 0xa
 1130 0640 04       		.byte	0x4
 1131 0641 6D040000 		.4byte	0x46d
 1132 0645 0A       		.uleb128 0xa
 1133 0646 04       		.byte	0x4
 1134 0647 25030000 		.4byte	0x325
 1135 064b 15       		.uleb128 0x15
 1136 064c 636800   		.ascii	"ch\000"
 1137 064f 08       		.byte	0x8
 1138 0650 D201     		.2byte	0x1d2
 1139 0652 14       		.byte	0x14
 1140 0653 02040000 		.4byte	0x402
ARM GAS  /tmp/cc0lvdnj.s 			page 21


 1141 0657 16       		.uleb128 0x16
 1142 0658 6D040000 		.4byte	0x46d
 1143 065c 62060000 		.4byte	0x662
 1144 0660 17       		.uleb128 0x17
 1145 0661 00       		.byte	0
 1146 0662 18       		.uleb128 0x18
 1147 0663 8B030000 		.4byte	.LASF86
 1148 0667 0C       		.byte	0xc
 1149 0668 2B01     		.2byte	0x12b
 1150 066a 13       		.byte	0x13
 1151 066b 57060000 		.4byte	0x657
 1152 066f 19       		.uleb128 0x19
 1153 0670 16       		.byte	0x16
 1154 0671 0D       		.byte	0xd
 1155 0672 34       		.byte	0x34
 1156 0673 09       		.byte	0x9
 1157 0674 63070000 		.4byte	0x763
 1158 0678 06       		.uleb128 0x6
 1159 0679 D0040000 		.4byte	.LASF87
 1160 067d 0D       		.byte	0xd
 1161 067e 35       		.byte	0x35
 1162 067f 0D       		.byte	0xd
 1163 0680 63070000 		.4byte	0x763
 1164 0684 00       		.byte	0
 1165 0685 06       		.uleb128 0x6
 1166 0686 DE030000 		.4byte	.LASF88
 1167 068a 0D       		.byte	0xd
 1168 068b 36       		.byte	0x36
 1169 068c 0D       		.byte	0xd
 1170 068d AE000000 		.4byte	0xae
 1171 0691 04       		.byte	0x4
 1172 0692 06       		.uleb128 0x6
 1173 0693 F9030000 		.4byte	.LASF89
 1174 0697 0D       		.byte	0xd
 1175 0698 37       		.byte	0x37
 1176 0699 0D       		.byte	0xd
 1177 069a AE000000 		.4byte	0xae
 1178 069e 05       		.byte	0x5
 1179 069f 06       		.uleb128 0x6
 1180 06a0 6D000000 		.4byte	.LASF90
 1181 06a4 0D       		.byte	0xd
 1182 06a5 38       		.byte	0x38
 1183 06a6 0D       		.byte	0xd
 1184 06a7 BA000000 		.4byte	0xba
 1185 06ab 06       		.byte	0x6
 1186 06ac 06       		.uleb128 0x6
 1187 06ad FE030000 		.4byte	.LASF91
 1188 06b1 0D       		.byte	0xd
 1189 06b2 39       		.byte	0x39
 1190 06b3 0D       		.byte	0xd
 1191 06b4 AE000000 		.4byte	0xae
 1192 06b8 08       		.byte	0x8
 1193 06b9 06       		.uleb128 0x6
 1194 06ba 10000000 		.4byte	.LASF92
 1195 06be 0D       		.byte	0xd
 1196 06bf 3A       		.byte	0x3a
 1197 06c0 0D       		.byte	0xd
ARM GAS  /tmp/cc0lvdnj.s 			page 22


 1198 06c1 AE000000 		.4byte	0xae
 1199 06c5 09       		.byte	0x9
 1200 06c6 06       		.uleb128 0x6
 1201 06c7 46010000 		.4byte	.LASF93
 1202 06cb 0D       		.byte	0xd
 1203 06cc 3B       		.byte	0x3b
 1204 06cd 0D       		.byte	0xd
 1205 06ce AE000000 		.4byte	0xae
 1206 06d2 0A       		.byte	0xa
 1207 06d3 06       		.uleb128 0x6
 1208 06d4 42040000 		.4byte	.LASF94
 1209 06d8 0D       		.byte	0xd
 1210 06d9 3C       		.byte	0x3c
 1211 06da 0D       		.byte	0xd
 1212 06db AE000000 		.4byte	0xae
 1213 06df 0B       		.byte	0xb
 1214 06e0 06       		.uleb128 0x6
 1215 06e1 55030000 		.4byte	.LASF95
 1216 06e5 0D       		.byte	0xd
 1217 06e6 3D       		.byte	0x3d
 1218 06e7 0D       		.byte	0xd
 1219 06e8 AE000000 		.4byte	0xae
 1220 06ec 0C       		.byte	0xc
 1221 06ed 06       		.uleb128 0x6
 1222 06ee 0E010000 		.4byte	.LASF96
 1223 06f2 0D       		.byte	0xd
 1224 06f3 3E       		.byte	0x3e
 1225 06f4 0D       		.byte	0xd
 1226 06f5 AE000000 		.4byte	0xae
 1227 06f9 0D       		.byte	0xd
 1228 06fa 06       		.uleb128 0x6
 1229 06fb 18030000 		.4byte	.LASF97
 1230 06ff 0D       		.byte	0xd
 1231 0700 3F       		.byte	0x3f
 1232 0701 0D       		.byte	0xd
 1233 0702 AE000000 		.4byte	0xae
 1234 0706 0E       		.byte	0xe
 1235 0707 06       		.uleb128 0x6
 1236 0708 B8030000 		.4byte	.LASF98
 1237 070c 0D       		.byte	0xd
 1238 070d 40       		.byte	0x40
 1239 070e 0D       		.byte	0xd
 1240 070f AE000000 		.4byte	0xae
 1241 0713 0F       		.byte	0xf
 1242 0714 06       		.uleb128 0x6
 1243 0715 BE020000 		.4byte	.LASF99
 1244 0719 0D       		.byte	0xd
 1245 071a 41       		.byte	0x41
 1246 071b 0D       		.byte	0xd
 1247 071c AE000000 		.4byte	0xae
 1248 0720 10       		.byte	0x10
 1249 0721 06       		.uleb128 0x6
 1250 0722 22030000 		.4byte	.LASF100
 1251 0726 0D       		.byte	0xd
 1252 0727 42       		.byte	0x42
 1253 0728 0D       		.byte	0xd
 1254 0729 AE000000 		.4byte	0xae
ARM GAS  /tmp/cc0lvdnj.s 			page 23


 1255 072d 11       		.byte	0x11
 1256 072e 06       		.uleb128 0x6
 1257 072f 5D030000 		.4byte	.LASF101
 1258 0733 0D       		.byte	0xd
 1259 0734 43       		.byte	0x43
 1260 0735 0D       		.byte	0xd
 1261 0736 AE000000 		.4byte	0xae
 1262 073a 12       		.byte	0x12
 1263 073b 06       		.uleb128 0x6
 1264 073c 15060000 		.4byte	.LASF102
 1265 0740 0D       		.byte	0xd
 1266 0741 44       		.byte	0x44
 1267 0742 0D       		.byte	0xd
 1268 0743 AE000000 		.4byte	0xae
 1269 0747 13       		.byte	0x13
 1270 0748 06       		.uleb128 0x6
 1271 0749 DB040000 		.4byte	.LASF103
 1272 074d 0D       		.byte	0xd
 1273 074e 45       		.byte	0x45
 1274 074f 0D       		.byte	0xd
 1275 0750 AE000000 		.4byte	0xae
 1276 0754 14       		.byte	0x14
 1277 0755 06       		.uleb128 0x6
 1278 0756 93000000 		.4byte	.LASF104
 1279 075a 0D       		.byte	0xd
 1280 075b 46       		.byte	0x46
 1281 075c 0D       		.byte	0xd
 1282 075d AE000000 		.4byte	0xae
 1283 0761 15       		.byte	0x15
 1284 0762 00       		.byte	0
 1285 0763 16       		.uleb128 0x16
 1286 0764 33060000 		.4byte	0x633
 1287 0768 73070000 		.4byte	0x773
 1288 076c 1A       		.uleb128 0x1a
 1289 076d 2C000000 		.4byte	0x2c
 1290 0771 03       		.byte	0x3
 1291 0772 00       		.byte	0
 1292 0773 04       		.uleb128 0x4
 1293 0774 38040000 		.4byte	.LASF105
 1294 0778 0D       		.byte	0xd
 1295 0779 47       		.byte	0x47
 1296 077a 03       		.byte	0x3
 1297 077b 6F060000 		.4byte	0x66f
 1298 077f 14       		.uleb128 0x14
 1299 0780 73070000 		.4byte	0x773
 1300 0784 0F       		.uleb128 0xf
 1301 0785 26060000 		.4byte	.LASF106
 1302 0789 0D       		.byte	0xd
 1303 078a 6C       		.byte	0x6c
 1304 078b 1D       		.byte	0x1d
 1305 078c 7F070000 		.4byte	0x77f
 1306 0790 04       		.uleb128 0x4
 1307 0791 21050000 		.4byte	.LASF107
 1308 0795 0A       		.byte	0xa
 1309 0796 34       		.byte	0x34
 1310 0797 19       		.byte	0x19
 1311 0798 E0050000 		.4byte	0x5e0
ARM GAS  /tmp/cc0lvdnj.s 			page 24


 1312 079c 0A       		.uleb128 0xa
 1313 079d 04       		.byte	0x4
 1314 079e 90070000 		.4byte	0x790
 1315 07a2 1B       		.uleb128 0x1b
 1316 07a3 A7050000 		.4byte	.LASF109
 1317 07a7 01       		.byte	0x1
 1318 07a8 6E       		.byte	0x6e
 1319 07a9 06       		.byte	0x6
 1320 07aa 00000000 		.4byte	.LFB122
 1321 07ae 38000000 		.4byte	.LFE122-.LFB122
 1322 07b2 01       		.uleb128 0x1
 1323 07b3 9C       		.byte	0x9c
 1324 07b4 82080000 		.4byte	0x882
 1325 07b8 1C       		.uleb128 0x1c
 1326 07b9 6C7200   		.ascii	"lr\000"
 1327 07bc 01       		.byte	0x1
 1328 07bd 6E       		.byte	0x6e
 1329 07be 22       		.byte	0x22
 1330 07bf 61040000 		.4byte	0x461
 1331 07c3 02000000 		.4byte	.LLST3
 1332 07c7 00000000 		.4byte	.LVUS3
 1333 07cb 1D       		.uleb128 0x1d
 1334 07cc 50000000 		.4byte	.Ldebug_ranges0+0x50
 1335 07d0 1E       		.uleb128 0x1e
 1336 07d1 6C040000 		.4byte	.LASF108
 1337 07d5 01       		.byte	0x1
 1338 07d6 71       		.byte	0x71
 1339 07d7 19       		.byte	0x19
 1340 07d8 82080000 		.4byte	0x882
 1341 07dc 1D000000 		.4byte	.LLST4
 1342 07e0 15000000 		.4byte	.LVUS4
 1343 07e4 1F       		.uleb128 0x1f
 1344 07e5 44090000 		.4byte	0x944
 1345 07e9 08000000 		.4byte	.LBI58
 1346 07ed 02       		.byte	.LVU30
 1347 07ee 78000000 		.4byte	.Ldebug_ranges0+0x78
 1348 07f2 01       		.byte	0x1
 1349 07f3 73       		.byte	0x73
 1350 07f4 05       		.byte	0x5
 1351 07f5 23080000 		.4byte	0x823
 1352 07f9 20       		.uleb128 0x20
 1353 07fa 58090000 		.4byte	0x958
 1354 07fe 08000000 		.4byte	.LBI59
 1355 0802 04       		.byte	.LVU32
 1356 0803 80000000 		.4byte	.Ldebug_ranges0+0x80
 1357 0807 03       		.byte	0x3
 1358 0808 8801     		.2byte	0x188
 1359 080a 03       		.byte	0x3
 1360 080b 21       		.uleb128 0x21
 1361 080c 9E090000 		.4byte	0x99e
 1362 0810 08000000 		.4byte	.LBI60
 1363 0814 06       		.byte	.LVU34
 1364 0815 08000000 		.4byte	.LBB60
 1365 0819 02000000 		.4byte	.LBE60-.LBB60
 1366 081d 03       		.byte	0x3
 1367 081e 7501     		.2byte	0x175
 1368 0820 03       		.byte	0x3
ARM GAS  /tmp/cc0lvdnj.s 			page 25


 1369 0821 00       		.byte	0
 1370 0822 00       		.byte	0
 1371 0823 22       		.uleb128 0x22
 1372 0824 7E090000 		.4byte	0x97e
 1373 0828 0A000000 		.4byte	.LBI65
 1374 082c 01       		.byte	.LVU37
 1375 082d 0A000000 		.4byte	.LBB65
 1376 0831 04000000 		.4byte	.LBE65-.LBB65
 1377 0835 01       		.byte	0x1
 1378 0836 76       		.byte	0x76
 1379 0837 22       		.byte	0x22
 1380 0838 54080000 		.4byte	0x854
 1381 083c 23       		.uleb128 0x23
 1382 083d 0A000000 		.4byte	.LBB66
 1383 0841 04000000 		.4byte	.LBE66-.LBB66
 1384 0845 24       		.uleb128 0x24
 1385 0846 90090000 		.4byte	0x990
 1386 084a 55000000 		.4byte	.LLST5
 1387 084e 53000000 		.4byte	.LVUS5
 1388 0852 00       		.byte	0
 1389 0853 00       		.byte	0
 1390 0854 1F       		.uleb128 0x1f
 1391 0855 62090000 		.4byte	0x962
 1392 0859 0E000000 		.4byte	.LBI67
 1393 085d 04       		.byte	.LVU44
 1394 085e 98000000 		.4byte	.Ldebug_ranges0+0x98
 1395 0862 01       		.byte	0x1
 1396 0863 7D       		.byte	0x7d
 1397 0864 05       		.byte	0x5
 1398 0865 77080000 		.4byte	0x877
 1399 0869 25       		.uleb128 0x25
 1400 086a 70090000 		.4byte	0x970
 1401 086e 6C000000 		.4byte	.LLST6
 1402 0872 68000000 		.4byte	.LVUS6
 1403 0876 00       		.byte	0
 1404 0877 26       		.uleb128 0x26
 1405 0878 1E000000 		.4byte	.LVL8
 1406 087c B2090000 		.4byte	0x9b2
 1407 0880 00       		.byte	0
 1408 0881 00       		.byte	0
 1409 0882 0A       		.uleb128 0xa
 1410 0883 04       		.byte	0x4
 1411 0884 15050000 		.4byte	0x515
 1412 0888 1B       		.uleb128 0x1b
 1413 0889 BA050000 		.4byte	.LASF110
 1414 088d 01       		.byte	0x1
 1415 088e 3D       		.byte	0x3d
 1416 088f 06       		.byte	0x6
 1417 0890 00000000 		.4byte	.LFB121
 1418 0894 14000000 		.4byte	.LFE121-.LFB121
 1419 0898 01       		.uleb128 0x1
 1420 0899 9C       		.byte	0x9c
 1421 089a 3A090000 		.4byte	0x93a
 1422 089e 1E       		.uleb128 0x1e
 1423 089f 6C040000 		.4byte	.LASF108
 1424 08a3 01       		.byte	0x1
 1425 08a4 41       		.byte	0x41
ARM GAS  /tmp/cc0lvdnj.s 			page 26


 1426 08a5 17       		.byte	0x17
 1427 08a6 82080000 		.4byte	0x882
 1428 08aa 92000000 		.4byte	.LLST0
 1429 08ae 8C000000 		.4byte	.LVUS0
 1430 08b2 1F       		.uleb128 0x1f
 1431 08b3 7E090000 		.4byte	0x97e
 1432 08b7 00000000 		.4byte	.LBI42
 1433 08bb 02       		.byte	.LVU2
 1434 08bc 00000000 		.4byte	.Ldebug_ranges0+0
 1435 08c0 01       		.byte	0x1
 1436 08c1 41       		.byte	0x41
 1437 08c2 34       		.byte	0x34
 1438 08c3 DB080000 		.4byte	0x8db
 1439 08c7 1D       		.uleb128 0x1d
 1440 08c8 00000000 		.4byte	.Ldebug_ranges0+0
 1441 08cc 24       		.uleb128 0x24
 1442 08cd 90090000 		.4byte	0x990
 1443 08d1 BF000000 		.4byte	.LLST1
 1444 08d5 BD000000 		.4byte	.LVUS1
 1445 08d9 00       		.byte	0
 1446 08da 00       		.byte	0
 1447 08db 1F       		.uleb128 0x1f
 1448 08dc 62090000 		.4byte	0x962
 1449 08e0 08000000 		.4byte	.LBI46
 1450 08e4 04       		.byte	.LVU11
 1451 08e5 18000000 		.4byte	.Ldebug_ranges0+0x18
 1452 08e9 01       		.byte	0x1
 1453 08ea 48       		.byte	0x48
 1454 08eb 03       		.byte	0x3
 1455 08ec FE080000 		.4byte	0x8fe
 1456 08f0 25       		.uleb128 0x25
 1457 08f1 70090000 		.4byte	0x970
 1458 08f5 D6000000 		.4byte	.LLST2
 1459 08f9 D2000000 		.4byte	.LVUS2
 1460 08fd 00       		.byte	0
 1461 08fe 27       		.uleb128 0x27
 1462 08ff 3A090000 		.4byte	0x93a
 1463 0903 0E000000 		.4byte	.LBI50
 1464 0907 02       		.byte	.LVU17
 1465 0908 30000000 		.4byte	.Ldebug_ranges0+0x30
 1466 090c 01       		.byte	0x1
 1467 090d 4B       		.byte	0x4b
 1468 090e 03       		.byte	0x3
 1469 090f 20       		.uleb128 0x20
 1470 0910 4E090000 		.4byte	0x94e
 1471 0914 0E000000 		.4byte	.LBI51
 1472 0918 04       		.byte	.LVU19
 1473 0919 38000000 		.4byte	.Ldebug_ranges0+0x38
 1474 091d 03       		.byte	0x3
 1475 091e 9201     		.2byte	0x192
 1476 0920 03       		.byte	0x3
 1477 0921 21       		.uleb128 0x21
 1478 0922 A8090000 		.4byte	0x9a8
 1479 0926 0E000000 		.4byte	.LBI52
 1480 092a 06       		.byte	.LVU21
 1481 092b 0E000000 		.4byte	.LBB52
 1482 092f 02000000 		.4byte	.LBE52-.LBB52
ARM GAS  /tmp/cc0lvdnj.s 			page 27


 1483 0933 03       		.byte	0x3
 1484 0934 7E01     		.2byte	0x17e
 1485 0936 03       		.byte	0x3
 1486 0937 00       		.byte	0
 1487 0938 00       		.byte	0
 1488 0939 00       		.byte	0
 1489 093a 28       		.uleb128 0x28
 1490 093b 2F050000 		.4byte	.LASF111
 1491 093f 03       		.byte	0x3
 1492 0940 9001     		.2byte	0x190
 1493 0942 14       		.byte	0x14
 1494 0943 03       		.byte	0x3
 1495 0944 28       		.uleb128 0x28
 1496 0945 C1000000 		.4byte	.LASF112
 1497 0949 03       		.byte	0x3
 1498 094a 8601     		.2byte	0x186
 1499 094c 14       		.byte	0x14
 1500 094d 03       		.byte	0x3
 1501 094e 28       		.uleb128 0x28
 1502 094f 2F060000 		.4byte	.LASF113
 1503 0953 03       		.byte	0x3
 1504 0954 7C01     		.2byte	0x17c
 1505 0956 14       		.byte	0x14
 1506 0957 03       		.byte	0x3
 1507 0958 28       		.uleb128 0x28
 1508 0959 A3000000 		.4byte	.LASF114
 1509 095d 03       		.byte	0x3
 1510 095e 7301     		.2byte	0x173
 1511 0960 14       		.byte	0x14
 1512 0961 03       		.byte	0x3
 1513 0962 29       		.uleb128 0x29
 1514 0963 4B040000 		.4byte	.LASF120
 1515 0967 02       		.byte	0x2
 1516 0968 B901     		.2byte	0x1b9
 1517 096a 39       		.byte	0x39
 1518 096b 03       		.byte	0x3
 1519 096c 7E090000 		.4byte	0x97e
 1520 0970 2A       		.uleb128 0x2a
 1521 0971 E1020000 		.4byte	.LASF121
 1522 0975 02       		.byte	0x2
 1523 0976 B901     		.2byte	0x1b9
 1524 0978 4C       		.byte	0x4c
 1525 0979 D2000000 		.4byte	0xd2
 1526 097d 00       		.byte	0
 1527 097e 2B       		.uleb128 0x2b
 1528 097f 4A060000 		.4byte	.LASF122
 1529 0983 02       		.byte	0x2
 1530 0984 AA01     		.2byte	0x1aa
 1531 0986 3D       		.byte	0x3d
 1532 0987 D2000000 		.4byte	0xd2
 1533 098b 03       		.byte	0x3
 1534 098c 9E090000 		.4byte	0x99e
 1535 0990 2C       		.uleb128 0x2c
 1536 0991 75020000 		.4byte	.LASF123
 1537 0995 02       		.byte	0x2
 1538 0996 AC01     		.2byte	0x1ac
 1539 0998 15       		.byte	0x15
ARM GAS  /tmp/cc0lvdnj.s 			page 28


 1540 0999 D2000000 		.4byte	0xd2
 1541 099d 00       		.byte	0
 1542 099e 28       		.uleb128 0x28
 1543 099f 33030000 		.4byte	.LASF115
 1544 09a3 02       		.byte	0x2
 1545 09a4 5601     		.2byte	0x156
 1546 09a6 39       		.byte	0x39
 1547 09a7 03       		.byte	0x3
 1548 09a8 28       		.uleb128 0x28
 1549 09a9 86040000 		.4byte	.LASF116
 1550 09ad 02       		.byte	0x2
 1551 09ae 4B01     		.2byte	0x14b
 1552 09b0 39       		.byte	0x39
 1553 09b1 03       		.byte	0x3
 1554 09b2 2D       		.uleb128 0x2d
 1555 09b3 93020000 		.4byte	.LASF124
 1556 09b7 93020000 		.4byte	.LASF124
 1557 09bb 08       		.byte	0x8
 1558 09bc E201     		.2byte	0x1e2
 1559 09be 08       		.byte	0x8
 1560 09bf 00       		.byte	0
 1561              		.section	.debug_abbrev,"",%progbits
 1562              	.Ldebug_abbrev0:
 1563 0000 01       		.uleb128 0x1
 1564 0001 11       		.uleb128 0x11
 1565 0002 01       		.byte	0x1
 1566 0003 25       		.uleb128 0x25
 1567 0004 0E       		.uleb128 0xe
 1568 0005 13       		.uleb128 0x13
 1569 0006 0B       		.uleb128 0xb
 1570 0007 03       		.uleb128 0x3
 1571 0008 0E       		.uleb128 0xe
 1572 0009 1B       		.uleb128 0x1b
 1573 000a 0E       		.uleb128 0xe
 1574 000b 55       		.uleb128 0x55
 1575 000c 17       		.uleb128 0x17
 1576 000d 11       		.uleb128 0x11
 1577 000e 01       		.uleb128 0x1
 1578 000f 10       		.uleb128 0x10
 1579 0010 17       		.uleb128 0x17
 1580 0011 00       		.byte	0
 1581 0012 00       		.byte	0
 1582 0013 02       		.uleb128 0x2
 1583 0014 24       		.uleb128 0x24
 1584 0015 00       		.byte	0
 1585 0016 0B       		.uleb128 0xb
 1586 0017 0B       		.uleb128 0xb
 1587 0018 3E       		.uleb128 0x3e
 1588 0019 0B       		.uleb128 0xb
 1589 001a 03       		.uleb128 0x3
 1590 001b 08       		.uleb128 0x8
 1591 001c 00       		.byte	0
 1592 001d 00       		.byte	0
 1593 001e 03       		.uleb128 0x3
 1594 001f 24       		.uleb128 0x24
 1595 0020 00       		.byte	0
 1596 0021 0B       		.uleb128 0xb
ARM GAS  /tmp/cc0lvdnj.s 			page 29


 1597 0022 0B       		.uleb128 0xb
 1598 0023 3E       		.uleb128 0x3e
 1599 0024 0B       		.uleb128 0xb
 1600 0025 03       		.uleb128 0x3
 1601 0026 0E       		.uleb128 0xe
 1602 0027 00       		.byte	0
 1603 0028 00       		.byte	0
 1604 0029 04       		.uleb128 0x4
 1605 002a 16       		.uleb128 0x16
 1606 002b 00       		.byte	0
 1607 002c 03       		.uleb128 0x3
 1608 002d 0E       		.uleb128 0xe
 1609 002e 3A       		.uleb128 0x3a
 1610 002f 0B       		.uleb128 0xb
 1611 0030 3B       		.uleb128 0x3b
 1612 0031 0B       		.uleb128 0xb
 1613 0032 39       		.uleb128 0x39
 1614 0033 0B       		.uleb128 0xb
 1615 0034 49       		.uleb128 0x49
 1616 0035 13       		.uleb128 0x13
 1617 0036 00       		.byte	0
 1618 0037 00       		.byte	0
 1619 0038 05       		.uleb128 0x5
 1620 0039 13       		.uleb128 0x13
 1621 003a 01       		.byte	0x1
 1622 003b 03       		.uleb128 0x3
 1623 003c 0E       		.uleb128 0xe
 1624 003d 0B       		.uleb128 0xb
 1625 003e 0B       		.uleb128 0xb
 1626 003f 3A       		.uleb128 0x3a
 1627 0040 0B       		.uleb128 0xb
 1628 0041 3B       		.uleb128 0x3b
 1629 0042 0B       		.uleb128 0xb
 1630 0043 39       		.uleb128 0x39
 1631 0044 0B       		.uleb128 0xb
 1632 0045 01       		.uleb128 0x1
 1633 0046 13       		.uleb128 0x13
 1634 0047 00       		.byte	0
 1635 0048 00       		.byte	0
 1636 0049 06       		.uleb128 0x6
 1637 004a 0D       		.uleb128 0xd
 1638 004b 00       		.byte	0
 1639 004c 03       		.uleb128 0x3
 1640 004d 0E       		.uleb128 0xe
 1641 004e 3A       		.uleb128 0x3a
 1642 004f 0B       		.uleb128 0xb
 1643 0050 3B       		.uleb128 0x3b
 1644 0051 0B       		.uleb128 0xb
 1645 0052 39       		.uleb128 0x39
 1646 0053 0B       		.uleb128 0xb
 1647 0054 49       		.uleb128 0x49
 1648 0055 13       		.uleb128 0x13
 1649 0056 38       		.uleb128 0x38
 1650 0057 0B       		.uleb128 0xb
 1651 0058 00       		.byte	0
 1652 0059 00       		.byte	0
 1653 005a 07       		.uleb128 0x7
ARM GAS  /tmp/cc0lvdnj.s 			page 30


 1654 005b 0D       		.uleb128 0xd
 1655 005c 00       		.byte	0
 1656 005d 03       		.uleb128 0x3
 1657 005e 08       		.uleb128 0x8
 1658 005f 3A       		.uleb128 0x3a
 1659 0060 0B       		.uleb128 0xb
 1660 0061 3B       		.uleb128 0x3b
 1661 0062 0B       		.uleb128 0xb
 1662 0063 39       		.uleb128 0x39
 1663 0064 0B       		.uleb128 0xb
 1664 0065 49       		.uleb128 0x49
 1665 0066 13       		.uleb128 0x13
 1666 0067 38       		.uleb128 0x38
 1667 0068 0B       		.uleb128 0xb
 1668 0069 00       		.byte	0
 1669 006a 00       		.byte	0
 1670 006b 08       		.uleb128 0x8
 1671 006c 0D       		.uleb128 0xd
 1672 006d 00       		.byte	0
 1673 006e 03       		.uleb128 0x3
 1674 006f 08       		.uleb128 0x8
 1675 0070 3A       		.uleb128 0x3a
 1676 0071 0B       		.uleb128 0xb
 1677 0072 3B       		.uleb128 0x3b
 1678 0073 05       		.uleb128 0x5
 1679 0074 39       		.uleb128 0x39
 1680 0075 0B       		.uleb128 0xb
 1681 0076 49       		.uleb128 0x49
 1682 0077 13       		.uleb128 0x13
 1683 0078 38       		.uleb128 0x38
 1684 0079 0B       		.uleb128 0xb
 1685 007a 00       		.byte	0
 1686 007b 00       		.byte	0
 1687 007c 09       		.uleb128 0x9
 1688 007d 0D       		.uleb128 0xd
 1689 007e 00       		.byte	0
 1690 007f 03       		.uleb128 0x3
 1691 0080 0E       		.uleb128 0xe
 1692 0081 3A       		.uleb128 0x3a
 1693 0082 0B       		.uleb128 0xb
 1694 0083 3B       		.uleb128 0x3b
 1695 0084 05       		.uleb128 0x5
 1696 0085 39       		.uleb128 0x39
 1697 0086 0B       		.uleb128 0xb
 1698 0087 49       		.uleb128 0x49
 1699 0088 13       		.uleb128 0x13
 1700 0089 38       		.uleb128 0x38
 1701 008a 0B       		.uleb128 0xb
 1702 008b 00       		.byte	0
 1703 008c 00       		.byte	0
 1704 008d 0A       		.uleb128 0xa
 1705 008e 0F       		.uleb128 0xf
 1706 008f 00       		.byte	0
 1707 0090 0B       		.uleb128 0xb
 1708 0091 0B       		.uleb128 0xb
 1709 0092 49       		.uleb128 0x49
 1710 0093 13       		.uleb128 0x13
ARM GAS  /tmp/cc0lvdnj.s 			page 31


 1711 0094 00       		.byte	0
 1712 0095 00       		.byte	0
 1713 0096 0B       		.uleb128 0xb
 1714 0097 13       		.uleb128 0x13
 1715 0098 01       		.byte	0x1
 1716 0099 03       		.uleb128 0x3
 1717 009a 0E       		.uleb128 0xe
 1718 009b 0B       		.uleb128 0xb
 1719 009c 0B       		.uleb128 0xb
 1720 009d 3A       		.uleb128 0x3a
 1721 009e 0B       		.uleb128 0xb
 1722 009f 3B       		.uleb128 0x3b
 1723 00a0 05       		.uleb128 0x5
 1724 00a1 39       		.uleb128 0x39
 1725 00a2 0B       		.uleb128 0xb
 1726 00a3 01       		.uleb128 0x1
 1727 00a4 13       		.uleb128 0x13
 1728 00a5 00       		.byte	0
 1729 00a6 00       		.byte	0
 1730 00a7 0C       		.uleb128 0xc
 1731 00a8 15       		.uleb128 0x15
 1732 00a9 01       		.byte	0x1
 1733 00aa 27       		.uleb128 0x27
 1734 00ab 19       		.uleb128 0x19
 1735 00ac 01       		.uleb128 0x1
 1736 00ad 13       		.uleb128 0x13
 1737 00ae 00       		.byte	0
 1738 00af 00       		.byte	0
 1739 00b0 0D       		.uleb128 0xd
 1740 00b1 05       		.uleb128 0x5
 1741 00b2 00       		.byte	0
 1742 00b3 49       		.uleb128 0x49
 1743 00b4 13       		.uleb128 0x13
 1744 00b5 00       		.byte	0
 1745 00b6 00       		.byte	0
 1746 00b7 0E       		.uleb128 0xe
 1747 00b8 0F       		.uleb128 0xf
 1748 00b9 00       		.byte	0
 1749 00ba 0B       		.uleb128 0xb
 1750 00bb 0B       		.uleb128 0xb
 1751 00bc 00       		.byte	0
 1752 00bd 00       		.byte	0
 1753 00be 0F       		.uleb128 0xf
 1754 00bf 34       		.uleb128 0x34
 1755 00c0 00       		.byte	0
 1756 00c1 03       		.uleb128 0x3
 1757 00c2 0E       		.uleb128 0xe
 1758 00c3 3A       		.uleb128 0x3a
 1759 00c4 0B       		.uleb128 0xb
 1760 00c5 3B       		.uleb128 0x3b
 1761 00c6 0B       		.uleb128 0xb
 1762 00c7 39       		.uleb128 0x39
 1763 00c8 0B       		.uleb128 0xb
 1764 00c9 49       		.uleb128 0x49
 1765 00ca 13       		.uleb128 0x13
 1766 00cb 3F       		.uleb128 0x3f
 1767 00cc 19       		.uleb128 0x19
ARM GAS  /tmp/cc0lvdnj.s 			page 32


 1768 00cd 3C       		.uleb128 0x3c
 1769 00ce 19       		.uleb128 0x19
 1770 00cf 00       		.byte	0
 1771 00d0 00       		.byte	0
 1772 00d1 10       		.uleb128 0x10
 1773 00d2 17       		.uleb128 0x17
 1774 00d3 01       		.byte	0x1
 1775 00d4 0B       		.uleb128 0xb
 1776 00d5 0B       		.uleb128 0xb
 1777 00d6 3A       		.uleb128 0x3a
 1778 00d7 0B       		.uleb128 0xb
 1779 00d8 3B       		.uleb128 0x3b
 1780 00d9 0B       		.uleb128 0xb
 1781 00da 39       		.uleb128 0x39
 1782 00db 0B       		.uleb128 0xb
 1783 00dc 01       		.uleb128 0x1
 1784 00dd 13       		.uleb128 0x13
 1785 00de 00       		.byte	0
 1786 00df 00       		.byte	0
 1787 00e0 11       		.uleb128 0x11
 1788 00e1 0D       		.uleb128 0xd
 1789 00e2 00       		.byte	0
 1790 00e3 03       		.uleb128 0x3
 1791 00e4 0E       		.uleb128 0xe
 1792 00e5 3A       		.uleb128 0x3a
 1793 00e6 0B       		.uleb128 0xb
 1794 00e7 3B       		.uleb128 0x3b
 1795 00e8 0B       		.uleb128 0xb
 1796 00e9 39       		.uleb128 0x39
 1797 00ea 0B       		.uleb128 0xb
 1798 00eb 49       		.uleb128 0x49
 1799 00ec 13       		.uleb128 0x13
 1800 00ed 00       		.byte	0
 1801 00ee 00       		.byte	0
 1802 00ef 12       		.uleb128 0x12
 1803 00f0 0D       		.uleb128 0xd
 1804 00f1 00       		.byte	0
 1805 00f2 03       		.uleb128 0x3
 1806 00f3 0E       		.uleb128 0xe
 1807 00f4 3A       		.uleb128 0x3a
 1808 00f5 0B       		.uleb128 0xb
 1809 00f6 3B       		.uleb128 0x3b
 1810 00f7 05       		.uleb128 0x5
 1811 00f8 39       		.uleb128 0x39
 1812 00f9 0B       		.uleb128 0xb
 1813 00fa 49       		.uleb128 0x49
 1814 00fb 13       		.uleb128 0x13
 1815 00fc 00       		.byte	0
 1816 00fd 00       		.byte	0
 1817 00fe 13       		.uleb128 0x13
 1818 00ff 35       		.uleb128 0x35
 1819 0100 00       		.byte	0
 1820 0101 49       		.uleb128 0x49
 1821 0102 13       		.uleb128 0x13
 1822 0103 00       		.byte	0
 1823 0104 00       		.byte	0
 1824 0105 14       		.uleb128 0x14
ARM GAS  /tmp/cc0lvdnj.s 			page 33


 1825 0106 26       		.uleb128 0x26
 1826 0107 00       		.byte	0
 1827 0108 49       		.uleb128 0x49
 1828 0109 13       		.uleb128 0x13
 1829 010a 00       		.byte	0
 1830 010b 00       		.byte	0
 1831 010c 15       		.uleb128 0x15
 1832 010d 34       		.uleb128 0x34
 1833 010e 00       		.byte	0
 1834 010f 03       		.uleb128 0x3
 1835 0110 08       		.uleb128 0x8
 1836 0111 3A       		.uleb128 0x3a
 1837 0112 0B       		.uleb128 0xb
 1838 0113 3B       		.uleb128 0x3b
 1839 0114 05       		.uleb128 0x5
 1840 0115 39       		.uleb128 0x39
 1841 0116 0B       		.uleb128 0xb
 1842 0117 49       		.uleb128 0x49
 1843 0118 13       		.uleb128 0x13
 1844 0119 3F       		.uleb128 0x3f
 1845 011a 19       		.uleb128 0x19
 1846 011b 3C       		.uleb128 0x3c
 1847 011c 19       		.uleb128 0x19
 1848 011d 00       		.byte	0
 1849 011e 00       		.byte	0
 1850 011f 16       		.uleb128 0x16
 1851 0120 01       		.uleb128 0x1
 1852 0121 01       		.byte	0x1
 1853 0122 49       		.uleb128 0x49
 1854 0123 13       		.uleb128 0x13
 1855 0124 01       		.uleb128 0x1
 1856 0125 13       		.uleb128 0x13
 1857 0126 00       		.byte	0
 1858 0127 00       		.byte	0
 1859 0128 17       		.uleb128 0x17
 1860 0129 21       		.uleb128 0x21
 1861 012a 00       		.byte	0
 1862 012b 00       		.byte	0
 1863 012c 00       		.byte	0
 1864 012d 18       		.uleb128 0x18
 1865 012e 34       		.uleb128 0x34
 1866 012f 00       		.byte	0
 1867 0130 03       		.uleb128 0x3
 1868 0131 0E       		.uleb128 0xe
 1869 0132 3A       		.uleb128 0x3a
 1870 0133 0B       		.uleb128 0xb
 1871 0134 3B       		.uleb128 0x3b
 1872 0135 05       		.uleb128 0x5
 1873 0136 39       		.uleb128 0x39
 1874 0137 0B       		.uleb128 0xb
 1875 0138 49       		.uleb128 0x49
 1876 0139 13       		.uleb128 0x13
 1877 013a 3F       		.uleb128 0x3f
 1878 013b 19       		.uleb128 0x19
 1879 013c 3C       		.uleb128 0x3c
 1880 013d 19       		.uleb128 0x19
 1881 013e 00       		.byte	0
ARM GAS  /tmp/cc0lvdnj.s 			page 34


 1882 013f 00       		.byte	0
 1883 0140 19       		.uleb128 0x19
 1884 0141 13       		.uleb128 0x13
 1885 0142 01       		.byte	0x1
 1886 0143 0B       		.uleb128 0xb
 1887 0144 0B       		.uleb128 0xb
 1888 0145 3A       		.uleb128 0x3a
 1889 0146 0B       		.uleb128 0xb
 1890 0147 3B       		.uleb128 0x3b
 1891 0148 0B       		.uleb128 0xb
 1892 0149 39       		.uleb128 0x39
 1893 014a 0B       		.uleb128 0xb
 1894 014b 01       		.uleb128 0x1
 1895 014c 13       		.uleb128 0x13
 1896 014d 00       		.byte	0
 1897 014e 00       		.byte	0
 1898 014f 1A       		.uleb128 0x1a
 1899 0150 21       		.uleb128 0x21
 1900 0151 00       		.byte	0
 1901 0152 49       		.uleb128 0x49
 1902 0153 13       		.uleb128 0x13
 1903 0154 2F       		.uleb128 0x2f
 1904 0155 0B       		.uleb128 0xb
 1905 0156 00       		.byte	0
 1906 0157 00       		.byte	0
 1907 0158 1B       		.uleb128 0x1b
 1908 0159 2E       		.uleb128 0x2e
 1909 015a 01       		.byte	0x1
 1910 015b 3F       		.uleb128 0x3f
 1911 015c 19       		.uleb128 0x19
 1912 015d 03       		.uleb128 0x3
 1913 015e 0E       		.uleb128 0xe
 1914 015f 3A       		.uleb128 0x3a
 1915 0160 0B       		.uleb128 0xb
 1916 0161 3B       		.uleb128 0x3b
 1917 0162 0B       		.uleb128 0xb
 1918 0163 39       		.uleb128 0x39
 1919 0164 0B       		.uleb128 0xb
 1920 0165 27       		.uleb128 0x27
 1921 0166 19       		.uleb128 0x19
 1922 0167 11       		.uleb128 0x11
 1923 0168 01       		.uleb128 0x1
 1924 0169 12       		.uleb128 0x12
 1925 016a 06       		.uleb128 0x6
 1926 016b 40       		.uleb128 0x40
 1927 016c 18       		.uleb128 0x18
 1928 016d 9742     		.uleb128 0x2117
 1929 016f 19       		.uleb128 0x19
 1930 0170 01       		.uleb128 0x1
 1931 0171 13       		.uleb128 0x13
 1932 0172 00       		.byte	0
 1933 0173 00       		.byte	0
 1934 0174 1C       		.uleb128 0x1c
 1935 0175 05       		.uleb128 0x5
 1936 0176 00       		.byte	0
 1937 0177 03       		.uleb128 0x3
 1938 0178 08       		.uleb128 0x8
ARM GAS  /tmp/cc0lvdnj.s 			page 35


 1939 0179 3A       		.uleb128 0x3a
 1940 017a 0B       		.uleb128 0xb
 1941 017b 3B       		.uleb128 0x3b
 1942 017c 0B       		.uleb128 0xb
 1943 017d 39       		.uleb128 0x39
 1944 017e 0B       		.uleb128 0xb
 1945 017f 49       		.uleb128 0x49
 1946 0180 13       		.uleb128 0x13
 1947 0181 02       		.uleb128 0x2
 1948 0182 17       		.uleb128 0x17
 1949 0183 B742     		.uleb128 0x2137
 1950 0185 17       		.uleb128 0x17
 1951 0186 00       		.byte	0
 1952 0187 00       		.byte	0
 1953 0188 1D       		.uleb128 0x1d
 1954 0189 0B       		.uleb128 0xb
 1955 018a 01       		.byte	0x1
 1956 018b 55       		.uleb128 0x55
 1957 018c 17       		.uleb128 0x17
 1958 018d 00       		.byte	0
 1959 018e 00       		.byte	0
 1960 018f 1E       		.uleb128 0x1e
 1961 0190 34       		.uleb128 0x34
 1962 0191 00       		.byte	0
 1963 0192 03       		.uleb128 0x3
 1964 0193 0E       		.uleb128 0xe
 1965 0194 3A       		.uleb128 0x3a
 1966 0195 0B       		.uleb128 0xb
 1967 0196 3B       		.uleb128 0x3b
 1968 0197 0B       		.uleb128 0xb
 1969 0198 39       		.uleb128 0x39
 1970 0199 0B       		.uleb128 0xb
 1971 019a 49       		.uleb128 0x49
 1972 019b 13       		.uleb128 0x13
 1973 019c 02       		.uleb128 0x2
 1974 019d 17       		.uleb128 0x17
 1975 019e B742     		.uleb128 0x2137
 1976 01a0 17       		.uleb128 0x17
 1977 01a1 00       		.byte	0
 1978 01a2 00       		.byte	0
 1979 01a3 1F       		.uleb128 0x1f
 1980 01a4 1D       		.uleb128 0x1d
 1981 01a5 01       		.byte	0x1
 1982 01a6 31       		.uleb128 0x31
 1983 01a7 13       		.uleb128 0x13
 1984 01a8 52       		.uleb128 0x52
 1985 01a9 01       		.uleb128 0x1
 1986 01aa B842     		.uleb128 0x2138
 1987 01ac 0B       		.uleb128 0xb
 1988 01ad 55       		.uleb128 0x55
 1989 01ae 17       		.uleb128 0x17
 1990 01af 58       		.uleb128 0x58
 1991 01b0 0B       		.uleb128 0xb
 1992 01b1 59       		.uleb128 0x59
 1993 01b2 0B       		.uleb128 0xb
 1994 01b3 57       		.uleb128 0x57
 1995 01b4 0B       		.uleb128 0xb
ARM GAS  /tmp/cc0lvdnj.s 			page 36


 1996 01b5 01       		.uleb128 0x1
 1997 01b6 13       		.uleb128 0x13
 1998 01b7 00       		.byte	0
 1999 01b8 00       		.byte	0
 2000 01b9 20       		.uleb128 0x20
 2001 01ba 1D       		.uleb128 0x1d
 2002 01bb 01       		.byte	0x1
 2003 01bc 31       		.uleb128 0x31
 2004 01bd 13       		.uleb128 0x13
 2005 01be 52       		.uleb128 0x52
 2006 01bf 01       		.uleb128 0x1
 2007 01c0 B842     		.uleb128 0x2138
 2008 01c2 0B       		.uleb128 0xb
 2009 01c3 55       		.uleb128 0x55
 2010 01c4 17       		.uleb128 0x17
 2011 01c5 58       		.uleb128 0x58
 2012 01c6 0B       		.uleb128 0xb
 2013 01c7 59       		.uleb128 0x59
 2014 01c8 05       		.uleb128 0x5
 2015 01c9 57       		.uleb128 0x57
 2016 01ca 0B       		.uleb128 0xb
 2017 01cb 00       		.byte	0
 2018 01cc 00       		.byte	0
 2019 01cd 21       		.uleb128 0x21
 2020 01ce 1D       		.uleb128 0x1d
 2021 01cf 00       		.byte	0
 2022 01d0 31       		.uleb128 0x31
 2023 01d1 13       		.uleb128 0x13
 2024 01d2 52       		.uleb128 0x52
 2025 01d3 01       		.uleb128 0x1
 2026 01d4 B842     		.uleb128 0x2138
 2027 01d6 0B       		.uleb128 0xb
 2028 01d7 11       		.uleb128 0x11
 2029 01d8 01       		.uleb128 0x1
 2030 01d9 12       		.uleb128 0x12
 2031 01da 06       		.uleb128 0x6
 2032 01db 58       		.uleb128 0x58
 2033 01dc 0B       		.uleb128 0xb
 2034 01dd 59       		.uleb128 0x59
 2035 01de 05       		.uleb128 0x5
 2036 01df 57       		.uleb128 0x57
 2037 01e0 0B       		.uleb128 0xb
 2038 01e1 00       		.byte	0
 2039 01e2 00       		.byte	0
 2040 01e3 22       		.uleb128 0x22
 2041 01e4 1D       		.uleb128 0x1d
 2042 01e5 01       		.byte	0x1
 2043 01e6 31       		.uleb128 0x31
 2044 01e7 13       		.uleb128 0x13
 2045 01e8 52       		.uleb128 0x52
 2046 01e9 01       		.uleb128 0x1
 2047 01ea B842     		.uleb128 0x2138
 2048 01ec 0B       		.uleb128 0xb
 2049 01ed 11       		.uleb128 0x11
 2050 01ee 01       		.uleb128 0x1
 2051 01ef 12       		.uleb128 0x12
 2052 01f0 06       		.uleb128 0x6
ARM GAS  /tmp/cc0lvdnj.s 			page 37


 2053 01f1 58       		.uleb128 0x58
 2054 01f2 0B       		.uleb128 0xb
 2055 01f3 59       		.uleb128 0x59
 2056 01f4 0B       		.uleb128 0xb
 2057 01f5 57       		.uleb128 0x57
 2058 01f6 0B       		.uleb128 0xb
 2059 01f7 01       		.uleb128 0x1
 2060 01f8 13       		.uleb128 0x13
 2061 01f9 00       		.byte	0
 2062 01fa 00       		.byte	0
 2063 01fb 23       		.uleb128 0x23
 2064 01fc 0B       		.uleb128 0xb
 2065 01fd 01       		.byte	0x1
 2066 01fe 11       		.uleb128 0x11
 2067 01ff 01       		.uleb128 0x1
 2068 0200 12       		.uleb128 0x12
 2069 0201 06       		.uleb128 0x6
 2070 0202 00       		.byte	0
 2071 0203 00       		.byte	0
 2072 0204 24       		.uleb128 0x24
 2073 0205 34       		.uleb128 0x34
 2074 0206 00       		.byte	0
 2075 0207 31       		.uleb128 0x31
 2076 0208 13       		.uleb128 0x13
 2077 0209 02       		.uleb128 0x2
 2078 020a 17       		.uleb128 0x17
 2079 020b B742     		.uleb128 0x2137
 2080 020d 17       		.uleb128 0x17
 2081 020e 00       		.byte	0
 2082 020f 00       		.byte	0
 2083 0210 25       		.uleb128 0x25
 2084 0211 05       		.uleb128 0x5
 2085 0212 00       		.byte	0
 2086 0213 31       		.uleb128 0x31
 2087 0214 13       		.uleb128 0x13
 2088 0215 02       		.uleb128 0x2
 2089 0216 17       		.uleb128 0x17
 2090 0217 B742     		.uleb128 0x2137
 2091 0219 17       		.uleb128 0x17
 2092 021a 00       		.byte	0
 2093 021b 00       		.byte	0
 2094 021c 26       		.uleb128 0x26
 2095 021d 898201   		.uleb128 0x4109
 2096 0220 00       		.byte	0
 2097 0221 11       		.uleb128 0x11
 2098 0222 01       		.uleb128 0x1
 2099 0223 31       		.uleb128 0x31
 2100 0224 13       		.uleb128 0x13
 2101 0225 00       		.byte	0
 2102 0226 00       		.byte	0
 2103 0227 27       		.uleb128 0x27
 2104 0228 1D       		.uleb128 0x1d
 2105 0229 01       		.byte	0x1
 2106 022a 31       		.uleb128 0x31
 2107 022b 13       		.uleb128 0x13
 2108 022c 52       		.uleb128 0x52
 2109 022d 01       		.uleb128 0x1
ARM GAS  /tmp/cc0lvdnj.s 			page 38


 2110 022e B842     		.uleb128 0x2138
 2111 0230 0B       		.uleb128 0xb
 2112 0231 55       		.uleb128 0x55
 2113 0232 17       		.uleb128 0x17
 2114 0233 58       		.uleb128 0x58
 2115 0234 0B       		.uleb128 0xb
 2116 0235 59       		.uleb128 0x59
 2117 0236 0B       		.uleb128 0xb
 2118 0237 57       		.uleb128 0x57
 2119 0238 0B       		.uleb128 0xb
 2120 0239 00       		.byte	0
 2121 023a 00       		.byte	0
 2122 023b 28       		.uleb128 0x28
 2123 023c 2E       		.uleb128 0x2e
 2124 023d 00       		.byte	0
 2125 023e 03       		.uleb128 0x3
 2126 023f 0E       		.uleb128 0xe
 2127 0240 3A       		.uleb128 0x3a
 2128 0241 0B       		.uleb128 0xb
 2129 0242 3B       		.uleb128 0x3b
 2130 0243 05       		.uleb128 0x5
 2131 0244 39       		.uleb128 0x39
 2132 0245 0B       		.uleb128 0xb
 2133 0246 27       		.uleb128 0x27
 2134 0247 19       		.uleb128 0x19
 2135 0248 20       		.uleb128 0x20
 2136 0249 0B       		.uleb128 0xb
 2137 024a 00       		.byte	0
 2138 024b 00       		.byte	0
 2139 024c 29       		.uleb128 0x29
 2140 024d 2E       		.uleb128 0x2e
 2141 024e 01       		.byte	0x1
 2142 024f 03       		.uleb128 0x3
 2143 0250 0E       		.uleb128 0xe
 2144 0251 3A       		.uleb128 0x3a
 2145 0252 0B       		.uleb128 0xb
 2146 0253 3B       		.uleb128 0x3b
 2147 0254 05       		.uleb128 0x5
 2148 0255 39       		.uleb128 0x39
 2149 0256 0B       		.uleb128 0xb
 2150 0257 27       		.uleb128 0x27
 2151 0258 19       		.uleb128 0x19
 2152 0259 20       		.uleb128 0x20
 2153 025a 0B       		.uleb128 0xb
 2154 025b 01       		.uleb128 0x1
 2155 025c 13       		.uleb128 0x13
 2156 025d 00       		.byte	0
 2157 025e 00       		.byte	0
 2158 025f 2A       		.uleb128 0x2a
 2159 0260 05       		.uleb128 0x5
 2160 0261 00       		.byte	0
 2161 0262 03       		.uleb128 0x3
 2162 0263 0E       		.uleb128 0xe
 2163 0264 3A       		.uleb128 0x3a
 2164 0265 0B       		.uleb128 0xb
 2165 0266 3B       		.uleb128 0x3b
 2166 0267 05       		.uleb128 0x5
ARM GAS  /tmp/cc0lvdnj.s 			page 39


 2167 0268 39       		.uleb128 0x39
 2168 0269 0B       		.uleb128 0xb
 2169 026a 49       		.uleb128 0x49
 2170 026b 13       		.uleb128 0x13
 2171 026c 00       		.byte	0
 2172 026d 00       		.byte	0
 2173 026e 2B       		.uleb128 0x2b
 2174 026f 2E       		.uleb128 0x2e
 2175 0270 01       		.byte	0x1
 2176 0271 03       		.uleb128 0x3
 2177 0272 0E       		.uleb128 0xe
 2178 0273 3A       		.uleb128 0x3a
 2179 0274 0B       		.uleb128 0xb
 2180 0275 3B       		.uleb128 0x3b
 2181 0276 05       		.uleb128 0x5
 2182 0277 39       		.uleb128 0x39
 2183 0278 0B       		.uleb128 0xb
 2184 0279 27       		.uleb128 0x27
 2185 027a 19       		.uleb128 0x19
 2186 027b 49       		.uleb128 0x49
 2187 027c 13       		.uleb128 0x13
 2188 027d 20       		.uleb128 0x20
 2189 027e 0B       		.uleb128 0xb
 2190 027f 01       		.uleb128 0x1
 2191 0280 13       		.uleb128 0x13
 2192 0281 00       		.byte	0
 2193 0282 00       		.byte	0
 2194 0283 2C       		.uleb128 0x2c
 2195 0284 34       		.uleb128 0x34
 2196 0285 00       		.byte	0
 2197 0286 03       		.uleb128 0x3
 2198 0287 0E       		.uleb128 0xe
 2199 0288 3A       		.uleb128 0x3a
 2200 0289 0B       		.uleb128 0xb
 2201 028a 3B       		.uleb128 0x3b
 2202 028b 05       		.uleb128 0x5
 2203 028c 39       		.uleb128 0x39
 2204 028d 0B       		.uleb128 0xb
 2205 028e 49       		.uleb128 0x49
 2206 028f 13       		.uleb128 0x13
 2207 0290 00       		.byte	0
 2208 0291 00       		.byte	0
 2209 0292 2D       		.uleb128 0x2d
 2210 0293 2E       		.uleb128 0x2e
 2211 0294 00       		.byte	0
 2212 0295 3F       		.uleb128 0x3f
 2213 0296 19       		.uleb128 0x19
 2214 0297 3C       		.uleb128 0x3c
 2215 0298 19       		.uleb128 0x19
 2216 0299 6E       		.uleb128 0x6e
 2217 029a 0E       		.uleb128 0xe
 2218 029b 03       		.uleb128 0x3
 2219 029c 0E       		.uleb128 0xe
 2220 029d 3A       		.uleb128 0x3a
 2221 029e 0B       		.uleb128 0xb
 2222 029f 3B       		.uleb128 0x3b
 2223 02a0 05       		.uleb128 0x5
ARM GAS  /tmp/cc0lvdnj.s 			page 40


 2224 02a1 39       		.uleb128 0x39
 2225 02a2 0B       		.uleb128 0xb
 2226 02a3 00       		.byte	0
 2227 02a4 00       		.byte	0
 2228 02a5 00       		.byte	0
 2229              		.section	.debug_loc,"",%progbits
 2230              	.Ldebug_loc0:
 2231              	.LVUS3:
 2232 0000 00       		.uleb128 0
 2233 0001 00       		.uleb128 .LVU28
 2234              	.LLST3:
 2235 0002 00000000 		.4byte	.LVL3
 2236 0006 08000000 		.4byte	.LVL4
 2237 000a 0100     		.2byte	0x1
 2238 000c 50       		.byte	0x50
 2239 000d 00000000 		.4byte	0
 2240 0011 00000000 		.4byte	0
 2241              	.LVUS4:
 2242 0015 01       		.uleb128 .LVU41
 2243 0016 03       		.uleb128 .LVU43
 2244 0017 03       		.uleb128 .LVU43
 2245 0018 00       		.uleb128 .LVU47
 2246 0019 00       		.uleb128 .LVU47
 2247 001a 00       		.uleb128 .LVU56
 2248 001b 00       		.uleb128 .LVU58
 2249 001c 00       		.uleb128 0
 2250              	.LLST4:
 2251 001d 0E000000 		.4byte	.LVL5
 2252 0021 0E000000 		.4byte	.LVL5
 2253 0025 0100     		.2byte	0x1
 2254 0027 54       		.byte	0x54
 2255 0028 0E000000 		.4byte	.LVL5
 2256 002c 10000000 		.4byte	.LVL6
 2257 0030 0300     		.2byte	0x3
 2258 0032 74       		.byte	0x74
 2259 0033 60       		.sleb128 -32
 2260 0034 9F       		.byte	0x9f
 2261 0035 10000000 		.4byte	.LVL6
 2262 0039 26000000 		.4byte	.LVL9
 2263 003d 0100     		.2byte	0x1
 2264 003f 54       		.byte	0x54
 2265 0040 2A000000 		.4byte	.LVL10
 2266 0044 38000000 		.4byte	.LFE122
 2267 0048 0100     		.2byte	0x1
 2268 004a 54       		.byte	0x54
 2269 004b 00000000 		.4byte	0
 2270 004f 00000000 		.4byte	0
 2271              	.LVUS5:
 2272 0053 00       		.uleb128 .LVU40
 2273 0054 01       		.uleb128 .LVU41
 2274              	.LLST5:
 2275 0055 0E000000 		.4byte	.LVL5
 2276 0059 0E000000 		.4byte	.LVL5
 2277 005d 0100     		.2byte	0x1
 2278 005f 54       		.byte	0x54
 2279 0060 00000000 		.4byte	0
 2280 0064 00000000 		.4byte	0
ARM GAS  /tmp/cc0lvdnj.s 			page 41


 2281              	.LVUS6:
 2282 0068 04       		.uleb128 .LVU44
 2283 0069 00       		.uleb128 .LVU47
 2284 006a 00       		.uleb128 .LVU47
 2285 006b 00       		.uleb128 .LVU48
 2286              	.LLST6:
 2287 006c 0E000000 		.4byte	.LVL5
 2288 0070 10000000 		.4byte	.LVL6
 2289 0074 0300     		.2byte	0x3
 2290 0076 74       		.byte	0x74
 2291 0077 60       		.sleb128 -32
 2292 0078 9F       		.byte	0x9f
 2293 0079 10000000 		.4byte	.LVL6
 2294 007d 14000000 		.4byte	.LVL7
 2295 0081 0100     		.2byte	0x1
 2296 0083 54       		.byte	0x54
 2297 0084 00000000 		.4byte	0
 2298 0088 00000000 		.4byte	0
 2299              	.LVUS0:
 2300 008c 01       		.uleb128 .LVU8
 2301 008d 03       		.uleb128 .LVU10
 2302 008e 03       		.uleb128 .LVU10
 2303 008f 00       		.uleb128 .LVU14
 2304 0090 00       		.uleb128 .LVU14
 2305 0091 00       		.uleb128 0
 2306              	.LLST0:
 2307 0092 08000000 		.4byte	.LVL0
 2308 0096 08000000 		.4byte	.LVL0
 2309 009a 0100     		.2byte	0x1
 2310 009c 53       		.byte	0x53
 2311 009d 08000000 		.4byte	.LVL0
 2312 00a1 0A000000 		.4byte	.LVL1
 2313 00a5 0300     		.2byte	0x3
 2314 00a7 73       		.byte	0x73
 2315 00a8 20       		.sleb128 32
 2316 00a9 9F       		.byte	0x9f
 2317 00aa 0A000000 		.4byte	.LVL1
 2318 00ae 14000000 		.4byte	.LFE121
 2319 00b2 0100     		.2byte	0x1
 2320 00b4 53       		.byte	0x53
 2321 00b5 00000000 		.4byte	0
 2322 00b9 00000000 		.4byte	0
 2323              	.LVUS1:
 2324 00bd 00       		.uleb128 .LVU7
 2325 00be 01       		.uleb128 .LVU8
 2326              	.LLST1:
 2327 00bf 08000000 		.4byte	.LVL0
 2328 00c3 08000000 		.4byte	.LVL0
 2329 00c7 0100     		.2byte	0x1
 2330 00c9 53       		.byte	0x53
 2331 00ca 00000000 		.4byte	0
 2332 00ce 00000000 		.4byte	0
 2333              	.LVUS2:
 2334 00d2 04       		.uleb128 .LVU11
 2335 00d3 00       		.uleb128 .LVU14
 2336 00d4 00       		.uleb128 .LVU14
 2337 00d5 00       		.uleb128 .LVU15
ARM GAS  /tmp/cc0lvdnj.s 			page 42


 2338              	.LLST2:
 2339 00d6 08000000 		.4byte	.LVL0
 2340 00da 0A000000 		.4byte	.LVL1
 2341 00de 0300     		.2byte	0x3
 2342 00e0 73       		.byte	0x73
 2343 00e1 20       		.sleb128 32
 2344 00e2 9F       		.byte	0x9f
 2345 00e3 0A000000 		.4byte	.LVL1
 2346 00e7 0E000000 		.4byte	.LVL2
 2347 00eb 0100     		.2byte	0x1
 2348 00ed 53       		.byte	0x53
 2349 00ee 00000000 		.4byte	0
 2350 00f2 00000000 		.4byte	0
 2351              		.section	.debug_aranges,"",%progbits
 2352 0000 24000000 		.4byte	0x24
 2353 0004 0200     		.2byte	0x2
 2354 0006 00000000 		.4byte	.Ldebug_info0
 2355 000a 04       		.byte	0x4
 2356 000b 00       		.byte	0
 2357 000c 0000     		.2byte	0
 2358 000e 0000     		.2byte	0
 2359 0010 00000000 		.4byte	.LFB121
 2360 0014 14000000 		.4byte	.LFE121-.LFB121
 2361 0018 00000000 		.4byte	.LFB122
 2362 001c 38000000 		.4byte	.LFE122-.LFB122
 2363 0020 00000000 		.4byte	0
 2364 0024 00000000 		.4byte	0
 2365              		.section	.debug_ranges,"",%progbits
 2366              	.Ldebug_ranges0:
 2367 0000 00000000 		.4byte	.LBB42
 2368 0004 00000000 		.4byte	.LBE42
 2369 0008 04000000 		.4byte	.LBB45
 2370 000c 08000000 		.4byte	.LBE45
 2371 0010 00000000 		.4byte	0
 2372 0014 00000000 		.4byte	0
 2373 0018 08000000 		.4byte	.LBB46
 2374 001c 08000000 		.4byte	.LBE46
 2375 0020 0A000000 		.4byte	.LBB49
 2376 0024 0E000000 		.4byte	.LBE49
 2377 0028 00000000 		.4byte	0
 2378 002c 00000000 		.4byte	0
 2379 0030 0E000000 		.4byte	.LBB50
 2380 0034 0E000000 		.4byte	.LBE50
 2381 0038 0E000000 		.4byte	.LBB55
 2382 003c 0E000000 		.4byte	.LBE55
 2383 0040 0E000000 		.4byte	.LBB56
 2384 0044 10000000 		.4byte	.LBE56
 2385 0048 00000000 		.4byte	0
 2386 004c 00000000 		.4byte	0
 2387 0050 08000000 		.4byte	.LBB57
 2388 0054 08000000 		.4byte	.LBE57
 2389 0058 08000000 		.4byte	.LBB71
 2390 005c 08000000 		.4byte	.LBE71
 2391 0060 08000000 		.4byte	.LBB72
 2392 0064 26000000 		.4byte	.LBE72
 2393 0068 2A000000 		.4byte	.LBB73
 2394 006c 2E000000 		.4byte	.LBE73
ARM GAS  /tmp/cc0lvdnj.s 			page 43


 2395 0070 00000000 		.4byte	0
 2396 0074 00000000 		.4byte	0
 2397 0078 08000000 		.4byte	.LBB58
 2398 007c 08000000 		.4byte	.LBE58
 2399 0080 08000000 		.4byte	.LBB63
 2400 0084 08000000 		.4byte	.LBE63
 2401 0088 08000000 		.4byte	.LBB64
 2402 008c 0A000000 		.4byte	.LBE64
 2403 0090 00000000 		.4byte	0
 2404 0094 00000000 		.4byte	0
 2405 0098 0E000000 		.4byte	.LBB67
 2406 009c 0E000000 		.4byte	.LBE67
 2407 00a0 10000000 		.4byte	.LBB70
 2408 00a4 14000000 		.4byte	.LBE70
 2409 00a8 00000000 		.4byte	0
 2410 00ac 00000000 		.4byte	0
 2411 00b0 00000000 		.4byte	.LFB121
 2412 00b4 14000000 		.4byte	.LFE121
 2413 00b8 00000000 		.4byte	.LFB122
 2414 00bc 38000000 		.4byte	.LFE122
 2415 00c0 00000000 		.4byte	0
 2416 00c4 00000000 		.4byte	0
 2417              		.section	.debug_line,"",%progbits
 2418              	.Ldebug_line0:
 2419 0000 57030000 		.section	.debug_str,"MS",%progbits,1
 2419      03001B02 
 2419      00000201 
 2419      FB0E0D00 
 2419      01010101 
 2420              	.LASF45:
 2421 0000 63685F74 		.ascii	"ch_threads_list\000"
 2421      68726561 
 2421      64735F6C 
 2421      69737400 
 2422              	.LASF92:
 2423 0010 74696D65 		.ascii	"timesize\000"
 2423      73697A65 
 2423      00
 2424              	.LASF85:
 2425 0019 53797374 		.ascii	"SystemCoreClock\000"
 2425      656D436F 
 2425      7265436C 
 2425      6F636B00 
 2426              	.LASF80:
 2427 0029 77746D74 		.ascii	"wtmtxp\000"
 2427      787000
 2428              	.LASF69:
 2429 0030 72656761 		.ascii	"regarm_t\000"
 2429      726D5F74 
 2429      00
 2430              	.LASF36:
 2431 0039 666C6167 		.ascii	"flags\000"
 2431      7300
 2432              	.LASF27:
 2433 003f 73797374 		.ascii	"systime_t\000"
 2433      696D655F 
 2433      7400
ARM GAS  /tmp/cc0lvdnj.s 			page 44


 2434              	.LASF41:
 2435 0049 7265616C 		.ascii	"realprio\000"
 2435      7072696F 
 2435      00
 2436              	.LASF39:
 2437 0052 6570656E 		.ascii	"epending\000"
 2437      64696E67 
 2437      00
 2438              	.LASF0:
 2439 005b 756E7369 		.ascii	"unsigned int\000"
 2439      676E6564 
 2439      20696E74 
 2439      00
 2440              	.LASF46:
 2441 0068 6E657874 		.ascii	"next\000"
 2441      00
 2442              	.LASF90:
 2443 006d 76657273 		.ascii	"version\000"
 2443      696F6E00 
 2444              	.LASF43:
 2445 0075 74687265 		.ascii	"threads_list_t\000"
 2445      6164735F 
 2445      6C697374 
 2445      5F7400
 2446              	.LASF9:
 2447 0084 5F5F696E 		.ascii	"__int32_t\000"
 2447      7433325F 
 2447      7400
 2448              	.LASF37:
 2449 008e 72656673 		.ascii	"refs\000"
 2449      00
 2450              	.LASF104:
 2451 0093 6F66665F 		.ascii	"off_time\000"
 2451      74696D65 
 2451      00
 2452              	.LASF78:
 2453 009c 77746F62 		.ascii	"wtobjp\000"
 2453      6A7000
 2454              	.LASF114:
 2455 00a3 706F7274 		.ascii	"port_lock\000"
 2455      5F6C6F63 
 2455      6B00
 2456              	.LASF67:
 2457 00ad 76746C69 		.ascii	"vtlist\000"
 2457      737400
 2458              	.LASF71:
 2459 00b4 706F7274 		.ascii	"port_context\000"
 2459      5F636F6E 
 2459      74657874 
 2459      00
 2460              	.LASF112:
 2461 00c1 706F7274 		.ascii	"port_lock_from_isr\000"
 2461      5F6C6F63 
 2461      6B5F6672 
 2461      6F6D5F69 
 2461      737200
 2462              	.LASF5:
ARM GAS  /tmp/cc0lvdnj.s 			page 45


 2463 00d4 73686F72 		.ascii	"short int\000"
 2463      7420696E 
 2463      7400
 2464              	.LASF51:
 2465 00de 63685F72 		.ascii	"ch_ready_list\000"
 2465      65616479 
 2465      5F6C6973 
 2465      7400
 2466              	.LASF57:
 2467 00ec 66756E63 		.ascii	"func\000"
 2467      00
 2468              	.LASF81:
 2469 00f1 65776D61 		.ascii	"ewmask\000"
 2469      736B00
 2470              	.LASF49:
 2471 00f8 70726576 		.ascii	"prev\000"
 2471      00
 2472              	.LASF48:
 2473 00fd 63685F74 		.ascii	"ch_threads_queue\000"
 2473      68726561 
 2473      64735F71 
 2473      75657565 
 2473      00
 2474              	.LASF96:
 2475 010e 6F66665F 		.ascii	"off_newer\000"
 2475      6E657765 
 2475      7200
 2476              	.LASF53:
 2477 0118 76746675 		.ascii	"vtfunc_t\000"
 2477      6E635F74 
 2477      00
 2478              	.LASF62:
 2479 0121 63685F73 		.ascii	"ch_system_debug\000"
 2479      79737465 
 2479      6D5F6465 
 2479      62756700 
 2480              	.LASF18:
 2481 0131 75696E74 		.ascii	"uint32_t\000"
 2481      33325F74 
 2481      00
 2482              	.LASF25:
 2483 013a 6576656E 		.ascii	"eventmask_t\000"
 2483      746D6173 
 2483      6B5F7400 
 2484              	.LASF93:
 2485 0146 74687265 		.ascii	"threadsize\000"
 2485      61647369 
 2485      7A6500
 2486              	.LASF117:
 2487 0151 474E5520 		.ascii	"GNU C11 8.2.1 20181213 (release) [gcc-8-branch revi"
 2487      43313120 
 2487      382E322E 
 2487      31203230 
 2487      31383132 
 2488 0184 73696F6E 		.ascii	"sion 267074] -mcpu=cortex-m0 -mno-thumb-interwork -"
 2488      20323637 
 2488      3037345D 
ARM GAS  /tmp/cc0lvdnj.s 			page 46


 2488      202D6D63 
 2488      70753D63 
 2489 01b7 6D746875 		.ascii	"mthumb -mfloat-abi=soft -march=armv6s-m -ggdb -O2 -"
 2489      6D62202D 
 2489      6D666C6F 
 2489      61742D61 
 2489      62693D73 
 2490 01ea 7374643D 		.ascii	"std=gnu11 -fomit-frame-pointer -falign-functions=16"
 2490      676E7531 
 2490      31202D66 
 2490      6F6D6974 
 2490      2D667261 
 2491 021d 202D6673 		.ascii	" -fstack-usage -ffunction-sections -fdata-sections "
 2491      7461636B 
 2491      2D757361 
 2491      6765202D 
 2491      6666756E 
 2492 0250 2D666E6F 		.ascii	"-fno-common\000"
 2492      2D636F6D 
 2492      6D6F6E00 
 2493              	.LASF23:
 2494 025c 74707269 		.ascii	"tprio_t\000"
 2494      6F5F7400 
 2495              	.LASF55:
 2496 0264 63685F76 		.ascii	"ch_virtual_timer\000"
 2496      69727475 
 2496      616C5F74 
 2496      696D6572 
 2496      00
 2497              	.LASF123:
 2498 0275 72657375 		.ascii	"result\000"
 2498      6C7400
 2499              	.LASF14:
 2500 027c 6C6F6E67 		.ascii	"long long unsigned int\000"
 2500      206C6F6E 
 2500      6720756E 
 2500      7369676E 
 2500      65642069 
 2501              	.LASF124:
 2502 0293 63685363 		.ascii	"chSchIsPreemptionRequired\000"
 2502      68497350 
 2502      7265656D 
 2502      7074696F 
 2502      6E526571 
 2503              	.LASF7:
 2504 02ad 5F5F7569 		.ascii	"__uint16_t\000"
 2504      6E743136 
 2504      5F7400
 2505              	.LASF26:
 2506 02b8 636E745F 		.ascii	"cnt_t\000"
 2506      7400
 2507              	.LASF99:
 2508 02be 6F66665F 		.ascii	"off_stklimit\000"
 2508      73746B6C 
 2508      696D6974 
 2508      00
 2509              	.LASF83:
ARM GAS  /tmp/cc0lvdnj.s 			page 47


 2510 02cb 6F776E65 		.ascii	"owner\000"
 2510      7200
 2511              	.LASF47:
 2512 02d1 74687265 		.ascii	"threads_queue_t\000"
 2512      6164735F 
 2512      71756575 
 2512      655F7400 
 2513              	.LASF121:
 2514 02e1 746F704F 		.ascii	"topOfProcStack\000"
 2514      6650726F 
 2514      63537461 
 2514      636B00
 2515              	.LASF40:
 2516 02f0 6D74786C 		.ascii	"mtxlist\000"
 2516      69737400 
 2517              	.LASF59:
 2518 02f8 63685F76 		.ascii	"ch_virtual_timers_list\000"
 2518      69727475 
 2518      616C5F74 
 2518      696D6572 
 2518      735F6C69 
 2519              	.LASF28:
 2520 030f 74687265 		.ascii	"thread_t\000"
 2520      61645F74 
 2520      00
 2521              	.LASF97:
 2522 0318 6F66665F 		.ascii	"off_older\000"
 2522      6F6C6465 
 2522      7200
 2523              	.LASF100:
 2524 0322 6F66665F 		.ascii	"off_state\000"
 2524      73746174 
 2524      6500
 2525              	.LASF76:
 2526 032c 7264796D 		.ascii	"rdymsg\000"
 2526      736700
 2527              	.LASF115:
 2528 0333 5F5F6469 		.ascii	"__disable_irq\000"
 2528      7361626C 
 2528      655F6972 
 2528      7100
 2529              	.LASF82:
 2530 0341 63685F6D 		.ascii	"ch_mutex\000"
 2530      75746578 
 2530      00
 2531              	.LASF13:
 2532 034a 5F5F7569 		.ascii	"__uint64_t\000"
 2532      6E743634 
 2532      5F7400
 2533              	.LASF95:
 2534 0355 6F66665F 		.ascii	"off_ctx\000"
 2534      63747800 
 2535              	.LASF101:
 2536 035d 6F66665F 		.ascii	"off_flags\000"
 2536      666C6167 
 2536      7300
 2537              	.LASF30:
ARM GAS  /tmp/cc0lvdnj.s 			page 48


 2538 0367 7072696F 		.ascii	"prio\000"
 2538      00
 2539              	.LASF84:
 2540 036c 63686172 		.ascii	"char\000"
 2540      00
 2541              	.LASF42:
 2542 0371 74687265 		.ascii	"thread_reference_t\000"
 2542      61645F72 
 2542      65666572 
 2542      656E6365 
 2542      5F7400
 2543              	.LASF34:
 2544 0384 77616261 		.ascii	"wabase\000"
 2544      736500
 2545              	.LASF86:
 2546 038b 63685F69 		.ascii	"ch_idle_thread_wa\000"
 2546      646C655F 
 2546      74687265 
 2546      61645F77 
 2546      6100
 2547              	.LASF21:
 2548 039d 74737461 		.ascii	"tstate_t\000"
 2548      74655F74 
 2548      00
 2549              	.LASF15:
 2550 03a6 75696E74 		.ascii	"uint8_t\000"
 2550      385F7400 
 2551              	.LASF44:
 2552 03ae 63685F74 		.ascii	"ch_thread\000"
 2552      68726561 
 2552      6400
 2553              	.LASF98:
 2554 03b8 6F66665F 		.ascii	"off_name\000"
 2554      6E616D65 
 2554      00
 2555              	.LASF61:
 2556 03c1 73797374 		.ascii	"system_debug_t\000"
 2556      656D5F64 
 2556      65627567 
 2556      5F7400
 2557              	.LASF1:
 2558 03d0 6C6F6E67 		.ascii	"long long int\000"
 2558      206C6F6E 
 2558      6720696E 
 2558      7400
 2559              	.LASF88:
 2560 03de 7A65726F 		.ascii	"zero\000"
 2560      00
 2561              	.LASF24:
 2562 03e3 6D73675F 		.ascii	"msg_t\000"
 2562      7400
 2563              	.LASF54:
 2564 03e9 76697274 		.ascii	"virtual_timer_t\000"
 2564      75616C5F 
 2564      74696D65 
 2564      725F7400 
 2565              	.LASF89:
ARM GAS  /tmp/cc0lvdnj.s 			page 49


 2566 03f9 73697A65 		.ascii	"size\000"
 2566      00
 2567              	.LASF91:
 2568 03fe 70747273 		.ascii	"ptrsize\000"
 2568      697A6500 
 2569              	.LASF63:
 2570 0406 70616E69 		.ascii	"panic_msg\000"
 2570      635F6D73 
 2570      6700
 2571              	.LASF20:
 2572 0410 746D6F64 		.ascii	"tmode_t\000"
 2572      655F7400 
 2573              	.LASF68:
 2574 0418 6D61696E 		.ascii	"mainthread\000"
 2574      74687265 
 2574      616400
 2575              	.LASF2:
 2576 0423 6C6F6E67 		.ascii	"long double\000"
 2576      20646F75 
 2576      626C6500 
 2577              	.LASF16:
 2578 042f 75696E74 		.ascii	"uint16_t\000"
 2578      31365F74 
 2578      00
 2579              	.LASF105:
 2580 0438 63686465 		.ascii	"chdebug_t\000"
 2580      6275675F 
 2580      7400
 2581              	.LASF94:
 2582 0442 6F66665F 		.ascii	"off_prio\000"
 2582      7072696F 
 2582      00
 2583              	.LASF120:
 2584 044b 5F5F7365 		.ascii	"__set_PSP\000"
 2584      745F5053 
 2584      5000
 2585              	.LASF119:
 2586 0455 2F6F7074 		.ascii	"/opt/nanovna/NanoVNA-H\000"
 2586      2F6E616E 
 2586      6F766E61 
 2586      2F4E616E 
 2586      6F564E41 
 2587              	.LASF108:
 2588 046c 63747870 		.ascii	"ctxp\000"
 2588      00
 2589              	.LASF10:
 2590 0471 6C6F6E67 		.ascii	"long int\000"
 2590      20696E74 
 2590      00
 2591              	.LASF72:
 2592 047a 706F7274 		.ascii	"port_intctx\000"
 2592      5F696E74 
 2592      63747800 
 2593              	.LASF116:
 2594 0486 5F5F656E 		.ascii	"__enable_irq\000"
 2594      61626C65 
 2594      5F697271 
ARM GAS  /tmp/cc0lvdnj.s 			page 50


 2594      00
 2595              	.LASF65:
 2596 0493 63685F73 		.ascii	"ch_system\000"
 2596      79737465 
 2596      6D00
 2597              	.LASF60:
 2598 049d 6C617374 		.ascii	"lasttime\000"
 2598      74696D65 
 2598      00
 2599              	.LASF19:
 2600 04a6 75696E74 		.ascii	"uint64_t\000"
 2600      36345F74 
 2600      00
 2601              	.LASF66:
 2602 04af 726C6973 		.ascii	"rlist\000"
 2602      7400
 2603              	.LASF6:
 2604 04b5 5F5F7569 		.ascii	"__uint8_t\000"
 2604      6E74385F 
 2604      7400
 2605              	.LASF73:
 2606 04bf 706F7274 		.ascii	"port_extctx\000"
 2606      5F657874 
 2606      63747800 
 2607              	.LASF33:
 2608 04cb 6E616D65 		.ascii	"name\000"
 2608      00
 2609              	.LASF87:
 2610 04d0 6964656E 		.ascii	"identifier\000"
 2610      74696669 
 2610      657200
 2611              	.LASF103:
 2612 04db 6F66665F 		.ascii	"off_preempt\000"
 2612      70726565 
 2612      6D707400 
 2613              	.LASF75:
 2614 04e7 78707372 		.ascii	"xpsr\000"
 2614      00
 2615              	.LASF22:
 2616 04ec 74726566 		.ascii	"trefs_t\000"
 2616      735F7400 
 2617              	.LASF12:
 2618 04f4 6C6F6E67 		.ascii	"long unsigned int\000"
 2618      20756E73 
 2618      69676E65 
 2618      6420696E 
 2618      7400
 2619              	.LASF50:
 2620 0506 72656164 		.ascii	"ready_list_t\000"
 2620      795F6C69 
 2620      73745F74 
 2620      00
 2621              	.LASF29:
 2622 0513 71756575 		.ascii	"queue\000"
 2622      6500
 2623              	.LASF17:
 2624 0519 696E7433 		.ascii	"int32_t\000"
ARM GAS  /tmp/cc0lvdnj.s 			page 51


 2624      325F7400 
 2625              	.LASF107:
 2626 0521 6D757465 		.ascii	"mutex_t\000"
 2626      785F7400 
 2627              	.LASF31:
 2628 0529 6E657765 		.ascii	"newer\000"
 2628      7200
 2629              	.LASF111:
 2630 052f 706F7274 		.ascii	"port_unlock_from_isr\000"
 2630      5F756E6C 
 2630      6F636B5F 
 2630      66726F6D 
 2630      5F697372 
 2631              	.LASF4:
 2632 0544 756E7369 		.ascii	"unsigned char\000"
 2632      676E6564 
 2632      20636861 
 2632      7200
 2633              	.LASF11:
 2634 0552 5F5F7569 		.ascii	"__uint32_t\000"
 2634      6E743332 
 2634      5F7400
 2635              	.LASF38:
 2636 055d 77616974 		.ascii	"waiting\000"
 2636      696E6700 
 2637              	.LASF58:
 2638 0565 76697274 		.ascii	"virtual_timers_list_t\000"
 2638      75616C5F 
 2638      74696D65 
 2638      72735F6C 
 2638      6973745F 
 2639              	.LASF118:
 2640 057b 43686962 		.ascii	"ChibiOS/os/common/ports/ARMCMx/chcore_v6m.c\000"
 2640      694F532F 
 2640      6F732F63 
 2640      6F6D6D6F 
 2640      6E2F706F 
 2641              	.LASF109:
 2642 05a7 5F706F72 		.ascii	"_port_irq_epilogue\000"
 2642      745F6972 
 2642      715F6570 
 2642      696C6F67 
 2642      756500
 2643              	.LASF110:
 2644 05ba 4E4D495F 		.ascii	"NMI_Handler\000"
 2644      48616E64 
 2644      6C657200 
 2645              	.LASF35:
 2646 05c6 73746174 		.ascii	"state\000"
 2646      6500
 2647              	.LASF74:
 2648 05cc 6C725F74 		.ascii	"lr_thd\000"
 2648      686400
 2649              	.LASF64:
 2650 05d3 63685F73 		.ascii	"ch_system_t\000"
 2650      79737465 
 2650      6D5F7400 
ARM GAS  /tmp/cc0lvdnj.s 			page 52


 2651              	.LASF79:
 2652 05df 77747472 		.ascii	"wttrp\000"
 2652      7000
 2653              	.LASF3:
 2654 05e5 7369676E 		.ascii	"signed char\000"
 2654      65642063 
 2654      68617200 
 2655              	.LASF56:
 2656 05f1 64656C74 		.ascii	"delta\000"
 2656      6100
 2657              	.LASF8:
 2658 05f7 73686F72 		.ascii	"short unsigned int\000"
 2658      7420756E 
 2658      7369676E 
 2658      65642069 
 2658      6E7400
 2659              	.LASF70:
 2660 060a 73746B61 		.ascii	"stkalign_t\000"
 2660      6C69676E 
 2660      5F7400
 2661              	.LASF102:
 2662 0615 6F66665F 		.ascii	"off_refs\000"
 2662      72656673 
 2662      00
 2663              	.LASF52:
 2664 061e 63757272 		.ascii	"current\000"
 2664      656E7400 
 2665              	.LASF106:
 2666 0626 63685F64 		.ascii	"ch_debug\000"
 2666      65627567 
 2666      00
 2667              	.LASF113:
 2668 062f 706F7274 		.ascii	"port_unlock\000"
 2668      5F756E6C 
 2668      6F636B00 
 2669              	.LASF32:
 2670 063b 6F6C6465 		.ascii	"older\000"
 2670      7200
 2671              	.LASF77:
 2672 0641 65786974 		.ascii	"exitcode\000"
 2672      636F6465 
 2672      00
 2673              	.LASF122:
 2674 064a 5F5F6765 		.ascii	"__get_PSP\000"
 2674      745F5053 
 2674      5000
 2675              		.ident	"GCC: (GNU Tools for Arm Embedded Processors 8-2018-q4-major) 8.2.1 20181213 (release) [gcc
ARM GAS  /tmp/cc0lvdnj.s 			page 53


DEFINED SYMBOLS
                            *ABS*:0000000000000000 chcore_v6m.c
     /tmp/cc0lvdnj.s:16     .text.NMI_Handler:0000000000000000 $t
     /tmp/cc0lvdnj.s:25     .text.NMI_Handler:0000000000000000 NMI_Handler
     /tmp/cc0lvdnj.s:129    .text._port_irq_epilogue:0000000000000000 $t
     /tmp/cc0lvdnj.s:137    .text._port_irq_epilogue:0000000000000000 _port_irq_epilogue
     /tmp/cc0lvdnj.s:276    .text._port_irq_epilogue:0000000000000030 $d

UNDEFINED SYMBOLS
chSchIsPreemptionRequired
_port_switch_from_isr
_port_exit_from_isr
