ARM GAS  /tmp/cc0lvdnj.s 			page 1


   1              		.cpu cortex-m0
   2              		.eabi_attribute 20, 1
   3              		.eabi_attribute 21, 1
   4              		.eabi_attribute 23, 3
   5              		.eabi_attribute 24, 1
   6              		.eabi_attribute 25, 1
   7              		.eabi_attribute 26, 1
   8              		.eabi_attribute 30, 2
   9              		.eabi_attribute 34, 0
  10              		.eabi_attribute 18, 4
  11              		.file	"chcore_v6m.c"
  12              		.text
  13              	.Ltext0:
  14              		.cfi_sections	.debug_frame
  15              		.section	.text.NMI_Handler,"ax",%progbits
  16              		.align	1
  17              		.p2align 4,,15
  18              		.global	NMI_Handler
  19              		.arch armv6s-m
  20              		.syntax unified
  21              		.code	16
  22              		.thumb_func
  23              		.fpu softvfp
  24              		.type	NMI_Handler, %function
  25              	NMI_Handler:
  26              	.LFB121:
  27              		.file 1 "ChibiOS/os/common/ports/ARMCMx/chcore_v6m.c"
  28              		.loc 1 61 24 view -0
  29              		.cfi_startproc
  30              		@ args = 0, pretend = 0, frame = 0
  31              		@ frame_needed = 1, uses_anonymous_args = 0
  32              		.loc 1 65 3 view .LVU1
  33              	.LBB42:
  34              	.LBI42:
  35              		.file 2 "ChibiOS/os/common/ext/CMSIS/include/core_cmFunc.h"
  36              		.loc 2 426 61 view .LVU2
  37              	.LBB43:
  38              		.loc 2 428 3 view .LVU3
  39              		.loc 2 430 3 view .LVU4
  40              	.LBE43:
  41              	.LBE42:
  42              		.loc 1 61 24 is_stmt 0 view .LVU5
  43 0000 80B5     		push	{r7, lr}
  44              		.cfi_def_cfa_offset 8
  45              		.cfi_offset 7, -8
  46              		.cfi_offset 14, -4
  47 0002 00AF     		add	r7, sp, #0
  48              		.cfi_def_cfa_register 7
  49              	.LBB45:
  50              	.LBB44:
  51              		.loc 2 430 3 view .LVU6
  52              		.syntax divided
  53              	@ 430 "ChibiOS/os/common/ext/CMSIS/include/core_cmFunc.h" 1
  54 0004 EFF30983 		MRS r3, psp
  55              	
  56              	@ 0 "" 2
  57              	.LVL0:
ARM GAS  /tmp/cc0lvdnj.s 			page 2


  58              		.loc 2 431 3 is_stmt 1 view .LVU7
  59              		.loc 2 431 3 is_stmt 0 view .LVU8
  60              		.thumb
  61              		.syntax unified
  62              	.LBE44:
  63              	.LBE45:
  64              		.loc 1 69 3 is_stmt 1 view .LVU9
  65              		.loc 1 72 3 view .LVU10
  66              	.LBB46:
  67              	.LBI46:
  68              		.loc 2 441 57 view .LVU11
  69              	.LBB47:
  70              		.loc 2 443 3 view .LVU12
  71              	.LBE47:
  72              	.LBE46:
  73              		.loc 1 69 7 is_stmt 0 view .LVU13
  74 0008 2033     		adds	r3, r3, #32
  75              	.LVL1:
  76              	.LBB49:
  77              	.LBB48:
  78              		.loc 2 443 3 view .LVU14
  79              		.syntax divided
  80              	@ 443 "ChibiOS/os/common/ext/CMSIS/include/core_cmFunc.h" 1
  81 000a 83F30988 		MSR psp, r3
  82              	
  83              	@ 0 "" 2
  84              	.LVL2:
  85              		.loc 2 443 3 view .LVU15
  86              		.thumb
  87              		.syntax unified
  88              	.LBE48:
  89              	.LBE49:
  90              		.loc 1 75 3 is_stmt 1 view .LVU16
  91              	.LBB50:
  92              	.LBI50:
  93              		.file 3 "ChibiOS/os/common/ports/ARMCMx/chcore_v6m.h"
  94              		.loc 3 400 20 view .LVU17
  95              	.LBE50:
  96              		.loc 3 402 3 view .LVU18
  97              	.LBB55:
  98              	.LBB51:
  99              	.LBI51:
 100              		.loc 3 380 20 view .LVU19
 101              	.LBE51:
 102              	.LBE55:
 103              		.loc 3 382 3 view .LVU20
 104              	.LBB56:
 105              	.LBB54:
 106              	.LBB52:
 107              	.LBI52:
 108              		.loc 2 331 57 view .LVU21
 109              	.LBB53:
 110              		.loc 2 333 3 view .LVU22
 111              		.syntax divided
 112              	@ 333 "ChibiOS/os/common/ext/CMSIS/include/core_cmFunc.h" 1
 113 000e 62B6     		cpsie i
 114              	@ 0 "" 2
ARM GAS  /tmp/cc0lvdnj.s 			page 3


 115              		.thumb
 116              		.syntax unified
 117              	.LBE53:
 118              	.LBE52:
 119              	.LBE54:
 120              	.LBE56:
 121              		.loc 1 76 1 is_stmt 0 view .LVU23
 122 0010 BD46     		mov	sp, r7
 123              		@ sp needed
 124 0012 80BD     		pop	{r7, pc}
 125              		.cfi_endproc
 126              	.LFE121:
 127              		.size	NMI_Handler, .-NMI_Handler
 128              		.section	.text._port_irq_epilogue,"ax",%progbits
 129              		.align	1
 130              		.p2align 4,,15
 131              		.global	_port_irq_epilogue
 132              		.syntax unified
 133              		.code	16
 134              		.thumb_func
 135              		.fpu softvfp
 136              		.type	_port_irq_epilogue, %function
 137              	_port_irq_epilogue:
 138              	.LVL3:
 139              	.LFB122:
 140              		.loc 1 110 38 is_stmt 1 view -0
 141              		.cfi_startproc
 142              		@ args = 0, pretend = 0, frame = 0
 143              		@ frame_needed = 1, uses_anonymous_args = 0
 144              		.loc 1 112 3 view .LVU25
 145              		.loc 1 110 38 is_stmt 0 view .LVU26
 146 0000 B0B5     		push	{r4, r5, r7, lr}
 147              		.cfi_def_cfa_offset 16
 148              		.cfi_offset 4, -16
 149              		.cfi_offset 5, -12
 150              		.cfi_offset 7, -8
 151              		.cfi_offset 14, -4
 152 0002 00AF     		add	r7, sp, #0
 153              		.cfi_def_cfa_register 7
 154              		.loc 1 112 6 view .LVU27
 155 0004 0F30     		adds	r0, r0, #15
 156 0006 0ED0     		beq	.L3
 157              	.LVL4:
 158              	.LBB57:
 159              		.loc 1 113 5 is_stmt 1 view .LVU28
 160              		.loc 1 115 5 view .LVU29
 161              	.LBB58:
 162              	.LBI58:
 163              		.loc 3 390 20 view .LVU30
 164              	.LBE58:
 165              	.LBE57:
 166              		.loc 3 392 3 view .LVU31
 167              	.LBB71:
 168              	.LBB63:
 169              	.LBB59:
 170              	.LBI59:
 171              		.loc 3 371 20 view .LVU32
ARM GAS  /tmp/cc0lvdnj.s 			page 4


 172              	.LBE59:
 173              	.LBE63:
 174              	.LBE71:
 175              		.loc 3 373 3 view .LVU33
 176              	.LBB72:
 177              	.LBB64:
 178              	.LBB62:
 179              	.LBB60:
 180              	.LBI60:
 181              		.loc 2 342 57 view .LVU34
 182              	.LBB61:
 183              		.loc 2 344 3 view .LVU35
 184              		.syntax divided
 185              	@ 344 "ChibiOS/os/common/ext/CMSIS/include/core_cmFunc.h" 1
 186 0008 72B6     		cpsid i
 187              	@ 0 "" 2
 188              		.thumb
 189              		.syntax unified
 190              	.LBE61:
 191              	.LBE60:
 192              	.LBE62:
 193              	.LBE64:
 194              		.loc 1 118 5 view .LVU36
 195              	.LBB65:
 196              	.LBI65:
 197              		.loc 2 426 61 view .LVU37
 198              	.LBB66:
 199              		.loc 2 428 3 view .LVU38
 200              		.loc 2 430 3 view .LVU39
 201              		.syntax divided
 202              	@ 430 "ChibiOS/os/common/ext/CMSIS/include/core_cmFunc.h" 1
 203 000a EFF30984 		MRS r4, psp
 204              	
 205              	@ 0 "" 2
 206              	.LVL5:
 207              		.loc 2 431 3 view .LVU40
 208              		.loc 2 431 3 is_stmt 0 view .LVU41
 209              		.thumb
 210              		.syntax unified
 211              	.LBE66:
 212              	.LBE65:
 213              		.loc 1 122 5 is_stmt 1 view .LVU42
 214              		.loc 1 125 5 view .LVU43
 215              	.LBB67:
 216              	.LBI67:
 217              		.loc 2 441 57 view .LVU44
 218              	.LBB68:
 219              		.loc 2 443 3 view .LVU45
 220              	.LBE68:
 221              	.LBE67:
 222              		.loc 1 122 9 is_stmt 0 view .LVU46
 223 000e 203C     		subs	r4, r4, #32
 224              	.LVL6:
 225              	.LBB70:
 226              	.LBB69:
 227              		.loc 2 443 3 view .LVU47
 228              		.syntax divided
ARM GAS  /tmp/cc0lvdnj.s 			page 5


 229              	@ 443 "ChibiOS/os/common/ext/CMSIS/include/core_cmFunc.h" 1
 230 0010 84F30988 		MSR psp, r4
 231              	
 232              	@ 0 "" 2
 233              	.LVL7:
 234              		.loc 2 443 3 view .LVU48
 235              		.thumb
 236              		.syntax unified
 237              	.LBE69:
 238              	.LBE70:
 239              		.loc 1 128 5 is_stmt 1 view .LVU49
 240              		.loc 1 128 16 is_stmt 0 view .LVU50
 241 0014 8023     		movs	r3, #128
 242 0016 5B04     		lsls	r3, r3, #17
 243 0018 E361     		str	r3, [r4, #28]
 244              		.loc 1 132 5 is_stmt 1 view .LVU51
 245              		.loc 1 132 9 is_stmt 0 view .LVU52
 246 001a FFF7FEFF 		bl	chSchIsPreemptionRequired
 247              	.LVL8:
 248              		.loc 1 132 8 view .LVU53
 249 001e 0028     		cmp	r0, #0
 250 0020 03D0     		beq	.L5
 251              		.loc 1 134 7 is_stmt 1 view .LVU54
 252              		.loc 1 134 16 is_stmt 0 view .LVU55
 253 0022 034B     		ldr	r3, .L9
 254 0024 A361     		str	r3, [r4, #24]
 255              	.LVL9:
 256              	.L3:
 257              		.loc 1 134 16 view .LVU56
 258              	.LBE72:
 259              		.loc 1 145 1 view .LVU57
 260 0026 BD46     		mov	sp, r7
 261              		@ sp needed
 262 0028 B0BD     		pop	{r4, r5, r7, pc}
 263              	.LVL10:
 264              	.L5:
 265              	.LBB73:
 266              		.loc 1 139 7 is_stmt 1 view .LVU58
 267              		.loc 1 139 16 is_stmt 0 view .LVU59
 268 002a 024B     		ldr	r3, .L9+4
 269 002c A361     		str	r3, [r4, #24]
 270              	.LBE73:
 271              		.loc 1 145 1 view .LVU60
 272 002e FAE7     		b	.L3
 273              	.L10:
 274              		.align	2
 275              	.L9:
 276 0030 00000000 		.word	_port_switch_from_isr
 277 0034 00000000 		.word	_port_exit_from_isr
 278              		.cfi_endproc
 279              	.LFE122:
 280              		.size	_port_irq_epilogue, .-_port_irq_epilogue
 281              		.text
 282              	.Letext0:
 283              		.file 4 "/opt/nanovna/gcc-arm-none-eabi-8-2018-q4-major/arm-none-eabi/include/machine/_default_typ
 284              		.file 5 "/opt/nanovna/gcc-arm-none-eabi-8-2018-q4-major/arm-none-eabi/include/sys/_stdint.h"
 285              		.file 6 "ChibiOS/os/common/ports/ARMCMx/compilers/GCC/chtypes.h"
ARM GAS  /tmp/cc0lvdnj.s 			page 6


 286              		.file 7 "ChibiOS/os/rt/include/chsystypes.h"
 287              		.file 8 "ChibiOS/os/rt/include/chschd.h"
 288              		.file 9 "ChibiOS/os/common/ports/ARMCMx/chcore.h"
 289              		.file 10 "ChibiOS/os/rt/include/chmtx.h"
 290              		.file 11 "ChibiOS/os/common/ext/CMSIS/ST/STM32F0xx/system_stm32f0xx.h"
 291              		.file 12 "ChibiOS/os/rt/include/chsys.h"
 292              		.file 13 "ChibiOS/os/rt/include/chregistry.h"