ARM GAS  /tmp/ccgwBdmu.s 			page 1


   1              		.cpu cortex-m0
   2              		.eabi_attribute 20, 1
   3              		.eabi_attribute 21, 1
   4              		.eabi_attribute 23, 3
   5              		.eabi_attribute 24, 1
   6              		.eabi_attribute 25, 1
   7              		.eabi_attribute 26, 1
   8              		.eabi_attribute 30, 2
   9              		.eabi_attribute 34, 0
  10              		.eabi_attribute 18, 4
  11              		.file	"chmtx.c"
  12              		.text
  13              	.Ltext0:
  14              		.cfi_sections	.debug_frame
  15              		.section	.text.chMtxObjectInit,"ax",%progbits
  16              		.align	1
  17              		.p2align 4,,15
  18              		.global	chMtxObjectInit
  19              		.arch armv6s-m
  20              		.syntax unified
  21              		.code	16
  22              		.thumb_func
  23              		.fpu softvfp
  24              		.type	chMtxObjectInit, %function
  25              	chMtxObjectInit:
  26              	.LVL0:
  27              	.LFB121:
  28              		.file 1 "ChibiOS/os/rt/src/chmtx.c"
  29              		.loc 1 103 35 view -0
  30              		.cfi_startproc
  31              		@ args = 0, pretend = 0, frame = 0
  32              		@ frame_needed = 0, uses_anonymous_args = 0
  33              		@ link register save eliminated.
  34              		.loc 1 105 3 view .LVU1
  35              		.loc 1 105 3 view .LVU2
  36              		.loc 1 107 3 view .LVU3
  37              	.LBB105:
  38              	.LBI105:
  39              		.file 2 "ChibiOS/os/rt/include/chschd.h"
  40              		.loc 2 548 20 view .LVU4
  41              	.LBB106:
  42              		.loc 2 550 3 view .LVU5
  43              	.LBE106:
  44              	.LBE105:
  45              		.loc 1 108 13 is_stmt 0 view .LVU6
  46 0000 0023     		movs	r3, #0
  47              	.LBB108:
  48              	.LBB107:
  49              		.loc 2 550 13 view .LVU7
  50 0002 0060     		str	r0, [r0]
  51              		.loc 2 551 3 is_stmt 1 view .LVU8
  52              		.loc 2 551 13 is_stmt 0 view .LVU9
  53 0004 4060     		str	r0, [r0, #4]
  54              	.LVL1:
  55              		.loc 2 551 13 view .LVU10
  56              	.LBE107:
  57              	.LBE108:
ARM GAS  /tmp/ccgwBdmu.s 			page 2


  58              		.loc 1 108 3 is_stmt 1 view .LVU11
  59              		.loc 1 108 13 is_stmt 0 view .LVU12
  60 0006 8360     		str	r3, [r0, #8]
  61              		.loc 1 110 3 is_stmt 1 view .LVU13
  62              		.loc 1 110 11 is_stmt 0 view .LVU14
  63 0008 0361     		str	r3, [r0, #16]
  64              		.loc 1 112 1 view .LVU15
  65              		@ sp needed
  66 000a 7047     		bx	lr
  67              		.cfi_endproc
  68              	.LFE121:
  69              		.size	chMtxObjectInit, .-chMtxObjectInit
  70              		.section	.text.chMtxLockS,"ax",%progbits
  71              		.align	1
  72              		.p2align 4,,15
  73              		.global	chMtxLockS
  74              		.syntax unified
  75              		.code	16
  76              		.thumb_func
  77              		.fpu softvfp
  78              		.type	chMtxLockS, %function
  79              	chMtxLockS:
  80              	.LVL2:
  81              	.LFB123:
  82              		.loc 1 139 30 is_stmt 1 view -0
  83              		.cfi_startproc
  84              		@ args = 0, pretend = 0, frame = 0
  85              		@ frame_needed = 0, uses_anonymous_args = 0
  86              		.loc 1 140 3 view .LVU17
  87              		.loc 1 139 30 is_stmt 0 view .LVU18
  88 0000 F8B5     		push	{r3, r4, r5, r6, r7, lr}
  89              		.cfi_def_cfa_offset 24
  90              		.cfi_offset 3, -24
  91              		.cfi_offset 4, -20
  92              		.cfi_offset 5, -16
  93              		.cfi_offset 6, -12
  94              		.cfi_offset 7, -8
  95              		.cfi_offset 14, -4
  96              		.loc 1 139 30 view .LVU19
  97 0002 0500     		movs	r5, r0
  98              		.loc 1 140 13 view .LVU20
  99 0004 274B     		ldr	r3, .L22
 100              		.loc 1 146 9 view .LVU21
 101 0006 8068     		ldr	r0, [r0, #8]
 102              	.LVL3:
 103              		.loc 1 140 13 view .LVU22
 104 0008 9C69     		ldr	r4, [r3, #24]
 105              	.LVL4:
 106              		.loc 1 142 21 is_stmt 1 view .LVU23
 107              		.loc 1 143 3 view .LVU24
 108              		.loc 1 143 3 view .LVU25
 109              		.loc 1 146 3 view .LVU26
 110              		.loc 1 146 6 is_stmt 0 view .LVU27
 111 000a 0028     		cmp	r0, #0
 112 000c 3AD0     		beq	.L4
 113              		.loc 1 149 5 is_stmt 1 view .LVU28
 114              		.loc 1 149 5 view .LVU29
ARM GAS  /tmp/ccgwBdmu.s 			page 3


 115              		.loc 1 153 5 view .LVU30
 116              		.loc 1 153 8 is_stmt 0 view .LVU31
 117 000e A042     		cmp	r0, r4
 118 0010 34D0     		beq	.L19
 119              	.LVL5:
 120              	.LBB109:
 121              		.loc 1 165 28 view .LVU32
 122 0012 A268     		ldr	r2, [r4, #8]
 123              		.loc 1 165 13 view .LVU33
 124 0014 8368     		ldr	r3, [r0, #8]
 125              		.loc 1 170 19 view .LVU34
 126 0016 2026     		movs	r6, #32
 127              		.loc 1 165 13 view .LVU35
 128 0018 9342     		cmp	r3, r2
 129 001a 1CD2     		bcs	.L8
 130              	.L11:
 131              		.loc 1 167 9 is_stmt 1 view .LVU36
 132              		.loc 1 167 18 is_stmt 0 view .LVU37
 133 001c 8260     		str	r2, [r0, #8]
 134              		.loc 1 170 9 is_stmt 1 view .LVU38
 135              		.loc 1 170 19 is_stmt 0 view .LVU39
 136 001e 835D     		ldrb	r3, [r0, r6]
 137              		.loc 1 170 9 view .LVU40
 138 0020 002B     		cmp	r3, #0
 139 0022 37D0     		beq	.L7
 140              		.loc 1 170 9 view .LVU41
 141 0024 062B     		cmp	r3, #6
 142 0026 16D1     		bne	.L8
 143              		.loc 1 173 11 is_stmt 1 view .LVU42
 144              	.LVL6:
 145              	.LBB110:
 146              	.LBI110:
 147              		.loc 2 635 25 view .LVU43
 148              	.LBB111:
 149              		.loc 2 637 3 view .LVU44
 150              		.loc 2 637 12 is_stmt 0 view .LVU45
 151 0028 4168     		ldr	r1, [r0, #4]
 152              		.loc 2 637 41 view .LVU46
 153 002a 0368     		ldr	r3, [r0]
 154              		.loc 2 637 30 view .LVU47
 155 002c 0B60     		str	r3, [r1]
 156              		.loc 2 638 3 is_stmt 1 view .LVU48
 157              		.loc 2 638 30 is_stmt 0 view .LVU49
 158 002e 5960     		str	r1, [r3, #4]
 159              		.loc 2 640 3 is_stmt 1 view .LVU50
 160              	.LVL7:
 161              		.loc 2 640 3 is_stmt 0 view .LVU51
 162              	.LBE111:
 163              	.LBE110:
 164              		.loc 1 173 54 view .LVU52
 165 0030 416A     		ldr	r1, [r0, #36]
 166              	.LVL8:
 167              	.LBB112:
 168              	.LBI112:
 169              		.loc 2 597 20 is_stmt 1 view .LVU53
 170              	.LBB113:
 171              		.loc 2 599 13 is_stmt 0 view .LVU54
ARM GAS  /tmp/ccgwBdmu.s 			page 4


 172 0032 0B00     		movs	r3, r1
 173 0034 02E0     		b	.L10
 174              	.LVL9:
 175              	.L20:
 176              		.loc 2 602 36 view .LVU55
 177 0036 9F68     		ldr	r7, [r3, #8]
 178 0038 9742     		cmp	r7, r2
 179 003a 02D3     		bcc	.L9
 180              	.LVL10:
 181              	.L10:
 182              		.loc 2 600 3 is_stmt 1 view .LVU56
 183              		.loc 2 601 5 view .LVU57
 184              		.loc 2 601 8 is_stmt 0 view .LVU58
 185 003c 1B68     		ldr	r3, [r3]
 186              	.LVL11:
 187              		.loc 2 602 3 view .LVU59
 188 003e 9942     		cmp	r1, r3
 189 0040 F9D1     		bne	.L20
 190              	.L9:
 191              		.loc 2 603 3 is_stmt 1 view .LVU60
 192              		.loc 2 604 41 is_stmt 0 view .LVU61
 193 0042 5A68     		ldr	r2, [r3, #4]
 194              		.loc 2 603 30 view .LVU62
 195 0044 0360     		str	r3, [r0]
 196              		.loc 2 604 3 is_stmt 1 view .LVU63
 197              		.loc 2 604 30 is_stmt 0 view .LVU64
 198 0046 4260     		str	r2, [r0, #4]
 199              		.loc 2 605 3 is_stmt 1 view .LVU65
 200              		.loc 2 605 30 is_stmt 0 view .LVU66
 201 0048 1060     		str	r0, [r2]
 202              		.loc 2 606 3 is_stmt 1 view .LVU67
 203              		.loc 2 606 30 is_stmt 0 view .LVU68
 204 004a 5860     		str	r0, [r3, #4]
 205              	.LVL12:
 206              		.loc 2 606 30 view .LVU69
 207              	.LBE113:
 208              	.LBE112:
 209              		.loc 1 174 11 is_stmt 1 view .LVU70
 210              		.loc 1 174 14 is_stmt 0 view .LVU71
 211 004c 8868     		ldr	r0, [r1, #8]
 212              	.LVL13:
 213              		.loc 1 176 11 is_stmt 1 view .LVU72
 214              		.loc 1 165 28 is_stmt 0 view .LVU73
 215 004e A268     		ldr	r2, [r4, #8]
 216              		.loc 1 165 13 view .LVU74
 217 0050 8368     		ldr	r3, [r0, #8]
 218 0052 9342     		cmp	r3, r2
 219 0054 E2D3     		bcc	.L11
 220              	.LVL14:
 221              	.L8:
 222              		.loc 1 212 7 is_stmt 1 view .LVU75
 223              	.LBB114:
 224              	.LBI114:
 225              		.loc 2 597 20 view .LVU76
 226              	.LBB115:
 227              		.loc 2 599 3 view .LVU77
 228              		.loc 2 599 13 is_stmt 0 view .LVU78
ARM GAS  /tmp/ccgwBdmu.s 			page 5


 229 0056 2B00     		movs	r3, r5
 230 0058 03E0     		b	.L14
 231              	.LVL15:
 232              	.L21:
 233              		.loc 2 602 36 view .LVU79
 234 005a 9A68     		ldr	r2, [r3, #8]
 235 005c A168     		ldr	r1, [r4, #8]
 236 005e 8A42     		cmp	r2, r1
 237 0060 02D3     		bcc	.L13
 238              	.L14:
 239              		.loc 2 600 3 is_stmt 1 view .LVU80
 240              		.loc 2 601 5 view .LVU81
 241              		.loc 2 601 8 is_stmt 0 view .LVU82
 242 0062 1B68     		ldr	r3, [r3]
 243              	.LVL16:
 244              		.loc 2 602 3 view .LVU83
 245 0064 9D42     		cmp	r5, r3
 246 0066 F8D1     		bne	.L21
 247              	.L13:
 248              		.loc 2 603 3 is_stmt 1 view .LVU84
 249              		.loc 2 604 41 is_stmt 0 view .LVU85
 250 0068 5A68     		ldr	r2, [r3, #4]
 251              		.loc 2 603 30 view .LVU86
 252 006a 2360     		str	r3, [r4]
 253              		.loc 2 604 3 is_stmt 1 view .LVU87
 254              		.loc 2 604 30 is_stmt 0 view .LVU88
 255 006c 6260     		str	r2, [r4, #4]
 256              		.loc 2 605 3 is_stmt 1 view .LVU89
 257              	.LBE115:
 258              	.LBE114:
 259              		.loc 1 214 7 is_stmt 0 view .LVU90
 260 006e 0620     		movs	r0, #6
 261              	.LBB117:
 262              	.LBB116:
 263              		.loc 2 605 30 view .LVU91
 264 0070 1460     		str	r4, [r2]
 265              		.loc 2 606 3 is_stmt 1 view .LVU92
 266              		.loc 2 606 30 is_stmt 0 view .LVU93
 267 0072 5C60     		str	r4, [r3, #4]
 268              	.LVL17:
 269              		.loc 2 606 30 view .LVU94
 270              	.LBE116:
 271              	.LBE117:
 272              		.loc 1 213 7 is_stmt 1 view .LVU95
 273              		.loc 1 213 21 is_stmt 0 view .LVU96
 274 0074 6562     		str	r5, [r4, #36]
 275              		.loc 1 214 7 is_stmt 1 view .LVU97
 276 0076 FFF7FEFF 		bl	chSchGoSleepS
 277              	.LVL18:
 278              		.loc 1 218 7 view .LVU98
 279              		.loc 1 218 7 view .LVU99
 280              		.loc 1 219 7 view .LVU100
 281              		.loc 1 219 7 view .LVU101
 282 007a 02E0     		b	.L3
 283              	.L19:
 284              		.loc 1 219 7 is_stmt 0 view .LVU102
 285              	.LBE109:
ARM GAS  /tmp/ccgwBdmu.s 			page 6


 286              		.loc 1 154 7 is_stmt 1 view .LVU103
 287              		.loc 1 154 14 is_stmt 0 view .LVU104
 288 007c 2B69     		ldr	r3, [r5, #16]
 289 007e 0133     		adds	r3, r3, #1
 290 0080 2B61     		str	r3, [r5, #16]
 291              	.L3:
 292              		.loc 1 236 1 view .LVU105
 293              		@ sp needed
 294              	.LVL19:
 295              	.LVL20:
 296              		.loc 1 236 1 view .LVU106
 297 0082 F8BD     		pop	{r3, r4, r5, r6, r7, pc}
 298              	.LVL21:
 299              	.L4:
 300              		.loc 1 227 5 is_stmt 1 view .LVU107
 301              		.loc 1 227 5 view .LVU108
 302              		.loc 1 229 5 view .LVU109
 303              		.loc 1 229 12 is_stmt 0 view .LVU110
 304 0084 2B69     		ldr	r3, [r5, #16]
 305              		.loc 1 232 15 view .LVU111
 306 0086 AC60     		str	r4, [r5, #8]
 307              		.loc 1 229 12 view .LVU112
 308 0088 0133     		adds	r3, r3, #1
 309 008a 2B61     		str	r3, [r5, #16]
 310              		.loc 1 232 5 is_stmt 1 view .LVU113
 311              		.loc 1 233 5 view .LVU114
 312              		.loc 1 233 14 is_stmt 0 view .LVU115
 313 008c 236B     		ldr	r3, [r4, #48]
 314 008e EB60     		str	r3, [r5, #12]
 315              		.loc 1 234 5 is_stmt 1 view .LVU116
 316              		.loc 1 234 18 is_stmt 0 view .LVU117
 317 0090 2563     		str	r5, [r4, #48]
 318              		.loc 1 236 1 view .LVU118
 319 0092 F6E7     		b	.L3
 320              	.LVL22:
 321              	.L7:
 322              	.LBB120:
 323              		.loc 1 202 11 is_stmt 1 view .LVU119
 324              	.LBB118:
 325              	.LBI118:
 326              		.loc 2 635 25 view .LVU120
 327              	.LBB119:
 328              		.loc 2 637 3 view .LVU121
 329              		.loc 2 637 12 is_stmt 0 view .LVU122
 330 0094 4268     		ldr	r2, [r0, #4]
 331              		.loc 2 637 41 view .LVU123
 332 0096 0368     		ldr	r3, [r0]
 333              		.loc 2 637 30 view .LVU124
 334 0098 1360     		str	r3, [r2]
 335              		.loc 2 638 3 is_stmt 1 view .LVU125
 336              		.loc 2 638 30 is_stmt 0 view .LVU126
 337 009a 5A60     		str	r2, [r3, #4]
 338              		.loc 2 640 3 is_stmt 1 view .LVU127
 339              	.LVL23:
 340              		.loc 2 640 3 is_stmt 0 view .LVU128
 341              	.LBE119:
 342              	.LBE118:
ARM GAS  /tmp/ccgwBdmu.s 			page 7


 343              		.loc 1 202 18 view .LVU129
 344 009c FFF7FEFF 		bl	chSchReadyI
 345              	.LVL24:
 346              		.loc 1 203 11 is_stmt 1 view .LVU130
 347 00a0 D9E7     		b	.L8
 348              	.L23:
 349 00a2 C046     		.align	2
 350              	.L22:
 351 00a4 00000000 		.word	ch
 352              	.LBE120:
 353              		.cfi_endproc
 354              	.LFE123:
 355              		.size	chMtxLockS, .-chMtxLockS
 356              		.section	.text.chMtxLock,"ax",%progbits
 357              		.align	1
 358              		.p2align 4,,15
 359              		.global	chMtxLock
 360              		.syntax unified
 361              		.code	16
 362              		.thumb_func
 363              		.fpu softvfp
 364              		.type	chMtxLock, %function
 365              	chMtxLock:
 366              	.LVL25:
 367              	.LFB122:
 368              		.loc 1 123 29 view -0
 369              		.cfi_startproc
 370              		@ args = 0, pretend = 0, frame = 0
 371              		@ frame_needed = 0, uses_anonymous_args = 0
 372              		.loc 1 125 3 view .LVU132
 373              	.LBB121:
 374              	.LBI121:
 375              		.file 3 "ChibiOS/os/rt/include/chsys.h"
 376              		.loc 3 374 20 view .LVU133
 377              	.LBE121:
 378              		.loc 3 376 3 view .LVU134
 379              	.LBB129:
 380              	.LBB122:
 381              	.LBI122:
 382              		.file 4 "ChibiOS/os/common/ports/ARMCMx/chcore_v6m.h"
 383              		.loc 4 371 20 view .LVU135
 384              	.LBE122:
 385              	.LBE129:
 386              		.loc 4 373 3 view .LVU136
 387              	.LBB130:
 388              	.LBB127:
 389              	.LBB123:
 390              	.LBI123:
 391              		.file 5 "ChibiOS/os/common/ext/CMSIS/include/core_cmFunc.h"
 392              		.loc 5 342 57 view .LVU137
 393              	.LBB124:
 394              		.loc 5 344 3 view .LVU138
 395              	.LBE124:
 396              	.LBE123:
 397              	.LBE127:
 398              	.LBE130:
 399              		.loc 1 123 29 is_stmt 0 view .LVU139
ARM GAS  /tmp/ccgwBdmu.s 			page 8


 400 0000 10B5     		push	{r4, lr}
 401              		.cfi_def_cfa_offset 8
 402              		.cfi_offset 4, -8
 403              		.cfi_offset 14, -4
 404              	.LBB131:
 405              	.LBB128:
 406              	.LBB126:
 407              	.LBB125:
 408              		.loc 5 344 3 view .LVU140
 409              		.syntax divided
 410              	@ 344 "ChibiOS/os/common/ext/CMSIS/include/core_cmFunc.h" 1
 411 0002 72B6     		cpsid i
 412              	@ 0 "" 2
 413              		.thumb
 414              		.syntax unified
 415              	.LBE125:
 416              	.LBE126:
 417              	.LBE128:
 418              	.LBE131:
 419              		.loc 3 377 34 is_stmt 1 view .LVU141
 420              		.loc 3 378 20 view .LVU142
 421              		.loc 1 126 3 view .LVU143
 422 0004 FFF7FEFF 		bl	chMtxLockS
 423              	.LVL26:
 424              		.loc 1 127 3 view .LVU144
 425              	.LBB132:
 426              	.LBI132:
 427              		.loc 3 386 20 view .LVU145
 428              	.LBB133:
 429              		.loc 3 388 22 view .LVU146
 430              		.loc 3 389 33 view .LVU147
 431              		.loc 3 395 3 view .LVU148
 432              		.loc 3 395 3 view .LVU149
 433              		.loc 3 399 3 view .LVU150
 434              	.LBB134:
 435              	.LBI134:
 436              		.loc 4 380 20 view .LVU151
 437              	.LBE134:
 438              	.LBE133:
 439              	.LBE132:
 440              		.loc 4 382 3 view .LVU152
 441              	.LBB139:
 442              	.LBB138:
 443              	.LBB137:
 444              	.LBB135:
 445              	.LBI135:
 446              		.loc 5 331 57 view .LVU153
 447              	.LBB136:
 448              		.loc 5 333 3 view .LVU154
 449              		.syntax divided
 450              	@ 333 "ChibiOS/os/common/ext/CMSIS/include/core_cmFunc.h" 1
 451 0008 62B6     		cpsie i
 452              	@ 0 "" 2
 453              		.thumb
 454              		.syntax unified
 455              	.LBE136:
 456              	.LBE135:
ARM GAS  /tmp/ccgwBdmu.s 			page 9


 457              	.LBE137:
 458              	.LBE138:
 459              	.LBE139:
 460              		.loc 1 128 1 is_stmt 0 view .LVU155
 461              		@ sp needed
 462 000a 10BD     		pop	{r4, pc}
 463              		.cfi_endproc
 464              	.LFE122:
 465              		.size	chMtxLock, .-chMtxLock
 466              		.section	.text.chMtxTryLockS,"ax",%progbits
 467              		.align	1
 468              		.p2align 4,,15
 469              		.global	chMtxTryLockS
 470              		.syntax unified
 471              		.code	16
 472              		.thumb_func
 473              		.fpu softvfp
 474              		.type	chMtxTryLockS, %function
 475              	chMtxTryLockS:
 476              	.LVL27:
 477              	.LFB125:
 478              		.loc 1 282 33 is_stmt 1 view -0
 479              		.cfi_startproc
 480              		@ args = 0, pretend = 0, frame = 0
 481              		@ frame_needed = 0, uses_anonymous_args = 0
 482              		@ link register save eliminated.
 483              		.loc 1 284 21 view .LVU157
 484              		.loc 1 285 3 view .LVU158
 485              		.loc 1 285 3 view .LVU159
 486              		.loc 1 287 3 view .LVU160
 487 0000 0B49     		ldr	r1, .L30
 488              		.loc 1 287 9 is_stmt 0 view .LVU161
 489 0002 8268     		ldr	r2, [r0, #8]
 490              		.loc 1 282 33 view .LVU162
 491 0004 0300     		movs	r3, r0
 492 0006 8969     		ldr	r1, [r1, #24]
 493              		.loc 1 287 6 view .LVU163
 494 0008 002A     		cmp	r2, #0
 495 000a 08D0     		beq	.L26
 496              		.loc 1 290 5 is_stmt 1 view .LVU164
 497              		.loc 1 290 5 view .LVU165
 498              		.loc 1 292 5 view .LVU166
 499              		.loc 1 297 12 is_stmt 0 view .LVU167
 500 000c 0020     		movs	r0, #0
 501              	.LVL28:
 502              		.loc 1 292 8 view .LVU168
 503 000e 8A42     		cmp	r2, r1
 504 0010 00D0     		beq	.L29
 505              	.L27:
 506              		.loc 1 309 1 view .LVU169
 507              		@ sp needed
 508 0012 7047     		bx	lr
 509              	.L29:
 510              		.loc 1 293 7 is_stmt 1 view .LVU170
 511              		.loc 1 293 14 is_stmt 0 view .LVU171
 512 0014 1A69     		ldr	r2, [r3, #16]
 513              		.loc 1 294 14 view .LVU172
ARM GAS  /tmp/ccgwBdmu.s 			page 10


 514 0016 0130     		adds	r0, r0, #1
 515              		.loc 1 293 14 view .LVU173
 516 0018 0132     		adds	r2, r2, #1
 517 001a 1A61     		str	r2, [r3, #16]
 518              		.loc 1 294 7 is_stmt 1 view .LVU174
 519              		.loc 1 294 14 is_stmt 0 view .LVU175
 520 001c F9E7     		b	.L27
 521              	.LVL29:
 522              	.L26:
 523              	.LBB142:
 524              	.LBI142:
 525              		.loc 1 282 6 is_stmt 1 view .LVU176
 526              	.LBB143:
 527              		.loc 1 301 3 view .LVU177
 528              		.loc 1 301 3 view .LVU178
 529              		.loc 1 303 3 view .LVU179
 530              		.loc 1 303 10 is_stmt 0 view .LVU180
 531 001e 0269     		ldr	r2, [r0, #16]
 532              		.loc 1 305 13 view .LVU181
 533 0020 8160     		str	r1, [r0, #8]
 534              		.loc 1 303 10 view .LVU182
 535 0022 0132     		adds	r2, r2, #1
 536 0024 0261     		str	r2, [r0, #16]
 537              		.loc 1 305 3 is_stmt 1 view .LVU183
 538              		.loc 1 306 3 view .LVU184
 539              		.loc 1 306 12 is_stmt 0 view .LVU185
 540 0026 0A6B     		ldr	r2, [r1, #48]
 541 0028 C260     		str	r2, [r0, #12]
 542              		.loc 1 307 3 is_stmt 1 view .LVU186
 543              		.loc 1 307 18 is_stmt 0 view .LVU187
 544 002a 0863     		str	r0, [r1, #48]
 545              		.loc 1 308 3 is_stmt 1 view .LVU188
 546              	.LVL30:
 547              		.loc 1 307 18 is_stmt 0 view .LVU189
 548 002c 0120     		movs	r0, #1
 549              	.LVL31:
 550              		.loc 1 307 18 view .LVU190
 551 002e F0E7     		b	.L27
 552              	.L31:
 553              		.align	2
 554              	.L30:
 555 0030 00000000 		.word	ch
 556              	.LBE143:
 557              	.LBE142:
 558              		.cfi_endproc
 559              	.LFE125:
 560              		.size	chMtxTryLockS, .-chMtxTryLockS
 561              		.section	.text.chMtxTryLock,"ax",%progbits
 562              		.align	1
 563              		.p2align 4,,15
 564              		.global	chMtxTryLock
 565              		.syntax unified
 566              		.code	16
 567              		.thumb_func
 568              		.fpu softvfp
 569              		.type	chMtxTryLock, %function
 570              	chMtxTryLock:
ARM GAS  /tmp/ccgwBdmu.s 			page 11


 571              	.LVL32:
 572              	.LFB124:
 573              		.loc 1 255 32 is_stmt 1 view -0
 574              		.cfi_startproc
 575              		@ args = 0, pretend = 0, frame = 0
 576              		@ frame_needed = 0, uses_anonymous_args = 0
 577              		.loc 1 256 3 view .LVU192
 578              		.loc 1 258 3 view .LVU193
 579              	.LBB144:
 580              	.LBI144:
 581              		.loc 3 374 20 view .LVU194
 582              	.LBE144:
 583              		.loc 3 376 3 view .LVU195
 584              	.LBB152:
 585              	.LBB145:
 586              	.LBI145:
 587              		.loc 4 371 20 view .LVU196
 588              	.LBE145:
 589              	.LBE152:
 590              		.loc 4 373 3 view .LVU197
 591              	.LBB153:
 592              	.LBB150:
 593              	.LBB146:
 594              	.LBI146:
 595              		.loc 5 342 57 view .LVU198
 596              	.LBB147:
 597              		.loc 5 344 3 view .LVU199
 598              	.LBE147:
 599              	.LBE146:
 600              	.LBE150:
 601              	.LBE153:
 602              		.loc 1 255 32 is_stmt 0 view .LVU200
 603 0000 10B5     		push	{r4, lr}
 604              		.cfi_def_cfa_offset 8
 605              		.cfi_offset 4, -8
 606              		.cfi_offset 14, -4
 607              	.LBB154:
 608              	.LBB151:
 609              	.LBB149:
 610              	.LBB148:
 611              		.loc 5 344 3 view .LVU201
 612              		.syntax divided
 613              	@ 344 "ChibiOS/os/common/ext/CMSIS/include/core_cmFunc.h" 1
 614 0002 72B6     		cpsid i
 615              	@ 0 "" 2
 616              		.thumb
 617              		.syntax unified
 618              	.LBE148:
 619              	.LBE149:
 620              	.LBE151:
 621              	.LBE154:
 622              		.loc 3 377 34 is_stmt 1 view .LVU202
 623              		.loc 3 378 20 view .LVU203
 624              		.loc 1 259 3 view .LVU204
 625              		.loc 1 259 7 is_stmt 0 view .LVU205
 626 0004 FFF7FEFF 		bl	chMtxTryLockS
 627              	.LVL33:
ARM GAS  /tmp/ccgwBdmu.s 			page 12


 628              		.loc 1 260 3 is_stmt 1 view .LVU206
 629              	.LBB155:
 630              	.LBI155:
 631              		.loc 3 386 20 view .LVU207
 632              	.LBB156:
 633              		.loc 3 388 22 view .LVU208
 634              		.loc 3 389 33 view .LVU209
 635              		.loc 3 395 3 view .LVU210
 636              		.loc 3 395 3 view .LVU211
 637              		.loc 3 399 3 view .LVU212
 638              	.LBB157:
 639              	.LBI157:
 640              		.loc 4 380 20 view .LVU213
 641              	.LBE157:
 642              	.LBE156:
 643              	.LBE155:
 644              		.loc 4 382 3 view .LVU214
 645              	.LBB162:
 646              	.LBB161:
 647              	.LBB160:
 648              	.LBB158:
 649              	.LBI158:
 650              		.loc 5 331 57 view .LVU215
 651              	.LBB159:
 652              		.loc 5 333 3 view .LVU216
 653              		.syntax divided
 654              	@ 333 "ChibiOS/os/common/ext/CMSIS/include/core_cmFunc.h" 1
 655 0008 62B6     		cpsie i
 656              	@ 0 "" 2
 657              		.thumb
 658              		.syntax unified
 659              	.LBE159:
 660              	.LBE158:
 661              	.LBE160:
 662              	.LBE161:
 663              	.LBE162:
 664              		.loc 1 262 3 view .LVU217
 665              		.loc 1 263 1 is_stmt 0 view .LVU218
 666              		@ sp needed
 667 000a 10BD     		pop	{r4, pc}
 668              		.cfi_endproc
 669              	.LFE124:
 670              		.size	chMtxTryLock, .-chMtxTryLock
 671              		.section	.text.chMtxUnlock,"ax",%progbits
 672              		.align	1
 673              		.p2align 4,,15
 674              		.global	chMtxUnlock
 675              		.syntax unified
 676              		.code	16
 677              		.thumb_func
 678              		.fpu softvfp
 679              		.type	chMtxUnlock, %function
 680              	chMtxUnlock:
 681              	.LVL34:
 682              	.LFB126:
 683              		.loc 1 323 31 is_stmt 1 view -0
 684              		.cfi_startproc
ARM GAS  /tmp/ccgwBdmu.s 			page 13


 685              		@ args = 0, pretend = 0, frame = 0
 686              		@ frame_needed = 0, uses_anonymous_args = 0
 687              		.loc 1 324 3 view .LVU220
 688              		.loc 1 324 13 is_stmt 0 view .LVU221
 689 0000 164B     		ldr	r3, .L44
 690              		.loc 1 323 31 view .LVU222
 691 0002 70B5     		push	{r4, r5, r6, lr}
 692              		.cfi_def_cfa_offset 16
 693              		.cfi_offset 4, -16
 694              		.cfi_offset 5, -12
 695              		.cfi_offset 6, -8
 696              		.cfi_offset 14, -4
 697              		.loc 1 324 13 view .LVU223
 698 0004 9D69     		ldr	r5, [r3, #24]
 699              	.LVL35:
 700              		.loc 1 325 3 is_stmt 1 view .LVU224
 701              		.loc 1 327 3 view .LVU225
 702              		.loc 1 327 3 view .LVU226
 703              		.loc 1 329 3 view .LVU227
 704              	.LBB163:
 705              	.LBI163:
 706              		.loc 3 374 20 view .LVU228
 707              	.LBE163:
 708              		.loc 3 376 3 view .LVU229
 709              	.LBB168:
 710              	.LBB164:
 711              	.LBI164:
 712              		.loc 4 371 20 view .LVU230
 713              	.LBE164:
 714              	.LBE168:
 715              		.loc 4 373 3 view .LVU231
 716              	.LBB169:
 717              	.LBB167:
 718              	.LBB165:
 719              	.LBI165:
 720              		.loc 5 342 57 view .LVU232
 721              	.LBB166:
 722              		.loc 5 344 3 view .LVU233
 723              		.syntax divided
 724              	@ 344 "ChibiOS/os/common/ext/CMSIS/include/core_cmFunc.h" 1
 725 0006 72B6     		cpsid i
 726              	@ 0 "" 2
 727              		.thumb
 728              		.syntax unified
 729              	.LBE166:
 730              	.LBE165:
 731              	.LBE167:
 732              	.LBE169:
 733              		.loc 3 377 34 view .LVU234
 734              		.loc 3 378 20 view .LVU235
 735              		.loc 1 331 3 view .LVU236
 736              		.loc 1 331 3 view .LVU237
 737              		.loc 1 332 3 view .LVU238
 738              		.loc 1 332 3 view .LVU239
 739              		.loc 1 334 3 view .LVU240
 740              		.loc 1 334 3 view .LVU241
 741              		.loc 1 336 3 view .LVU242
ARM GAS  /tmp/ccgwBdmu.s 			page 14


 742              		.loc 1 336 7 is_stmt 0 view .LVU243
 743 0008 0369     		ldr	r3, [r0, #16]
 744 000a 5A1E     		subs	r2, r3, #1
 745              		.loc 1 336 6 view .LVU244
 746 000c 0261     		str	r2, [r0, #16]
 747 000e 002A     		cmp	r2, #0
 748 0010 20D1     		bne	.L34
 749              		.loc 1 339 5 is_stmt 1 view .LVU245
 750              		.loc 1 339 5 view .LVU246
 751              		.loc 1 344 5 view .LVU247
 752              		.loc 1 344 22 is_stmt 0 view .LVU248
 753 0012 C368     		ldr	r3, [r0, #12]
 754              	.LBB170:
 755              	.LBB171:
 756              	.LBB172:
 757              	.LBB173:
 758              		.loc 2 577 20 view .LVU249
 759 0014 0468     		ldr	r4, [r0]
 760              	.LBE173:
 761              	.LBE172:
 762              	.LBE171:
 763              	.LBE170:
 764              		.loc 1 344 18 view .LVU250
 765 0016 2B63     		str	r3, [r5, #48]
 766              		.loc 1 347 5 is_stmt 1 view .LVU251
 767              	.LVL36:
 768              	.LBB177:
 769              	.LBI170:
 770              		.file 6 "ChibiOS/os/rt/include/chmtx.h"
 771              		.loc 6 130 20 view .LVU252
 772              	.LBB176:
 773              		.loc 6 132 21 view .LVU253
 774              		.loc 6 134 3 view .LVU254
 775              	.LBB175:
 776              	.LBI172:
 777              		.loc 2 575 20 view .LVU255
 778              	.LBB174:
 779              		.loc 2 577 3 view .LVU256
 780              		.loc 2 577 3 is_stmt 0 view .LVU257
 781              	.LBE174:
 782              	.LBE175:
 783              	.LBE176:
 784              	.LBE177:
 785              		.loc 1 347 8 view .LVU258
 786 0018 8442     		cmp	r4, r0
 787 001a 1DD0     		beq	.L35
 788              	.LBB178:
 789              		.loc 1 348 7 is_stmt 1 view .LVU259
 790              		.loc 1 352 7 view .LVU260
 791              		.loc 1 352 15 is_stmt 0 view .LVU261
 792 001c 696B     		ldr	r1, [r5, #52]
 793              	.LVL37:
 794              		.loc 1 353 7 is_stmt 1 view .LVU262
 795              		.loc 1 354 7 view .LVU263
 796              		.loc 1 354 13 is_stmt 0 view .LVU264
 797 001e 002B     		cmp	r3, #0
 798 0020 09D0     		beq	.L36
ARM GAS  /tmp/ccgwBdmu.s 			page 15


 799              	.L39:
 800              		.loc 1 358 9 is_stmt 1 view .LVU265
 801              	.LVL38:
 802              	.LBB179:
 803              	.LBI179:
 804              		.loc 6 130 20 view .LVU266
 805              	.LBB180:
 806              		.loc 6 132 21 view .LVU267
 807              		.loc 6 134 3 view .LVU268
 808              	.LBB181:
 809              	.LBI181:
 810              		.loc 2 575 20 view .LVU269
 811              	.LBB182:
 812              		.loc 2 577 3 view .LVU270
 813              		.loc 2 577 20 is_stmt 0 view .LVU271
 814 0022 1A68     		ldr	r2, [r3]
 815              	.LVL39:
 816              		.loc 2 577 20 view .LVU272
 817              	.LBE182:
 818              	.LBE181:
 819              	.LBE180:
 820              	.LBE179:
 821              		.loc 1 358 12 view .LVU273
 822 0024 9342     		cmp	r3, r2
 823 0026 03D0     		beq	.L37
 824              		.loc 1 358 12 view .LVU274
 825 0028 9268     		ldr	r2, [r2, #8]
 826 002a 9142     		cmp	r1, r2
 827 002c 00D2     		bcs	.L37
 828 002e 1100     		movs	r1, r2
 829              	.LVL40:
 830              	.L37:
 831              		.loc 1 362 9 is_stmt 1 view .LVU275
 832              		.loc 1 362 13 is_stmt 0 view .LVU276
 833 0030 DB68     		ldr	r3, [r3, #12]
 834              	.LVL41:
 835              		.loc 1 354 13 view .LVU277
 836 0032 002B     		cmp	r3, #0
 837 0034 F5D1     		bne	.L39
 838              	.L36:
 839              		.loc 1 367 7 is_stmt 1 view .LVU278
 840              		.loc 1 372 15 is_stmt 0 view .LVU279
 841 0036 0123     		movs	r3, #1
 842              	.LVL42:
 843              		.loc 1 367 17 view .LVU280
 844 0038 A960     		str	r1, [r5, #8]
 845              		.loc 1 372 7 is_stmt 1 view .LVU281
 846              		.loc 1 372 15 is_stmt 0 view .LVU282
 847 003a 0361     		str	r3, [r0, #16]
 848              		.loc 1 374 7 is_stmt 1 view .LVU283
 849              	.LVL43:
 850              	.LBB183:
 851              	.LBI183:
 852              		.loc 2 617 25 view .LVU284
 853              	.LBB184:
 854              		.loc 2 618 3 view .LVU285
 855              		.loc 2 620 3 view .LVU286
ARM GAS  /tmp/ccgwBdmu.s 			page 16


 856              		.loc 2 620 36 is_stmt 0 view .LVU287
 857 003c 2368     		ldr	r3, [r4]
 858              		.loc 2 620 25 view .LVU288
 859 003e 0360     		str	r3, [r0]
 860              		.loc 2 621 3 is_stmt 1 view .LVU289
 861              		.loc 2 621 25 is_stmt 0 view .LVU290
 862 0040 5860     		str	r0, [r3, #4]
 863              		.loc 2 623 3 is_stmt 1 view .LVU291
 864              	.LVL44:
 865              		.loc 2 623 3 is_stmt 0 view .LVU292
 866              	.LBE184:
 867              	.LBE183:
 868              		.loc 1 375 7 is_stmt 1 view .LVU293
 869              		.loc 1 376 16 is_stmt 0 view .LVU294
 870 0042 236B     		ldr	r3, [r4, #48]
 871              		.loc 1 375 17 view .LVU295
 872 0044 8460     		str	r4, [r0, #8]
 873              		.loc 1 376 7 is_stmt 1 view .LVU296
 874              		.loc 1 376 16 is_stmt 0 view .LVU297
 875 0046 C360     		str	r3, [r0, #12]
 876              		.loc 1 377 7 is_stmt 1 view .LVU298
 877              		.loc 1 377 19 is_stmt 0 view .LVU299
 878 0048 2063     		str	r0, [r4, #48]
 879              		.loc 1 383 7 is_stmt 1 view .LVU300
 880              		.loc 1 383 14 is_stmt 0 view .LVU301
 881 004a 2000     		movs	r0, r4
 882              	.LVL45:
 883              		.loc 1 383 14 view .LVU302
 884 004c FFF7FEFF 		bl	chSchReadyI
 885              	.LVL46:
 886              		.loc 1 384 7 is_stmt 1 view .LVU303
 887 0050 FFF7FEFF 		bl	chSchRescheduleS
 888              	.LVL47:
 889              	.L34:
 890              		.loc 1 384 7 is_stmt 0 view .LVU304
 891              	.LBE178:
 892              		.loc 1 393 3 is_stmt 1 view .LVU305
 893              	.LBB185:
 894              	.LBI185:
 895              		.loc 3 386 20 view .LVU306
 896              	.LBB186:
 897              		.loc 3 388 22 view .LVU307
 898              		.loc 3 389 33 view .LVU308
 899              		.loc 3 395 3 view .LVU309
 900              		.loc 3 395 3 view .LVU310
 901              		.loc 3 399 3 view .LVU311
 902              	.LBB187:
 903              	.LBI187:
 904              		.loc 4 380 20 view .LVU312
 905              	.LBE187:
 906              	.LBE186:
 907              	.LBE185:
 908              		.loc 4 382 3 view .LVU313
 909              	.LBB192:
 910              	.LBB191:
 911              	.LBB190:
 912              	.LBB188:
ARM GAS  /tmp/ccgwBdmu.s 			page 17


 913              	.LBI188:
 914              		.loc 5 331 57 view .LVU314
 915              	.LBB189:
 916              		.loc 5 333 3 view .LVU315
 917              		.syntax divided
 918              	@ 333 "ChibiOS/os/common/ext/CMSIS/include/core_cmFunc.h" 1
 919 0054 62B6     		cpsie i
 920              	@ 0 "" 2
 921              		.thumb
 922              		.syntax unified
 923              	.LBE189:
 924              	.LBE188:
 925              	.LBE190:
 926              	.LBE191:
 927              	.LBE192:
 928              		.loc 1 394 1 is_stmt 0 view .LVU316
 929              		@ sp needed
 930              	.LVL48:
 931              		.loc 1 394 1 view .LVU317
 932 0056 70BD     		pop	{r4, r5, r6, pc}
 933              	.LVL49:
 934              	.L35:
 935              		.loc 1 387 7 is_stmt 1 view .LVU318
 936              		.loc 1 387 17 is_stmt 0 view .LVU319
 937 0058 A260     		str	r2, [r4, #8]
 938 005a FBE7     		b	.L34
 939              	.L45:
 940              		.align	2
 941              	.L44:
 942 005c 00000000 		.word	ch
 943              		.cfi_endproc
 944              	.LFE126:
 945              		.size	chMtxUnlock, .-chMtxUnlock
 946              		.section	.text.chMtxUnlockS,"ax",%progbits
 947              		.align	1
 948              		.p2align 4,,15
 949              		.global	chMtxUnlockS
 950              		.syntax unified
 951              		.code	16
 952              		.thumb_func
 953              		.fpu softvfp
 954              		.type	chMtxUnlockS, %function
 955              	chMtxUnlockS:
 956              	.LVL50:
 957              	.LFB127:
 958              		.loc 1 410 32 is_stmt 1 view -0
 959              		.cfi_startproc
 960              		@ args = 0, pretend = 0, frame = 0
 961              		@ frame_needed = 0, uses_anonymous_args = 0
 962              		.loc 1 411 3 view .LVU321
 963              		.loc 1 411 13 is_stmt 0 view .LVU322
 964 0000 144B     		ldr	r3, .L57
 965              		.loc 1 410 32 view .LVU323
 966 0002 70B5     		push	{r4, r5, r6, lr}
 967              		.cfi_def_cfa_offset 16
 968              		.cfi_offset 4, -16
 969              		.cfi_offset 5, -12
ARM GAS  /tmp/ccgwBdmu.s 			page 18


 970              		.cfi_offset 6, -8
 971              		.cfi_offset 14, -4
 972              		.loc 1 411 13 view .LVU324
 973 0004 9D69     		ldr	r5, [r3, #24]
 974              	.LVL51:
 975              		.loc 1 412 3 is_stmt 1 view .LVU325
 976              		.loc 1 414 21 view .LVU326
 977              		.loc 1 415 3 view .LVU327
 978              		.loc 1 415 3 view .LVU328
 979              		.loc 1 417 3 view .LVU329
 980              		.loc 1 417 3 view .LVU330
 981              		.loc 1 418 3 view .LVU331
 982              		.loc 1 418 3 view .LVU332
 983              		.loc 1 420 3 view .LVU333
 984              		.loc 1 420 3 view .LVU334
 985              		.loc 1 422 3 view .LVU335
 986              		.loc 1 422 7 is_stmt 0 view .LVU336
 987 0006 0369     		ldr	r3, [r0, #16]
 988 0008 5A1E     		subs	r2, r3, #1
 989              		.loc 1 422 6 view .LVU337
 990 000a 0261     		str	r2, [r0, #16]
 991 000c 002A     		cmp	r2, #0
 992 000e 1ED1     		bne	.L46
 993              		.loc 1 425 5 is_stmt 1 view .LVU338
 994              		.loc 1 425 5 view .LVU339
 995              		.loc 1 430 5 view .LVU340
 996              		.loc 1 430 22 is_stmt 0 view .LVU341
 997 0010 C368     		ldr	r3, [r0, #12]
 998              	.LBB193:
 999              	.LBB194:
 1000              	.LBB195:
 1001              	.LBB196:
 1002              		.loc 2 577 20 view .LVU342
 1003 0012 0468     		ldr	r4, [r0]
 1004              	.LBE196:
 1005              	.LBE195:
 1006              	.LBE194:
 1007              	.LBE193:
 1008              		.loc 1 430 18 view .LVU343
 1009 0014 2B63     		str	r3, [r5, #48]
 1010              		.loc 1 433 5 is_stmt 1 view .LVU344
 1011              	.LVL52:
 1012              	.LBB200:
 1013              	.LBI193:
 1014              		.loc 6 130 20 view .LVU345
 1015              	.LBB199:
 1016              		.loc 6 132 21 view .LVU346
 1017              		.loc 6 134 3 view .LVU347
 1018              	.LBB198:
 1019              	.LBI195:
 1020              		.loc 2 575 20 view .LVU348
 1021              	.LBB197:
 1022              		.loc 2 577 3 view .LVU349
 1023              		.loc 2 577 3 is_stmt 0 view .LVU350
 1024              	.LBE197:
 1025              	.LBE198:
 1026              	.LBE199:
ARM GAS  /tmp/ccgwBdmu.s 			page 19


 1027              	.LBE200:
 1028              		.loc 1 433 8 view .LVU351
 1029 0016 8442     		cmp	r4, r0
 1030 0018 1AD0     		beq	.L48
 1031              	.LBB201:
 1032              		.loc 1 434 7 is_stmt 1 view .LVU352
 1033              		.loc 1 438 7 view .LVU353
 1034              		.loc 1 438 15 is_stmt 0 view .LVU354
 1035 001a 696B     		ldr	r1, [r5, #52]
 1036              	.LVL53:
 1037              		.loc 1 439 7 is_stmt 1 view .LVU355
 1038              		.loc 1 440 7 view .LVU356
 1039              		.loc 1 440 13 is_stmt 0 view .LVU357
 1040 001c 002B     		cmp	r3, #0
 1041 001e 09D0     		beq	.L49
 1042              	.L52:
 1043              		.loc 1 444 9 is_stmt 1 view .LVU358
 1044              	.LVL54:
 1045              	.LBB202:
 1046              	.LBI202:
 1047              		.loc 6 130 20 view .LVU359
 1048              	.LBB203:
 1049              		.loc 6 132 21 view .LVU360
 1050              		.loc 6 134 3 view .LVU361
 1051              	.LBB204:
 1052              	.LBI204:
 1053              		.loc 2 575 20 view .LVU362
 1054              	.LBB205:
 1055              		.loc 2 577 3 view .LVU363
 1056              		.loc 2 577 20 is_stmt 0 view .LVU364
 1057 0020 1A68     		ldr	r2, [r3]
 1058              	.LVL55:
 1059              		.loc 2 577 20 view .LVU365
 1060              	.LBE205:
 1061              	.LBE204:
 1062              	.LBE203:
 1063              	.LBE202:
 1064              		.loc 1 444 12 view .LVU366
 1065 0022 9342     		cmp	r3, r2
 1066 0024 03D0     		beq	.L50
 1067              		.loc 1 444 12 view .LVU367
 1068 0026 9268     		ldr	r2, [r2, #8]
 1069 0028 9142     		cmp	r1, r2
 1070 002a 00D2     		bcs	.L50
 1071 002c 1100     		movs	r1, r2
 1072              	.LVL56:
 1073              	.L50:
 1074              		.loc 1 448 9 is_stmt 1 view .LVU368
 1075              		.loc 1 448 13 is_stmt 0 view .LVU369
 1076 002e DB68     		ldr	r3, [r3, #12]
 1077              	.LVL57:
 1078              		.loc 1 440 13 view .LVU370
 1079 0030 002B     		cmp	r3, #0
 1080 0032 F5D1     		bne	.L52
 1081              	.L49:
 1082              		.loc 1 453 7 is_stmt 1 view .LVU371
 1083              		.loc 1 458 15 is_stmt 0 view .LVU372
ARM GAS  /tmp/ccgwBdmu.s 			page 20


 1084 0034 0123     		movs	r3, #1
 1085              	.LVL58:
 1086              		.loc 1 453 17 view .LVU373
 1087 0036 A960     		str	r1, [r5, #8]
 1088              		.loc 1 458 7 is_stmt 1 view .LVU374
 1089              		.loc 1 458 15 is_stmt 0 view .LVU375
 1090 0038 0361     		str	r3, [r0, #16]
 1091              		.loc 1 460 7 is_stmt 1 view .LVU376
 1092              	.LVL59:
 1093              	.LBB206:
 1094              	.LBI206:
 1095              		.loc 2 617 25 view .LVU377
 1096              	.LBB207:
 1097              		.loc 2 618 3 view .LVU378
 1098              		.loc 2 620 3 view .LVU379
 1099              		.loc 2 620 36 is_stmt 0 view .LVU380
 1100 003a 2368     		ldr	r3, [r4]
 1101              		.loc 2 620 25 view .LVU381
 1102 003c 0360     		str	r3, [r0]
 1103              		.loc 2 621 3 is_stmt 1 view .LVU382
 1104              		.loc 2 621 25 is_stmt 0 view .LVU383
 1105 003e 5860     		str	r0, [r3, #4]
 1106              		.loc 2 623 3 is_stmt 1 view .LVU384
 1107              	.LVL60:
 1108              		.loc 2 623 3 is_stmt 0 view .LVU385
 1109              	.LBE207:
 1110              	.LBE206:
 1111              		.loc 1 461 7 is_stmt 1 view .LVU386
 1112              		.loc 1 462 16 is_stmt 0 view .LVU387
 1113 0040 236B     		ldr	r3, [r4, #48]
 1114              		.loc 1 461 17 view .LVU388
 1115 0042 8460     		str	r4, [r0, #8]
 1116              		.loc 1 462 7 is_stmt 1 view .LVU389
 1117              		.loc 1 462 16 is_stmt 0 view .LVU390
 1118 0044 C360     		str	r3, [r0, #12]
 1119              		.loc 1 463 7 is_stmt 1 view .LVU391
 1120              		.loc 1 463 19 is_stmt 0 view .LVU392
 1121 0046 2063     		str	r0, [r4, #48]
 1122              		.loc 1 464 7 is_stmt 1 view .LVU393
 1123              		.loc 1 464 14 is_stmt 0 view .LVU394
 1124 0048 2000     		movs	r0, r4
 1125              	.LVL61:
 1126              		.loc 1 464 14 view .LVU395
 1127 004a FFF7FEFF 		bl	chSchReadyI
 1128              	.LVL62:
 1129              	.L46:
 1130              		.loc 1 464 14 view .LVU396
 1131              	.LBE201:
 1132              		.loc 1 472 1 view .LVU397
 1133              		@ sp needed
 1134              	.LVL63:
 1135              		.loc 1 472 1 view .LVU398
 1136 004e 70BD     		pop	{r4, r5, r6, pc}
 1137              	.LVL64:
 1138              	.L48:
 1139              		.loc 1 467 7 is_stmt 1 view .LVU399
 1140              		.loc 1 467 17 is_stmt 0 view .LVU400
ARM GAS  /tmp/ccgwBdmu.s 			page 21


 1141 0050 A260     		str	r2, [r4, #8]
 1142              		.loc 1 472 1 view .LVU401
 1143 0052 FCE7     		b	.L46
 1144              	.L58:
 1145              		.align	2
 1146              	.L57:
 1147 0054 00000000 		.word	ch
 1148              		.cfi_endproc
 1149              	.LFE127:
 1150              		.size	chMtxUnlockS, .-chMtxUnlockS
 1151              		.section	.text.chMtxUnlockAllS,"ax",%progbits
 1152              		.align	1
 1153              		.p2align 4,,15
 1154              		.global	chMtxUnlockAllS
 1155              		.syntax unified
 1156              		.code	16
 1157              		.thumb_func
 1158              		.fpu softvfp
 1159              		.type	chMtxUnlockAllS, %function
 1160              	chMtxUnlockAllS:
 1161              	.LFB128:
 1162              		.loc 1 487 28 is_stmt 1 view -0
 1163              		.cfi_startproc
 1164              		@ args = 0, pretend = 0, frame = 0
 1165              		@ frame_needed = 0, uses_anonymous_args = 0
 1166              		.loc 1 488 3 view .LVU403
 1167              		.loc 1 487 28 is_stmt 0 view .LVU404
 1168 0000 70B5     		push	{r4, r5, r6, lr}
 1169              		.cfi_def_cfa_offset 16
 1170              		.cfi_offset 4, -16
 1171              		.cfi_offset 5, -12
 1172              		.cfi_offset 6, -8
 1173              		.cfi_offset 14, -4
 1174              	.LBB208:
 1175              		.loc 1 505 15 view .LVU405
 1176 0002 0025     		movs	r5, #0
 1177              	.LBB209:
 1178              		.loc 1 495 15 view .LVU406
 1179 0004 0126     		movs	r6, #1
 1180              	.LBE209:
 1181              	.LBE208:
 1182              		.loc 1 488 13 view .LVU407
 1183 0006 0F4B     		ldr	r3, .L65
 1184 0008 9C69     		ldr	r4, [r3, #24]
 1185              	.LVL65:
 1186              		.loc 1 490 3 is_stmt 1 view .LVU408
 1187 000a 236B     		ldr	r3, [r4, #48]
 1188              	.L60:
 1189              		.loc 1 490 9 is_stmt 0 view .LVU409
 1190 000c 002B     		cmp	r3, #0
 1191 000e 11D0     		beq	.L64
 1192              	.L63:
 1193              	.LBB223:
 1194              		.loc 1 491 5 is_stmt 1 view .LVU410
 1195              	.LVL66:
 1196              		.loc 1 492 5 view .LVU411
 1197              		.loc 1 492 22 is_stmt 0 view .LVU412
ARM GAS  /tmp/ccgwBdmu.s 			page 22


 1198 0010 DA68     		ldr	r2, [r3, #12]
 1199              	.LBB214:
 1200              	.LBB215:
 1201              	.LBB216:
 1202              	.LBB217:
 1203              		.loc 2 577 20 view .LVU413
 1204 0012 1868     		ldr	r0, [r3]
 1205              	.LBE217:
 1206              	.LBE216:
 1207              	.LBE215:
 1208              	.LBE214:
 1209              		.loc 1 492 18 view .LVU414
 1210 0014 2263     		str	r2, [r4, #48]
 1211              		.loc 1 493 5 is_stmt 1 view .LVU415
 1212              	.LVL67:
 1213              	.LBB221:
 1214              	.LBI214:
 1215              		.loc 6 130 20 view .LVU416
 1216              	.LBB220:
 1217              		.loc 6 132 21 view .LVU417
 1218              		.loc 6 134 3 view .LVU418
 1219              	.LBB219:
 1220              	.LBI216:
 1221              		.loc 2 575 20 view .LVU419
 1222              	.LBB218:
 1223              		.loc 2 577 3 view .LVU420
 1224              		.loc 2 577 3 is_stmt 0 view .LVU421
 1225              	.LBE218:
 1226              	.LBE219:
 1227              	.LBE220:
 1228              	.LBE221:
 1229              		.loc 1 493 8 view .LVU422
 1230 0016 8342     		cmp	r3, r0
 1231 0018 0FD0     		beq	.L61
 1232              	.LBB222:
 1233              		.loc 1 495 7 is_stmt 1 view .LVU423
 1234              	.LBB210:
 1235              	.LBB211:
 1236              		.loc 2 620 36 is_stmt 0 view .LVU424
 1237 001a 0268     		ldr	r2, [r0]
 1238              	.LBE211:
 1239              	.LBE210:
 1240              		.loc 1 495 15 view .LVU425
 1241 001c 1E61     		str	r6, [r3, #16]
 1242              		.loc 1 497 7 is_stmt 1 view .LVU426
 1243              	.LVL68:
 1244              	.LBB213:
 1245              	.LBI210:
 1246              		.loc 2 617 25 view .LVU427
 1247              	.LBB212:
 1248              		.loc 2 618 3 view .LVU428
 1249              		.loc 2 620 3 view .LVU429
 1250              		.loc 2 620 25 is_stmt 0 view .LVU430
 1251 001e 1A60     		str	r2, [r3]
 1252              		.loc 2 621 3 is_stmt 1 view .LVU431
 1253              		.loc 2 621 25 is_stmt 0 view .LVU432
 1254 0020 5360     		str	r3, [r2, #4]
ARM GAS  /tmp/ccgwBdmu.s 			page 23


 1255              		.loc 2 623 3 is_stmt 1 view .LVU433
 1256              	.LVL69:
 1257              		.loc 2 623 3 is_stmt 0 view .LVU434
 1258              	.LBE212:
 1259              	.LBE213:
 1260              		.loc 1 498 7 is_stmt 1 view .LVU435
 1261              		.loc 1 499 16 is_stmt 0 view .LVU436
 1262 0022 026B     		ldr	r2, [r0, #48]
 1263              		.loc 1 498 17 view .LVU437
 1264 0024 9860     		str	r0, [r3, #8]
 1265              		.loc 1 499 7 is_stmt 1 view .LVU438
 1266              		.loc 1 499 16 is_stmt 0 view .LVU439
 1267 0026 DA60     		str	r2, [r3, #12]
 1268              		.loc 1 500 7 is_stmt 1 view .LVU440
 1269              		.loc 1 500 19 is_stmt 0 view .LVU441
 1270 0028 0363     		str	r3, [r0, #48]
 1271              		.loc 1 501 7 is_stmt 1 view .LVU442
 1272              		.loc 1 501 14 is_stmt 0 view .LVU443
 1273 002a FFF7FEFF 		bl	chSchReadyI
 1274              	.LVL70:
 1275              		.loc 1 501 14 view .LVU444
 1276 002e 236B     		ldr	r3, [r4, #48]
 1277              	.LVL71:
 1278              		.loc 1 501 14 view .LVU445
 1279              	.LBE222:
 1280              	.LBE223:
 1281              		.loc 1 490 9 view .LVU446
 1282 0030 002B     		cmp	r3, #0
 1283 0032 EDD1     		bne	.L63
 1284              	.LVL72:
 1285              	.L64:
 1286              		.loc 1 510 3 is_stmt 1 view .LVU447
 1287              		.loc 1 510 13 is_stmt 0 view .LVU448
 1288 0034 636B     		ldr	r3, [r4, #52]
 1289              		.loc 1 511 1 view .LVU449
 1290              		@ sp needed
 1291              		.loc 1 510 13 view .LVU450
 1292 0036 A360     		str	r3, [r4, #8]
 1293              	.LVL73:
 1294              		.loc 1 511 1 view .LVU451
 1295 0038 70BD     		pop	{r4, r5, r6, pc}
 1296              	.LVL74:
 1297              	.L61:
 1298              	.LBB224:
 1299              		.loc 1 505 7 is_stmt 1 view .LVU452
 1300              		.loc 1 505 15 is_stmt 0 view .LVU453
 1301 003a 1D61     		str	r5, [r3, #16]
 1302              		.loc 1 507 7 is_stmt 1 view .LVU454
 1303              		.loc 1 507 17 is_stmt 0 view .LVU455
 1304 003c 9D60     		str	r5, [r3, #8]
 1305 003e 1300     		movs	r3, r2
 1306 0040 E4E7     		b	.L60
 1307              	.L66:
 1308 0042 C046     		.align	2
 1309              	.L65:
 1310 0044 00000000 		.word	ch
 1311              	.LBE224:
ARM GAS  /tmp/ccgwBdmu.s 			page 24


 1312              		.cfi_endproc
 1313              	.LFE128:
 1314              		.size	chMtxUnlockAllS, .-chMtxUnlockAllS
 1315              		.section	.text.chMtxUnlockAll,"ax",%progbits
 1316              		.align	1
 1317              		.p2align 4,,15
 1318              		.global	chMtxUnlockAll
 1319              		.syntax unified
 1320              		.code	16
 1321              		.thumb_func
 1322              		.fpu softvfp
 1323              		.type	chMtxUnlockAll, %function
 1324              	chMtxUnlockAll:
 1325              	.LFB129:
 1326              		.loc 1 524 27 is_stmt 1 view -0
 1327              		.cfi_startproc
 1328              		@ args = 0, pretend = 0, frame = 0
 1329              		@ frame_needed = 0, uses_anonymous_args = 0
 1330              		.loc 1 525 3 view .LVU457
 1331              		.loc 1 525 13 is_stmt 0 view .LVU458
 1332 0000 124B     		ldr	r3, .L78
 1333              		.loc 1 524 27 view .LVU459
 1334 0002 70B5     		push	{r4, r5, r6, lr}
 1335              		.cfi_def_cfa_offset 16
 1336              		.cfi_offset 4, -16
 1337              		.cfi_offset 5, -12
 1338              		.cfi_offset 6, -8
 1339              		.cfi_offset 14, -4
 1340              		.loc 1 525 13 view .LVU460
 1341 0004 9C69     		ldr	r4, [r3, #24]
 1342              	.LVL75:
 1343              		.loc 1 527 3 is_stmt 1 view .LVU461
 1344              	.LBB225:
 1345              	.LBI225:
 1346              		.loc 3 374 20 view .LVU462
 1347              	.LBE225:
 1348              		.loc 3 376 3 view .LVU463
 1349              	.LBB230:
 1350              	.LBB226:
 1351              	.LBI226:
 1352              		.loc 4 371 20 view .LVU464
 1353              	.LBE226:
 1354              	.LBE230:
 1355              		.loc 4 373 3 view .LVU465
 1356              	.LBB231:
 1357              	.LBB229:
 1358              	.LBB227:
 1359              	.LBI227:
 1360              		.loc 5 342 57 view .LVU466
 1361              	.LBB228:
 1362              		.loc 5 344 3 view .LVU467
 1363              		.syntax divided
 1364              	@ 344 "ChibiOS/os/common/ext/CMSIS/include/core_cmFunc.h" 1
 1365 0006 72B6     		cpsid i
 1366              	@ 0 "" 2
 1367              		.thumb
 1368              		.syntax unified
ARM GAS  /tmp/ccgwBdmu.s 			page 25


 1369              	.LBE228:
 1370              	.LBE227:
 1371              	.LBE229:
 1372              	.LBE231:
 1373              		.loc 3 377 34 view .LVU468
 1374              		.loc 3 378 20 view .LVU469
 1375              		.loc 1 528 3 view .LVU470
 1376              		.loc 1 528 10 is_stmt 0 view .LVU471
 1377 0008 236B     		ldr	r3, [r4, #48]
 1378              		.loc 1 528 6 view .LVU472
 1379 000a 002B     		cmp	r3, #0
 1380 000c 1CD0     		beq	.L68
 1381              	.LBB232:
 1382              		.loc 1 544 17 view .LVU473
 1383 000e 0025     		movs	r5, #0
 1384              	.LBB233:
 1385              		.loc 1 534 17 view .LVU474
 1386 0010 0126     		movs	r6, #1
 1387 0012 0CE0     		b	.L71
 1388              	.LVL76:
 1389              	.L77:
 1390              		.loc 1 534 9 is_stmt 1 view .LVU475
 1391              	.LBB234:
 1392              	.LBB235:
 1393              		.loc 2 620 36 is_stmt 0 view .LVU476
 1394 0014 0268     		ldr	r2, [r0]
 1395              	.LBE235:
 1396              	.LBE234:
 1397              		.loc 1 534 17 view .LVU477
 1398 0016 1E61     		str	r6, [r3, #16]
 1399              		.loc 1 536 9 is_stmt 1 view .LVU478
 1400              	.LVL77:
 1401              	.LBB237:
 1402              	.LBI234:
 1403              		.loc 2 617 25 view .LVU479
 1404              	.LBB236:
 1405              		.loc 2 618 3 view .LVU480
 1406              		.loc 2 620 3 view .LVU481
 1407              		.loc 2 620 25 is_stmt 0 view .LVU482
 1408 0018 1A60     		str	r2, [r3]
 1409              		.loc 2 621 3 is_stmt 1 view .LVU483
 1410              		.loc 2 621 25 is_stmt 0 view .LVU484
 1411 001a 5360     		str	r3, [r2, #4]
 1412              		.loc 2 623 3 is_stmt 1 view .LVU485
 1413              	.LVL78:
 1414              		.loc 2 623 3 is_stmt 0 view .LVU486
 1415              	.LBE236:
 1416              	.LBE237:
 1417              		.loc 1 537 9 is_stmt 1 view .LVU487
 1418              		.loc 1 538 18 is_stmt 0 view .LVU488
 1419 001c 026B     		ldr	r2, [r0, #48]
 1420              		.loc 1 537 19 view .LVU489
 1421 001e 9860     		str	r0, [r3, #8]
 1422              		.loc 1 538 9 is_stmt 1 view .LVU490
 1423              		.loc 1 538 18 is_stmt 0 view .LVU491
 1424 0020 DA60     		str	r2, [r3, #12]
 1425              		.loc 1 539 9 is_stmt 1 view .LVU492
ARM GAS  /tmp/ccgwBdmu.s 			page 26


 1426              		.loc 1 539 21 is_stmt 0 view .LVU493
 1427 0022 0363     		str	r3, [r0, #48]
 1428              		.loc 1 540 9 is_stmt 1 view .LVU494
 1429              		.loc 1 540 16 is_stmt 0 view .LVU495
 1430 0024 FFF7FEFF 		bl	chSchReadyI
 1431              	.LVL79:
 1432              		.loc 1 540 16 view .LVU496
 1433 0028 236B     		ldr	r3, [r4, #48]
 1434              	.LBE233:
 1435              	.LBE232:
 1436              		.loc 1 548 5 view .LVU497
 1437 002a 002B     		cmp	r3, #0
 1438 002c 08D0     		beq	.L76
 1439              	.L71:
 1440              		.loc 1 529 5 is_stmt 1 view .LVU498
 1441              	.LBB246:
 1442              		.loc 1 530 7 view .LVU499
 1443              	.LVL80:
 1444              		.loc 1 531 7 view .LVU500
 1445              		.loc 1 531 24 is_stmt 0 view .LVU501
 1446 002e DA68     		ldr	r2, [r3, #12]
 1447              	.LBB238:
 1448              	.LBB239:
 1449              	.LBB240:
 1450              	.LBB241:
 1451              		.loc 2 577 20 view .LVU502
 1452 0030 1868     		ldr	r0, [r3]
 1453              	.LBE241:
 1454              	.LBE240:
 1455              	.LBE239:
 1456              	.LBE238:
 1457              		.loc 1 531 20 view .LVU503
 1458 0032 2263     		str	r2, [r4, #48]
 1459              	.LVL81:
 1460              		.loc 1 532 7 is_stmt 1 view .LVU504
 1461              	.LBB245:
 1462              	.LBI238:
 1463              		.loc 6 130 20 view .LVU505
 1464              	.LBB244:
 1465              		.loc 6 132 21 view .LVU506
 1466              		.loc 6 134 3 view .LVU507
 1467              	.LBB243:
 1468              	.LBI240:
 1469              		.loc 2 575 20 view .LVU508
 1470              	.LBB242:
 1471              		.loc 2 577 3 view .LVU509
 1472              		.loc 2 577 3 is_stmt 0 view .LVU510
 1473              	.LBE242:
 1474              	.LBE243:
 1475              	.LBE244:
 1476              	.LBE245:
 1477              		.loc 1 532 10 view .LVU511
 1478 0034 8342     		cmp	r3, r0
 1479 0036 EDD1     		bne	.L77
 1480              		.loc 1 544 9 is_stmt 1 view .LVU512
 1481              		.loc 1 544 17 is_stmt 0 view .LVU513
 1482 0038 1D61     		str	r5, [r3, #16]
ARM GAS  /tmp/ccgwBdmu.s 			page 27


 1483              		.loc 1 546 9 is_stmt 1 view .LVU514
 1484              		.loc 1 546 19 is_stmt 0 view .LVU515
 1485 003a 9D60     		str	r5, [r3, #8]
 1486 003c 131E     		subs	r3, r2, #0
 1487              	.LBE246:
 1488              		.loc 1 548 5 view .LVU516
 1489 003e F6D1     		bne	.L71
 1490              	.L76:
 1491              		.loc 1 549 5 is_stmt 1 view .LVU517
 1492              		.loc 1 549 15 is_stmt 0 view .LVU518
 1493 0040 636B     		ldr	r3, [r4, #52]
 1494 0042 A360     		str	r3, [r4, #8]
 1495              		.loc 1 550 5 is_stmt 1 view .LVU519
 1496 0044 FFF7FEFF 		bl	chSchRescheduleS
 1497              	.LVL82:
 1498              	.L68:
 1499              		.loc 1 552 3 view .LVU520
 1500              	.LBB247:
 1501              	.LBI247:
 1502              		.loc 3 386 20 view .LVU521
 1503              	.LBB248:
 1504              		.loc 3 388 22 view .LVU522
 1505              		.loc 3 389 33 view .LVU523
 1506              		.loc 3 395 3 view .LVU524
 1507              		.loc 3 395 3 view .LVU525
 1508              		.loc 3 399 3 view .LVU526
 1509              	.LBB249:
 1510              	.LBI249:
 1511              		.loc 4 380 20 view .LVU527
 1512              	.LBE249:
 1513              	.LBE248:
 1514              	.LBE247:
 1515              		.loc 4 382 3 view .LVU528
 1516              	.LBB254:
 1517              	.LBB253:
 1518              	.LBB252:
 1519              	.LBB250:
 1520              	.LBI250:
 1521              		.loc 5 331 57 view .LVU529
 1522              	.LBB251:
 1523              		.loc 5 333 3 view .LVU530
 1524              		.syntax divided
 1525              	@ 333 "ChibiOS/os/common/ext/CMSIS/include/core_cmFunc.h" 1
 1526 0048 62B6     		cpsie i
 1527              	@ 0 "" 2
 1528              		.thumb
 1529              		.syntax unified
 1530              	.LBE251:
 1531              	.LBE250:
 1532              	.LBE252:
 1533              	.LBE253:
 1534              	.LBE254:
 1535              		.loc 1 553 1 is_stmt 0 view .LVU531
 1536              		@ sp needed
 1537              	.LVL83:
 1538              		.loc 1 553 1 view .LVU532
 1539 004a 70BD     		pop	{r4, r5, r6, pc}
ARM GAS  /tmp/ccgwBdmu.s 			page 28


 1540              	.L79:
 1541              		.align	2
 1542              	.L78:
 1543 004c 00000000 		.word	ch
 1544              		.cfi_endproc
 1545              	.LFE129:
 1546              		.size	chMtxUnlockAll, .-chMtxUnlockAll
 1547              		.text
 1548              	.Letext0:
 1549              		.file 7 "/opt/nanovna/gcc-arm-none-eabi-8-2018-q4-major/arm-none-eabi/include/machine/_default_typ
 1550              		.file 8 "/opt/nanovna/gcc-arm-none-eabi-8-2018-q4-major/arm-none-eabi/include/sys/_stdint.h"
 1551              		.file 9 "ChibiOS/os/common/ports/ARMCMx/compilers/GCC/chtypes.h"
 1552              		.file 10 "ChibiOS/os/rt/include/chsystypes.h"
 1553              		.file 11 "ChibiOS/os/common/ports/ARMCMx/chcore.h"
 1554              		.file 12 "ChibiOS/os/common/ext/CMSIS/ST/STM32F0xx/system_stm32f0xx.h"
 1555              		.file 13 "ChibiOS/os/rt/include/chregistry.h"