ARM GAS  /tmp/cc4deIag.s 			page 1


   1              		.cpu cortex-m0
   2              		.eabi_attribute 20, 1
   3              		.eabi_attribute 21, 1
   4              		.eabi_attribute 23, 3
   5              		.eabi_attribute 24, 1
   6              		.eabi_attribute 25, 1
   7              		.eabi_attribute 26, 1
   8              		.eabi_attribute 30, 2
   9              		.eabi_attribute 34, 0
  10              		.eabi_attribute 18, 4
  11              		.file	"chregistry.c"
  12              		.text
  13              	.Ltext0:
  14              		.cfi_sections	.debug_frame
  15              		.section	.text.chRegFirstThread,"ax",%progbits
  16              		.align	1
  17              		.p2align 4,,15
  18              		.global	chRegFirstThread
  19              		.arch armv6s-m
  20              		.syntax unified
  21              		.code	16
  22              		.thumb_func
  23              		.fpu softvfp
  24              		.type	chRegFirstThread, %function
  25              	chRegFirstThread:
  26              	.LFB121:
  27              		.file 1 "ChibiOS/os/rt/src/chregistry.c"
  28              		.loc 1 134 34 view -0
  29              		.cfi_startproc
  30              		@ args = 0, pretend = 0, frame = 0
  31              		@ frame_needed = 0, uses_anonymous_args = 0
  32              		@ link register save eliminated.
  33              		.loc 1 135 3 view .LVU1
  34              		.loc 1 137 3 view .LVU2
  35              	.LBB104:
  36              	.LBI104:
  37              		.file 2 "ChibiOS/os/rt/include/chsys.h"
  38              		.loc 2 374 20 view .LVU3
  39              	.LBE104:
  40              		.loc 2 376 3 view .LVU4
  41              	.LBB109:
  42              	.LBB105:
  43              	.LBI105:
  44              		.file 3 "ChibiOS/os/common/ports/ARMCMx/chcore_v6m.h"
  45              		.loc 3 371 20 view .LVU5
  46              	.LBE105:
  47              	.LBE109:
  48              		.loc 3 373 3 view .LVU6
  49              	.LBB110:
  50              	.LBB108:
  51              	.LBB106:
  52              	.LBI106:
  53              		.file 4 "ChibiOS/os/common/ext/CMSIS/include/core_cmFunc.h"
  54              		.loc 4 342 57 view .LVU7
  55              	.LBB107:
  56              		.loc 4 344 3 view .LVU8
  57              		.syntax divided
ARM GAS  /tmp/cc4deIag.s 			page 2


  58              	@ 344 "ChibiOS/os/common/ext/CMSIS/include/core_cmFunc.h" 1
  59 0000 72B6     		cpsid i
  60              	@ 0 "" 2
  61              		.thumb
  62              		.syntax unified
  63              	.LBE107:
  64              	.LBE106:
  65              	.LBE108:
  66              	.LBE110:
  67              		.loc 2 377 34 view .LVU9
  68              		.loc 2 378 20 view .LVU10
  69              		.loc 1 138 3 view .LVU11
  70              		.loc 1 138 6 is_stmt 0 view .LVU12
  71 0002 024B     		ldr	r3, .L3
  72 0004 1869     		ldr	r0, [r3, #16]
  73              	.LVL0:
  74              		.loc 1 142 3 is_stmt 1 view .LVU13
  75              	.LBB111:
  76              	.LBI111:
  77              		.loc 2 386 20 view .LVU14
  78              	.LBB112:
  79              		.loc 2 388 22 view .LVU15
  80              		.loc 2 389 33 view .LVU16
  81              		.loc 2 395 3 view .LVU17
  82              		.loc 2 395 3 view .LVU18
  83              		.loc 2 399 3 view .LVU19
  84              	.LBB113:
  85              	.LBI113:
  86              		.loc 3 380 20 view .LVU20
  87              	.LBE113:
  88              	.LBE112:
  89              	.LBE111:
  90              		.loc 3 382 3 view .LVU21
  91              	.LBB118:
  92              	.LBB117:
  93              	.LBB116:
  94              	.LBB114:
  95              	.LBI114:
  96              		.loc 4 331 57 view .LVU22
  97              	.LBB115:
  98              		.loc 4 333 3 view .LVU23
  99              		.syntax divided
 100              	@ 333 "ChibiOS/os/common/ext/CMSIS/include/core_cmFunc.h" 1
 101 0006 62B6     		cpsie i
 102              	@ 0 "" 2
 103              		.thumb
 104              		.syntax unified
 105              	.LBE115:
 106              	.LBE114:
 107              	.LBE116:
 108              	.LBE117:
 109              	.LBE118:
 110              		.loc 1 144 3 view .LVU24
 111              		.loc 1 145 1 is_stmt 0 view .LVU25
 112              		@ sp needed
 113 0008 7047     		bx	lr
 114              	.L4:
ARM GAS  /tmp/cc4deIag.s 			page 3


 115 000a C046     		.align	2
 116              	.L3:
 117 000c 00000000 		.word	ch
 118              		.cfi_endproc
 119              	.LFE121:
 120              		.size	chRegFirstThread, .-chRegFirstThread
 121              		.section	.text.chRegNextThread,"ax",%progbits
 122              		.align	1
 123              		.p2align 4,,15
 124              		.global	chRegNextThread
 125              		.syntax unified
 126              		.code	16
 127              		.thumb_func
 128              		.fpu softvfp
 129              		.type	chRegNextThread, %function
 130              	chRegNextThread:
 131              	.LVL1:
 132              	.LFB122:
 133              		.loc 1 158 41 is_stmt 1 view -0
 134              		.cfi_startproc
 135              		@ args = 0, pretend = 0, frame = 0
 136              		@ frame_needed = 0, uses_anonymous_args = 0
 137              		@ link register save eliminated.
 138              		.loc 1 159 3 view .LVU27
 139              		.loc 1 161 3 view .LVU28
 140              	.LBB119:
 141              	.LBI119:
 142              		.loc 2 374 20 view .LVU29
 143              	.LBE119:
 144              		.loc 2 376 3 view .LVU30
 145              	.LBB124:
 146              	.LBB120:
 147              	.LBI120:
 148              		.loc 3 371 20 view .LVU31
 149              	.LBE120:
 150              	.LBE124:
 151              		.loc 3 373 3 view .LVU32
 152              	.LBB125:
 153              	.LBB123:
 154              	.LBB121:
 155              	.LBI121:
 156              		.loc 4 342 57 view .LVU33
 157              	.LBB122:
 158              		.loc 4 344 3 view .LVU34
 159              		.syntax divided
 160              	@ 344 "ChibiOS/os/common/ext/CMSIS/include/core_cmFunc.h" 1
 161 0000 72B6     		cpsid i
 162              	@ 0 "" 2
 163              		.thumb
 164              		.syntax unified
 165              	.LBE122:
 166              	.LBE121:
 167              	.LBE123:
 168              	.LBE125:
 169              		.loc 2 377 34 view .LVU35
 170              		.loc 2 378 20 view .LVU36
 171              		.loc 1 162 3 view .LVU37
ARM GAS  /tmp/cc4deIag.s 			page 4


 172              		.loc 1 164 6 is_stmt 0 view .LVU38
 173 0002 044B     		ldr	r3, .L7
 174              		.loc 1 162 7 view .LVU39
 175 0004 0069     		ldr	r0, [r0, #16]
 176              	.LVL2:
 177              		.loc 1 164 3 is_stmt 1 view .LVU40
 178              		.loc 1 166 9 is_stmt 0 view .LVU41
 179 0006 C31A     		subs	r3, r0, r3
 180 0008 5A1E     		subs	r2, r3, #1
 181 000a 9341     		sbcs	r3, r3, r2
 182 000c 5B42     		rsbs	r3, r3, #0
 183 000e 1840     		ands	r0, r3
 184              	.LVL3:
 185              		.loc 1 174 3 is_stmt 1 view .LVU42
 186              	.LBB126:
 187              	.LBI126:
 188              		.loc 2 386 20 view .LVU43
 189              	.LBB127:
 190              		.loc 2 388 22 view .LVU44
 191              		.loc 2 389 33 view .LVU45
 192              		.loc 2 395 3 view .LVU46
 193              		.loc 2 395 3 view .LVU47
 194              		.loc 2 399 3 view .LVU48
 195              	.LBB128:
 196              	.LBI128:
 197              		.loc 3 380 20 view .LVU49
 198              	.LBE128:
 199              	.LBE127:
 200              	.LBE126:
 201              		.loc 3 382 3 view .LVU50
 202              	.LBB133:
 203              	.LBB132:
 204              	.LBB131:
 205              	.LBB129:
 206              	.LBI129:
 207              		.loc 4 331 57 view .LVU51
 208              	.LBB130:
 209              		.loc 4 333 3 view .LVU52
 210              		.syntax divided
 211              	@ 333 "ChibiOS/os/common/ext/CMSIS/include/core_cmFunc.h" 1
 212 0010 62B6     		cpsie i
 213              	@ 0 "" 2
 214              		.thumb
 215              		.syntax unified
 216              	.LBE130:
 217              	.LBE129:
 218              	.LBE131:
 219              	.LBE132:
 220              	.LBE133:
 221              		.loc 1 179 3 view .LVU53
 222              		.loc 1 180 1 is_stmt 0 view .LVU54
 223              		@ sp needed
 224 0012 7047     		bx	lr
 225              	.L8:
 226              		.align	2
 227              	.L7:
 228 0014 00000000 		.word	ch
ARM GAS  /tmp/cc4deIag.s 			page 5


 229              		.cfi_endproc
 230              	.LFE122:
 231              		.size	chRegNextThread, .-chRegNextThread
 232              		.section	.text.chRegFindThreadByName,"ax",%progbits
 233              		.align	1
 234              		.p2align 4,,15
 235              		.global	chRegFindThreadByName
 236              		.syntax unified
 237              		.code	16
 238              		.thumb_func
 239              		.fpu softvfp
 240              		.type	chRegFindThreadByName, %function
 241              	chRegFindThreadByName:
 242              	.LVL4:
 243              	.LFB123:
 244              		.loc 1 194 51 is_stmt 1 view -0
 245              		.cfi_startproc
 246              		@ args = 0, pretend = 0, frame = 0
 247              		@ frame_needed = 0, uses_anonymous_args = 0
 248              		.loc 1 195 3 view .LVU56
 249              		.loc 1 198 3 view .LVU57
 250              	.LBB134:
 251              	.LBI134:
 252              		.loc 1 134 11 view .LVU58
 253              	.LBB135:
 254              		.loc 1 135 3 view .LVU59
 255              		.loc 1 137 3 view .LVU60
 256              	.LBB136:
 257              	.LBI136:
 258              		.loc 2 374 20 view .LVU61
 259              	.LBE136:
 260              	.LBE135:
 261              	.LBE134:
 262              		.loc 2 376 3 view .LVU62
 263              	.LBB160:
 264              	.LBB155:
 265              	.LBB144:
 266              	.LBB137:
 267              	.LBI137:
 268              		.loc 3 371 20 view .LVU63
 269              	.LBE137:
 270              	.LBE144:
 271              	.LBE155:
 272              	.LBE160:
 273              		.loc 3 373 3 view .LVU64
 274              	.LBB161:
 275              	.LBB156:
 276              	.LBB145:
 277              	.LBB142:
 278              	.LBB138:
 279              	.LBI138:
 280              		.loc 4 342 57 view .LVU65
 281              	.LBB139:
 282              		.loc 4 344 3 view .LVU66
 283              	.LBE139:
 284              	.LBE138:
 285              	.LBE142:
ARM GAS  /tmp/cc4deIag.s 			page 6


 286              	.LBE145:
 287              	.LBE156:
 288              	.LBE161:
 289              		.loc 1 194 51 is_stmt 0 view .LVU67
 290 0000 70B5     		push	{r4, r5, r6, lr}
 291              		.cfi_def_cfa_offset 16
 292              		.cfi_offset 4, -16
 293              		.cfi_offset 5, -12
 294              		.cfi_offset 6, -8
 295              		.cfi_offset 14, -4
 296              		.loc 1 194 51 view .LVU68
 297 0002 0600     		movs	r6, r0
 298              	.LBB162:
 299              	.LBB157:
 300              	.LBB146:
 301              	.LBB143:
 302              	.LBB141:
 303              	.LBB140:
 304              		.loc 4 344 3 view .LVU69
 305              		.syntax divided
 306              	@ 344 "ChibiOS/os/common/ext/CMSIS/include/core_cmFunc.h" 1
 307 0004 72B6     		cpsid i
 308              	@ 0 "" 2
 309              		.thumb
 310              		.syntax unified
 311              	.LBE140:
 312              	.LBE141:
 313              	.LBE143:
 314              	.LBE146:
 315              	.LBE157:
 316              	.LBE162:
 317              		.loc 2 377 34 is_stmt 1 view .LVU70
 318              		.loc 2 378 20 view .LVU71
 319              	.LBB163:
 320              	.LBB158:
 321              		.loc 1 138 3 view .LVU72
 322              		.loc 1 138 6 is_stmt 0 view .LVU73
 323 0006 0A4D     		ldr	r5, .L18
 324 0008 2C69     		ldr	r4, [r5, #16]
 325              	.LVL5:
 326              		.loc 1 142 3 is_stmt 1 view .LVU74
 327              	.LBB147:
 328              	.LBI147:
 329              		.loc 2 386 20 view .LVU75
 330              	.LBB148:
 331              		.loc 2 388 22 view .LVU76
 332              		.loc 2 389 33 view .LVU77
 333              		.loc 2 395 3 view .LVU78
 334              		.loc 2 395 3 view .LVU79
 335              		.loc 2 399 3 view .LVU80
 336              	.LBB149:
 337              	.LBI149:
 338              		.loc 3 380 20 view .LVU81
 339              	.LBE149:
 340              	.LBE148:
 341              	.LBE147:
 342              	.LBE158:
ARM GAS  /tmp/cc4deIag.s 			page 7


 343              	.LBE163:
 344              		.loc 3 382 3 view .LVU82
 345              	.LBB164:
 346              	.LBB159:
 347              	.LBB154:
 348              	.LBB153:
 349              	.LBB152:
 350              	.LBB150:
 351              	.LBI150:
 352              		.loc 4 331 57 view .LVU83
 353              	.LBB151:
 354              		.loc 4 333 3 view .LVU84
 355              		.syntax divided
 356              	@ 333 "ChibiOS/os/common/ext/CMSIS/include/core_cmFunc.h" 1
 357 000a 62B6     		cpsie i
 358              	@ 0 "" 2
 359              		.thumb
 360              		.syntax unified
 361              	.LBE151:
 362              	.LBE150:
 363              	.LBE152:
 364              	.LBE153:
 365              	.LBE154:
 366              		.loc 1 144 3 view .LVU85
 367              	.LVL6:
 368              	.L12:
 369              		.loc 1 144 3 is_stmt 0 view .LVU86
 370              	.LBE159:
 371              	.LBE164:
 372              		.loc 1 199 3 is_stmt 1 view .LVU87
 373              		.loc 1 200 5 view .LVU88
 374              		.file 5 "ChibiOS/os/rt/include/chregistry.h"
 375              		.loc 5 156 3 view .LVU89
 376              		.loc 1 200 9 is_stmt 0 view .LVU90
 377 000c 3100     		movs	r1, r6
 378 000e A069     		ldr	r0, [r4, #24]
 379 0010 FFF7FEFF 		bl	strcmp
 380              	.LVL7:
 381              		.loc 1 200 8 view .LVU91
 382 0014 0028     		cmp	r0, #0
 383 0016 06D0     		beq	.L9
 384              		.loc 1 203 5 is_stmt 1 view .LVU92
 385              	.LVL8:
 386              	.LBB165:
 387              	.LBI165:
 388              		.loc 1 158 11 view .LVU93
 389              	.LBB166:
 390              		.loc 1 159 3 view .LVU94
 391              		.loc 1 161 3 view .LVU95
 392              	.LBB167:
 393              	.LBI167:
 394              		.loc 2 374 20 view .LVU96
 395              	.LBE167:
 396              	.LBE166:
 397              	.LBE165:
 398              		.loc 2 376 3 view .LVU97
 399              	.LBB196:
ARM GAS  /tmp/cc4deIag.s 			page 8


 400              	.LBB190:
 401              	.LBB172:
 402              	.LBB168:
 403              	.LBI168:
 404              		.loc 3 371 20 view .LVU98
 405              	.LBE168:
 406              	.LBE172:
 407              	.LBE190:
 408              	.LBE196:
 409              		.loc 3 373 3 view .LVU99
 410              	.LBB197:
 411              	.LBB191:
 412              	.LBB173:
 413              	.LBB171:
 414              	.LBB169:
 415              	.LBI169:
 416              		.loc 4 342 57 view .LVU100
 417              	.LBB170:
 418              		.loc 4 344 3 view .LVU101
 419              		.syntax divided
 420              	@ 344 "ChibiOS/os/common/ext/CMSIS/include/core_cmFunc.h" 1
 421 0018 72B6     		cpsid i
 422              	@ 0 "" 2
 423              		.thumb
 424              		.syntax unified
 425              	.LBE170:
 426              	.LBE169:
 427              	.LBE171:
 428              	.LBE173:
 429              	.LBE191:
 430              	.LBE197:
 431              		.loc 2 377 34 view .LVU102
 432              		.loc 2 378 20 view .LVU103
 433              	.LBB198:
 434              	.LBB192:
 435              		.loc 1 162 3 view .LVU104
 436              		.loc 1 162 7 is_stmt 0 view .LVU105
 437 001a 2469     		ldr	r4, [r4, #16]
 438              	.LVL9:
 439              		.loc 1 164 3 is_stmt 1 view .LVU106
 440              		.loc 1 164 6 is_stmt 0 view .LVU107
 441 001c AC42     		cmp	r4, r5
 442 001e 04D0     		beq	.L17
 443              		.loc 1 174 3 is_stmt 1 view .LVU108
 444              	.LBB174:
 445              	.LBI174:
 446              		.loc 2 386 20 view .LVU109
 447              	.LBB175:
 448              		.loc 2 388 22 view .LVU110
 449              		.loc 2 389 33 view .LVU111
 450              		.loc 2 395 3 view .LVU112
 451              		.loc 2 395 3 view .LVU113
 452              		.loc 2 399 3 view .LVU114
 453              	.LBB176:
 454              	.LBI176:
 455              		.loc 3 380 20 view .LVU115
 456              	.LBE176:
ARM GAS  /tmp/cc4deIag.s 			page 9


 457              	.LBE175:
 458              	.LBE174:
 459              	.LBE192:
 460              	.LBE198:
 461              		.loc 3 382 3 view .LVU116
 462              	.LBB199:
 463              	.LBB193:
 464              	.LBB187:
 465              	.LBB184:
 466              	.LBB181:
 467              	.LBB177:
 468              	.LBI177:
 469              		.loc 4 331 57 view .LVU117
 470              	.LBB178:
 471              		.loc 4 333 3 view .LVU118
 472              		.syntax divided
 473              	@ 333 "ChibiOS/os/common/ext/CMSIS/include/core_cmFunc.h" 1
 474 0020 62B6     		cpsie i
 475              	@ 0 "" 2
 476              		.thumb
 477              		.syntax unified
 478              	.LBE178:
 479              	.LBE177:
 480              	.LBE181:
 481              	.LBE184:
 482              	.LBE187:
 483              		.loc 1 179 3 view .LVU119
 484              	.LVL10:
 485              		.loc 1 179 3 is_stmt 0 view .LVU120
 486              	.LBE193:
 487              	.LBE199:
 488              		.loc 1 204 3 view .LVU121
 489 0022 002C     		cmp	r4, #0
 490 0024 F2D1     		bne	.L12
 491              	.LVL11:
 492              	.L9:
 493              		.loc 1 207 1 view .LVU122
 494 0026 2000     		movs	r0, r4
 495              		@ sp needed
 496              	.LVL12:
 497              		.loc 1 207 1 view .LVU123
 498 0028 70BD     		pop	{r4, r5, r6, pc}
 499              	.LVL13:
 500              	.L17:
 501              	.LBB200:
 502              	.LBB194:
 503              		.loc 1 166 5 is_stmt 1 view .LVU124
 504              		.loc 1 174 3 view .LVU125
 505              	.LBB188:
 506              		.loc 2 386 20 view .LVU126
 507              	.LBB185:
 508              		.loc 2 388 22 view .LVU127
 509              		.loc 2 389 33 view .LVU128
 510              		.loc 2 395 3 view .LVU129
 511              		.loc 2 395 3 view .LVU130
 512              		.loc 2 399 3 view .LVU131
 513              	.LBB182:
ARM GAS  /tmp/cc4deIag.s 			page 10


 514              		.loc 3 380 20 view .LVU132
 515              	.LBE182:
 516              	.LBE185:
 517              	.LBE188:
 518              	.LBE194:
 519              	.LBE200:
 520              		.loc 3 382 3 view .LVU133
 521              	.LBB201:
 522              	.LBB195:
 523              	.LBB189:
 524              	.LBB186:
 525              	.LBB183:
 526              	.LBB180:
 527              		.loc 4 331 57 view .LVU134
 528              	.LBB179:
 529              		.loc 4 333 3 view .LVU135
 530              		.syntax divided
 531              	@ 333 "ChibiOS/os/common/ext/CMSIS/include/core_cmFunc.h" 1
 532 002a 62B6     		cpsie i
 533              	@ 0 "" 2
 534              		.thumb
 535              		.syntax unified
 536              	.LBE179:
 537              	.LBE180:
 538              	.LBE183:
 539              	.LBE186:
 540              	.LBE189:
 541              		.loc 1 179 3 view .LVU136
 542              	.LVL14:
 543              		.loc 1 179 3 is_stmt 0 view .LVU137
 544              	.LBE195:
 545              	.LBE201:
 546              		.loc 1 206 10 view .LVU138
 547 002c 0024     		movs	r4, #0
 548 002e FAE7     		b	.L9
 549              	.L19:
 550              		.align	2
 551              	.L18:
 552 0030 00000000 		.word	ch
 553              		.cfi_endproc
 554              	.LFE123:
 555              		.size	chRegFindThreadByName, .-chRegFindThreadByName
 556              		.section	.text.chRegFindThreadByPointer,"ax",%progbits
 557              		.align	1
 558              		.p2align 4,,15
 559              		.global	chRegFindThreadByPointer
 560              		.syntax unified
 561              		.code	16
 562              		.thumb_func
 563              		.fpu softvfp
 564              		.type	chRegFindThreadByPointer, %function
 565              	chRegFindThreadByPointer:
 566              	.LVL15:
 567              	.LFB124:
 568              		.loc 1 221 50 is_stmt 1 view -0
 569              		.cfi_startproc
 570              		@ args = 0, pretend = 0, frame = 0
ARM GAS  /tmp/cc4deIag.s 			page 11


 571              		@ frame_needed = 0, uses_anonymous_args = 0
 572              		@ link register save eliminated.
 573              		.loc 1 222 3 view .LVU140
 574              		.loc 1 225 3 view .LVU141
 575              	.LBB202:
 576              	.LBI202:
 577              		.loc 1 134 11 view .LVU142
 578              	.LBB203:
 579              		.loc 1 135 3 view .LVU143
 580              		.loc 1 137 3 view .LVU144
 581              	.LBB204:
 582              	.LBI204:
 583              		.loc 2 374 20 view .LVU145
 584              	.LBE204:
 585              	.LBE203:
 586              	.LBE202:
 587              		.loc 2 376 3 view .LVU146
 588              	.LBB223:
 589              	.LBB219:
 590              	.LBB209:
 591              	.LBB205:
 592              	.LBI205:
 593              		.loc 3 371 20 view .LVU147
 594              	.LBE205:
 595              	.LBE209:
 596              	.LBE219:
 597              	.LBE223:
 598              		.loc 3 373 3 view .LVU148
 599              	.LBB224:
 600              	.LBB220:
 601              	.LBB210:
 602              	.LBB208:
 603              	.LBB206:
 604              	.LBI206:
 605              		.loc 4 342 57 view .LVU149
 606              	.LBB207:
 607              		.loc 4 344 3 view .LVU150
 608              		.syntax divided
 609              	@ 344 "ChibiOS/os/common/ext/CMSIS/include/core_cmFunc.h" 1
 610 0000 72B6     		cpsid i
 611              	@ 0 "" 2
 612              		.thumb
 613              		.syntax unified
 614              	.LBE207:
 615              	.LBE206:
 616              	.LBE208:
 617              	.LBE210:
 618              	.LBE220:
 619              	.LBE224:
 620              		.loc 2 377 34 view .LVU151
 621              		.loc 2 378 20 view .LVU152
 622              	.LBB225:
 623              	.LBB221:
 624              		.loc 1 138 3 view .LVU153
 625              		.loc 1 138 6 is_stmt 0 view .LVU154
 626 0002 094A     		ldr	r2, .L34
 627 0004 1369     		ldr	r3, [r2, #16]
ARM GAS  /tmp/cc4deIag.s 			page 12


 628              	.LVL16:
 629              		.loc 1 142 3 is_stmt 1 view .LVU155
 630              	.LBB211:
 631              	.LBI211:
 632              		.loc 2 386 20 view .LVU156
 633              	.LBB212:
 634              		.loc 2 388 22 view .LVU157
 635              		.loc 2 389 33 view .LVU158
 636              		.loc 2 395 3 view .LVU159
 637              		.loc 2 395 3 view .LVU160
 638              		.loc 2 399 3 view .LVU161
 639              	.LBB213:
 640              	.LBI213:
 641              		.loc 3 380 20 view .LVU162
 642              	.LBE213:
 643              	.LBE212:
 644              	.LBE211:
 645              	.LBE221:
 646              	.LBE225:
 647              		.loc 3 382 3 view .LVU163
 648              	.LBB226:
 649              	.LBB222:
 650              	.LBB218:
 651              	.LBB217:
 652              	.LBB216:
 653              	.LBB214:
 654              	.LBI214:
 655              		.loc 4 331 57 view .LVU164
 656              	.LBB215:
 657              		.loc 4 333 3 view .LVU165
 658              		.syntax divided
 659              	@ 333 "ChibiOS/os/common/ext/CMSIS/include/core_cmFunc.h" 1
 660 0006 62B6     		cpsie i
 661              	@ 0 "" 2
 662              	.LVL17:
 663              		.thumb
 664              		.syntax unified
 665              	.L32:
 666              		.loc 4 333 3 is_stmt 0 view .LVU166
 667              	.LBE215:
 668              	.LBE214:
 669              	.LBE216:
 670              	.LBE217:
 671              	.LBE218:
 672              		.loc 1 144 3 is_stmt 1 view .LVU167
 673              		.loc 1 144 3 is_stmt 0 view .LVU168
 674              	.LBE222:
 675              	.LBE226:
 676              		.loc 1 226 3 is_stmt 1 view .LVU169
 677              		.loc 1 227 5 view .LVU170
 678              		.loc 1 227 8 is_stmt 0 view .LVU171
 679 0008 9842     		cmp	r0, r3
 680 000a 07D0     		beq	.L20
 681              		.loc 1 230 5 is_stmt 1 view .LVU172
 682              	.LVL18:
 683              	.LBB227:
 684              	.LBI227:
ARM GAS  /tmp/cc4deIag.s 			page 13


 685              		.loc 1 158 11 view .LVU173
 686              	.LBB228:
 687              		.loc 1 159 3 view .LVU174
 688              		.loc 1 161 3 view .LVU175
 689              	.LBB229:
 690              	.LBI229:
 691              		.loc 2 374 20 view .LVU176
 692              	.LBE229:
 693              	.LBE228:
 694              	.LBE227:
 695              		.loc 2 376 3 view .LVU177
 696              	.LBB258:
 697              	.LBB252:
 698              	.LBB234:
 699              	.LBB230:
 700              	.LBI230:
 701              		.loc 3 371 20 view .LVU178
 702              	.LBE230:
 703              	.LBE234:
 704              	.LBE252:
 705              	.LBE258:
 706              		.loc 3 373 3 view .LVU179
 707              	.LBB259:
 708              	.LBB253:
 709              	.LBB235:
 710              	.LBB233:
 711              	.LBB231:
 712              	.LBI231:
 713              		.loc 4 342 57 view .LVU180
 714              	.LBB232:
 715              		.loc 4 344 3 view .LVU181
 716              		.syntax divided
 717              	@ 344 "ChibiOS/os/common/ext/CMSIS/include/core_cmFunc.h" 1
 718 000c 72B6     		cpsid i
 719              	@ 0 "" 2
 720              		.thumb
 721              		.syntax unified
 722              	.LBE232:
 723              	.LBE231:
 724              	.LBE233:
 725              	.LBE235:
 726              	.LBE253:
 727              	.LBE259:
 728              		.loc 2 377 34 view .LVU182
 729              		.loc 2 378 20 view .LVU183
 730              	.LBB260:
 731              	.LBB254:
 732              		.loc 1 162 3 view .LVU184
 733              		.loc 1 162 7 is_stmt 0 view .LVU185
 734 000e 1B69     		ldr	r3, [r3, #16]
 735              	.LVL19:
 736              		.loc 1 164 3 is_stmt 1 view .LVU186
 737              		.loc 1 164 6 is_stmt 0 view .LVU187
 738 0010 9342     		cmp	r3, r2
 739 0012 05D0     		beq	.L33
 740              		.loc 1 174 3 is_stmt 1 view .LVU188
 741              	.LBB236:
ARM GAS  /tmp/cc4deIag.s 			page 14


 742              	.LBI236:
 743              		.loc 2 386 20 view .LVU189
 744              	.LBB237:
 745              		.loc 2 388 22 view .LVU190
 746              		.loc 2 389 33 view .LVU191
 747              		.loc 2 395 3 view .LVU192
 748              		.loc 2 395 3 view .LVU193
 749              		.loc 2 399 3 view .LVU194
 750              	.LBB238:
 751              	.LBI238:
 752              		.loc 3 380 20 view .LVU195
 753              	.LBE238:
 754              	.LBE237:
 755              	.LBE236:
 756              	.LBE254:
 757              	.LBE260:
 758              		.loc 3 382 3 view .LVU196
 759              	.LBB261:
 760              	.LBB255:
 761              	.LBB249:
 762              	.LBB246:
 763              	.LBB243:
 764              	.LBB239:
 765              	.LBI239:
 766              		.loc 4 331 57 view .LVU197
 767              	.LBB240:
 768              		.loc 4 333 3 view .LVU198
 769              		.syntax divided
 770              	@ 333 "ChibiOS/os/common/ext/CMSIS/include/core_cmFunc.h" 1
 771 0014 62B6     		cpsie i
 772              	@ 0 "" 2
 773              		.thumb
 774              		.syntax unified
 775              	.LBE240:
 776              	.LBE239:
 777              	.LBE243:
 778              	.LBE246:
 779              	.LBE249:
 780              		.loc 1 179 3 view .LVU199
 781              	.LVL20:
 782              		.loc 1 179 3 is_stmt 0 view .LVU200
 783              	.LBE255:
 784              	.LBE261:
 785              		.loc 1 231 3 view .LVU201
 786 0016 002B     		cmp	r3, #0
 787 0018 F6D1     		bne	.L32
 788              		.loc 1 233 10 view .LVU202
 789 001a 0023     		movs	r3, #0
 790              	.LVL21:
 791              	.L20:
 792              		.loc 1 234 1 view .LVU203
 793 001c 1800     		movs	r0, r3
 794              	.LVL22:
 795              		.loc 1 234 1 view .LVU204
 796              		@ sp needed
 797 001e 7047     		bx	lr
 798              	.LVL23:
ARM GAS  /tmp/cc4deIag.s 			page 15


 799              	.L33:
 800              	.LBB262:
 801              	.LBB256:
 802              		.loc 1 166 5 is_stmt 1 view .LVU205
 803              		.loc 1 174 3 view .LVU206
 804              	.LBB250:
 805              		.loc 2 386 20 view .LVU207
 806              	.LBB247:
 807              		.loc 2 388 22 view .LVU208
 808              		.loc 2 389 33 view .LVU209
 809              		.loc 2 395 3 view .LVU210
 810              		.loc 2 395 3 view .LVU211
 811              		.loc 2 399 3 view .LVU212
 812              	.LBB244:
 813              		.loc 3 380 20 view .LVU213
 814              	.LBE244:
 815              	.LBE247:
 816              	.LBE250:
 817              	.LBE256:
 818              	.LBE262:
 819              		.loc 3 382 3 view .LVU214
 820              	.LBB263:
 821              	.LBB257:
 822              	.LBB251:
 823              	.LBB248:
 824              	.LBB245:
 825              	.LBB242:
 826              		.loc 4 331 57 view .LVU215
 827              	.LBB241:
 828              		.loc 4 333 3 view .LVU216
 829              		.syntax divided
 830              	@ 333 "ChibiOS/os/common/ext/CMSIS/include/core_cmFunc.h" 1
 831 0020 62B6     		cpsie i
 832              	@ 0 "" 2
 833              		.thumb
 834              		.syntax unified
 835              	.LBE241:
 836              	.LBE242:
 837              	.LBE245:
 838              	.LBE248:
 839              	.LBE251:
 840              		.loc 1 179 3 view .LVU217
 841              	.LVL24:
 842              		.loc 1 179 3 is_stmt 0 view .LVU218
 843              	.LBE257:
 844              	.LBE263:
 845              		.loc 1 233 10 view .LVU219
 846 0022 0023     		movs	r3, #0
 847 0024 FAE7     		b	.L20
 848              	.L35:
 849 0026 C046     		.align	2
 850              	.L34:
 851 0028 00000000 		.word	ch
 852              		.cfi_endproc
 853              	.LFE124:
 854              		.size	chRegFindThreadByPointer, .-chRegFindThreadByPointer
 855              		.section	.text.chRegFindThreadByWorkingArea,"ax",%progbits
ARM GAS  /tmp/cc4deIag.s 			page 16


 856              		.align	1
 857              		.p2align 4,,15
 858              		.global	chRegFindThreadByWorkingArea
 859              		.syntax unified
 860              		.code	16
 861              		.thumb_func
 862              		.fpu softvfp
 863              		.type	chRegFindThreadByWorkingArea, %function
 864              	chRegFindThreadByWorkingArea:
 865              	.LVL25:
 866              	.LFB125:
 867              		.loc 1 250 56 is_stmt 1 view -0
 868              		.cfi_startproc
 869              		@ args = 0, pretend = 0, frame = 0
 870              		@ frame_needed = 0, uses_anonymous_args = 0
 871              		@ link register save eliminated.
 872              		.loc 1 251 3 view .LVU221
 873              		.loc 1 254 3 view .LVU222
 874              	.LBB264:
 875              	.LBI264:
 876              		.loc 1 134 11 view .LVU223
 877              	.LBB265:
 878              		.loc 1 135 3 view .LVU224
 879              		.loc 1 137 3 view .LVU225
 880              	.LBB266:
 881              	.LBI266:
 882              		.loc 2 374 20 view .LVU226
 883              	.LBE266:
 884              	.LBE265:
 885              	.LBE264:
 886              		.loc 2 376 3 view .LVU227
 887              	.LBB285:
 888              	.LBB281:
 889              	.LBB271:
 890              	.LBB267:
 891              	.LBI267:
 892              		.loc 3 371 20 view .LVU228
 893              	.LBE267:
 894              	.LBE271:
 895              	.LBE281:
 896              	.LBE285:
 897              		.loc 3 373 3 view .LVU229
 898              	.LBB286:
 899              	.LBB282:
 900              	.LBB272:
 901              	.LBB270:
 902              	.LBB268:
 903              	.LBI268:
 904              		.loc 4 342 57 view .LVU230
 905              	.LBB269:
 906              		.loc 4 344 3 view .LVU231
 907              		.syntax divided
 908              	@ 344 "ChibiOS/os/common/ext/CMSIS/include/core_cmFunc.h" 1
 909 0000 72B6     		cpsid i
 910              	@ 0 "" 2
 911              		.thumb
 912              		.syntax unified
ARM GAS  /tmp/cc4deIag.s 			page 17


 913              	.LBE269:
 914              	.LBE268:
 915              	.LBE270:
 916              	.LBE272:
 917              	.LBE282:
 918              	.LBE286:
 919              		.loc 2 377 34 view .LVU232
 920              		.loc 2 378 20 view .LVU233
 921              	.LBB287:
 922              	.LBB283:
 923              		.loc 1 138 3 view .LVU234
 924              		.loc 1 138 6 is_stmt 0 view .LVU235
 925 0002 094A     		ldr	r2, .L42
 926 0004 1369     		ldr	r3, [r2, #16]
 927              	.LVL26:
 928              		.loc 1 142 3 is_stmt 1 view .LVU236
 929              	.LBB273:
 930              	.LBI273:
 931              		.loc 2 386 20 view .LVU237
 932              	.LBB274:
 933              		.loc 2 388 22 view .LVU238
 934              		.loc 2 389 33 view .LVU239
 935              		.loc 2 395 3 view .LVU240
 936              		.loc 2 395 3 view .LVU241
 937              		.loc 2 399 3 view .LVU242
 938              	.LBB275:
 939              	.LBI275:
 940              		.loc 3 380 20 view .LVU243
 941              	.LBE275:
 942              	.LBE274:
 943              	.LBE273:
 944              	.LBE283:
 945              	.LBE287:
 946              		.loc 3 382 3 view .LVU244
 947              	.LBB288:
 948              	.LBB284:
 949              	.LBB280:
 950              	.LBB279:
 951              	.LBB278:
 952              	.LBB276:
 953              	.LBI276:
 954              		.loc 4 331 57 view .LVU245
 955              	.LBB277:
 956              		.loc 4 333 3 view .LVU246
 957              		.syntax divided
 958              	@ 333 "ChibiOS/os/common/ext/CMSIS/include/core_cmFunc.h" 1
 959 0006 62B6     		cpsie i
 960              	@ 0 "" 2
 961              		.thumb
 962              		.syntax unified
 963              	.LBE277:
 964              	.LBE276:
 965              	.LBE278:
 966              	.LBE279:
 967              	.LBE280:
 968              		.loc 1 144 3 view .LVU247
 969              	.LVL27:
ARM GAS  /tmp/cc4deIag.s 			page 18


 970              	.L39:
 971              		.loc 1 144 3 is_stmt 0 view .LVU248
 972              	.LBE284:
 973              	.LBE288:
 974              		.loc 1 255 3 is_stmt 1 view .LVU249
 975              		.loc 1 256 5 view .LVU250
 976              		.file 6 "ChibiOS/os/rt/include/chthreads.h"
 977              		.loc 6 322 3 view .LVU251
 978              		.loc 1 256 8 is_stmt 0 view .LVU252
 979 0008 D969     		ldr	r1, [r3, #28]
 980 000a 8842     		cmp	r0, r1
 981 000c 06D0     		beq	.L36
 982              		.loc 1 259 5 is_stmt 1 view .LVU253
 983              	.LVL28:
 984              	.LBB289:
 985              	.LBI289:
 986              		.loc 1 158 11 view .LVU254
 987              	.LBB290:
 988              		.loc 1 159 3 view .LVU255
 989              		.loc 1 161 3 view .LVU256
 990              	.LBB291:
 991              	.LBI291:
 992              		.loc 2 374 20 view .LVU257
 993              	.LBE291:
 994              	.LBE290:
 995              	.LBE289:
 996              		.loc 2 376 3 view .LVU258
 997              	.LBB320:
 998              	.LBB314:
 999              	.LBB296:
 1000              	.LBB292:
 1001              	.LBI292:
 1002              		.loc 3 371 20 view .LVU259
 1003              	.LBE292:
 1004              	.LBE296:
 1005              	.LBE314:
 1006              	.LBE320:
 1007              		.loc 3 373 3 view .LVU260
 1008              	.LBB321:
 1009              	.LBB315:
 1010              	.LBB297:
 1011              	.LBB295:
 1012              	.LBB293:
 1013              	.LBI293:
 1014              		.loc 4 342 57 view .LVU261
 1015              	.LBB294:
 1016              		.loc 4 344 3 view .LVU262
 1017              		.syntax divided
 1018              	@ 344 "ChibiOS/os/common/ext/CMSIS/include/core_cmFunc.h" 1
 1019 000e 72B6     		cpsid i
 1020              	@ 0 "" 2
 1021              		.thumb
 1022              		.syntax unified
 1023              	.LBE294:
 1024              	.LBE293:
 1025              	.LBE295:
 1026              	.LBE297:
ARM GAS  /tmp/cc4deIag.s 			page 19


 1027              	.LBE315:
 1028              	.LBE321:
 1029              		.loc 2 377 34 view .LVU263
 1030              		.loc 2 378 20 view .LVU264
 1031              	.LBB322:
 1032              	.LBB316:
 1033              		.loc 1 162 3 view .LVU265
 1034              		.loc 1 162 7 is_stmt 0 view .LVU266
 1035 0010 1B69     		ldr	r3, [r3, #16]
 1036              	.LVL29:
 1037              		.loc 1 164 3 is_stmt 1 view .LVU267
 1038              		.loc 1 164 6 is_stmt 0 view .LVU268
 1039 0012 9342     		cmp	r3, r2
 1040 0014 04D0     		beq	.L41
 1041              		.loc 1 174 3 is_stmt 1 view .LVU269
 1042              	.LBB298:
 1043              	.LBI298:
 1044              		.loc 2 386 20 view .LVU270
 1045              	.LBB299:
 1046              		.loc 2 388 22 view .LVU271
 1047              		.loc 2 389 33 view .LVU272
 1048              		.loc 2 395 3 view .LVU273
 1049              		.loc 2 395 3 view .LVU274
 1050              		.loc 2 399 3 view .LVU275
 1051              	.LBB300:
 1052              	.LBI300:
 1053              		.loc 3 380 20 view .LVU276
 1054              	.LBE300:
 1055              	.LBE299:
 1056              	.LBE298:
 1057              	.LBE316:
 1058              	.LBE322:
 1059              		.loc 3 382 3 view .LVU277
 1060              	.LBB323:
 1061              	.LBB317:
 1062              	.LBB311:
 1063              	.LBB308:
 1064              	.LBB305:
 1065              	.LBB301:
 1066              	.LBI301:
 1067              		.loc 4 331 57 view .LVU278
 1068              	.LBB302:
 1069              		.loc 4 333 3 view .LVU279
 1070              		.syntax divided
 1071              	@ 333 "ChibiOS/os/common/ext/CMSIS/include/core_cmFunc.h" 1
 1072 0016 62B6     		cpsie i
 1073              	@ 0 "" 2
 1074              		.thumb
 1075              		.syntax unified
 1076              	.LBE302:
 1077              	.LBE301:
 1078              	.LBE305:
 1079              	.LBE308:
 1080              	.LBE311:
 1081              		.loc 1 179 3 view .LVU280
 1082              	.LVL30:
 1083              		.loc 1 179 3 is_stmt 0 view .LVU281
ARM GAS  /tmp/cc4deIag.s 			page 20


 1084              	.LBE317:
 1085              	.LBE323:
 1086              		.loc 1 260 3 view .LVU282
 1087 0018 002B     		cmp	r3, #0
 1088 001a F5D1     		bne	.L39
 1089              	.LVL31:
 1090              	.L36:
 1091              		.loc 1 263 1 view .LVU283
 1092 001c 1800     		movs	r0, r3
 1093              	.LVL32:
 1094              		.loc 1 263 1 view .LVU284
 1095              		@ sp needed
 1096 001e 7047     		bx	lr
 1097              	.LVL33:
 1098              	.L41:
 1099              	.LBB324:
 1100              	.LBB318:
 1101              		.loc 1 166 5 is_stmt 1 view .LVU285
 1102              		.loc 1 174 3 view .LVU286
 1103              	.LBB312:
 1104              		.loc 2 386 20 view .LVU287
 1105              	.LBB309:
 1106              		.loc 2 388 22 view .LVU288
 1107              		.loc 2 389 33 view .LVU289
 1108              		.loc 2 395 3 view .LVU290
 1109              		.loc 2 395 3 view .LVU291
 1110              		.loc 2 399 3 view .LVU292
 1111              	.LBB306:
 1112              		.loc 3 380 20 view .LVU293
 1113              	.LBE306:
 1114              	.LBE309:
 1115              	.LBE312:
 1116              	.LBE318:
 1117              	.LBE324:
 1118              		.loc 3 382 3 view .LVU294
 1119              	.LBB325:
 1120              	.LBB319:
 1121              	.LBB313:
 1122              	.LBB310:
 1123              	.LBB307:
 1124              	.LBB304:
 1125              		.loc 4 331 57 view .LVU295
 1126              	.LBB303:
 1127              		.loc 4 333 3 view .LVU296
 1128              		.syntax divided
 1129              	@ 333 "ChibiOS/os/common/ext/CMSIS/include/core_cmFunc.h" 1
 1130 0020 62B6     		cpsie i
 1131              	@ 0 "" 2
 1132              		.thumb
 1133              		.syntax unified
 1134              	.LBE303:
 1135              	.LBE304:
 1136              	.LBE307:
 1137              	.LBE310:
 1138              	.LBE313:
 1139              		.loc 1 179 3 view .LVU297
 1140              	.LVL34:
ARM GAS  /tmp/cc4deIag.s 			page 21


 1141              		.loc 1 179 3 is_stmt 0 view .LVU298
 1142              	.LBE319:
 1143              	.LBE325:
 1144              		.loc 1 262 10 view .LVU299
 1145 0022 0023     		movs	r3, #0
 1146 0024 FAE7     		b	.L36
 1147              	.L43:
 1148 0026 C046     		.align	2
 1149              	.L42:
 1150 0028 00000000 		.word	ch
 1151              		.cfi_endproc
 1152              	.LFE125:
 1153              		.size	chRegFindThreadByWorkingArea, .-chRegFindThreadByWorkingArea
 1154              		.global	ch_debug
 1155              		.section	.rodata.ch_debug,"a"
 1156              		.align	2
 1157              		.type	ch_debug, %object
 1158              		.size	ch_debug, 22
 1159              	ch_debug:
 1160 0000 6D       		.byte	109
 1161 0001 61       		.byte	97
 1162 0002 69       		.byte	105
 1163 0003 6E       		.byte	110
 1164 0004 00       		.byte	0
 1165 0005 16       		.byte	22
 1166 0006 0020     		.short	8192
 1167 0008 04       		.byte	4
 1168 0009 04       		.byte	4
 1169 000a 38       		.byte	56
 1170 000b 08       		.byte	8
 1171 000c 0C       		.byte	12
 1172 000d 10       		.byte	16
 1173 000e 14       		.byte	20
 1174 000f 18       		.byte	24
 1175 0010 1C       		.byte	28
 1176 0011 20       		.byte	32
 1177 0012 21       		.byte	33
 1178 0013 00       		.byte	0
 1179 0014 00       		.byte	0
 1180 0015 00       		.byte	0
 1181              		.text
 1182              	.Letext0:
 1183              		.file 7 "/opt/nanovna/gcc-arm-none-eabi-8-2018-q4-major/lib/gcc/arm-none-eabi/8.2.1/include/stddef
 1184              		.file 8 "/opt/nanovna/gcc-arm-none-eabi-8-2018-q4-major/arm-none-eabi/include/machine/_default_typ
 1185              		.file 9 "/opt/nanovna/gcc-arm-none-eabi-8-2018-q4-major/arm-none-eabi/include/sys/lock.h"
 1186              		.file 10 "/opt/nanovna/gcc-arm-none-eabi-8-2018-q4-major/arm-none-eabi/include/sys/_types.h"
 1187              		.file 11 "/opt/nanovna/gcc-arm-none-eabi-8-2018-q4-major/arm-none-eabi/include/sys/reent.h"
 1188              		.file 12 "/opt/nanovna/gcc-arm-none-eabi-8-2018-q4-major/arm-none-eabi/include/sys/_stdint.h"
 1189              		.file 13 "ChibiOS/os/common/ports/ARMCMx/compilers/GCC/chtypes.h"
 1190              		.file 14 "ChibiOS/os/rt/include/chsystypes.h"
 1191              		.file 15 "ChibiOS/os/rt/include/chschd.h"
 1192              		.file 16 "ChibiOS/os/common/ext/CMSIS/ST/STM32F0xx/system_stm32f0xx.h"
 1193              		.file 17 "ChibiOS/os/common/ports/ARMCMx/chcore.h"
 1194              		.file 18 "ChibiOS/os/rt/include/chmtx.h"
 1195              		.file 19 "/opt/nanovna/gcc-arm-none-eabi-8-2018-q4-major/arm-none-eabi/include/string.h"