ARM GAS  /tmp/cczVLfuZ.s 			page 1


   1              		.cpu cortex-m0
   2              		.eabi_attribute 20, 1
   3              		.eabi_attribute 21, 1
   4              		.eabi_attribute 23, 3
   5              		.eabi_attribute 24, 1
   6              		.eabi_attribute 25, 1
   7              		.eabi_attribute 26, 1
   8              		.eabi_attribute 30, 2
   9              		.eabi_attribute 34, 0
  10              		.eabi_attribute 18, 4
  11              		.file	"chsys.c"
  12              		.text
  13              	.Ltext0:
  14              		.cfi_sections	.debug_frame
  15              		.section	.text._idle_thread,"ax",%progbits
  16              		.align	1
  17              		.p2align 4,,15
  18              		.arch armv6s-m
  19              		.syntax unified
  20              		.code	16
  21              		.thumb_func
  22              		.fpu softvfp
  23              		.type	_idle_thread, %function
  24              	_idle_thread:
  25              	.LFB121:
  26              		.file 1 "ChibiOS/os/rt/src/chsys.c"
  27              		.loc 1 72 35 view -0
  28              		.cfi_startproc
  29              		@ Volatile: function does not return.
  30              		@ args = 0, pretend = 0, frame = 0
  31              		@ frame_needed = 0, uses_anonymous_args = 0
  32              		@ link register save eliminated.
  33              	.LVL0:
  34              	.L2:
  35              		.loc 1 74 3 discriminator 1 view .LVU1
  36              		.loc 1 76 3 discriminator 1 view .LVU2
  37              		.loc 1 79 5 discriminator 1 view .LVU3
  38              		.file 2 "ChibiOS/os/common/ports/ARMCMx/chcore_v6m.h"
  39              		.loc 2 442 1 discriminator 1 view .LVU4
  40 0000 FEE7     		b	.L2
  41              		.cfi_endproc
  42              	.LFE121:
  43              		.size	_idle_thread, .-_idle_thread
  44 0002 C046     		.section	.text.chSysInit,"ax",%progbits
  45              		.align	1
  46              		.p2align 4,,15
  47              		.global	chSysInit
  48              		.syntax unified
  49              		.code	16
  50              		.thumb_func
  51              		.fpu softvfp
  52              		.type	chSysInit, %function
  53              	chSysInit:
  54              	.LFB122:
  55              		.loc 1 100 22 view -0
  56              		.cfi_startproc
  57              		@ args = 0, pretend = 0, frame = 0
ARM GAS  /tmp/cczVLfuZ.s 			page 2


  58              		@ frame_needed = 0, uses_anonymous_args = 0
  59              		.loc 1 102 3 view .LVU6
  60              		.loc 1 100 22 is_stmt 0 view .LVU7
  61 0000 10B5     		push	{r4, lr}
  62              		.cfi_def_cfa_offset 8
  63              		.cfi_offset 4, -8
  64              		.cfi_offset 14, -4
  65              		.loc 1 102 3 view .LVU8
  66 0002 FFF7FEFF 		bl	_scheduler_init
  67              	.LVL1:
  68              		.loc 1 103 3 is_stmt 1 view .LVU9
  69 0006 FFF7FEFF 		bl	_vt_init
  70              	.LVL2:
  71              		.loc 1 104 16 view .LVU10
  72              		.loc 1 126 3 view .LVU11
  73              		.loc 1 126 11 is_stmt 0 view .LVU12
  74 000a 0B4C     		ldr	r4, .L5
  75 000c 8022     		movs	r2, #128
  76 000e 0B49     		ldr	r1, .L5+4
  77 0010 2000     		movs	r0, r4
  78 0012 FFF7FEFF 		bl	_thread_init
  79              	.LVL3:
  80              	.LBB134:
  81              		.loc 1 140 19 view .LVU13
  82 0016 0A4B     		ldr	r3, .L5+8
  83              	.LBE134:
  84              		.loc 1 147 16 view .LVU14
  85 0018 0122     		movs	r2, #1
  86              	.LBB135:
  87              		.loc 1 140 19 view .LVU15
  88 001a C361     		str	r3, [r0, #28]
  89              	.LBE135:
  90              		.loc 1 147 16 view .LVU16
  91 001c 2023     		movs	r3, #32
  92 001e C254     		strb	r2, [r0, r3]
  93              	.LBB136:
  94              	.LBB137:
  95              	.LBB138:
  96              		.file 3 "ChibiOS/os/common/ext/CMSIS/include/core_cm0.h"
  97              		.loc 3 639 52 view .LVU17
  98 0020 084A     		ldr	r2, .L5+12
  99              		.loc 3 639 33 view .LVU18
 100 0022 0949     		ldr	r1, .L5+16
 101              		.loc 3 639 52 view .LVU19
 102 0024 136A     		ldr	r3, [r2, #32]
 103              	.LBE138:
 104              	.LBE137:
 105              	.LBE136:
 106              		.loc 1 126 9 view .LVU20
 107 0026 303C     		subs	r4, r4, #48
 108              	.LBB143:
 109              	.LBB141:
 110              	.LBB139:
 111              		.loc 3 639 33 view .LVU21
 112 0028 0B40     		ands	r3, r1
 113              	.LBE139:
 114              	.LBE141:
ARM GAS  /tmp/cczVLfuZ.s 			page 3


 115              	.LBE143:
 116              		.loc 1 126 9 view .LVU22
 117 002a A061     		str	r0, [r4, #24]
 118              	.LBB144:
 119              		.loc 1 139 5 is_stmt 1 view .LVU23
 120              		.loc 1 140 5 view .LVU24
 121              	.LBE144:
 122              		.loc 1 147 3 view .LVU25
 123              		.loc 1 151 3 view .LVU26
 124              	.LBB145:
 125              	.LBI136:
 126              		.loc 2 326 20 view .LVU27
 127              	.LBE145:
 128              		.loc 2 328 3 view .LVU28
 129              	.LVL4:
 130              	.LBB146:
 131              	.LBB142:
 132              	.LBI137:
 133              		.loc 3 636 22 view .LVU29
 134              	.LBB140:
 135              		.loc 3 638 3 view .LVU30
 136              		.loc 3 639 5 view .LVU31
 137              		.loc 3 639 30 is_stmt 0 view .LVU32
 138 002c 1362     		str	r3, [r2, #32]
 139              	.LVL5:
 140              		.loc 3 639 30 view .LVU33
 141              	.LBE140:
 142              	.LBE142:
 143              	.LBE146:
 144              		.loc 1 159 3 is_stmt 1 view .LVU34
 145              	.LBB147:
 146              	.LBI147:
 147              		.file 4 "ChibiOS/os/rt/include/chsys.h"
 148              		.loc 4 363 20 view .LVU35
 149              	.LBE147:
 150              		.loc 4 365 22 view .LVU36
 151              		.loc 4 366 3 view .LVU37
 152              	.LBB152:
 153              	.LBB148:
 154              	.LBI148:
 155              		.loc 2 424 20 view .LVU38
 156              	.LBE148:
 157              	.LBE152:
 158              		.loc 2 426 3 view .LVU39
 159              	.LBB153:
 160              	.LBB151:
 161              	.LBB149:
 162              	.LBI149:
 163              		.file 5 "ChibiOS/os/common/ext/CMSIS/include/core_cmFunc.h"
 164              		.loc 5 331 57 view .LVU40
 165              	.LBB150:
 166              		.loc 5 333 3 view .LVU41
 167              		.syntax divided
 168              	@ 333 "ChibiOS/os/common/ext/CMSIS/include/core_cmFunc.h" 1
 169 002e 62B6     		cpsie i
 170              	@ 0 "" 2
 171              		.thumb
ARM GAS  /tmp/cczVLfuZ.s 			page 4


 172              		.syntax unified
 173              	.LBE150:
 174              	.LBE149:
 175              	.LBE151:
 176              	.LBE153:
 177              	.LBB154:
 178              		.loc 1 163 5 view .LVU42
 179              		.loc 1 175 5 view .LVU43
 180              		.loc 1 175 12 is_stmt 0 view .LVU44
 181 0030 0648     		ldr	r0, .L5+20
 182 0032 FFF7FEFF 		bl	chThdCreate
 183              	.LVL6:
 184              	.LBE154:
 185              		.loc 1 178 1 view .LVU45
 186              		@ sp needed
 187 0036 10BD     		pop	{r4, pc}
 188              	.L6:
 189              		.align	2
 190              	.L5:
 191 0038 30000000 		.word	ch+48
 192 003c 00000000 		.word	ch_debug
 193 0040 00000000 		.word	__main_thread_stack_base__
 194 0044 00ED00E0 		.word	-536810240
 195 0048 FFFF00FF 		.word	-16711681
 196 004c 00000000 		.word	.LANCHOR0
 197              		.cfi_endproc
 198              	.LFE122:
 199              		.size	chSysInit, .-chSysInit
 200              		.section	.text.chSysHalt,"ax",%progbits
 201              		.align	1
 202              		.p2align 4,,15
 203              		.global	chSysHalt
 204              		.syntax unified
 205              		.code	16
 206              		.thumb_func
 207              		.fpu softvfp
 208              		.type	chSysHalt, %function
 209              	chSysHalt:
 210              	.LVL7:
 211              	.LFB123:
 212              		.loc 1 192 36 is_stmt 1 view -0
 213              		.cfi_startproc
 214              		@ Volatile: function does not return.
 215              		@ args = 0, pretend = 0, frame = 0
 216              		@ frame_needed = 0, uses_anonymous_args = 0
 217              		@ link register save eliminated.
 218              		.loc 1 194 3 view .LVU47
 219              	.LBB155:
 220              	.LBI155:
 221              		.loc 2 408 20 view .LVU48
 222              	.LBE155:
 223              		.loc 2 410 3 view .LVU49
 224              	.LBB158:
 225              	.LBB156:
 226              	.LBI156:
 227              		.loc 5 342 57 view .LVU50
 228              	.LBB157:
ARM GAS  /tmp/cczVLfuZ.s 			page 5


 229              		.loc 5 344 3 view .LVU51
 230              		.syntax divided
 231              	@ 344 "ChibiOS/os/common/ext/CMSIS/include/core_cmFunc.h" 1
 232 0000 72B6     		cpsid i
 233              	@ 0 "" 2
 234              		.thumb
 235              		.syntax unified
 236              	.LBE157:
 237              	.LBE156:
 238              	.LBE158:
 239              		.loc 1 197 3 view .LVU52
 240              		.loc 1 197 34 view .LVU53
 241              		.loc 1 200 22 view .LVU54
 242              		.loc 1 203 3 view .LVU55
 243              		.loc 1 203 20 is_stmt 0 view .LVU56
 244 0002 014B     		ldr	r3, .L9
 245 0004 D862     		str	r0, [r3, #44]
 246              	.L8:
 247              		.loc 1 206 3 is_stmt 1 discriminator 1 view .LVU57
 248              		.loc 1 207 3 discriminator 1 view .LVU58
 249              		.loc 1 206 3 discriminator 1 view .LVU59
 250              		.loc 1 207 3 discriminator 1 view .LVU60
 251 0006 FEE7     		b	.L8
 252              	.L10:
 253              		.align	2
 254              	.L9:
 255 0008 00000000 		.word	ch
 256              		.cfi_endproc
 257              	.LFE123:
 258              		.size	chSysHalt, .-chSysHalt
 259              		.section	.text.chSysIntegrityCheckI,"ax",%progbits
 260              		.align	1
 261              		.p2align 4,,15
 262              		.global	chSysIntegrityCheckI
 263              		.syntax unified
 264              		.code	16
 265              		.thumb_func
 266              		.fpu softvfp
 267              		.type	chSysIntegrityCheckI, %function
 268              	chSysIntegrityCheckI:
 269              	.LVL8:
 270              	.LFB124:
 271              		.loc 1 234 46 view -0
 272              		.cfi_startproc
 273              		@ args = 0, pretend = 0, frame = 0
 274              		@ frame_needed = 0, uses_anonymous_args = 0
 275              		.loc 1 235 3 view .LVU62
 276              		.loc 1 237 21 view .LVU63
 277              		.loc 1 240 3 view .LVU64
 278              		.loc 1 234 46 is_stmt 0 view .LVU65
 279 0000 30B5     		push	{r4, r5, lr}
 280              		.cfi_def_cfa_offset 12
 281              		.cfi_offset 4, -12
 282              		.cfi_offset 5, -8
 283              		.cfi_offset 14, -4
 284              		.loc 1 234 46 view .LVU66
 285 0002 0500     		movs	r5, r0
ARM GAS  /tmp/cczVLfuZ.s 			page 6


 286              		.loc 1 240 6 view .LVU67
 287 0004 C307     		lsls	r3, r0, #31
 288 0006 11D5     		bpl	.L12
 289              	.LBB159:
 290              		.loc 1 241 5 is_stmt 1 view .LVU68
 291              		.loc 1 244 5 view .LVU69
 292              	.LVL9:
 293              		.loc 1 245 5 view .LVU70
 294              		.loc 1 245 8 is_stmt 0 view .LVU71
 295 0008 234B     		ldr	r3, .L52
 296              		.loc 1 244 7 view .LVU72
 297 000a 0022     		movs	r2, #0
 298              		.loc 1 245 8 view .LVU73
 299 000c 1968     		ldr	r1, [r3]
 300              	.LVL10:
 301              		.loc 1 246 5 is_stmt 1 view .LVU74
 302              		.loc 1 246 5 is_stmt 0 view .LVU75
 303 000e 5C68     		ldr	r4, [r3, #4]
 304              		.loc 1 246 11 view .LVU76
 305 0010 9942     		cmp	r1, r3
 306 0012 38D0     		beq	.L13
 307              	.LVL11:
 308              	.L14:
 309              		.loc 1 247 7 is_stmt 1 view .LVU77
 310              		.loc 1 248 10 is_stmt 0 view .LVU78
 311 0014 0968     		ldr	r1, [r1]
 312              	.LVL12:
 313              		.loc 1 247 8 view .LVU79
 314 0016 0132     		adds	r2, r2, #1
 315              	.LVL13:
 316              		.loc 1 248 7 is_stmt 1 view .LVU80
 317              		.loc 1 246 11 is_stmt 0 view .LVU81
 318 0018 9942     		cmp	r1, r3
 319 001a FBD1     		bne	.L14
 320              		.loc 1 252 5 is_stmt 1 view .LVU82
 321              	.LVL14:
 322              		.loc 1 253 5 view .LVU83
 323              		.loc 1 253 11 is_stmt 0 view .LVU84
 324 001c 8C42     		cmp	r4, r1
 325 001e 30D0     		beq	.L34
 326              	.LVL15:
 327              	.L18:
 328              		.loc 1 254 7 is_stmt 1 view .LVU85
 329              		.loc 1 255 10 is_stmt 0 view .LVU86
 330 0020 6468     		ldr	r4, [r4, #4]
 331              	.LVL16:
 332              		.loc 1 254 8 view .LVU87
 333 0022 013A     		subs	r2, r2, #1
 334              	.LVL17:
 335              		.loc 1 255 7 is_stmt 1 view .LVU88
 336              		.loc 1 253 11 is_stmt 0 view .LVU89
 337 0024 9C42     		cmp	r4, r3
 338 0026 FBD1     		bne	.L18
 339              		.loc 1 259 5 is_stmt 1 view .LVU90
 340              		.loc 1 259 8 is_stmt 0 view .LVU91
 341 0028 002A     		cmp	r2, #0
 342 002a 2AD1     		bne	.L34
ARM GAS  /tmp/cczVLfuZ.s 			page 7


 343              	.LVL18:
 344              	.L12:
 345              		.loc 1 259 8 view .LVU92
 346              	.LBE159:
 347              		.loc 1 265 3 is_stmt 1 view .LVU93
 348              		.loc 1 265 6 is_stmt 0 view .LVU94
 349 002c AB07     		lsls	r3, r5, #30
 350 002e 12D5     		bpl	.L19
 351              	.LBB160:
 352              		.loc 1 266 5 is_stmt 1 view .LVU95
 353              		.loc 1 269 5 view .LVU96
 354              	.LVL19:
 355              		.loc 1 270 5 view .LVU97
 356              		.loc 1 270 9 is_stmt 0 view .LVU98
 357 0030 194C     		ldr	r4, .L52
 358              		.loc 1 269 7 view .LVU99
 359 0032 0023     		movs	r3, #0
 360              		.loc 1 270 9 view .LVU100
 361 0034 E269     		ldr	r2, [r4, #28]
 362              	.LVL20:
 363              		.loc 1 271 5 is_stmt 1 view .LVU101
 364              		.loc 1 271 5 is_stmt 0 view .LVU102
 365 0036 216A     		ldr	r1, [r4, #32]
 366              		.loc 1 271 11 view .LVU103
 367 0038 1C34     		adds	r4, r4, #28
 368 003a A242     		cmp	r2, r4
 369 003c 26D0     		beq	.L20
 370              	.LVL21:
 371              	.L21:
 372              		.loc 1 272 7 is_stmt 1 view .LVU104
 373              		.loc 1 273 11 is_stmt 0 view .LVU105
 374 003e 1268     		ldr	r2, [r2]
 375              	.LVL22:
 376              		.loc 1 272 8 view .LVU106
 377 0040 0133     		adds	r3, r3, #1
 378              	.LVL23:
 379              		.loc 1 273 7 is_stmt 1 view .LVU107
 380              		.loc 1 271 11 is_stmt 0 view .LVU108
 381 0042 A242     		cmp	r2, r4
 382 0044 FBD1     		bne	.L21
 383              		.loc 1 277 5 is_stmt 1 view .LVU109
 384              	.LVL24:
 385              		.loc 1 278 5 view .LVU110
 386              		.loc 1 278 11 is_stmt 0 view .LVU111
 387 0046 9142     		cmp	r1, r2
 388 0048 1BD0     		beq	.L34
 389              	.LVL25:
 390              	.L24:
 391              		.loc 1 279 7 is_stmt 1 view .LVU112
 392              		.loc 1 280 11 is_stmt 0 view .LVU113
 393 004a 4968     		ldr	r1, [r1, #4]
 394              	.LVL26:
 395              		.loc 1 279 8 view .LVU114
 396 004c 013B     		subs	r3, r3, #1
 397              	.LVL27:
 398              		.loc 1 280 7 is_stmt 1 view .LVU115
 399              		.loc 1 278 11 is_stmt 0 view .LVU116
ARM GAS  /tmp/cczVLfuZ.s 			page 8


 400 004e A142     		cmp	r1, r4
 401 0050 FBD1     		bne	.L24
 402              		.loc 1 284 5 is_stmt 1 view .LVU117
 403              		.loc 1 284 8 is_stmt 0 view .LVU118
 404 0052 002B     		cmp	r3, #0
 405 0054 15D1     		bne	.L34
 406              	.LVL28:
 407              	.L19:
 408              		.loc 1 284 8 view .LVU119
 409              	.LBE160:
 410              		.loc 1 290 3 is_stmt 1 view .LVU120
 411              		.loc 1 321 10 is_stmt 0 view .LVU121
 412 0056 0020     		movs	r0, #0
 413              	.LVL29:
 414              		.loc 1 290 6 view .LVU122
 415 0058 6B07     		lsls	r3, r5, #29
 416 005a 11D5     		bpl	.L17
 417              	.LBB161:
 418              		.loc 1 291 5 is_stmt 1 view .LVU123
 419              		.loc 1 294 5 view .LVU124
 420              	.LVL30:
 421              		.loc 1 295 5 view .LVU125
 422              		.loc 1 295 8 is_stmt 0 view .LVU126
 423 005c 0E4B     		ldr	r3, .L52
 424 005e 1A69     		ldr	r2, [r3, #16]
 425              	.LVL31:
 426              		.loc 1 296 5 is_stmt 1 view .LVU127
 427              		.loc 1 296 11 is_stmt 0 view .LVU128
 428 0060 9A42     		cmp	r2, r3
 429 0062 17D0     		beq	.L36
 430              	.LVL32:
 431              	.L26:
 432              		.loc 1 297 7 is_stmt 1 view .LVU129
 433              		.loc 1 298 10 is_stmt 0 view .LVU130
 434 0064 1269     		ldr	r2, [r2, #16]
 435              	.LVL33:
 436              		.loc 1 297 8 view .LVU131
 437 0066 0130     		adds	r0, r0, #1
 438              	.LVL34:
 439              		.loc 1 298 7 is_stmt 1 view .LVU132
 440              		.loc 1 296 11 is_stmt 0 view .LVU133
 441 0068 9A42     		cmp	r2, r3
 442 006a FBD1     		bne	.L26
 443              	.LVL35:
 444              	.L25:
 445              		.loc 1 302 5 is_stmt 1 view .LVU134
 446              		.loc 1 302 8 is_stmt 0 view .LVU135
 447 006c 5A69     		ldr	r2, [r3, #20]
 448              	.LVL36:
 449              		.loc 1 303 5 is_stmt 1 view .LVU136
 450              		.loc 1 303 11 is_stmt 0 view .LVU137
 451 006e 9A42     		cmp	r2, r3
 452 0070 03D0     		beq	.L27
 453              	.L28:
 454              		.loc 1 304 7 is_stmt 1 view .LVU138
 455              		.loc 1 305 10 is_stmt 0 view .LVU139
 456 0072 5269     		ldr	r2, [r2, #20]
ARM GAS  /tmp/cczVLfuZ.s 			page 9


 457              	.LVL37:
 458              		.loc 1 304 8 view .LVU140
 459 0074 0138     		subs	r0, r0, #1
 460              	.LVL38:
 461              		.loc 1 305 7 is_stmt 1 view .LVU141
 462              		.loc 1 303 11 is_stmt 0 view .LVU142
 463 0076 9A42     		cmp	r2, r3
 464 0078 FBD1     		bne	.L28
 465              	.L27:
 466              		.loc 1 309 5 is_stmt 1 view .LVU143
 467              		.loc 1 309 8 is_stmt 0 view .LVU144
 468 007a 431E     		subs	r3, r0, #1
 469 007c 9841     		sbcs	r0, r0, r3
 470              	.LVL39:
 471              		.loc 1 309 8 view .LVU145
 472 007e C0B2     		uxtb	r0, r0
 473              	.LVL40:
 474              	.L17:
 475              		.loc 1 309 8 view .LVU146
 476              	.LBE161:
 477              		.loc 1 322 1 view .LVU147
 478              		@ sp needed
 479              	.LVL41:
 480              		.loc 1 322 1 view .LVU148
 481 0080 30BD     		pop	{r4, r5, pc}
 482              	.LVL42:
 483              	.L34:
 484              	.LBB162:
 485              		.loc 1 260 14 view .LVU149
 486 0082 0120     		movs	r0, #1
 487              	.LVL43:
 488              		.loc 1 260 14 view .LVU150
 489 0084 FCE7     		b	.L17
 490              	.LVL44:
 491              	.L13:
 492              		.loc 1 252 5 is_stmt 1 view .LVU151
 493              		.loc 1 253 5 view .LVU152
 494              		.loc 1 253 11 is_stmt 0 view .LVU153
 495 0086 9C42     		cmp	r4, r3
 496 0088 CAD1     		bne	.L18
 497 008a CFE7     		b	.L12
 498              	.LVL45:
 499              	.L20:
 500              		.loc 1 253 11 view .LVU154
 501              	.LBE162:
 502              	.LBB163:
 503              		.loc 1 277 5 is_stmt 1 view .LVU155
 504              		.loc 1 278 5 view .LVU156
 505              		.loc 1 278 5 is_stmt 0 view .LVU157
 506 008c 1400     		movs	r4, r2
 507              		.loc 1 278 11 view .LVU158
 508 008e 9142     		cmp	r1, r2
 509 0090 DBD1     		bne	.L24
 510 0092 E0E7     		b	.L19
 511              	.LVL46:
 512              	.L36:
 513              		.loc 1 278 11 view .LVU159
ARM GAS  /tmp/cczVLfuZ.s 			page 10


 514              	.LBE163:
 515              	.LBB164:
 516              		.loc 1 294 7 view .LVU160
 517 0094 0020     		movs	r0, #0
 518 0096 E9E7     		b	.L25
 519              	.L53:
 520              		.align	2
 521              	.L52:
 522 0098 00000000 		.word	ch
 523              	.LBE164:
 524              		.cfi_endproc
 525              	.LFE124:
 526              		.size	chSysIntegrityCheckI, .-chSysIntegrityCheckI
 527              		.section	.text.chSysTimerHandlerI,"ax",%progbits
 528              		.align	1
 529              		.p2align 4,,15
 530              		.global	chSysTimerHandlerI
 531              		.syntax unified
 532              		.code	16
 533              		.thumb_func
 534              		.fpu softvfp
 535              		.type	chSysTimerHandlerI, %function
 536              	chSysTimerHandlerI:
 537              	.LFB125:
 538              		.loc 1 335 31 is_stmt 1 view -0
 539              		.cfi_startproc
 540              		@ args = 0, pretend = 0, frame = 0
 541              		@ frame_needed = 0, uses_anonymous_args = 0
 542              		.loc 1 337 21 view .LVU162
 543              		.loc 1 349 3 view .LVU163
 544              	.LBB190:
 545              	.LBI190:
 546              		.file 6 "ChibiOS/os/rt/include/chvt.h"
 547              		.loc 6 502 20 view .LVU164
 548              	.LBB191:
 549              		.loc 6 504 21 view .LVU165
 550              		.loc 6 526 3 view .LVU166
 551              		.loc 6 527 3 view .LVU167
 552              		.loc 6 530 3 view .LVU168
 553              	.LBE191:
 554              	.LBE190:
 555              		.loc 1 335 31 is_stmt 0 view .LVU169
 556 0000 F8B5     		push	{r3, r4, r5, r6, r7, lr}
 557              		.cfi_def_cfa_offset 24
 558              		.cfi_offset 3, -24
 559              		.cfi_offset 4, -20
 560              		.cfi_offset 5, -16
 561              		.cfi_offset 6, -12
 562              		.cfi_offset 7, -8
 563              		.cfi_offset 14, -4
 564              	.LBB268:
 565              	.LBB253:
 566              	.LBB192:
 567              	.LBB193:
 568              	.LBB194:
 569              	.LBB195:
 570              		.file 7 "ChibiOS/os/hal/ports/STM32/LLD/TIMv1/hal_st_lld.h"
ARM GAS  /tmp/cczVLfuZ.s 			page 11


 571              		.loc 7 141 10 view .LVU170
 572 0002 8026     		movs	r6, #128
 573              	.LBE195:
 574              	.LBE194:
 575              	.LBE193:
 576              	.LBE192:
 577              	.LBE253:
 578              	.LBE268:
 579              		.loc 1 335 31 view .LVU171
 580 0004 CE46     		mov	lr, r9
 581 0006 4746     		mov	r7, r8
 582              	.LBB269:
 583              	.LBB254:
 584              		.loc 6 530 7 view .LVU172
 585 0008 1B4D     		ldr	r5, .L62
 586              	.LBB203:
 587              	.LBB200:
 588              	.LBB198:
 589              	.LBB196:
 590              		.loc 7 141 10 view .LVU173
 591 000a F605     		lsls	r6, r6, #23
 592              	.LBE196:
 593              	.LBE198:
 594              	.LBE200:
 595              	.LBE203:
 596              		.loc 6 530 7 view .LVU174
 597 000c EC69     		ldr	r4, [r5, #28]
 598              	.LVL47:
 599              		.loc 6 531 3 is_stmt 1 view .LVU175
 600              	.LBB204:
 601              	.LBI192:
 602              		.loc 6 228 25 view .LVU176
 603              	.LBE204:
 604              	.LBE254:
 605              	.LBE269:
 606              		.loc 6 233 3 view .LVU177
 607              	.LBB270:
 608              	.LBB255:
 609              	.LBB205:
 610              	.LBB201:
 611              	.LBI193:
 612              		.file 8 "ChibiOS/os/common/ports/ARMCMx/chcore_timer.h"
 613              		.loc 8 105 25 view .LVU178
 614              	.LBE201:
 615              	.LBE205:
 616              	.LBE255:
 617              	.LBE270:
 618              		.loc 8 107 3 view .LVU179
 619              	.LBB271:
 620              	.LBB256:
 621              	.LBB206:
 622              	.LBB202:
 623              	.LBB199:
 624              	.LBI194:
 625              		.loc 7 139 25 view .LVU180
 626              	.LBB197:
 627              		.loc 7 141 3 view .LVU181
ARM GAS  /tmp/cczVLfuZ.s 			page 12


 628              		.loc 7 141 10 is_stmt 0 view .LVU182
 629 000e 726A     		ldr	r2, [r6, #36]
 630              	.LVL48:
 631              		.loc 7 141 10 view .LVU183
 632              	.LBE197:
 633              	.LBE199:
 634              	.LBE202:
 635              	.LBE206:
 636              		.loc 6 537 3 is_stmt 1 view .LVU184
 637              		.loc 6 537 51 is_stmt 0 view .LVU185
 638 0010 A86A     		ldr	r0, [r5, #40]
 639              		.loc 6 537 13 view .LVU186
 640 0012 A368     		ldr	r3, [r4, #8]
 641              	.LBE256:
 642              	.LBE271:
 643              		.loc 1 335 31 view .LVU187
 644 0014 80B5     		push	{r7, lr}
 645              		.cfi_def_cfa_offset 32
 646              		.cfi_offset 8, -32
 647              		.cfi_offset 9, -28
 648              	.LBB272:
 649              	.LBB257:
 650              		.loc 6 537 40 view .LVU188
 651 0016 111A     		subs	r1, r2, r0
 652              		.loc 6 537 9 view .LVU189
 653 0018 9942     		cmp	r1, r3
 654 001a 1DD3     		bcc	.L55
 655              	.LBB207:
 656              		.loc 6 543 21 view .LVU190
 657 001c 2F00     		movs	r7, r5
 658              		.loc 6 546 15 view .LVU191
 659 001e 0022     		movs	r2, #0
 660              		.loc 6 543 21 view .LVU192
 661 0020 1C37     		adds	r7, r7, #28
 662              		.loc 6 546 15 view .LVU193
 663 0022 9046     		mov	r8, r2
 664 0024 0AE0     		b	.L57
 665              	.LVL49:
 666              	.L56:
 667              		.loc 6 556 5 is_stmt 1 view .LVU194
 668              	.LBB208:
 669              	.LBI208:
 670              		.loc 4 434 20 view .LVU195
 671              	.LBE208:
 672              	.LBE207:
 673              	.LBE257:
 674              	.LBE272:
 675              		.loc 4 436 31 view .LVU196
 676              		.loc 4 437 33 view .LVU197
 677              		.loc 4 438 3 view .LVU198
 678              	.LBB273:
 679              	.LBB258:
 680              	.LBB239:
 681              	.LBB216:
 682              	.LBB209:
 683              	.LBI209:
 684              		.loc 2 400 20 view .LVU199
ARM GAS  /tmp/cczVLfuZ.s 			page 13


 685              	.LBE209:
 686              	.LBE216:
 687              	.LBE239:
 688              	.LBE258:
 689              	.LBE273:
 690              		.loc 2 402 3 view .LVU200
 691              	.LBB274:
 692              	.LBB259:
 693              	.LBB240:
 694              	.LBB217:
 695              	.LBB214:
 696              	.LBB210:
 697              	.LBI210:
 698              		.loc 2 380 20 view .LVU201
 699              	.LBE210:
 700              	.LBE214:
 701              	.LBE217:
 702              	.LBE240:
 703              	.LBE259:
 704              	.LBE274:
 705              		.loc 2 382 3 view .LVU202
 706              	.LBB275:
 707              	.LBB260:
 708              	.LBB241:
 709              	.LBB218:
 710              	.LBB215:
 711              	.LBB213:
 712              	.LBB211:
 713              	.LBI211:
 714              		.loc 5 331 57 view .LVU203
 715              	.LBB212:
 716              		.loc 5 333 3 view .LVU204
 717              		.syntax divided
 718              	@ 333 "ChibiOS/os/common/ext/CMSIS/include/core_cmFunc.h" 1
 719 0026 62B6     		cpsie i
 720              	@ 0 "" 2
 721              		.thumb
 722              		.syntax unified
 723              	.LBE212:
 724              	.LBE211:
 725              	.LBE213:
 726              	.LBE215:
 727              	.LBE218:
 728              		.loc 6 559 5 view .LVU205
 729 0028 2069     		ldr	r0, [r4, #16]
 730 002a C847     		blx	r9
 731              	.LVL50:
 732              		.loc 6 563 5 view .LVU206
 733              	.LBB219:
 734              	.LBI219:
 735              		.loc 4 414 20 view .LVU207
 736              	.LBE219:
 737              	.LBE241:
 738              	.LBE260:
 739              	.LBE275:
 740              		.loc 4 416 3 view .LVU208
 741              	.LBB276:
ARM GAS  /tmp/cczVLfuZ.s 			page 14


 742              	.LBB261:
 743              	.LBB242:
 744              	.LBB227:
 745              	.LBB220:
 746              	.LBI220:
 747              		.loc 2 390 20 view .LVU209
 748              	.LBE220:
 749              	.LBE227:
 750              	.LBE242:
 751              	.LBE261:
 752              	.LBE276:
 753              		.loc 2 392 3 view .LVU210
 754              	.LBB277:
 755              	.LBB262:
 756              	.LBB243:
 757              	.LBB228:
 758              	.LBB225:
 759              	.LBB221:
 760              	.LBI221:
 761              		.loc 2 371 20 view .LVU211
 762              	.LBE221:
 763              	.LBE225:
 764              	.LBE228:
 765              	.LBE243:
 766              	.LBE262:
 767              	.LBE277:
 768              		.loc 2 373 3 view .LVU212
 769              	.LBB278:
 770              	.LBB263:
 771              	.LBB244:
 772              	.LBB229:
 773              	.LBB226:
 774              	.LBB224:
 775              	.LBB222:
 776              	.LBI222:
 777              		.loc 5 342 57 view .LVU213
 778              	.LBB223:
 779              		.loc 5 344 3 view .LVU214
 780              		.syntax divided
 781              	@ 344 "ChibiOS/os/common/ext/CMSIS/include/core_cmFunc.h" 1
 782 002c 72B6     		cpsid i
 783              	@ 0 "" 2
 784              		.thumb
 785              		.syntax unified
 786              	.LBE223:
 787              	.LBE222:
 788              	.LBE224:
 789              	.LBE226:
 790              	.LBE229:
 791              	.LBE244:
 792              	.LBE263:
 793              	.LBE278:
 794              		.loc 4 417 34 view .LVU215
 795              		.loc 4 418 29 view .LVU216
 796              	.LBB279:
 797              	.LBB264:
 798              	.LBB245:
ARM GAS  /tmp/cczVLfuZ.s 			page 15


 799              		.loc 6 567 5 view .LVU217
 800              		.loc 6 567 9 is_stmt 0 view .LVU218
 801 002e EC69     		ldr	r4, [r5, #28]
 802              	.LVL51:
 803              		.loc 6 568 5 is_stmt 1 view .LVU219
 804              	.LBB230:
 805              	.LBI230:
 806              		.loc 6 228 25 view .LVU220
 807              	.LBE230:
 808              	.LBE245:
 809              	.LBE264:
 810              	.LBE279:
 811              		.loc 6 233 3 view .LVU221
 812              	.LBB280:
 813              	.LBB265:
 814              	.LBB246:
 815              	.LBB235:
 816              	.LBB231:
 817              	.LBI231:
 818              		.loc 8 105 25 view .LVU222
 819              	.LBE231:
 820              	.LBE235:
 821              	.LBE246:
 822              	.LBE265:
 823              	.LBE280:
 824              		.loc 8 107 3 view .LVU223
 825              	.LBB281:
 826              	.LBB266:
 827              	.LBB247:
 828              	.LBB236:
 829              	.LBB234:
 830              	.LBB232:
 831              	.LBI232:
 832              		.loc 7 139 25 view .LVU224
 833              	.LBB233:
 834              		.loc 7 141 3 view .LVU225
 835              		.loc 7 141 10 is_stmt 0 view .LVU226
 836 0030 726A     		ldr	r2, [r6, #36]
 837              		.loc 7 141 10 view .LVU227
 838              	.LBE233:
 839              	.LBE232:
 840              	.LBE234:
 841              	.LBE236:
 842              	.LBE247:
 843              		.loc 6 537 51 view .LVU228
 844 0032 A86A     		ldr	r0, [r5, #40]
 845              		.loc 6 537 13 view .LVU229
 846 0034 A368     		ldr	r3, [r4, #8]
 847              		.loc 6 537 40 view .LVU230
 848 0036 111A     		subs	r1, r2, r0
 849              		.loc 6 537 9 view .LVU231
 850 0038 8B42     		cmp	r3, r1
 851 003a 0DD8     		bhi	.L55
 852              	.LVL52:
 853              	.L57:
 854              	.LBB248:
 855              		.loc 6 538 5 is_stmt 1 view .LVU232
ARM GAS  /tmp/cczVLfuZ.s 			page 16


 856              		.loc 6 541 5 view .LVU233
 857              		.loc 6 545 8 is_stmt 0 view .LVU234
 858 003c E268     		ldr	r2, [r4, #12]
 859              		.loc 6 541 24 view .LVU235
 860 003e C318     		adds	r3, r0, r3
 861              		.loc 6 545 8 view .LVU236
 862 0040 9146     		mov	r9, r2
 863              		.loc 6 546 15 view .LVU237
 864 0042 4246     		mov	r2, r8
 865              		.loc 6 541 24 view .LVU238
 866 0044 AB62     		str	r3, [r5, #40]
 867              		.loc 6 543 5 is_stmt 1 view .LVU239
 868              		.loc 6 543 8 is_stmt 0 view .LVU240
 869 0046 2368     		ldr	r3, [r4]
 870              		.loc 6 543 21 view .LVU241
 871 0048 5F60     		str	r7, [r3, #4]
 872              		.loc 6 544 5 is_stmt 1 view .LVU242
 873              		.loc 6 544 20 is_stmt 0 view .LVU243
 874 004a EB61     		str	r3, [r5, #28]
 875              		.loc 6 545 5 is_stmt 1 view .LVU244
 876              	.LVL53:
 877              		.loc 6 546 5 view .LVU245
 878              		.loc 6 546 15 is_stmt 0 view .LVU246
 879 004c E260     		str	r2, [r4, #12]
 880              		.loc 6 549 5 is_stmt 1 view .LVU247
 881              		.loc 6 549 8 is_stmt 0 view .LVU248
 882 004e BB42     		cmp	r3, r7
 883 0050 E9D1     		bne	.L56
 884              		.loc 6 550 7 is_stmt 1 view .LVU249
 885              	.LBB237:
 886              	.LBI237:
 887              		.loc 8 81 20 view .LVU250
 888              	.LBB238:
 889              		.loc 8 83 3 view .LVU251
 890 0052 FFF7FEFF 		bl	stStopAlarm
 891              	.LVL54:
 892 0056 E6E7     		b	.L56
 893              	.LVL55:
 894              	.L55:
 895              		.loc 8 83 3 is_stmt 0 view .LVU252
 896              	.LBE238:
 897              	.LBE237:
 898              	.LBE248:
 899              		.loc 6 572 3 is_stmt 1 view .LVU253
 900              		.loc 6 572 6 is_stmt 0 view .LVU254
 901 0058 0849     		ldr	r1, .L62+4
 902 005a 8C42     		cmp	r4, r1
 903 005c 06D0     		beq	.L54
 904              		.loc 6 577 3 is_stmt 1 view .LVU255
 905              		.loc 6 577 30 is_stmt 0 view .LVU256
 906 005e 1818     		adds	r0, r3, r0
 907              		.loc 6 577 9 view .LVU257
 908 0060 801A     		subs	r0, r0, r2
 909              		.loc 6 578 3 is_stmt 1 view .LVU258
 910              		.loc 6 581 3 view .LVU259
 911              	.LBB249:
 912              	.LBI249:
ARM GAS  /tmp/cczVLfuZ.s 			page 17


 913              		.loc 8 93 20 view .LVU260
 914              	.LBB250:
 915              		.loc 8 95 3 view .LVU261
 916              	.LBE250:
 917              	.LBE249:
 918              		.loc 6 581 3 is_stmt 0 view .LVU262
 919 0062 0228     		cmp	r0, #2
 920 0064 06D3     		bcc	.L61
 921              	.L59:
 922 0066 8018     		adds	r0, r0, r2
 923              	.LBB252:
 924              	.LBB251:
 925              		.loc 8 95 3 view .LVU263
 926 0068 FFF7FEFF 		bl	stSetAlarm
 927              	.LVL56:
 928              		.loc 8 95 3 view .LVU264
 929              	.LBE251:
 930              	.LBE252:
 931              	.LBE266:
 932              	.LBE281:
 933              		.loc 1 350 3 is_stmt 1 view .LVU265
 934              		.loc 1 350 28 view .LVU266
 935              	.L54:
 936              		.loc 1 351 1 is_stmt 0 view .LVU267
 937              		@ sp needed
 938 006c 0CBC     		pop	{r2, r3}
 939 006e 9046     		mov	r8, r2
 940 0070 9946     		mov	r9, r3
 941 0072 F8BD     		pop	{r3, r4, r5, r6, r7, pc}
 942              	.LVL57:
 943              	.L61:
 944              	.LBB282:
 945              	.LBB267:
 946              		.loc 6 581 3 view .LVU268
 947 0074 0220     		movs	r0, #2
 948 0076 F6E7     		b	.L59
 949              	.L63:
 950              		.align	2
 951              	.L62:
 952 0078 00000000 		.word	ch
 953 007c 1C000000 		.word	ch+28
 954              	.LBE267:
 955              	.LBE282:
 956              		.cfi_endproc
 957              	.LFE125:
 958              		.size	chSysTimerHandlerI, .-chSysTimerHandlerI
 959              		.section	.text.chSysGetStatusAndLockX,"ax",%progbits
 960              		.align	1
 961              		.p2align 4,,15
 962              		.global	chSysGetStatusAndLockX
 963              		.syntax unified
 964              		.code	16
 965              		.thumb_func
 966              		.fpu softvfp
 967              		.type	chSysGetStatusAndLockX, %function
 968              	chSysGetStatusAndLockX:
 969              	.LFB126:
ARM GAS  /tmp/cczVLfuZ.s 			page 18


 970              		.loc 1 366 39 is_stmt 1 view -0
 971              		.cfi_startproc
 972              		@ args = 0, pretend = 0, frame = 0
 973              		@ frame_needed = 0, uses_anonymous_args = 0
 974              		@ link register save eliminated.
 975              		.loc 1 368 3 view .LVU270
 976              	.LBB283:
 977              	.LBI283:
 978              		.loc 2 336 24 view .LVU271
 979              	.LBE283:
 980              		.loc 2 338 3 view .LVU272
 981              	.LBB286:
 982              	.LBB284:
 983              	.LBI284:
 984              		.loc 5 480 61 view .LVU273
 985              	.LBB285:
 986              		.loc 5 482 3 view .LVU274
 987              		.loc 5 484 3 view .LVU275
 988              		.syntax divided
 989              	@ 484 "ChibiOS/os/common/ext/CMSIS/include/core_cmFunc.h" 1
 990 0000 EFF31080 		MRS r0, primask
 991              	@ 0 "" 2
 992              	.LVL58:
 993              		.loc 5 485 3 view .LVU276
 994              		.loc 5 485 3 is_stmt 0 view .LVU277
 995              		.thumb
 996              		.syntax unified
 997              	.LBE285:
 998              	.LBE284:
 999              	.LBE286:
 1000              		.loc 1 369 3 is_stmt 1 view .LVU278
 1001              	.LBB287:
 1002              	.LBI287:
 1003              		.loc 2 350 20 view .LVU279
 1004              	.LBB288:
 1005              		.loc 2 352 3 view .LVU280
 1006              		.loc 2 352 3 is_stmt 0 view .LVU281
 1007              	.LBE288:
 1008              	.LBE287:
 1009              		.loc 1 369 6 view .LVU282
 1010 0004 C307     		lsls	r3, r0, #31
 1011 0006 02D4     		bmi	.L64
 1012              		.loc 1 370 5 is_stmt 1 view .LVU283
 1013              	.LBB289:
 1014              	.LBI289:
 1015              		.loc 2 362 20 view .LVU284
 1016              	.LBB290:
 1017              		.loc 2 364 3 view .LVU285
 1018              	.LBB291:
 1019              	.LBI291:
 1020              		.loc 5 381 61 view .LVU286
 1021              	.LBB292:
 1022              		.loc 5 383 3 view .LVU287
 1023              		.loc 5 385 3 view .LVU288
 1024              		.syntax divided
 1025              	@ 385 "ChibiOS/os/common/ext/CMSIS/include/core_cmFunc.h" 1
 1026 0008 EFF30583 		MRS r3, ipsr
ARM GAS  /tmp/cczVLfuZ.s 			page 19


 1027              	@ 0 "" 2
 1028              	.LVL59:
 1029              		.loc 5 386 3 view .LVU289
 1030              		.loc 5 386 3 is_stmt 0 view .LVU290
 1031              		.thumb
 1032              		.syntax unified
 1033              	.LBE292:
 1034              	.LBE291:
 1035              	.LBE290:
 1036              	.LBE289:
 1037              		.loc 1 374 7 is_stmt 1 view .LVU291
 1038              	.LBB293:
 1039              	.LBI293:
 1040              		.loc 4 374 20 view .LVU292
 1041              	.LBE293:
 1042              		.loc 4 376 3 view .LVU293
 1043              	.LBB298:
 1044              	.LBB294:
 1045              	.LBI294:
 1046              		.loc 2 371 20 view .LVU294
 1047              	.LBE294:
 1048              	.LBE298:
 1049              		.loc 2 373 3 view .LVU295
 1050              	.LBB299:
 1051              	.LBB297:
 1052              	.LBB295:
 1053              	.LBI295:
 1054              		.loc 5 342 57 view .LVU296
 1055              	.LBB296:
 1056              		.loc 5 344 3 view .LVU297
 1057              		.syntax divided
 1058              	@ 344 "ChibiOS/os/common/ext/CMSIS/include/core_cmFunc.h" 1
 1059 000c 72B6     		cpsid i
 1060              	@ 0 "" 2
 1061              		.thumb
 1062              		.syntax unified
 1063              	.LBE296:
 1064              	.LBE295:
 1065              	.LBE297:
 1066              	.LBE299:
 1067              		.loc 4 377 34 view .LVU298
 1068              		.loc 4 378 20 view .LVU299
 1069              		.loc 1 377 3 view .LVU300
 1070              	.L64:
 1071              		.loc 1 378 1 is_stmt 0 view .LVU301
 1072              		@ sp needed
 1073 000e 7047     		bx	lr
 1074              		.cfi_endproc
 1075              	.LFE126:
 1076              		.size	chSysGetStatusAndLockX, .-chSysGetStatusAndLockX
 1077              		.section	.text.chSysRestoreStatusX,"ax",%progbits
 1078              		.align	1
 1079              		.p2align 4,,15
 1080              		.global	chSysRestoreStatusX
 1081              		.syntax unified
 1082              		.code	16
 1083              		.thumb_func
ARM GAS  /tmp/cczVLfuZ.s 			page 20


 1084              		.fpu softvfp
 1085              		.type	chSysRestoreStatusX, %function
 1086              	chSysRestoreStatusX:
 1087              	.LVL60:
 1088              	.LFB127:
 1089              		.loc 1 389 40 is_stmt 1 view -0
 1090              		.cfi_startproc
 1091              		@ args = 0, pretend = 0, frame = 0
 1092              		@ frame_needed = 0, uses_anonymous_args = 0
 1093              		.loc 1 391 3 view .LVU303
 1094              	.LBB300:
 1095              	.LBI300:
 1096              		.loc 2 350 20 view .LVU304
 1097              	.LBB301:
 1098              		.loc 2 352 3 view .LVU305
 1099              		.loc 2 352 3 is_stmt 0 view .LVU306
 1100              	.LBE301:
 1101              	.LBE300:
 1102              		.loc 1 389 40 view .LVU307
 1103 0000 10B5     		push	{r4, lr}
 1104              		.cfi_def_cfa_offset 8
 1105              		.cfi_offset 4, -8
 1106              		.cfi_offset 14, -4
 1107              		.loc 1 391 6 view .LVU308
 1108 0002 C307     		lsls	r3, r0, #31
 1109 0004 04D4     		bmi	.L67
 1110              		.loc 1 392 5 is_stmt 1 view .LVU309
 1111              	.LBB302:
 1112              	.LBI302:
 1113              		.loc 2 362 20 view .LVU310
 1114              	.LBB303:
 1115              		.loc 2 364 3 view .LVU311
 1116              	.LBB304:
 1117              	.LBI304:
 1118              		.loc 5 381 61 view .LVU312
 1119              	.LBB305:
 1120              		.loc 5 383 3 view .LVU313
 1121              		.loc 5 385 3 view .LVU314
 1122              		.syntax divided
 1123              	@ 385 "ChibiOS/os/common/ext/CMSIS/include/core_cmFunc.h" 1
 1124 0006 EFF30583 		MRS r3, ipsr
 1125              	@ 0 "" 2
 1126              	.LVL61:
 1127              		.loc 5 386 3 view .LVU315
 1128              		.loc 5 386 3 is_stmt 0 view .LVU316
 1129              		.thumb
 1130              		.syntax unified
 1131              	.LBE305:
 1132              	.LBE304:
 1133              		.loc 2 364 31 view .LVU317
 1134 000a DB05     		lsls	r3, r3, #23
 1135              	.LBE303:
 1136              	.LBE302:
 1137              		.loc 1 392 8 view .LVU318
 1138 000c 01D0     		beq	.L69
 1139              		.loc 1 397 7 is_stmt 1 view .LVU319
 1140              	.LBB306:
ARM GAS  /tmp/cczVLfuZ.s 			page 21


 1141              	.LBI306:
 1142              		.loc 4 386 20 view .LVU320
 1143              	.LBB307:
 1144              		.loc 4 388 22 view .LVU321
 1145              		.loc 4 389 33 view .LVU322
 1146              		.loc 4 395 3 view .LVU323
 1147              		.loc 4 395 3 view .LVU324
 1148              		.loc 4 399 3 view .LVU325
 1149              	.LBB308:
 1150              	.LBI308:
 1151              		.loc 2 380 20 view .LVU326
 1152              	.LBE308:
 1153              	.LBE307:
 1154              	.LBE306:
 1155              		.loc 2 382 3 view .LVU327
 1156              	.LBB319:
 1157              	.LBB316:
 1158              	.LBB313:
 1159              	.LBB309:
 1160              	.LBI309:
 1161              		.loc 5 331 57 view .LVU328
 1162              	.LBB310:
 1163              		.loc 5 333 3 view .LVU329
 1164              		.syntax divided
 1165              	@ 333 "ChibiOS/os/common/ext/CMSIS/include/core_cmFunc.h" 1
 1166 000e 62B6     		cpsie i
 1167              	@ 0 "" 2
 1168              	.LVL62:
 1169              		.thumb
 1170              		.syntax unified
 1171              	.L67:
 1172              		.loc 5 333 3 is_stmt 0 view .LVU330
 1173              	.LBE310:
 1174              	.LBE309:
 1175              	.LBE313:
 1176              	.LBE316:
 1177              	.LBE319:
 1178              		.loc 1 400 1 view .LVU331
 1179              		@ sp needed
 1180 0010 10BD     		pop	{r4, pc}
 1181              	.LVL63:
 1182              	.L69:
 1183              		.loc 1 396 7 is_stmt 1 view .LVU332
 1184 0012 FFF7FEFF 		bl	chSchRescheduleS
 1185              	.LVL64:
 1186              		.loc 1 397 7 view .LVU333
 1187              	.LBB320:
 1188              		.loc 4 386 20 view .LVU334
 1189              	.LBB317:
 1190              		.loc 4 388 22 view .LVU335
 1191              		.loc 4 389 33 view .LVU336
 1192              		.loc 4 395 3 view .LVU337
 1193              		.loc 4 395 3 view .LVU338
 1194              		.loc 4 399 3 view .LVU339
 1195              	.LBB314:
 1196              		.loc 2 380 20 view .LVU340
 1197              	.LBE314:
ARM GAS  /tmp/cczVLfuZ.s 			page 22


 1198              	.LBE317:
 1199              	.LBE320:
 1200              		.loc 2 382 3 view .LVU341
 1201              	.LBB321:
 1202              	.LBB318:
 1203              	.LBB315:
 1204              	.LBB312:
 1205              		.loc 5 331 57 view .LVU342
 1206              	.LBB311:
 1207              		.loc 5 333 3 view .LVU343
 1208              		.syntax divided
 1209              	@ 333 "ChibiOS/os/common/ext/CMSIS/include/core_cmFunc.h" 1
 1210 0016 62B6     		cpsie i
 1211              	@ 0 "" 2
 1212              		.thumb
 1213              		.syntax unified
 1214 0018 FAE7     		b	.L67
 1215              	.LBE311:
 1216              	.LBE312:
 1217              	.LBE315:
 1218              	.LBE318:
 1219              	.LBE321:
 1220              		.cfi_endproc
 1221              	.LFE127:
 1222              		.size	chSysRestoreStatusX, .-chSysRestoreStatusX
 1223              		.global	ch_idle_thread_wa
 1224 001a C046     		.section	.bss.ch_idle_thread_wa,"aw",%nobits
 1225              		.align	3
 1226              		.type	ch_idle_thread_wa, %object
 1227              		.size	ch_idle_thread_wa, 208
 1228              	ch_idle_thread_wa:
 1229 0000 00000000 		.space	208
 1229      00000000 
 1229      00000000 
 1229      00000000 
 1229      00000000 
 1230              		.section	.rodata.idle_descriptor.5529,"a"
 1231              		.align	2
 1232              		.set	.LANCHOR0,. + 0
 1233              		.type	idle_descriptor.5529, %object
 1234              		.size	idle_descriptor.5529, 24
 1235              	idle_descriptor.5529:
 1236 0000 00000000 		.word	.LC10
 1237 0004 00000000 		.word	ch_idle_thread_wa
 1238 0008 D0000000 		.word	ch_idle_thread_wa+208
 1239 000c 01000000 		.word	1
 1240 0010 00000000 		.word	_idle_thread
 1241 0014 00000000 		.word	0
 1242              		.section	.rodata.str1.4,"aMS",%progbits,1
 1243              		.align	2
 1244              	.LC10:
 1245 0000 69646C65 		.ascii	"idle\000"
 1245      00
 1246              		.text
 1247              	.Letext0:
 1248              		.file 9 "/opt/nanovna/gcc-arm-none-eabi-8-2018-q4-major/lib/gcc/arm-none-eabi/8.2.1/include/stddef
 1249              		.file 10 "/opt/nanovna/gcc-arm-none-eabi-8-2018-q4-major/arm-none-eabi/include/machine/_default_ty
ARM GAS  /tmp/cczVLfuZ.s 			page 23


 1250              		.file 11 "/opt/nanovna/gcc-arm-none-eabi-8-2018-q4-major/arm-none-eabi/include/sys/_stdint.h"
 1251              		.file 12 "ChibiOS/os/common/ports/ARMCMx/compilers/GCC/chtypes.h"
 1252              		.file 13 "ChibiOS/os/rt/include/chsystypes.h"
 1253              		.file 14 "ChibiOS/os/rt/include/chschd.h"
 1254              		.file 15 "ChibiOS/os/common/ext/CMSIS/ST/STM32F0xx/stm32f072xb.h"
 1255              		.file 16 "ChibiOS/os/common/ports/ARMCMx/chcore.h"
 1256              		.file 17 "ChibiOS/os/hal/ports/STM32/LLD/TIMv1/stm32_tim.h"
 1257              		.file 18 "ChibiOS/os/rt/include/chmtx.h"
 1258              		.file 19 "ChibiOS/os/common/ext/CMSIS/ST/STM32F0xx/system_stm32f0xx.h"
 1259              		.file 20 "ChibiOS/os/rt/include/chthreads.h"
 1260              		.file 21 "ChibiOS/os/rt/include/chregistry.h"
 1261              		.file 22 "ChibiOS/os/hal/include/hal_st.h"