ARM GAS  /tmp/ccgHkDVU.s 			page 1


   1              		.cpu cortex-m0
   2              		.eabi_attribute 20, 1
   3              		.eabi_attribute 21, 1
   4              		.eabi_attribute 23, 3
   5              		.eabi_attribute 24, 1
   6              		.eabi_attribute 25, 1
   7              		.eabi_attribute 26, 1
   8              		.eabi_attribute 30, 2
   9              		.eabi_attribute 34, 0
  10              		.eabi_attribute 18, 4
  11              		.file	"chthreads.c"
  12              		.text
  13              	.Ltext0:
  14              		.cfi_sections	.debug_frame
  15              		.section	.text._thread_init,"ax",%progbits
  16              		.align	1
  17              		.p2align 4,,15
  18              		.global	_thread_init
  19              		.arch armv6s-m
  20              		.syntax unified
  21              		.code	16
  22              		.thumb_func
  23              		.fpu softvfp
  24              		.type	_thread_init, %function
  25              	_thread_init:
  26              	.LVL0:
  27              	.LFB121:
  28              		.file 1 "ChibiOS/os/rt/src/chthreads.c"
  29              		.loc 1 88 70 view -0
  30              		.cfi_startproc
  31              		@ args = 0, pretend = 0, frame = 0
  32              		@ frame_needed = 0, uses_anonymous_args = 0
  33              		@ link register save eliminated.
  34              		.loc 1 90 3 view .LVU1
  35              		.loc 1 98 17 is_stmt 0 view .LVU2
  36 0000 0023     		movs	r3, #0
  37              		.loc 1 90 17 view .LVU3
  38 0002 8260     		str	r2, [r0, #8]
  39              		.loc 1 91 3 is_stmt 1 view .LVU4
  40              		.loc 1 92 3 view .LVU5
  41              		.loc 1 97 3 view .LVU6
  42              		.loc 1 97 17 is_stmt 0 view .LVU7
  43 0004 4263     		str	r2, [r0, #52]
  44              		.loc 1 98 3 is_stmt 1 view .LVU8
  45              		.loc 1 107 17 is_stmt 0 view .LVU9
  46 0006 0122     		movs	r2, #1
  47              	.LVL1:
  48              		.loc 1 98 17 view .LVU10
  49 0008 0363     		str	r3, [r0, #48]
  50              		.loc 1 101 3 is_stmt 1 view .LVU11
  51              		.loc 1 101 17 is_stmt 0 view .LVU12
  52 000a C362     		str	r3, [r0, #44]
  53              		.loc 1 107 3 is_stmt 1 view .LVU13
  54              		.loc 1 91 17 is_stmt 0 view .LVU14
  55 000c 0233     		adds	r3, r3, #2
  56 000e 0384     		strh	r3, [r0, #32]
  57              		.loc 1 107 17 view .LVU15
ARM GAS  /tmp/ccgHkDVU.s 			page 2


  58 0010 2033     		adds	r3, r3, #32
  59 0012 C254     		strb	r2, [r0, r3]
  60              	.LVL2:
  61              		.loc 1 108 3 is_stmt 1 view .LVU16
  62              		.loc 1 109 3 is_stmt 0 view .LVU17
  63 0014 054B     		ldr	r3, .L3
  64              		.loc 1 108 17 view .LVU18
  65 0016 8161     		str	r1, [r0, #24]
  66              		.loc 1 109 3 is_stmt 1 view .LVU19
  67 0018 5A69     		ldr	r2, [r3, #20]
  68 001a 0361     		str	r3, [r0, #16]
  69              		.loc 1 109 3 view .LVU20
  70 001c 4261     		str	r2, [r0, #20]
  71              		.loc 1 109 3 view .LVU21
  72 001e 1061     		str	r0, [r2, #16]
  73              		.loc 1 109 3 view .LVU22
  74 0020 5861     		str	r0, [r3, #20]
  75              		.loc 1 109 17 view .LVU23
  76              		.loc 1 114 3 view .LVU24
  77              	.LVL3:
  78              	.LBB257:
  79              	.LBI257:
  80              		.file 2 "ChibiOS/os/rt/include/chschd.h"
  81              		.loc 2 510 20 view .LVU25
  82              	.LBB258:
  83              		.loc 2 512 3 view .LVU26
  84              	.LBE258:
  85              	.LBE257:
  86              		.loc 1 114 3 is_stmt 0 view .LVU27
  87 0022 0300     		movs	r3, r0
  88 0024 2833     		adds	r3, r3, #40
  89              	.LVL4:
  90              	.LBB260:
  91              	.LBB259:
  92              		.loc 2 512 13 view .LVU28
  93 0026 8362     		str	r3, [r0, #40]
  94              	.LVL5:
  95              		.loc 2 512 13 view .LVU29
  96              	.LBE259:
  97              	.LBE260:
  98              		.loc 1 122 3 is_stmt 1 view .LVU30
  99              		.loc 1 122 30 view .LVU31
 100              		.loc 1 123 3 view .LVU32
 101              		.loc 1 124 1 is_stmt 0 view .LVU33
 102              		@ sp needed
 103 0028 7047     		bx	lr
 104              	.L4:
 105 002a C046     		.align	2
 106              	.L3:
 107 002c 00000000 		.word	ch
 108              		.cfi_endproc
 109              	.LFE121:
 110              		.size	_thread_init, .-_thread_init
 111              		.section	.text._thread_memfill,"ax",%progbits
 112              		.align	1
 113              		.p2align 4,,15
 114              		.global	_thread_memfill
ARM GAS  /tmp/ccgHkDVU.s 			page 3


 115              		.syntax unified
 116              		.code	16
 117              		.thumb_func
 118              		.fpu softvfp
 119              		.type	_thread_memfill, %function
 120              	_thread_memfill:
 121              	.LVL6:
 122              	.LFB122:
 123              		.loc 1 136 65 is_stmt 1 view -0
 124              		.cfi_startproc
 125              		@ args = 0, pretend = 0, frame = 0
 126              		@ frame_needed = 0, uses_anonymous_args = 0
 127              		@ link register save eliminated.
 128              		.loc 1 138 3 view .LVU35
 129              		.loc 1 138 9 is_stmt 0 view .LVU36
 130 0000 8842     		cmp	r0, r1
 131 0002 03D2     		bcs	.L5
 132              	.LVL7:
 133              	.L7:
 134              		.loc 1 139 5 is_stmt 1 view .LVU37
 135              		.loc 1 139 15 is_stmt 0 view .LVU38
 136 0004 0270     		strb	r2, [r0]
 137              		.loc 1 139 15 view .LVU39
 138 0006 0130     		adds	r0, r0, #1
 139              	.LVL8:
 140              		.loc 1 138 9 view .LVU40
 141 0008 8142     		cmp	r1, r0
 142 000a FBD1     		bne	.L7
 143              	.LVL9:
 144              	.L5:
 145              		.loc 1 141 1 view .LVU41
 146              		@ sp needed
 147 000c 7047     		bx	lr
 148              		.cfi_endproc
 149              	.LFE122:
 150              		.size	_thread_memfill, .-_thread_memfill
 151 000e C046     		.section	.text.chThdCreateSuspendedI,"ax",%progbits
 152              		.align	1
 153              		.p2align 4,,15
 154              		.global	chThdCreateSuspendedI
 155              		.syntax unified
 156              		.code	16
 157              		.thumb_func
 158              		.fpu softvfp
 159              		.type	chThdCreateSuspendedI, %function
 160              	chThdCreateSuspendedI:
 161              	.LVL10:
 162              	.LFB123:
 163              		.loc 1 167 65 is_stmt 1 view -0
 164              		.cfi_startproc
 165              		@ args = 0, pretend = 0, frame = 0
 166              		@ frame_needed = 0, uses_anonymous_args = 0
 167              		.loc 1 168 3 view .LVU43
 168              		.loc 1 170 21 view .LVU44
 169              		.loc 1 171 3 view .LVU45
 170              		.loc 1 171 3 view .LVU46
 171              		.loc 1 172 3 view .LVU47
ARM GAS  /tmp/ccgHkDVU.s 			page 4


 172              		.loc 1 172 3 view .LVU48
 173              		.loc 1 176 3 view .LVU49
 174              		.loc 1 176 3 view .LVU50
 175              		.loc 1 181 3 view .LVU51
 176              		.loc 1 181 35 is_stmt 0 view .LVU52
 177 0000 8268     		ldr	r2, [r0, #8]
 178              		.loc 1 186 14 view .LVU53
 179 0002 4168     		ldr	r1, [r0, #4]
 180              		.loc 1 181 6 view .LVU54
 181 0004 1300     		movs	r3, r2
 182 0006 383B     		subs	r3, r3, #56
 183              	.LVL11:
 184              		.loc 1 186 3 is_stmt 1 view .LVU55
 185              		.loc 1 167 65 is_stmt 0 view .LVU56
 186 0008 10B5     		push	{r4, lr}
 187              		.cfi_def_cfa_offset 8
 188              		.cfi_offset 4, -8
 189              		.cfi_offset 14, -4
 190              		.loc 1 186 14 view .LVU57
 191 000a D961     		str	r1, [r3, #28]
 192              		.loc 1 190 3 is_stmt 1 view .LVU58
 193 000c 1100     		movs	r1, r2
 194 000e 0469     		ldr	r4, [r0, #16]
 195 0010 5C39     		subs	r1, r1, #92
 196 0012 D960     		str	r1, [r3, #12]
 197              		.loc 1 190 3 view .LVU59
 198 0014 0C61     		str	r4, [r1, #16]
 199              		.loc 1 190 3 view .LVU60
 200 0016 4469     		ldr	r4, [r0, #20]
 201              	.LBB261:
 202              	.LBB262:
 203              	.LBB263:
 204              	.LBB264:
 205              		.loc 2 512 13 is_stmt 0 view .LVU61
 206 0018 103A     		subs	r2, r2, #16
 207              	.LBE264:
 208              	.LBE263:
 209              	.LBE262:
 210              	.LBE261:
 211              		.loc 1 190 3 view .LVU62
 212 001a 4C61     		str	r4, [r1, #20]
 213              		.loc 1 190 3 is_stmt 1 view .LVU63
 214 001c 0D4C     		ldr	r4, .L10
 215              		.loc 1 194 1 is_stmt 0 view .LVU64
 216              		@ sp needed
 217              		.loc 1 190 3 view .LVU65
 218 001e 0C62     		str	r4, [r1, #32]
 219              		.loc 1 190 63 is_stmt 1 view .LVU66
 220              		.loc 1 193 3 view .LVU67
 221              		.loc 1 193 10 is_stmt 0 view .LVU68
 222 0020 0168     		ldr	r1, [r0]
 223              	.LBB273:
 224              	.LBB269:
 225              		.loc 1 91 17 view .LVU69
 226 0022 0224     		movs	r4, #2
 227              	.LBE269:
 228              	.LBE273:
ARM GAS  /tmp/ccgHkDVU.s 			page 5


 229              		.loc 1 193 10 view .LVU70
 230 0024 9961     		str	r1, [r3, #24]
 231              	.LBB274:
 232              	.LBB270:
 233              		.loc 1 91 17 view .LVU71
 234 0026 2021     		movs	r1, #32
 235              	.LBE270:
 236              	.LBE274:
 237              		.loc 1 193 10 view .LVU72
 238 0028 C068     		ldr	r0, [r0, #12]
 239              	.LVL12:
 240              	.LBB275:
 241              	.LBI261:
 242              		.loc 1 88 11 is_stmt 1 view .LVU73
 243              	.LBB271:
 244              		.loc 1 90 3 view .LVU74
 245              		.loc 1 90 17 is_stmt 0 view .LVU75
 246 002a 9860     		str	r0, [r3, #8]
 247              		.loc 1 91 3 is_stmt 1 view .LVU76
 248              		.loc 1 91 17 is_stmt 0 view .LVU77
 249 002c 5C54     		strb	r4, [r3, r1]
 250              	.LVL13:
 251              		.loc 1 92 3 is_stmt 1 view .LVU78
 252              		.loc 1 92 17 is_stmt 0 view .LVU79
 253 002e 0021     		movs	r1, #0
 254 0030 1F34     		adds	r4, r4, #31
 255 0032 1955     		strb	r1, [r3, r4]
 256              		.loc 1 97 3 is_stmt 1 view .LVU80
 257              		.loc 1 97 17 is_stmt 0 view .LVU81
 258 0034 5863     		str	r0, [r3, #52]
 259              		.loc 1 98 3 is_stmt 1 view .LVU82
 260              		.loc 1 107 17 is_stmt 0 view .LVU83
 261 0036 0120     		movs	r0, #1
 262              	.LVL14:
 263              		.loc 1 98 17 view .LVU84
 264 0038 1963     		str	r1, [r3, #48]
 265              		.loc 1 101 3 is_stmt 1 view .LVU85
 266              		.loc 1 101 17 is_stmt 0 view .LVU86
 267 003a D962     		str	r1, [r3, #44]
 268              		.loc 1 107 3 is_stmt 1 view .LVU87
 269              		.loc 1 107 17 is_stmt 0 view .LVU88
 270 003c 2231     		adds	r1, r1, #34
 271 003e 5854     		strb	r0, [r3, r1]
 272              	.LVL15:
 273              		.loc 1 108 3 is_stmt 1 view .LVU89
 274              		.loc 1 109 3 view .LVU90
 275 0040 0549     		ldr	r1, .L10+4
 276 0042 4869     		ldr	r0, [r1, #20]
 277 0044 1961     		str	r1, [r3, #16]
 278              		.loc 1 109 3 view .LVU91
 279 0046 5861     		str	r0, [r3, #20]
 280              		.loc 1 109 3 view .LVU92
 281 0048 0361     		str	r3, [r0, #16]
 282              		.loc 1 109 3 view .LVU93
 283 004a 4B61     		str	r3, [r1, #20]
 284              		.loc 1 109 17 view .LVU94
 285              		.loc 1 114 3 view .LVU95
ARM GAS  /tmp/ccgHkDVU.s 			page 6


 286              	.LBB267:
 287              	.LBI263:
 288              		.loc 2 510 20 view .LVU96
 289              	.LBB265:
 290              		.loc 2 512 3 view .LVU97
 291              	.LBE265:
 292              	.LBE267:
 293              	.LBE271:
 294              	.LBE275:
 295              		.loc 1 194 1 is_stmt 0 view .LVU98
 296 004c 1800     		movs	r0, r3
 297              	.LBB276:
 298              	.LBB272:
 299              	.LBB268:
 300              	.LBB266:
 301              		.loc 2 512 13 view .LVU99
 302 004e 1260     		str	r2, [r2]
 303              	.LBE266:
 304              	.LBE268:
 305              		.loc 1 122 3 is_stmt 1 view .LVU100
 306              		.loc 1 122 30 view .LVU101
 307              		.loc 1 123 3 view .LVU102
 308              	.LVL16:
 309              		.loc 1 123 3 is_stmt 0 view .LVU103
 310              	.LBE272:
 311              	.LBE276:
 312              		.loc 1 194 1 view .LVU104
 313 0050 10BD     		pop	{r4, pc}
 314              	.L11:
 315 0052 C046     		.align	2
 316              	.L10:
 317 0054 00000000 		.word	_port_thread_start
 318 0058 00000000 		.word	ch
 319              		.cfi_endproc
 320              	.LFE123:
 321              		.size	chThdCreateSuspendedI, .-chThdCreateSuspendedI
 322              		.section	.text.chThdCreateSuspended,"ax",%progbits
 323              		.align	1
 324              		.p2align 4,,15
 325              		.global	chThdCreateSuspended
 326              		.syntax unified
 327              		.code	16
 328              		.thumb_func
 329              		.fpu softvfp
 330              		.type	chThdCreateSuspended, %function
 331              	chThdCreateSuspended:
 332              	.LVL17:
 333              	.LFB124:
 334              		.loc 1 217 64 is_stmt 1 view -0
 335              		.cfi_startproc
 336              		@ args = 0, pretend = 0, frame = 0
 337              		@ frame_needed = 0, uses_anonymous_args = 0
 338              		.loc 1 218 3 view .LVU106
 339              		.loc 1 221 3 view .LVU107
 340              		.loc 1 221 3 view .LVU108
 341              		.loc 1 226 3 view .LVU109
 342              		.loc 1 226 33 is_stmt 0 view .LVU110
ARM GAS  /tmp/ccgHkDVU.s 			page 7


 343 0000 4368     		ldr	r3, [r0, #4]
 344              		.loc 1 227 33 view .LVU111
 345 0002 8268     		ldr	r2, [r0, #8]
 346              	.LVL18:
 347              	.LBB277:
 348              	.LBI277:
 349              		.loc 1 136 6 is_stmt 1 view .LVU112
 350              	.LBB278:
 351              		.loc 1 138 3 view .LVU113
 352              		.loc 1 138 3 is_stmt 0 view .LVU114
 353              	.LBE278:
 354              	.LBE277:
 355              		.loc 1 217 64 view .LVU115
 356 0004 10B5     		push	{r4, lr}
 357              		.cfi_def_cfa_offset 8
 358              		.cfi_offset 4, -8
 359              		.cfi_offset 14, -4
 360              	.LBB280:
 361              	.LBB279:
 362              		.loc 1 138 9 view .LVU116
 363 0006 9342     		cmp	r3, r2
 364 0008 04D2     		bcs	.L13
 365              		.loc 1 139 15 view .LVU117
 366 000a 5521     		movs	r1, #85
 367              	.LVL19:
 368              	.L14:
 369              		.loc 1 139 5 is_stmt 1 view .LVU118
 370              		.loc 1 139 15 is_stmt 0 view .LVU119
 371 000c 1970     		strb	r1, [r3]
 372              		.loc 1 139 15 view .LVU120
 373 000e 0133     		adds	r3, r3, #1
 374              	.LVL20:
 375              		.loc 1 138 9 view .LVU121
 376 0010 9A42     		cmp	r2, r3
 377 0012 FBD1     		bne	.L14
 378              	.LVL21:
 379              	.L13:
 380              		.loc 1 138 9 view .LVU122
 381              	.LBE279:
 382              	.LBE280:
 383              		.loc 1 231 3 is_stmt 1 view .LVU123
 384              	.LBB281:
 385              	.LBI281:
 386              		.file 3 "ChibiOS/os/rt/include/chsys.h"
 387              		.loc 3 374 20 view .LVU124
 388              	.LBE281:
 389              		.loc 3 376 3 view .LVU125
 390              	.LBB286:
 391              	.LBB282:
 392              	.LBI282:
 393              		.file 4 "ChibiOS/os/common/ports/ARMCMx/chcore_v6m.h"
 394              		.loc 4 371 20 view .LVU126
 395              	.LBE282:
 396              	.LBE286:
 397              		.loc 4 373 3 view .LVU127
 398              	.LBB287:
 399              	.LBB285:
ARM GAS  /tmp/ccgHkDVU.s 			page 8


 400              	.LBB283:
 401              	.LBI283:
 402              		.file 5 "ChibiOS/os/common/ext/CMSIS/include/core_cmFunc.h"
 403              		.loc 5 342 57 view .LVU128
 404              	.LBB284:
 405              		.loc 5 344 3 view .LVU129
 406              		.syntax divided
 407              	@ 344 "ChibiOS/os/common/ext/CMSIS/include/core_cmFunc.h" 1
 408 0014 72B6     		cpsid i
 409              	@ 0 "" 2
 410              		.thumb
 411              		.syntax unified
 412              	.LBE284:
 413              	.LBE283:
 414              	.LBE285:
 415              	.LBE287:
 416              		.loc 3 377 34 view .LVU130
 417              		.loc 3 378 20 view .LVU131
 418              		.loc 1 232 3 view .LVU132
 419              		.loc 1 232 8 is_stmt 0 view .LVU133
 420 0016 FFF7FEFF 		bl	chThdCreateSuspendedI
 421              	.LVL22:
 422              		.loc 1 233 3 is_stmt 1 view .LVU134
 423              	.LBB288:
 424              	.LBI288:
 425              		.loc 3 386 20 view .LVU135
 426              	.LBB289:
 427              		.loc 3 388 22 view .LVU136
 428              		.loc 3 389 33 view .LVU137
 429              		.loc 3 395 3 view .LVU138
 430              		.loc 3 395 3 view .LVU139
 431              		.loc 3 399 3 view .LVU140
 432              	.LBB290:
 433              	.LBI290:
 434              		.loc 4 380 20 view .LVU141
 435              	.LBE290:
 436              	.LBE289:
 437              	.LBE288:
 438              		.loc 4 382 3 view .LVU142
 439              	.LBB295:
 440              	.LBB294:
 441              	.LBB293:
 442              	.LBB291:
 443              	.LBI291:
 444              		.loc 5 331 57 view .LVU143
 445              	.LBB292:
 446              		.loc 5 333 3 view .LVU144
 447              		.syntax divided
 448              	@ 333 "ChibiOS/os/common/ext/CMSIS/include/core_cmFunc.h" 1
 449 001a 62B6     		cpsie i
 450              	@ 0 "" 2
 451              		.thumb
 452              		.syntax unified
 453              	.LBE292:
 454              	.LBE291:
 455              	.LBE293:
 456              	.LBE294:
ARM GAS  /tmp/ccgHkDVU.s 			page 9


 457              	.LBE295:
 458              		.loc 1 235 3 view .LVU145
 459              		.loc 1 236 1 is_stmt 0 view .LVU146
 460              		@ sp needed
 461 001c 10BD     		pop	{r4, pc}
 462              		.cfi_endproc
 463              	.LFE124:
 464              		.size	chThdCreateSuspended, .-chThdCreateSuspended
 465 001e C046     		.section	.text.chThdCreateI,"ax",%progbits
 466              		.align	1
 467              		.p2align 4,,15
 468              		.global	chThdCreateI
 469              		.syntax unified
 470              		.code	16
 471              		.thumb_func
 472              		.fpu softvfp
 473              		.type	chThdCreateI, %function
 474              	chThdCreateI:
 475              	.LVL23:
 476              	.LFB125:
 477              		.loc 1 260 56 is_stmt 1 view -0
 478              		.cfi_startproc
 479              		@ args = 0, pretend = 0, frame = 0
 480              		@ frame_needed = 0, uses_anonymous_args = 0
 481              		.loc 1 262 3 view .LVU148
 482              		.loc 1 260 56 is_stmt 0 view .LVU149
 483 0000 10B5     		push	{r4, lr}
 484              		.cfi_def_cfa_offset 8
 485              		.cfi_offset 4, -8
 486              		.cfi_offset 14, -4
 487              		.loc 1 262 10 view .LVU150
 488 0002 FFF7FEFF 		bl	chThdCreateSuspendedI
 489              	.LVL24:
 490              		.loc 1 262 10 view .LVU151
 491 0006 FFF7FEFF 		bl	chSchReadyI
 492              	.LVL25:
 493              		.loc 1 263 1 view .LVU152
 494              		@ sp needed
 495 000a 10BD     		pop	{r4, pc}
 496              		.cfi_endproc
 497              	.LFE125:
 498              		.size	chThdCreateI, .-chThdCreateI
 499              		.section	.text.chThdCreate,"ax",%progbits
 500              		.align	1
 501              		.p2align 4,,15
 502              		.global	chThdCreate
 503              		.syntax unified
 504              		.code	16
 505              		.thumb_func
 506              		.fpu softvfp
 507              		.type	chThdCreate, %function
 508              	chThdCreate:
 509              	.LVL26:
 510              	.LFB126:
 511              		.loc 1 281 55 is_stmt 1 view -0
 512              		.cfi_startproc
 513              		@ args = 0, pretend = 0, frame = 0
ARM GAS  /tmp/ccgHkDVU.s 			page 10


 514              		@ frame_needed = 0, uses_anonymous_args = 0
 515              		.loc 1 282 3 view .LVU154
 516              		.loc 1 285 3 view .LVU155
 517              		.loc 1 285 3 view .LVU156
 518              		.loc 1 290 3 view .LVU157
 519              		.loc 1 290 33 is_stmt 0 view .LVU158
 520 0000 4368     		ldr	r3, [r0, #4]
 521              		.loc 1 291 33 view .LVU159
 522 0002 8268     		ldr	r2, [r0, #8]
 523              	.LVL27:
 524              	.LBB296:
 525              	.LBI296:
 526              		.loc 1 136 6 is_stmt 1 view .LVU160
 527              	.LBB297:
 528              		.loc 1 138 3 view .LVU161
 529              		.loc 1 138 3 is_stmt 0 view .LVU162
 530              	.LBE297:
 531              	.LBE296:
 532              		.loc 1 281 55 view .LVU163
 533 0004 10B5     		push	{r4, lr}
 534              		.cfi_def_cfa_offset 8
 535              		.cfi_offset 4, -8
 536              		.cfi_offset 14, -4
 537              	.LBB299:
 538              	.LBB298:
 539              		.loc 1 138 9 view .LVU164
 540 0006 9342     		cmp	r3, r2
 541 0008 04D2     		bcs	.L18
 542              		.loc 1 139 15 view .LVU165
 543 000a 5521     		movs	r1, #85
 544              	.LVL28:
 545              	.L19:
 546              		.loc 1 139 5 is_stmt 1 view .LVU166
 547              		.loc 1 139 15 is_stmt 0 view .LVU167
 548 000c 1970     		strb	r1, [r3]
 549              		.loc 1 139 15 view .LVU168
 550 000e 0133     		adds	r3, r3, #1
 551              	.LVL29:
 552              		.loc 1 138 9 view .LVU169
 553 0010 9A42     		cmp	r2, r3
 554 0012 FBD1     		bne	.L19
 555              	.LVL30:
 556              	.L18:
 557              		.loc 1 138 9 view .LVU170
 558              	.LBE298:
 559              	.LBE299:
 560              		.loc 1 295 3 is_stmt 1 view .LVU171
 561              	.LBB300:
 562              	.LBI300:
 563              		.loc 3 374 20 view .LVU172
 564              	.LBE300:
 565              		.loc 3 376 3 view .LVU173
 566              	.LBB305:
 567              	.LBB301:
 568              	.LBI301:
 569              		.loc 4 371 20 view .LVU174
 570              	.LBE301:
ARM GAS  /tmp/ccgHkDVU.s 			page 11


 571              	.LBE305:
 572              		.loc 4 373 3 view .LVU175
 573              	.LBB306:
 574              	.LBB304:
 575              	.LBB302:
 576              	.LBI302:
 577              		.loc 5 342 57 view .LVU176
 578              	.LBB303:
 579              		.loc 5 344 3 view .LVU177
 580              		.syntax divided
 581              	@ 344 "ChibiOS/os/common/ext/CMSIS/include/core_cmFunc.h" 1
 582 0014 72B6     		cpsid i
 583              	@ 0 "" 2
 584              		.thumb
 585              		.syntax unified
 586              	.LBE303:
 587              	.LBE302:
 588              	.LBE304:
 589              	.LBE306:
 590              		.loc 3 377 34 view .LVU178
 591              		.loc 3 378 20 view .LVU179
 592              		.loc 1 296 3 view .LVU180
 593              		.loc 1 296 8 is_stmt 0 view .LVU181
 594 0016 FFF7FEFF 		bl	chThdCreateSuspendedI
 595              	.LVL31:
 596              		.loc 1 297 3 view .LVU182
 597 001a 0021     		movs	r1, #0
 598              		.loc 1 296 8 view .LVU183
 599 001c 0400     		movs	r4, r0
 600              	.LVL32:
 601              		.loc 1 297 3 is_stmt 1 view .LVU184
 602 001e FFF7FEFF 		bl	chSchWakeupS
 603              	.LVL33:
 604              		.loc 1 298 3 view .LVU185
 605              	.LBB307:
 606              	.LBI307:
 607              		.loc 3 386 20 view .LVU186
 608              	.LBB308:
 609              		.loc 3 388 22 view .LVU187
 610              		.loc 3 389 33 view .LVU188
 611              		.loc 3 395 3 view .LVU189
 612              		.loc 3 395 3 view .LVU190
 613              		.loc 3 399 3 view .LVU191
 614              	.LBB309:
 615              	.LBI309:
 616              		.loc 4 380 20 view .LVU192
 617              	.LBE309:
 618              	.LBE308:
 619              	.LBE307:
 620              		.loc 4 382 3 view .LVU193
 621              	.LBB314:
 622              	.LBB313:
 623              	.LBB312:
 624              	.LBB310:
 625              	.LBI310:
 626              		.loc 5 331 57 view .LVU194
 627              	.LBB311:
ARM GAS  /tmp/ccgHkDVU.s 			page 12


 628              		.loc 5 333 3 view .LVU195
 629              		.syntax divided
 630              	@ 333 "ChibiOS/os/common/ext/CMSIS/include/core_cmFunc.h" 1
 631 0022 62B6     		cpsie i
 632              	@ 0 "" 2
 633              		.thumb
 634              		.syntax unified
 635              	.LBE311:
 636              	.LBE310:
 637              	.LBE312:
 638              	.LBE313:
 639              	.LBE314:
 640              		.loc 1 300 3 view .LVU196
 641              		.loc 1 301 1 is_stmt 0 view .LVU197
 642 0024 2000     		movs	r0, r4
 643              		@ sp needed
 644              	.LVL34:
 645              		.loc 1 301 1 view .LVU198
 646 0026 10BD     		pop	{r4, pc}
 647              		.cfi_endproc
 648              	.LFE126:
 649              		.size	chThdCreate, .-chThdCreate
 650              		.section	.text.chThdCreateStatic,"ax",%progbits
 651              		.align	1
 652              		.p2align 4,,15
 653              		.global	chThdCreateStatic
 654              		.syntax unified
 655              		.code	16
 656              		.thumb_func
 657              		.fpu softvfp
 658              		.type	chThdCreateStatic, %function
 659              	chThdCreateStatic:
 660              	.LVL35:
 661              	.LFB127:
 662              		.loc 1 324 66 is_stmt 1 view -0
 663              		.cfi_startproc
 664              		@ args = 4, pretend = 0, frame = 0
 665              		@ frame_needed = 0, uses_anonymous_args = 0
 666              		.loc 1 325 3 view .LVU200
 667              		.loc 1 327 3 view .LVU201
 668              		.loc 1 327 3 view .LVU202
 669              		.loc 1 334 3 view .LVU203
 670              		.loc 1 334 3 view .LVU204
 671              		.loc 1 339 3 view .LVU205
 672              		.loc 1 324 66 is_stmt 0 view .LVU206
 673 0000 70B5     		push	{r4, r5, r6, lr}
 674              		.cfi_def_cfa_offset 16
 675              		.cfi_offset 4, -16
 676              		.cfi_offset 5, -12
 677              		.cfi_offset 6, -8
 678              		.cfi_offset 14, -4
 679              		.loc 1 339 3 view .LVU207
 680 0002 4518     		adds	r5, r0, r1
 681              	.LVL36:
 682              	.LBB315:
 683              	.LBI315:
 684              		.loc 1 136 6 is_stmt 1 view .LVU208
ARM GAS  /tmp/ccgHkDVU.s 			page 13


 685              	.LBB316:
 686              		.loc 1 138 3 view .LVU209
 687              		.loc 1 138 9 is_stmt 0 view .LVU210
 688 0004 A842     		cmp	r0, r5
 689 0006 05D2     		bcs	.L22
 690 0008 0400     		movs	r4, r0
 691              		.loc 1 139 15 view .LVU211
 692 000a 5526     		movs	r6, #85
 693              	.LVL37:
 694              	.L23:
 695              		.loc 1 139 5 is_stmt 1 view .LVU212
 696              		.loc 1 139 15 is_stmt 0 view .LVU213
 697 000c 2670     		strb	r6, [r4]
 698              		.loc 1 139 15 view .LVU214
 699 000e 0134     		adds	r4, r4, #1
 700              	.LVL38:
 701              		.loc 1 138 9 view .LVU215
 702 0010 A542     		cmp	r5, r4
 703 0012 FBD1     		bne	.L23
 704              	.LVL39:
 705              	.L22:
 706              		.loc 1 138 9 view .LVU216
 707              	.LBE316:
 708              	.LBE315:
 709              		.loc 1 344 3 is_stmt 1 view .LVU217
 710              	.LBB317:
 711              	.LBI317:
 712              		.loc 3 374 20 view .LVU218
 713              	.LBE317:
 714              		.loc 3 376 3 view .LVU219
 715              	.LBB322:
 716              	.LBB318:
 717              	.LBI318:
 718              		.loc 4 371 20 view .LVU220
 719              	.LBE318:
 720              	.LBE322:
 721              		.loc 4 373 3 view .LVU221
 722              	.LBB323:
 723              	.LBB321:
 724              	.LBB319:
 725              	.LBI319:
 726              		.loc 5 342 57 view .LVU222
 727              	.LBB320:
 728              		.loc 5 344 3 view .LVU223
 729              		.syntax divided
 730              	@ 344 "ChibiOS/os/common/ext/CMSIS/include/core_cmFunc.h" 1
 731 0014 72B6     		cpsid i
 732              	@ 0 "" 2
 733              		.thumb
 734              		.syntax unified
 735              	.LBE320:
 736              	.LBE319:
 737              	.LBE321:
 738              	.LBE323:
 739              		.loc 3 377 34 view .LVU224
 740              		.loc 3 378 20 view .LVU225
 741              		.loc 1 349 3 view .LVU226
ARM GAS  /tmp/ccgHkDVU.s 			page 14


 742              		.loc 1 349 43 is_stmt 0 view .LVU227
 743 0016 3839     		subs	r1, r1, #56
 744              	.LVL40:
 745              		.loc 1 349 6 view .LVU228
 746 0018 4418     		adds	r4, r0, r1
 747              	.LVL41:
 748              		.loc 1 354 3 is_stmt 1 view .LVU229
 749              		.loc 1 358 3 is_stmt 0 view .LVU230
 750 001a 2100     		movs	r1, r4
 751              	.LVL42:
 752              		.loc 1 358 3 view .LVU231
 753 001c 2439     		subs	r1, r1, #36
 754 001e E160     		str	r1, [r4, #12]
 755              		.loc 1 354 14 view .LVU232
 756 0020 E061     		str	r0, [r4, #28]
 757              		.loc 1 358 3 is_stmt 1 view .LVU233
 758              		.loc 1 358 3 view .LVU234
 759 0022 0B61     		str	r3, [r1, #16]
 760              		.loc 1 358 3 view .LVU235
 761 0024 049B     		ldr	r3, [sp, #16]
 762              	.LVL43:
 763              		.loc 1 363 3 is_stmt 0 view .LVU236
 764 0026 2000     		movs	r0, r4
 765              	.LVL44:
 766              		.loc 1 358 3 view .LVU237
 767 0028 4B61     		str	r3, [r1, #20]
 768              		.loc 1 358 3 is_stmt 1 view .LVU238
 769 002a 0E4B     		ldr	r3, .L25
 770 002c 0B62     		str	r3, [r1, #32]
 771              		.loc 1 358 43 view .LVU239
 772              		.loc 1 360 3 view .LVU240
 773              	.LVL45:
 774              	.LBB324:
 775              	.LBI324:
 776              		.loc 1 88 11 view .LVU241
 777              	.LBB325:
 778              		.loc 1 90 3 view .LVU242
 779              		.loc 1 98 17 is_stmt 0 view .LVU243
 780 002e 0023     		movs	r3, #0
 781              		.loc 1 90 17 view .LVU244
 782 0030 A260     		str	r2, [r4, #8]
 783              		.loc 1 91 3 is_stmt 1 view .LVU245
 784              		.loc 1 92 3 view .LVU246
 785              		.loc 1 97 3 view .LVU247
 786              		.loc 1 97 17 is_stmt 0 view .LVU248
 787 0032 6263     		str	r2, [r4, #52]
 788              		.loc 1 98 3 is_stmt 1 view .LVU249
 789              		.loc 1 107 17 is_stmt 0 view .LVU250
 790 0034 0122     		movs	r2, #1
 791              	.LVL46:
 792              		.loc 1 98 17 view .LVU251
 793 0036 2363     		str	r3, [r4, #48]
 794              		.loc 1 101 3 is_stmt 1 view .LVU252
 795              		.loc 1 101 17 is_stmt 0 view .LVU253
 796 0038 E362     		str	r3, [r4, #44]
 797              		.loc 1 107 3 is_stmt 1 view .LVU254
 798              		.loc 1 91 17 is_stmt 0 view .LVU255
ARM GAS  /tmp/ccgHkDVU.s 			page 15


 799 003a 0233     		adds	r3, r3, #2
 800 003c 2384     		strh	r3, [r4, #32]
 801              		.loc 1 107 17 view .LVU256
 802 003e 2033     		adds	r3, r3, #32
 803 0040 E254     		strb	r2, [r4, r3]
 804              	.LVL47:
 805              		.loc 1 108 3 is_stmt 1 view .LVU257
 806              		.loc 1 108 17 is_stmt 0 view .LVU258
 807 0042 094B     		ldr	r3, .L25+4
 808              	.LBE325:
 809              	.LBE324:
 810              		.loc 1 363 3 view .LVU259
 811 0044 0021     		movs	r1, #0
 812              	.LBB331:
 813              	.LBB330:
 814              		.loc 1 108 17 view .LVU260
 815 0046 A361     		str	r3, [r4, #24]
 816              		.loc 1 109 3 is_stmt 1 view .LVU261
 817 0048 084B     		ldr	r3, .L25+8
 818 004a 5A69     		ldr	r2, [r3, #20]
 819 004c 2361     		str	r3, [r4, #16]
 820              		.loc 1 109 3 view .LVU262
 821 004e 6261     		str	r2, [r4, #20]
 822              		.loc 1 109 3 view .LVU263
 823 0050 1461     		str	r4, [r2, #16]
 824              		.loc 1 109 3 view .LVU264
 825 0052 5C61     		str	r4, [r3, #20]
 826              		.loc 1 109 17 view .LVU265
 827              		.loc 1 114 3 view .LVU266
 828              	.LVL48:
 829              	.LBB326:
 830              	.LBI326:
 831              		.loc 2 510 20 view .LVU267
 832              	.LBB327:
 833              		.loc 2 512 3 view .LVU268
 834              	.LBE327:
 835              	.LBE326:
 836              		.loc 1 114 3 is_stmt 0 view .LVU269
 837 0054 2300     		movs	r3, r4
 838 0056 2833     		adds	r3, r3, #40
 839              	.LVL49:
 840              	.LBB329:
 841              	.LBB328:
 842              		.loc 2 512 13 view .LVU270
 843 0058 A362     		str	r3, [r4, #40]
 844              	.LVL50:
 845              		.loc 2 512 13 view .LVU271
 846              	.LBE328:
 847              	.LBE329:
 848              		.loc 1 122 3 is_stmt 1 view .LVU272
 849              		.loc 1 122 30 view .LVU273
 850              		.loc 1 123 3 view .LVU274
 851              		.loc 1 123 3 is_stmt 0 view .LVU275
 852              	.LBE330:
 853              	.LBE331:
 854              		.loc 1 363 3 is_stmt 1 view .LVU276
 855 005a FFF7FEFF 		bl	chSchWakeupS
ARM GAS  /tmp/ccgHkDVU.s 			page 16


 856              	.LVL51:
 857              		.loc 1 364 3 view .LVU277
 858              	.LBB332:
 859              	.LBI332:
 860              		.loc 3 386 20 view .LVU278
 861              	.LBB333:
 862              		.loc 3 388 22 view .LVU279
 863              		.loc 3 389 33 view .LVU280
 864              		.loc 3 395 3 view .LVU281
 865              		.loc 3 395 3 view .LVU282
 866              		.loc 3 399 3 view .LVU283
 867              	.LBB334:
 868              	.LBI334:
 869              		.loc 4 380 20 view .LVU284
 870              	.LBE334:
 871              	.LBE333:
 872              	.LBE332:
 873              		.loc 4 382 3 view .LVU285
 874              	.LBB339:
 875              	.LBB338:
 876              	.LBB337:
 877              	.LBB335:
 878              	.LBI335:
 879              		.loc 5 331 57 view .LVU286
 880              	.LBB336:
 881              		.loc 5 333 3 view .LVU287
 882              		.syntax divided
 883              	@ 333 "ChibiOS/os/common/ext/CMSIS/include/core_cmFunc.h" 1
 884 005e 62B6     		cpsie i
 885              	@ 0 "" 2
 886              		.thumb
 887              		.syntax unified
 888              	.LBE336:
 889              	.LBE335:
 890              	.LBE337:
 891              	.LBE338:
 892              	.LBE339:
 893              		.loc 1 366 3 view .LVU288
 894              		.loc 1 367 1 is_stmt 0 view .LVU289
 895 0060 2000     		movs	r0, r4
 896              		@ sp needed
 897              	.LVL52:
 898              		.loc 1 367 1 view .LVU290
 899 0062 70BD     		pop	{r4, r5, r6, pc}
 900              	.L26:
 901              		.align	2
 902              	.L25:
 903 0064 00000000 		.word	_port_thread_start
 904 0068 00000000 		.word	.LC4
 905 006c 00000000 		.word	ch
 906              		.cfi_endproc
 907              	.LFE127:
 908              		.size	chThdCreateStatic, .-chThdCreateStatic
 909              		.section	.text.chThdStart,"ax",%progbits
 910              		.align	1
 911              		.p2align 4,,15
 912              		.global	chThdStart
ARM GAS  /tmp/ccgHkDVU.s 			page 17


 913              		.syntax unified
 914              		.code	16
 915              		.thumb_func
 916              		.fpu softvfp
 917              		.type	chThdStart, %function
 918              	chThdStart:
 919              	.LVL53:
 920              	.LFB128:
 921              		.loc 1 378 36 is_stmt 1 view -0
 922              		.cfi_startproc
 923              		@ args = 0, pretend = 0, frame = 0
 924              		@ frame_needed = 0, uses_anonymous_args = 0
 925              		.loc 1 380 3 view .LVU292
 926              	.LBB340:
 927              	.LBI340:
 928              		.loc 3 374 20 view .LVU293
 929              	.LBE340:
 930              		.loc 3 376 3 view .LVU294
 931              	.LBB348:
 932              	.LBB341:
 933              	.LBI341:
 934              		.loc 4 371 20 view .LVU295
 935              	.LBE341:
 936              	.LBE348:
 937              		.loc 4 373 3 view .LVU296
 938              	.LBB349:
 939              	.LBB346:
 940              	.LBB342:
 941              	.LBI342:
 942              		.loc 5 342 57 view .LVU297
 943              	.LBB343:
 944              		.loc 5 344 3 view .LVU298
 945              	.LBE343:
 946              	.LBE342:
 947              	.LBE346:
 948              	.LBE349:
 949              		.loc 1 378 36 is_stmt 0 view .LVU299
 950 0000 10B5     		push	{r4, lr}
 951              		.cfi_def_cfa_offset 8
 952              		.cfi_offset 4, -8
 953              		.cfi_offset 14, -4
 954              	.LBB350:
 955              	.LBB347:
 956              	.LBB345:
 957              	.LBB344:
 958              		.loc 5 344 3 view .LVU300
 959              		.syntax divided
 960              	@ 344 "ChibiOS/os/common/ext/CMSIS/include/core_cmFunc.h" 1
 961 0002 72B6     		cpsid i
 962              	@ 0 "" 2
 963              		.thumb
 964              		.syntax unified
 965              	.LBE344:
 966              	.LBE345:
 967              	.LBE347:
 968              	.LBE350:
 969              		.loc 3 377 34 is_stmt 1 view .LVU301
ARM GAS  /tmp/ccgHkDVU.s 			page 18


 970              		.loc 3 378 20 view .LVU302
 971              		.loc 1 381 3 view .LVU303
 972              	.LVL54:
 973              	.LBB351:
 974              	.LBI351:
 975              		.file 6 "ChibiOS/os/rt/include/chthreads.h"
 976              		.loc 6 362 25 view .LVU304
 977              	.LBB352:
 978              		.loc 6 364 3 view .LVU305
 979              		.loc 6 364 3 view .LVU306
 980              		.loc 6 366 3 view .LVU307
 981              		.loc 6 366 10 is_stmt 0 view .LVU308
 982 0004 FFF7FEFF 		bl	chSchReadyI
 983              	.LVL55:
 984              		.loc 6 366 10 view .LVU309
 985              	.LBE352:
 986              	.LBE351:
 987              		.loc 1 382 3 is_stmt 1 view .LVU310
 988              	.LBB353:
 989              	.LBI353:
 990              		.loc 3 386 20 view .LVU311
 991              	.LBB354:
 992              		.loc 3 388 22 view .LVU312
 993              		.loc 3 389 33 view .LVU313
 994              		.loc 3 395 3 view .LVU314
 995              		.loc 3 395 3 view .LVU315
 996              		.loc 3 399 3 view .LVU316
 997              	.LBB355:
 998              	.LBI355:
 999              		.loc 4 380 20 view .LVU317
 1000              	.LBE355:
 1001              	.LBE354:
 1002              	.LBE353:
 1003              		.loc 4 382 3 view .LVU318
 1004              	.LBB360:
 1005              	.LBB359:
 1006              	.LBB358:
 1007              	.LBB356:
 1008              	.LBI356:
 1009              		.loc 5 331 57 view .LVU319
 1010              	.LBB357:
 1011              		.loc 5 333 3 view .LVU320
 1012              		.syntax divided
 1013              	@ 333 "ChibiOS/os/common/ext/CMSIS/include/core_cmFunc.h" 1
 1014 0008 62B6     		cpsie i
 1015              	@ 0 "" 2
 1016              		.thumb
 1017              		.syntax unified
 1018              	.LBE357:
 1019              	.LBE356:
 1020              	.LBE358:
 1021              	.LBE359:
 1022              	.LBE360:
 1023              		.loc 1 384 3 view .LVU321
 1024              		.loc 1 385 1 is_stmt 0 view .LVU322
 1025              		@ sp needed
 1026 000a 10BD     		pop	{r4, pc}
ARM GAS  /tmp/ccgHkDVU.s 			page 19


 1027              		.cfi_endproc
 1028              	.LFE128:
 1029              		.size	chThdStart, .-chThdStart
 1030              		.section	.text.chThdAddRef,"ax",%progbits
 1031              		.align	1
 1032              		.p2align 4,,15
 1033              		.global	chThdAddRef
 1034              		.syntax unified
 1035              		.code	16
 1036              		.thumb_func
 1037              		.fpu softvfp
 1038              		.type	chThdAddRef, %function
 1039              	chThdAddRef:
 1040              	.LVL56:
 1041              	.LFB129:
 1042              		.loc 1 399 37 is_stmt 1 view -0
 1043              		.cfi_startproc
 1044              		@ args = 0, pretend = 0, frame = 0
 1045              		@ frame_needed = 0, uses_anonymous_args = 0
 1046              		@ link register save eliminated.
 1047              		.loc 1 401 3 view .LVU324
 1048              	.LBB361:
 1049              	.LBI361:
 1050              		.loc 3 374 20 view .LVU325
 1051              	.LBE361:
 1052              		.loc 3 376 3 view .LVU326
 1053              	.LBB366:
 1054              	.LBB362:
 1055              	.LBI362:
 1056              		.loc 4 371 20 view .LVU327
 1057              	.LBE362:
 1058              	.LBE366:
 1059              		.loc 4 373 3 view .LVU328
 1060              	.LBB367:
 1061              	.LBB365:
 1062              	.LBB363:
 1063              	.LBI363:
 1064              		.loc 5 342 57 view .LVU329
 1065              	.LBB364:
 1066              		.loc 5 344 3 view .LVU330
 1067              		.syntax divided
 1068              	@ 344 "ChibiOS/os/common/ext/CMSIS/include/core_cmFunc.h" 1
 1069 0000 72B6     		cpsid i
 1070              	@ 0 "" 2
 1071              		.thumb
 1072              		.syntax unified
 1073              	.LBE364:
 1074              	.LBE363:
 1075              	.LBE365:
 1076              	.LBE367:
 1077              		.loc 3 377 34 view .LVU331
 1078              		.loc 3 378 20 view .LVU332
 1079              		.loc 1 402 3 view .LVU333
 1080              		.loc 1 402 3 view .LVU334
 1081              		.loc 1 403 3 view .LVU335
 1082              		.loc 1 403 5 is_stmt 0 view .LVU336
 1083 0002 2222     		movs	r2, #34
ARM GAS  /tmp/ccgHkDVU.s 			page 20


 1084              		.loc 1 403 11 view .LVU337
 1085 0004 835C     		ldrb	r3, [r0, r2]
 1086 0006 0133     		adds	r3, r3, #1
 1087 0008 8354     		strb	r3, [r0, r2]
 1088              		.loc 1 404 3 is_stmt 1 view .LVU338
 1089              	.LBB368:
 1090              	.LBI368:
 1091              		.loc 3 386 20 view .LVU339
 1092              	.LBB369:
 1093              		.loc 3 388 22 view .LVU340
 1094              		.loc 3 389 33 view .LVU341
 1095              		.loc 3 395 3 view .LVU342
 1096              		.loc 3 395 3 view .LVU343
 1097              		.loc 3 399 3 view .LVU344
 1098              	.LBB370:
 1099              	.LBI370:
 1100              		.loc 4 380 20 view .LVU345
 1101              	.LBE370:
 1102              	.LBE369:
 1103              	.LBE368:
 1104              		.loc 4 382 3 view .LVU346
 1105              	.LBB375:
 1106              	.LBB374:
 1107              	.LBB373:
 1108              	.LBB371:
 1109              	.LBI371:
 1110              		.loc 5 331 57 view .LVU347
 1111              	.LBB372:
 1112              		.loc 5 333 3 view .LVU348
 1113              		.syntax divided
 1114              	@ 333 "ChibiOS/os/common/ext/CMSIS/include/core_cmFunc.h" 1
 1115 000a 62B6     		cpsie i
 1116              	@ 0 "" 2
 1117              		.thumb
 1118              		.syntax unified
 1119              	.LBE372:
 1120              	.LBE371:
 1121              	.LBE373:
 1122              	.LBE374:
 1123              	.LBE375:
 1124              		.loc 1 406 3 view .LVU349
 1125              		.loc 1 407 1 is_stmt 0 view .LVU350
 1126              		@ sp needed
 1127 000c 7047     		bx	lr
 1128              		.cfi_endproc
 1129              	.LFE129:
 1130              		.size	chThdAddRef, .-chThdAddRef
 1131 000e C046     		.section	.text.chThdRelease,"ax",%progbits
 1132              		.align	1
 1133              		.p2align 4,,15
 1134              		.global	chThdRelease
 1135              		.syntax unified
 1136              		.code	16
 1137              		.thumb_func
 1138              		.fpu softvfp
 1139              		.type	chThdRelease, %function
 1140              	chThdRelease:
ARM GAS  /tmp/ccgHkDVU.s 			page 21


 1141              	.LVL57:
 1142              	.LFB130:
 1143              		.loc 1 425 33 is_stmt 1 view -0
 1144              		.cfi_startproc
 1145              		@ args = 0, pretend = 0, frame = 0
 1146              		@ frame_needed = 0, uses_anonymous_args = 0
 1147              		@ link register save eliminated.
 1148              		.loc 1 427 3 view .LVU352
 1149              	.LBB401:
 1150              	.LBI401:
 1151              		.loc 3 374 20 view .LVU353
 1152              	.LBE401:
 1153              		.loc 3 376 3 view .LVU354
 1154              	.LBB406:
 1155              	.LBB402:
 1156              	.LBI402:
 1157              		.loc 4 371 20 view .LVU355
 1158              	.LBE402:
 1159              	.LBE406:
 1160              		.loc 4 373 3 view .LVU356
 1161              	.LBB407:
 1162              	.LBB405:
 1163              	.LBB403:
 1164              	.LBI403:
 1165              		.loc 5 342 57 view .LVU357
 1166              	.LBB404:
 1167              		.loc 5 344 3 view .LVU358
 1168              		.syntax divided
 1169              	@ 344 "ChibiOS/os/common/ext/CMSIS/include/core_cmFunc.h" 1
 1170 0000 72B6     		cpsid i
 1171              	@ 0 "" 2
 1172              		.thumb
 1173              		.syntax unified
 1174              	.LBE404:
 1175              	.LBE403:
 1176              	.LBE405:
 1177              	.LBE407:
 1178              		.loc 3 377 34 view .LVU359
 1179              		.loc 3 378 20 view .LVU360
 1180              		.loc 1 428 3 view .LVU361
 1181              		.loc 1 428 3 view .LVU362
 1182              		.loc 1 429 3 view .LVU363
 1183              		.loc 1 429 5 is_stmt 0 view .LVU364
 1184 0002 2222     		movs	r2, #34
 1185              		.loc 1 429 11 view .LVU365
 1186 0004 835C     		ldrb	r3, [r0, r2]
 1187 0006 013B     		subs	r3, r3, #1
 1188 0008 8354     		strb	r3, [r0, r2]
 1189              		.loc 1 434 3 is_stmt 1 view .LVU366
 1190              		.loc 1 434 32 is_stmt 0 view .LVU367
 1191 000a 026A     		ldr	r2, [r0, #32]
 1192 000c 064B     		ldr	r3, .L33
 1193 000e 1340     		ands	r3, r2
 1194              		.loc 1 434 6 view .LVU368
 1195 0010 0F2B     		cmp	r3, #15
 1196 0012 01D0     		beq	.L32
 1197              		.loc 1 457 3 is_stmt 1 view .LVU369
ARM GAS  /tmp/ccgHkDVU.s 			page 22


 1198              	.LBB408:
 1199              	.LBI408:
 1200              		.loc 3 386 20 view .LVU370
 1201              	.LBB409:
 1202              		.loc 3 388 22 view .LVU371
 1203              		.loc 3 389 33 view .LVU372
 1204              		.loc 3 395 3 view .LVU373
 1205              		.loc 3 395 3 view .LVU374
 1206              		.loc 3 399 3 view .LVU375
 1207              	.LBB410:
 1208              	.LBI410:
 1209              		.loc 4 380 20 view .LVU376
 1210              	.LBE410:
 1211              	.LBE409:
 1212              	.LBE408:
 1213              		.loc 4 382 3 view .LVU377
 1214              	.LBB415:
 1215              	.LBB414:
 1216              	.LBB413:
 1217              	.LBB411:
 1218              	.LBI411:
 1219              		.loc 5 331 57 view .LVU378
 1220              	.LBB412:
 1221              		.loc 5 333 3 view .LVU379
 1222              		.syntax divided
 1223              	@ 333 "ChibiOS/os/common/ext/CMSIS/include/core_cmFunc.h" 1
 1224 0014 62B6     		cpsie i
 1225              	@ 0 "" 2
 1226              		.thumb
 1227              		.syntax unified
 1228              	.L29:
 1229              	.LBE412:
 1230              	.LBE411:
 1231              	.LBE413:
 1232              	.LBE414:
 1233              	.LBE415:
 1234              		.loc 1 458 1 is_stmt 0 view .LVU380
 1235              		@ sp needed
 1236 0016 7047     		bx	lr
 1237              	.L32:
 1238              	.LVL58:
 1239              	.LBB416:
 1240              	.LBI416:
 1241              		.loc 1 425 6 is_stmt 1 view .LVU381
 1242              	.LBB417:
 1243              		.loc 1 435 5 view .LVU382
 1244 0018 0269     		ldr	r2, [r0, #16]
 1245 001a 4369     		ldr	r3, [r0, #20]
 1246 001c 1A61     		str	r2, [r3, #16]
 1247              		.loc 1 435 5 view .LVU383
 1248 001e 0269     		ldr	r2, [r0, #16]
 1249 0020 5361     		str	r3, [r2, #20]
 1250              		.loc 1 435 19 view .LVU384
 1251              		.loc 1 436 5 view .LVU385
 1252              	.LBB418:
 1253              	.LBI418:
 1254              		.loc 3 386 20 view .LVU386
ARM GAS  /tmp/ccgHkDVU.s 			page 23


 1255              	.LBB419:
 1256              		.loc 3 388 22 view .LVU387
 1257              		.loc 3 389 33 view .LVU388
 1258              		.loc 3 395 3 view .LVU389
 1259              		.loc 3 395 3 view .LVU390
 1260              		.loc 3 399 3 view .LVU391
 1261              	.LBB420:
 1262              	.LBI420:
 1263              		.loc 4 380 20 view .LVU392
 1264              	.LBE420:
 1265              	.LBE419:
 1266              	.LBE418:
 1267              	.LBE417:
 1268              	.LBE416:
 1269              		.loc 4 382 3 view .LVU393
 1270              	.LBB427:
 1271              	.LBB426:
 1272              	.LBB425:
 1273              	.LBB424:
 1274              	.LBB423:
 1275              	.LBB421:
 1276              	.LBI421:
 1277              		.loc 5 331 57 view .LVU394
 1278              	.LBB422:
 1279              		.loc 5 333 3 view .LVU395
 1280              		.syntax divided
 1281              	@ 333 "ChibiOS/os/common/ext/CMSIS/include/core_cmFunc.h" 1
 1282 0022 62B6     		cpsie i
 1283              	@ 0 "" 2
 1284              		.thumb
 1285              		.syntax unified
 1286              	.LBE422:
 1287              	.LBE421:
 1288              	.LBE423:
 1289              	.LBE424:
 1290              	.LBE425:
 1291              		.loc 1 455 5 view .LVU396
 1292 0024 F7E7     		b	.L29
 1293              	.L34:
 1294 0026 C046     		.align	2
 1295              	.L33:
 1296 0028 FF00FF00 		.word	16711935
 1297              	.LBE426:
 1298              	.LBE427:
 1299              		.cfi_endproc
 1300              	.LFE130:
 1301              		.size	chThdRelease, .-chThdRelease
 1302              		.section	.text.chThdExitS,"ax",%progbits
 1303              		.align	1
 1304              		.p2align 4,,15
 1305              		.global	chThdExitS
 1306              		.syntax unified
 1307              		.code	16
 1308              		.thumb_func
 1309              		.fpu softvfp
 1310              		.type	chThdExitS, %function
 1311              	chThdExitS:
ARM GAS  /tmp/ccgHkDVU.s 			page 24


 1312              	.LVL59:
 1313              	.LFB132:
 1314              		.loc 1 499 28 view -0
 1315              		.cfi_startproc
 1316              		@ args = 0, pretend = 0, frame = 0
 1317              		@ frame_needed = 0, uses_anonymous_args = 0
 1318              		.loc 1 500 3 view .LVU398
 1319              		.loc 1 500 13 is_stmt 0 view .LVU399
 1320 0000 0D4B     		ldr	r3, .L40
 1321              		.loc 1 499 28 view .LVU400
 1322 0002 70B5     		push	{r4, r5, r6, lr}
 1323              		.cfi_def_cfa_offset 16
 1324              		.cfi_offset 4, -16
 1325              		.cfi_offset 5, -12
 1326              		.cfi_offset 6, -8
 1327              		.cfi_offset 14, -4
 1328              		.loc 1 500 13 view .LVU401
 1329 0004 9C69     		ldr	r4, [r3, #24]
 1330              	.LVL60:
 1331              		.loc 1 503 3 is_stmt 1 view .LVU402
 1332              		.loc 1 510 10 is_stmt 0 view .LVU403
 1333 0006 2500     		movs	r5, r4
 1334              		.loc 1 503 18 view .LVU404
 1335 0008 6062     		str	r0, [r4, #36]
 1336              		.loc 1 506 3 is_stmt 1 view .LVU405
 1337              		.loc 1 506 30 view .LVU406
 1338              		.loc 1 510 3 view .LVU407
 1339              	.LBB428:
 1340              	.LBB429:
 1341              		.loc 2 538 20 is_stmt 0 view .LVU408
 1342 000a A06A     		ldr	r0, [r4, #40]
 1343              	.LVL61:
 1344              		.loc 2 538 20 view .LVU409
 1345              	.LBE429:
 1346              	.LBE428:
 1347              		.loc 1 510 10 view .LVU410
 1348 000c 2835     		adds	r5, r5, #40
 1349              	.LVL62:
 1350              	.LBB432:
 1351              	.LBI428:
 1352              		.loc 2 536 20 is_stmt 1 view .LVU411
 1353              	.LBB430:
 1354              		.loc 2 538 3 view .LVU412
 1355              		.loc 2 538 3 is_stmt 0 view .LVU413
 1356              	.LBE430:
 1357              	.LBE432:
 1358              		.loc 1 510 9 view .LVU414
 1359 000e A842     		cmp	r0, r5
 1360 0010 06D0     		beq	.L36
 1361              	.LVL63:
 1362              	.L37:
 1363              		.loc 1 511 5 is_stmt 1 view .LVU415
 1364              	.LBB433:
 1365              	.LBI433:
 1366              		.loc 2 589 25 view .LVU416
 1367              	.LBB434:
 1368              		.loc 2 591 3 view .LVU417
ARM GAS  /tmp/ccgHkDVU.s 			page 25


 1369              		.loc 2 592 3 view .LVU418
 1370              		.loc 2 592 13 is_stmt 0 view .LVU419
 1371 0012 0368     		ldr	r3, [r0]
 1372 0014 A362     		str	r3, [r4, #40]
 1373              		.loc 2 594 3 is_stmt 1 view .LVU420
 1374              	.LVL64:
 1375              		.loc 2 594 3 is_stmt 0 view .LVU421
 1376              	.LBE434:
 1377              	.LBE433:
 1378              		.loc 1 511 12 view .LVU422
 1379 0016 FFF7FEFF 		bl	chSchReadyI
 1380              	.LVL65:
 1381              	.LBB435:
 1382              		.loc 2 536 20 is_stmt 1 view .LVU423
 1383              	.LBB431:
 1384              		.loc 2 538 3 view .LVU424
 1385              		.loc 2 538 20 is_stmt 0 view .LVU425
 1386 001a A06A     		ldr	r0, [r4, #40]
 1387              	.LVL66:
 1388              		.loc 2 538 20 view .LVU426
 1389              	.LBE431:
 1390              	.LBE435:
 1391              		.loc 1 510 9 view .LVU427
 1392 001c A842     		cmp	r0, r5
 1393 001e F8D1     		bne	.L37
 1394              	.LVL67:
 1395              	.L36:
 1396              		.loc 1 524 3 is_stmt 1 view .LVU428
 1397              		.loc 1 524 9 is_stmt 0 view .LVU429
 1398 0020 2223     		movs	r3, #34
 1399              		.loc 1 524 6 view .LVU430
 1400 0022 E35C     		ldrb	r3, [r4, r3]
 1401 0024 002B     		cmp	r3, #0
 1402 0026 03D1     		bne	.L38
 1403              		.loc 1 525 5 is_stmt 1 view .LVU431
 1404 0028 6269     		ldr	r2, [r4, #20]
 1405 002a 2369     		ldr	r3, [r4, #16]
 1406 002c 1361     		str	r3, [r2, #16]
 1407              		.loc 1 525 5 view .LVU432
 1408 002e 5A61     		str	r2, [r3, #20]
 1409              	.L38:
 1410              		.loc 1 525 19 discriminator 1 view .LVU433
 1411              		.loc 1 531 3 discriminator 1 view .LVU434
 1412 0030 0F20     		movs	r0, #15
 1413 0032 FFF7FEFF 		bl	chSchGoSleepS
 1414              	.LVL68:
 1415              		.loc 1 534 3 discriminator 1 view .LVU435
 1416              		.loc 1 534 3 discriminator 1 view .LVU436
 1417              		.loc 1 535 1 is_stmt 0 discriminator 1 view .LVU437
 1418              		@ sp needed
 1419              	.LVL69:
 1420              	.LVL70:
 1421              		.loc 1 535 1 discriminator 1 view .LVU438
 1422 0036 70BD     		pop	{r4, r5, r6, pc}
 1423              	.L41:
 1424              		.align	2
 1425              	.L40:
ARM GAS  /tmp/ccgHkDVU.s 			page 26


 1426 0038 00000000 		.word	ch
 1427              		.cfi_endproc
 1428              	.LFE132:
 1429              		.size	chThdExitS, .-chThdExitS
 1430              		.section	.text.chThdExit,"ax",%progbits
 1431              		.align	1
 1432              		.p2align 4,,15
 1433              		.global	chThdExit
 1434              		.syntax unified
 1435              		.code	16
 1436              		.thumb_func
 1437              		.fpu softvfp
 1438              		.type	chThdExit, %function
 1439              	chThdExit:
 1440              	.LVL71:
 1441              	.LFB131:
 1442              		.loc 1 475 27 is_stmt 1 view -0
 1443              		.cfi_startproc
 1444              		@ args = 0, pretend = 0, frame = 0
 1445              		@ frame_needed = 0, uses_anonymous_args = 0
 1446              		.loc 1 477 3 view .LVU440
 1447              	.LBB436:
 1448              	.LBI436:
 1449              		.loc 3 374 20 view .LVU441
 1450              	.LBE436:
 1451              		.loc 3 376 3 view .LVU442
 1452              	.LBB444:
 1453              	.LBB437:
 1454              	.LBI437:
 1455              		.loc 4 371 20 view .LVU443
 1456              	.LBE437:
 1457              	.LBE444:
 1458              		.loc 4 373 3 view .LVU444
 1459              	.LBB445:
 1460              	.LBB442:
 1461              	.LBB438:
 1462              	.LBI438:
 1463              		.loc 5 342 57 view .LVU445
 1464              	.LBB439:
 1465              		.loc 5 344 3 view .LVU446
 1466              	.LBE439:
 1467              	.LBE438:
 1468              	.LBE442:
 1469              	.LBE445:
 1470              		.loc 1 475 27 is_stmt 0 view .LVU447
 1471 0000 10B5     		push	{r4, lr}
 1472              		.cfi_def_cfa_offset 8
 1473              		.cfi_offset 4, -8
 1474              		.cfi_offset 14, -4
 1475              	.LBB446:
 1476              	.LBB443:
 1477              	.LBB441:
 1478              	.LBB440:
 1479              		.loc 5 344 3 view .LVU448
 1480              		.syntax divided
 1481              	@ 344 "ChibiOS/os/common/ext/CMSIS/include/core_cmFunc.h" 1
 1482 0002 72B6     		cpsid i
ARM GAS  /tmp/ccgHkDVU.s 			page 27


 1483              	@ 0 "" 2
 1484              		.thumb
 1485              		.syntax unified
 1486              	.LBE440:
 1487              	.LBE441:
 1488              	.LBE443:
 1489              	.LBE446:
 1490              		.loc 3 377 34 is_stmt 1 view .LVU449
 1491              		.loc 3 378 20 view .LVU450
 1492              		.loc 1 478 3 view .LVU451
 1493 0004 FFF7FEFF 		bl	chThdExitS
 1494              	.LVL72:
 1495              		.loc 1 480 1 is_stmt 0 view .LVU452
 1496              		@ sp needed
 1497 0008 10BD     		pop	{r4, pc}
 1498              		.cfi_endproc
 1499              	.LFE131:
 1500              		.size	chThdExit, .-chThdExit
 1501 000a C046     		.section	.text.chThdWait,"ax",%progbits
 1502              		.align	1
 1503              		.p2align 4,,15
 1504              		.global	chThdWait
 1505              		.syntax unified
 1506              		.code	16
 1507              		.thumb_func
 1508              		.fpu softvfp
 1509              		.type	chThdWait, %function
 1510              	chThdWait:
 1511              	.LVL73:
 1512              	.LFB133:
 1513              		.loc 1 557 31 is_stmt 1 view -0
 1514              		.cfi_startproc
 1515              		@ args = 0, pretend = 0, frame = 0
 1516              		@ frame_needed = 0, uses_anonymous_args = 0
 1517              		.loc 1 558 3 view .LVU454
 1518              		.loc 1 560 3 view .LVU455
 1519              		.loc 1 560 3 view .LVU456
 1520              		.loc 1 562 3 view .LVU457
 1521              	.LBB447:
 1522              	.LBI447:
 1523              		.loc 3 374 20 view .LVU458
 1524              	.LBE447:
 1525              		.loc 3 376 3 view .LVU459
 1526              	.LBB455:
 1527              	.LBB448:
 1528              	.LBI448:
 1529              		.loc 4 371 20 view .LVU460
 1530              	.LBE448:
 1531              	.LBE455:
 1532              		.loc 4 373 3 view .LVU461
 1533              	.LBB456:
 1534              	.LBB453:
 1535              	.LBB449:
 1536              	.LBI449:
 1537              		.loc 5 342 57 view .LVU462
 1538              	.LBB450:
 1539              		.loc 5 344 3 view .LVU463
ARM GAS  /tmp/ccgHkDVU.s 			page 28


 1540              	.LBE450:
 1541              	.LBE449:
 1542              	.LBE453:
 1543              	.LBE456:
 1544              		.loc 1 557 31 is_stmt 0 view .LVU464
 1545 0000 70B5     		push	{r4, r5, r6, lr}
 1546              		.cfi_def_cfa_offset 16
 1547              		.cfi_offset 4, -16
 1548              		.cfi_offset 5, -12
 1549              		.cfi_offset 6, -8
 1550              		.cfi_offset 14, -4
 1551              		.loc 1 557 31 view .LVU465
 1552 0002 0400     		movs	r4, r0
 1553              	.LBB457:
 1554              	.LBB454:
 1555              	.LBB452:
 1556              	.LBB451:
 1557              		.loc 5 344 3 view .LVU466
 1558              		.syntax divided
 1559              	@ 344 "ChibiOS/os/common/ext/CMSIS/include/core_cmFunc.h" 1
 1560 0004 72B6     		cpsid i
 1561              	@ 0 "" 2
 1562              		.thumb
 1563              		.syntax unified
 1564              	.LBE451:
 1565              	.LBE452:
 1566              	.LBE454:
 1567              	.LBE457:
 1568              		.loc 3 377 34 is_stmt 1 view .LVU467
 1569              		.loc 3 378 20 view .LVU468
 1570              		.loc 1 563 3 view .LVU469
 1571              		.loc 1 563 3 view .LVU470
 1572              		.loc 1 565 3 view .LVU471
 1573              		.loc 1 565 3 view .LVU472
 1574              		.loc 1 568 3 view .LVU473
 1575              		.loc 1 568 9 is_stmt 0 view .LVU474
 1576 0006 2023     		movs	r3, #32
 1577              		.loc 1 568 6 view .LVU475
 1578 0008 C35C     		ldrb	r3, [r0, r3]
 1579 000a 0F2B     		cmp	r3, #15
 1580 000c 07D0     		beq	.L44
 1581              		.loc 1 569 5 is_stmt 1 view .LVU476
 1582 000e 074B     		ldr	r3, .L48
 1583              	.LBB458:
 1584              	.LBB459:
 1585              		.loc 2 585 18 is_stmt 0 view .LVU477
 1586 0010 826A     		ldr	r2, [r0, #40]
 1587              	.LBE459:
 1588              	.LBE458:
 1589              		.loc 1 569 5 view .LVU478
 1590 0012 9B69     		ldr	r3, [r3, #24]
 1591              	.LVL74:
 1592              	.LBB461:
 1593              	.LBI458:
 1594              		.loc 2 583 20 is_stmt 1 view .LVU479
 1595              	.LBB460:
 1596              		.loc 2 585 3 view .LVU480
ARM GAS  /tmp/ccgHkDVU.s 			page 29


 1597              		.loc 2 585 18 is_stmt 0 view .LVU481
 1598 0014 1A60     		str	r2, [r3]
 1599              		.loc 2 586 3 is_stmt 1 view .LVU482
 1600              		.loc 2 586 13 is_stmt 0 view .LVU483
 1601 0016 8362     		str	r3, [r0, #40]
 1602              	.LVL75:
 1603              		.loc 2 586 13 view .LVU484
 1604              	.LBE460:
 1605              	.LBE461:
 1606              		.loc 1 570 5 is_stmt 1 view .LVU485
 1607 0018 0920     		movs	r0, #9
 1608              	.LVL76:
 1609              		.loc 1 570 5 is_stmt 0 view .LVU486
 1610 001a FFF7FEFF 		bl	chSchGoSleepS
 1611              	.LVL77:
 1612              	.L44:
 1613              		.loc 1 572 3 is_stmt 1 view .LVU487
 1614              		.loc 1 572 7 is_stmt 0 view .LVU488
 1615 001e 656A     		ldr	r5, [r4, #36]
 1616              	.LVL78:
 1617              		.loc 1 573 3 is_stmt 1 view .LVU489
 1618              	.LBB462:
 1619              	.LBI462:
 1620              		.loc 3 386 20 view .LVU490
 1621              	.LBB463:
 1622              		.loc 3 388 22 view .LVU491
 1623              		.loc 3 389 33 view .LVU492
 1624              		.loc 3 395 3 view .LVU493
 1625              		.loc 3 395 3 view .LVU494
 1626              		.loc 3 399 3 view .LVU495
 1627              	.LBB464:
 1628              	.LBI464:
 1629              		.loc 4 380 20 view .LVU496
 1630              	.LBE464:
 1631              	.LBE463:
 1632              	.LBE462:
 1633              		.loc 4 382 3 view .LVU497
 1634              	.LBB469:
 1635              	.LBB468:
 1636              	.LBB467:
 1637              	.LBB465:
 1638              	.LBI465:
 1639              		.loc 5 331 57 view .LVU498
 1640              	.LBB466:
 1641              		.loc 5 333 3 view .LVU499
 1642              		.syntax divided
 1643              	@ 333 "ChibiOS/os/common/ext/CMSIS/include/core_cmFunc.h" 1
 1644 0020 62B6     		cpsie i
 1645              	@ 0 "" 2
 1646              		.thumb
 1647              		.syntax unified
 1648              	.LBE466:
 1649              	.LBE465:
 1650              	.LBE467:
 1651              	.LBE468:
 1652              	.LBE469:
 1653              		.loc 1 577 3 view .LVU500
ARM GAS  /tmp/ccgHkDVU.s 			page 30


 1654 0022 2000     		movs	r0, r4
 1655 0024 FFF7FEFF 		bl	chThdRelease
 1656              	.LVL79:
 1657              		.loc 1 580 3 view .LVU501
 1658              		.loc 1 581 1 is_stmt 0 view .LVU502
 1659              		@ sp needed
 1660 0028 2800     		movs	r0, r5
 1661              	.LVL80:
 1662              	.LVL81:
 1663              		.loc 1 581 1 view .LVU503
 1664 002a 70BD     		pop	{r4, r5, r6, pc}
 1665              	.L49:
 1666              		.align	2
 1667              	.L48:
 1668 002c 00000000 		.word	ch
 1669              		.cfi_endproc
 1670              	.LFE133:
 1671              		.size	chThdWait, .-chThdWait
 1672              		.section	.text.chThdSetPriority,"ax",%progbits
 1673              		.align	1
 1674              		.p2align 4,,15
 1675              		.global	chThdSetPriority
 1676              		.syntax unified
 1677              		.code	16
 1678              		.thumb_func
 1679              		.fpu softvfp
 1680              		.type	chThdSetPriority, %function
 1681              	chThdSetPriority:
 1682              	.LVL82:
 1683              	.LFB134:
 1684              		.loc 1 596 43 is_stmt 1 view -0
 1685              		.cfi_startproc
 1686              		@ args = 0, pretend = 0, frame = 0
 1687              		@ frame_needed = 0, uses_anonymous_args = 0
 1688              		.loc 1 597 3 view .LVU505
 1689              		.loc 1 599 3 view .LVU506
 1690              		.loc 1 599 3 view .LVU507
 1691              		.loc 1 601 3 view .LVU508
 1692              	.LBB470:
 1693              	.LBI470:
 1694              		.loc 3 374 20 view .LVU509
 1695              	.LBE470:
 1696              		.loc 3 376 3 view .LVU510
 1697              	.LBB478:
 1698              	.LBB471:
 1699              	.LBI471:
 1700              		.loc 4 371 20 view .LVU511
 1701              	.LBE471:
 1702              	.LBE478:
 1703              		.loc 4 373 3 view .LVU512
 1704              	.LBB479:
 1705              	.LBB476:
 1706              	.LBB472:
 1707              	.LBI472:
 1708              		.loc 5 342 57 view .LVU513
 1709              	.LBB473:
 1710              		.loc 5 344 3 view .LVU514
ARM GAS  /tmp/ccgHkDVU.s 			page 31


 1711              	.LBE473:
 1712              	.LBE472:
 1713              	.LBE476:
 1714              	.LBE479:
 1715              		.loc 1 596 43 is_stmt 0 view .LVU515
 1716 0000 10B5     		push	{r4, lr}
 1717              		.cfi_def_cfa_offset 8
 1718              		.cfi_offset 4, -8
 1719              		.cfi_offset 14, -4
 1720              	.LBB480:
 1721              	.LBB477:
 1722              	.LBB475:
 1723              	.LBB474:
 1724              		.loc 5 344 3 view .LVU516
 1725              		.syntax divided
 1726              	@ 344 "ChibiOS/os/common/ext/CMSIS/include/core_cmFunc.h" 1
 1727 0002 72B6     		cpsid i
 1728              	@ 0 "" 2
 1729              		.thumb
 1730              		.syntax unified
 1731              	.LBE474:
 1732              	.LBE475:
 1733              	.LBE477:
 1734              	.LBE480:
 1735              		.loc 3 377 34 is_stmt 1 view .LVU517
 1736              		.loc 3 378 20 view .LVU518
 1737              		.loc 1 603 3 view .LVU519
 1738              		.loc 1 603 13 is_stmt 0 view .LVU520
 1739 0004 074B     		ldr	r3, .L53
 1740 0006 9B69     		ldr	r3, [r3, #24]
 1741              		.loc 1 603 11 view .LVU521
 1742 0008 5C6B     		ldr	r4, [r3, #52]
 1743              	.LVL83:
 1744              		.loc 1 604 3 is_stmt 1 view .LVU522
 1745              		.loc 1 604 13 is_stmt 0 view .LVU523
 1746 000a 9A68     		ldr	r2, [r3, #8]
 1747              		.loc 1 604 6 view .LVU524
 1748 000c A242     		cmp	r2, r4
 1749 000e 01D0     		beq	.L51
 1750              		.loc 1 604 40 discriminator 1 view .LVU525
 1751 0010 8242     		cmp	r2, r0
 1752 0012 00D2     		bcs	.L52
 1753              	.L51:
 1754              		.loc 1 605 5 is_stmt 1 view .LVU526
 1755              		.loc 1 605 17 is_stmt 0 view .LVU527
 1756 0014 9860     		str	r0, [r3, #8]
 1757              	.L52:
 1758              		.loc 1 607 3 is_stmt 1 view .LVU528
 1759              		.loc 1 607 19 is_stmt 0 view .LVU529
 1760 0016 5863     		str	r0, [r3, #52]
 1761              		.loc 1 612 3 is_stmt 1 view .LVU530
 1762 0018 FFF7FEFF 		bl	chSchRescheduleS
 1763              	.LVL84:
 1764              		.loc 1 613 3 view .LVU531
 1765              	.LBB481:
 1766              	.LBI481:
 1767              		.loc 3 386 20 view .LVU532
ARM GAS  /tmp/ccgHkDVU.s 			page 32


 1768              	.LBB482:
 1769              		.loc 3 388 22 view .LVU533
 1770              		.loc 3 389 33 view .LVU534
 1771              		.loc 3 395 3 view .LVU535
 1772              		.loc 3 395 3 view .LVU536
 1773              		.loc 3 399 3 view .LVU537
 1774              	.LBB483:
 1775              	.LBI483:
 1776              		.loc 4 380 20 view .LVU538
 1777              	.LBE483:
 1778              	.LBE482:
 1779              	.LBE481:
 1780              		.loc 4 382 3 view .LVU539
 1781              	.LBB488:
 1782              	.LBB487:
 1783              	.LBB486:
 1784              	.LBB484:
 1785              	.LBI484:
 1786              		.loc 5 331 57 view .LVU540
 1787              	.LBB485:
 1788              		.loc 5 333 3 view .LVU541
 1789              		.syntax divided
 1790              	@ 333 "ChibiOS/os/common/ext/CMSIS/include/core_cmFunc.h" 1
 1791 001c 62B6     		cpsie i
 1792              	@ 0 "" 2
 1793              		.thumb
 1794              		.syntax unified
 1795              	.LBE485:
 1796              	.LBE484:
 1797              	.LBE486:
 1798              	.LBE487:
 1799              	.LBE488:
 1800              		.loc 1 615 3 view .LVU542
 1801              		.loc 1 616 1 is_stmt 0 view .LVU543
 1802 001e 2000     		movs	r0, r4
 1803              		@ sp needed
 1804              	.LVL85:
 1805              		.loc 1 616 1 view .LVU544
 1806 0020 10BD     		pop	{r4, pc}
 1807              	.L54:
 1808 0022 C046     		.align	2
 1809              	.L53:
 1810 0024 00000000 		.word	ch
 1811              		.cfi_endproc
 1812              	.LFE134:
 1813              		.size	chThdSetPriority, .-chThdSetPriority
 1814              		.section	.text.chThdTerminate,"ax",%progbits
 1815              		.align	1
 1816              		.p2align 4,,15
 1817              		.global	chThdTerminate
 1818              		.syntax unified
 1819              		.code	16
 1820              		.thumb_func
 1821              		.fpu softvfp
 1822              		.type	chThdTerminate, %function
 1823              	chThdTerminate:
 1824              	.LVL86:
ARM GAS  /tmp/ccgHkDVU.s 			page 33


 1825              	.LFB135:
 1826              		.loc 1 630 35 is_stmt 1 view -0
 1827              		.cfi_startproc
 1828              		@ args = 0, pretend = 0, frame = 0
 1829              		@ frame_needed = 0, uses_anonymous_args = 0
 1830              		@ link register save eliminated.
 1831              		.loc 1 632 3 view .LVU546
 1832              	.LBB489:
 1833              	.LBI489:
 1834              		.loc 3 374 20 view .LVU547
 1835              	.LBE489:
 1836              		.loc 3 376 3 view .LVU548
 1837              	.LBB494:
 1838              	.LBB490:
 1839              	.LBI490:
 1840              		.loc 4 371 20 view .LVU549
 1841              	.LBE490:
 1842              	.LBE494:
 1843              		.loc 4 373 3 view .LVU550
 1844              	.LBB495:
 1845              	.LBB493:
 1846              	.LBB491:
 1847              	.LBI491:
 1848              		.loc 5 342 57 view .LVU551
 1849              	.LBB492:
 1850              		.loc 5 344 3 view .LVU552
 1851              		.syntax divided
 1852              	@ 344 "ChibiOS/os/common/ext/CMSIS/include/core_cmFunc.h" 1
 1853 0000 72B6     		cpsid i
 1854              	@ 0 "" 2
 1855              		.thumb
 1856              		.syntax unified
 1857              	.LBE492:
 1858              	.LBE491:
 1859              	.LBE493:
 1860              	.LBE495:
 1861              		.loc 3 377 34 view .LVU553
 1862              		.loc 3 378 20 view .LVU554
 1863              		.loc 1 633 3 view .LVU555
 1864              		.loc 1 633 13 is_stmt 0 view .LVU556
 1865 0002 2122     		movs	r2, #33
 1866 0004 0421     		movs	r1, #4
 1867 0006 835C     		ldrb	r3, [r0, r2]
 1868 0008 0B43     		orrs	r3, r1
 1869 000a 8354     		strb	r3, [r0, r2]
 1870              		.loc 1 634 3 is_stmt 1 view .LVU557
 1871              	.LBB496:
 1872              	.LBI496:
 1873              		.loc 3 386 20 view .LVU558
 1874              	.LBB497:
 1875              		.loc 3 388 22 view .LVU559
 1876              		.loc 3 389 33 view .LVU560
 1877              		.loc 3 395 3 view .LVU561
 1878              		.loc 3 395 3 view .LVU562
 1879              		.loc 3 399 3 view .LVU563
 1880              	.LBB498:
 1881              	.LBI498:
ARM GAS  /tmp/ccgHkDVU.s 			page 34


 1882              		.loc 4 380 20 view .LVU564
 1883              	.LBE498:
 1884              	.LBE497:
 1885              	.LBE496:
 1886              		.loc 4 382 3 view .LVU565
 1887              	.LBB503:
 1888              	.LBB502:
 1889              	.LBB501:
 1890              	.LBB499:
 1891              	.LBI499:
 1892              		.loc 5 331 57 view .LVU566
 1893              	.LBB500:
 1894              		.loc 5 333 3 view .LVU567
 1895              		.syntax divided
 1896              	@ 333 "ChibiOS/os/common/ext/CMSIS/include/core_cmFunc.h" 1
 1897 000c 62B6     		cpsie i
 1898              	@ 0 "" 2
 1899              		.thumb
 1900              		.syntax unified
 1901              	.LBE500:
 1902              	.LBE499:
 1903              	.LBE501:
 1904              	.LBE502:
 1905              	.LBE503:
 1906              		.loc 1 635 1 is_stmt 0 view .LVU568
 1907              		@ sp needed
 1908 000e 7047     		bx	lr
 1909              		.cfi_endproc
 1910              	.LFE135:
 1911              		.size	chThdTerminate, .-chThdTerminate
 1912              		.section	.text.chThdSleep,"ax",%progbits
 1913              		.align	1
 1914              		.p2align 4,,15
 1915              		.global	chThdSleep
 1916              		.syntax unified
 1917              		.code	16
 1918              		.thumb_func
 1919              		.fpu softvfp
 1920              		.type	chThdSleep, %function
 1921              	chThdSleep:
 1922              	.LVL87:
 1923              	.LFB136:
 1924              		.loc 1 649 33 is_stmt 1 view -0
 1925              		.cfi_startproc
 1926              		@ args = 0, pretend = 0, frame = 0
 1927              		@ frame_needed = 0, uses_anonymous_args = 0
 1928              		.loc 1 651 3 view .LVU570
 1929              	.LBB504:
 1930              	.LBI504:
 1931              		.loc 3 374 20 view .LVU571
 1932              	.LBE504:
 1933              		.loc 3 376 3 view .LVU572
 1934              	.LBB512:
 1935              	.LBB505:
 1936              	.LBI505:
 1937              		.loc 4 371 20 view .LVU573
 1938              	.LBE505:
ARM GAS  /tmp/ccgHkDVU.s 			page 35


 1939              	.LBE512:
 1940              		.loc 4 373 3 view .LVU574
 1941              	.LBB513:
 1942              	.LBB510:
 1943              	.LBB506:
 1944              	.LBI506:
 1945              		.loc 5 342 57 view .LVU575
 1946              	.LBB507:
 1947              		.loc 5 344 3 view .LVU576
 1948              	.LBE507:
 1949              	.LBE506:
 1950              	.LBE510:
 1951              	.LBE513:
 1952              		.loc 1 649 33 is_stmt 0 view .LVU577
 1953 0000 10B5     		push	{r4, lr}
 1954              		.cfi_def_cfa_offset 8
 1955              		.cfi_offset 4, -8
 1956              		.cfi_offset 14, -4
 1957              		.loc 1 649 33 view .LVU578
 1958 0002 0100     		movs	r1, r0
 1959              	.LBB514:
 1960              	.LBB511:
 1961              	.LBB509:
 1962              	.LBB508:
 1963              		.loc 5 344 3 view .LVU579
 1964              		.syntax divided
 1965              	@ 344 "ChibiOS/os/common/ext/CMSIS/include/core_cmFunc.h" 1
 1966 0004 72B6     		cpsid i
 1967              	@ 0 "" 2
 1968              		.thumb
 1969              		.syntax unified
 1970              	.LBE508:
 1971              	.LBE509:
 1972              	.LBE511:
 1973              	.LBE514:
 1974              		.loc 3 377 34 is_stmt 1 view .LVU580
 1975              		.loc 3 378 20 view .LVU581
 1976              		.loc 1 652 3 view .LVU582
 1977              	.LVL88:
 1978              	.LBB515:
 1979              	.LBI515:
 1980              		.loc 6 381 20 view .LVU583
 1981              	.LBB516:
 1982              		.loc 6 383 3 view .LVU584
 1983              		.loc 6 383 3 view .LVU585
 1984              		.loc 6 385 3 view .LVU586
 1985              		.loc 6 385 10 is_stmt 0 view .LVU587
 1986 0006 0820     		movs	r0, #8
 1987              	.LVL89:
 1988              		.loc 6 385 10 view .LVU588
 1989 0008 FFF7FEFF 		bl	chSchGoSleepTimeoutS
 1990              	.LVL90:
 1991              		.loc 6 385 10 view .LVU589
 1992              	.LBE516:
 1993              	.LBE515:
 1994              		.loc 1 653 3 is_stmt 1 view .LVU590
 1995              	.LBB517:
ARM GAS  /tmp/ccgHkDVU.s 			page 36


 1996              	.LBI517:
 1997              		.loc 3 386 20 view .LVU591
 1998              	.LBB518:
 1999              		.loc 3 388 22 view .LVU592
 2000              		.loc 3 389 33 view .LVU593
 2001              		.loc 3 395 3 view .LVU594
 2002              		.loc 3 395 3 view .LVU595
 2003              		.loc 3 399 3 view .LVU596
 2004              	.LBB519:
 2005              	.LBI519:
 2006              		.loc 4 380 20 view .LVU597
 2007              	.LBE519:
 2008              	.LBE518:
 2009              	.LBE517:
 2010              		.loc 4 382 3 view .LVU598
 2011              	.LBB524:
 2012              	.LBB523:
 2013              	.LBB522:
 2014              	.LBB520:
 2015              	.LBI520:
 2016              		.loc 5 331 57 view .LVU599
 2017              	.LBB521:
 2018              		.loc 5 333 3 view .LVU600
 2019              		.syntax divided
 2020              	@ 333 "ChibiOS/os/common/ext/CMSIS/include/core_cmFunc.h" 1
 2021 000c 62B6     		cpsie i
 2022              	@ 0 "" 2
 2023              		.thumb
 2024              		.syntax unified
 2025              	.LBE521:
 2026              	.LBE520:
 2027              	.LBE522:
 2028              	.LBE523:
 2029              	.LBE524:
 2030              		.loc 1 654 1 is_stmt 0 view .LVU601
 2031              		@ sp needed
 2032 000e 10BD     		pop	{r4, pc}
 2033              		.cfi_endproc
 2034              	.LFE136:
 2035              		.size	chThdSleep, .-chThdSleep
 2036              		.section	.text.chThdSleepUntil,"ax",%progbits
 2037              		.align	1
 2038              		.p2align 4,,15
 2039              		.global	chThdSleepUntil
 2040              		.syntax unified
 2041              		.code	16
 2042              		.thumb_func
 2043              		.fpu softvfp
 2044              		.type	chThdSleepUntil, %function
 2045              	chThdSleepUntil:
 2046              	.LVL91:
 2047              	.LFB137:
 2048              		.loc 1 669 38 is_stmt 1 view -0
 2049              		.cfi_startproc
 2050              		@ args = 0, pretend = 0, frame = 0
 2051              		@ frame_needed = 0, uses_anonymous_args = 0
 2052              		.loc 1 671 3 view .LVU603
ARM GAS  /tmp/ccgHkDVU.s 			page 37


 2053              	.LBB525:
 2054              	.LBI525:
 2055              		.loc 3 374 20 view .LVU604
 2056              	.LBE525:
 2057              		.loc 3 376 3 view .LVU605
 2058              	.LBB533:
 2059              	.LBB526:
 2060              	.LBI526:
 2061              		.loc 4 371 20 view .LVU606
 2062              	.LBE526:
 2063              	.LBE533:
 2064              		.loc 4 373 3 view .LVU607
 2065              	.LBB534:
 2066              	.LBB531:
 2067              	.LBB527:
 2068              	.LBI527:
 2069              		.loc 5 342 57 view .LVU608
 2070              	.LBB528:
 2071              		.loc 5 344 3 view .LVU609
 2072              	.LBE528:
 2073              	.LBE527:
 2074              	.LBE531:
 2075              	.LBE534:
 2076              		.loc 1 669 38 is_stmt 0 view .LVU610
 2077 0000 10B5     		push	{r4, lr}
 2078              		.cfi_def_cfa_offset 8
 2079              		.cfi_offset 4, -8
 2080              		.cfi_offset 14, -4
 2081              	.LBB535:
 2082              	.LBB532:
 2083              	.LBB530:
 2084              	.LBB529:
 2085              		.loc 5 344 3 view .LVU611
 2086              		.syntax divided
 2087              	@ 344 "ChibiOS/os/common/ext/CMSIS/include/core_cmFunc.h" 1
 2088 0002 72B6     		cpsid i
 2089              	@ 0 "" 2
 2090              		.thumb
 2091              		.syntax unified
 2092              	.LBE529:
 2093              	.LBE530:
 2094              	.LBE532:
 2095              	.LBE535:
 2096              		.loc 3 377 34 is_stmt 1 view .LVU612
 2097              		.loc 3 378 20 view .LVU613
 2098              		.loc 1 672 3 view .LVU614
 2099              	.LBB536:
 2100              	.LBI536:
 2101              		.file 7 "ChibiOS/os/rt/include/chvt.h"
 2102              		.loc 7 228 25 view .LVU615
 2103              	.LBE536:
 2104              		.loc 7 233 3 view .LVU616
 2105              	.LBB541:
 2106              	.LBB537:
 2107              	.LBI537:
 2108              		.file 8 "ChibiOS/os/common/ports/ARMCMx/chcore_timer.h"
 2109              		.loc 8 105 25 view .LVU617
ARM GAS  /tmp/ccgHkDVU.s 			page 38


 2110              	.LBE537:
 2111              	.LBE541:
 2112              		.loc 8 107 3 view .LVU618
 2113              	.LBB542:
 2114              	.LBB540:
 2115              	.LBB538:
 2116              	.LBI538:
 2117              		.file 9 "ChibiOS/os/hal/ports/STM32/LLD/TIMv1/hal_st_lld.h"
 2118              		.loc 9 139 25 view .LVU619
 2119              	.LBB539:
 2120              		.loc 9 141 3 view .LVU620
 2121              		.loc 9 141 10 is_stmt 0 view .LVU621
 2122 0004 8023     		movs	r3, #128
 2123 0006 DB05     		lsls	r3, r3, #23
 2124 0008 596A     		ldr	r1, [r3, #36]
 2125              	.LBE539:
 2126              	.LBE538:
 2127              	.LBE540:
 2128              	.LBE542:
 2129              		.loc 1 672 8 view .LVU622
 2130 000a 411A     		subs	r1, r0, r1
 2131              	.LVL92:
 2132              		.loc 1 673 3 is_stmt 1 view .LVU623
 2133              		.loc 1 673 6 is_stmt 0 view .LVU624
 2134 000c 01D1     		bne	.L62
 2135              	.LVL93:
 2136              	.L58:
 2137              		.loc 1 676 3 is_stmt 1 view .LVU625
 2138              	.LBB543:
 2139              	.LBI543:
 2140              		.loc 3 386 20 view .LVU626
 2141              	.LBB544:
 2142              		.loc 3 388 22 view .LVU627
 2143              		.loc 3 389 33 view .LVU628
 2144              		.loc 3 395 3 view .LVU629
 2145              		.loc 3 395 3 view .LVU630
 2146              		.loc 3 399 3 view .LVU631
 2147              	.LBB545:
 2148              	.LBI545:
 2149              		.loc 4 380 20 view .LVU632
 2150              	.LBE545:
 2151              	.LBE544:
 2152              	.LBE543:
 2153              		.loc 4 382 3 view .LVU633
 2154              	.LBB550:
 2155              	.LBB549:
 2156              	.LBB548:
 2157              	.LBB546:
 2158              	.LBI546:
 2159              		.loc 5 331 57 view .LVU634
 2160              	.LBB547:
 2161              		.loc 5 333 3 view .LVU635
 2162              		.syntax divided
 2163              	@ 333 "ChibiOS/os/common/ext/CMSIS/include/core_cmFunc.h" 1
 2164 000e 62B6     		cpsie i
 2165              	@ 0 "" 2
 2166              		.thumb
ARM GAS  /tmp/ccgHkDVU.s 			page 39


 2167              		.syntax unified
 2168              	.LBE547:
 2169              	.LBE546:
 2170              	.LBE548:
 2171              	.LBE549:
 2172              	.LBE550:
 2173              		.loc 1 677 1 is_stmt 0 view .LVU636
 2174              		@ sp needed
 2175 0010 10BD     		pop	{r4, pc}
 2176              	.LVL94:
 2177              	.L62:
 2178              		.loc 1 674 5 is_stmt 1 view .LVU637
 2179              	.LBB551:
 2180              	.LBI551:
 2181              		.loc 6 381 20 view .LVU638
 2182              	.LBB552:
 2183              		.loc 6 383 3 view .LVU639
 2184              		.loc 6 383 3 view .LVU640
 2185              		.loc 6 385 3 view .LVU641
 2186              		.loc 6 385 10 is_stmt 0 view .LVU642
 2187 0012 0820     		movs	r0, #8
 2188 0014 FFF7FEFF 		bl	chSchGoSleepTimeoutS
 2189              	.LVL95:
 2190              		.loc 6 385 10 view .LVU643
 2191 0018 F9E7     		b	.L58
 2192              	.LBE552:
 2193              	.LBE551:
 2194              		.cfi_endproc
 2195              	.LFE137:
 2196              		.size	chThdSleepUntil, .-chThdSleepUntil
 2197 001a C046     		.section	.text.chThdSleepUntilWindowed,"ax",%progbits
 2198              		.align	1
 2199              		.p2align 4,,15
 2200              		.global	chThdSleepUntilWindowed
 2201              		.syntax unified
 2202              		.code	16
 2203              		.thumb_func
 2204              		.fpu softvfp
 2205              		.type	chThdSleepUntilWindowed, %function
 2206              	chThdSleepUntilWindowed:
 2207              	.LVL96:
 2208              	.LFB138:
 2209              		.loc 1 693 67 is_stmt 1 view -0
 2210              		.cfi_startproc
 2211              		@ args = 0, pretend = 0, frame = 0
 2212              		@ frame_needed = 0, uses_anonymous_args = 0
 2213              		.loc 1 694 3 view .LVU645
 2214              		.loc 1 696 3 view .LVU646
 2215              	.LBB553:
 2216              	.LBI553:
 2217              		.loc 3 374 20 view .LVU647
 2218              	.LBE553:
 2219              		.loc 3 376 3 view .LVU648
 2220              	.LBB561:
 2221              	.LBB554:
 2222              	.LBI554:
 2223              		.loc 4 371 20 view .LVU649
ARM GAS  /tmp/ccgHkDVU.s 			page 40


 2224              	.LBE554:
 2225              	.LBE561:
 2226              		.loc 4 373 3 view .LVU650
 2227              	.LBB562:
 2228              	.LBB559:
 2229              	.LBB555:
 2230              	.LBI555:
 2231              		.loc 5 342 57 view .LVU651
 2232              	.LBB556:
 2233              		.loc 5 344 3 view .LVU652
 2234              	.LBE556:
 2235              	.LBE555:
 2236              	.LBE559:
 2237              	.LBE562:
 2238              		.loc 1 693 67 is_stmt 0 view .LVU653
 2239 0000 10B5     		push	{r4, lr}
 2240              		.cfi_def_cfa_offset 8
 2241              		.cfi_offset 4, -8
 2242              		.cfi_offset 14, -4
 2243              		.loc 1 693 67 view .LVU654
 2244 0002 0C00     		movs	r4, r1
 2245              	.LBB563:
 2246              	.LBB560:
 2247              	.LBB558:
 2248              	.LBB557:
 2249              		.loc 5 344 3 view .LVU655
 2250              		.syntax divided
 2251              	@ 344 "ChibiOS/os/common/ext/CMSIS/include/core_cmFunc.h" 1
 2252 0004 72B6     		cpsid i
 2253              	@ 0 "" 2
 2254              		.thumb
 2255              		.syntax unified
 2256              	.LBE557:
 2257              	.LBE558:
 2258              	.LBE560:
 2259              	.LBE563:
 2260              		.loc 3 377 34 is_stmt 1 view .LVU656
 2261              		.loc 3 378 20 view .LVU657
 2262              		.loc 1 697 3 view .LVU658
 2263              	.LBB564:
 2264              	.LBI564:
 2265              		.loc 7 228 25 view .LVU659
 2266              	.LBE564:
 2267              		.loc 7 233 3 view .LVU660
 2268              	.LBB569:
 2269              	.LBB565:
 2270              	.LBI565:
 2271              		.loc 8 105 25 view .LVU661
 2272              	.LBE565:
 2273              	.LBE569:
 2274              		.loc 8 107 3 view .LVU662
 2275              	.LBB570:
 2276              	.LBB568:
 2277              	.LBB566:
 2278              	.LBI566:
 2279              		.loc 9 139 25 view .LVU663
 2280              	.LBB567:
ARM GAS  /tmp/ccgHkDVU.s 			page 41


 2281              		.loc 9 141 3 view .LVU664
 2282              		.loc 9 141 10 is_stmt 0 view .LVU665
 2283 0006 8023     		movs	r3, #128
 2284 0008 DB05     		lsls	r3, r3, #23
 2285 000a 596A     		ldr	r1, [r3, #36]
 2286              	.LVL97:
 2287              		.loc 9 141 10 view .LVU666
 2288              	.LBE567:
 2289              	.LBE566:
 2290              	.LBE568:
 2291              	.LBE570:
 2292              		.loc 1 698 3 is_stmt 1 view .LVU667
 2293              	.LBB571:
 2294              	.LBI571:
 2295              		.loc 7 284 20 view .LVU668
 2296              	.LBB572:
 2297              		.loc 7 288 3 view .LVU669
 2298              		.loc 7 288 34 is_stmt 0 view .LVU670
 2299 000c 0B1A     		subs	r3, r1, r0
 2300              		.loc 7 288 61 view .LVU671
 2301 000e 201A     		subs	r0, r4, r0
 2302              	.LVL98:
 2303              		.loc 7 288 61 view .LVU672
 2304              	.LBE572:
 2305              	.LBE571:
 2306              		.loc 1 698 6 view .LVU673
 2307 0010 8342     		cmp	r3, r0
 2308 0012 02D3     		bcc	.L65
 2309              	.LVL99:
 2310              	.L64:
 2311              		.loc 1 701 3 is_stmt 1 view .LVU674
 2312              	.LBB573:
 2313              	.LBI573:
 2314              		.loc 3 386 20 view .LVU675
 2315              	.LBB574:
 2316              		.loc 3 388 22 view .LVU676
 2317              		.loc 3 389 33 view .LVU677
 2318              		.loc 3 395 3 view .LVU678
 2319              		.loc 3 395 3 view .LVU679
 2320              		.loc 3 399 3 view .LVU680
 2321              	.LBB575:
 2322              	.LBI575:
 2323              		.loc 4 380 20 view .LVU681
 2324              	.LBE575:
 2325              	.LBE574:
 2326              	.LBE573:
 2327              		.loc 4 382 3 view .LVU682
 2328              	.LBB580:
 2329              	.LBB579:
 2330              	.LBB578:
 2331              	.LBB576:
 2332              	.LBI576:
 2333              		.loc 5 331 57 view .LVU683
 2334              	.LBB577:
 2335              		.loc 5 333 3 view .LVU684
 2336              		.syntax divided
 2337              	@ 333 "ChibiOS/os/common/ext/CMSIS/include/core_cmFunc.h" 1
ARM GAS  /tmp/ccgHkDVU.s 			page 42


 2338 0014 62B6     		cpsie i
 2339              	@ 0 "" 2
 2340              		.thumb
 2341              		.syntax unified
 2342              	.LBE577:
 2343              	.LBE576:
 2344              	.LBE578:
 2345              	.LBE579:
 2346              	.LBE580:
 2347              		.loc 1 703 3 view .LVU685
 2348              		.loc 1 704 1 is_stmt 0 view .LVU686
 2349 0016 2000     		movs	r0, r4
 2350              		@ sp needed
 2351              	.LVL100:
 2352              		.loc 1 704 1 view .LVU687
 2353 0018 10BD     		pop	{r4, pc}
 2354              	.LVL101:
 2355              	.L65:
 2356              		.loc 1 699 5 is_stmt 1 view .LVU688
 2357              	.LBB581:
 2358              	.LBI581:
 2359              		.loc 6 381 20 view .LVU689
 2360              	.LBB582:
 2361              		.loc 6 383 3 view .LVU690
 2362              		.loc 6 383 3 view .LVU691
 2363              		.loc 6 385 3 view .LVU692
 2364              	.LBE582:
 2365              	.LBE581:
 2366              		.loc 1 699 5 is_stmt 0 view .LVU693
 2367 001a 611A     		subs	r1, r4, r1
 2368              	.LVL102:
 2369              	.LBB584:
 2370              	.LBB583:
 2371              		.loc 6 385 10 view .LVU694
 2372 001c 0820     		movs	r0, #8
 2373 001e FFF7FEFF 		bl	chSchGoSleepTimeoutS
 2374              	.LVL103:
 2375              		.loc 6 385 10 view .LVU695
 2376 0022 F7E7     		b	.L64
 2377              	.LBE583:
 2378              	.LBE584:
 2379              		.cfi_endproc
 2380              	.LFE138:
 2381              		.size	chThdSleepUntilWindowed, .-chThdSleepUntilWindowed
 2382              		.section	.text.chThdYield,"ax",%progbits
 2383              		.align	1
 2384              		.p2align 4,,15
 2385              		.global	chThdYield
 2386              		.syntax unified
 2387              		.code	16
 2388              		.thumb_func
 2389              		.fpu softvfp
 2390              		.type	chThdYield, %function
 2391              	chThdYield:
 2392              	.LFB139:
 2393              		.loc 1 713 23 is_stmt 1 view -0
 2394              		.cfi_startproc
ARM GAS  /tmp/ccgHkDVU.s 			page 43


 2395              		@ args = 0, pretend = 0, frame = 0
 2396              		@ frame_needed = 0, uses_anonymous_args = 0
 2397              		.loc 1 715 3 view .LVU697
 2398              	.LBB585:
 2399              	.LBI585:
 2400              		.loc 3 374 20 view .LVU698
 2401              	.LBE585:
 2402              		.loc 3 376 3 view .LVU699
 2403              	.LBB593:
 2404              	.LBB586:
 2405              	.LBI586:
 2406              		.loc 4 371 20 view .LVU700
 2407              	.LBE586:
 2408              	.LBE593:
 2409              		.loc 4 373 3 view .LVU701
 2410              	.LBB594:
 2411              	.LBB591:
 2412              	.LBB587:
 2413              	.LBI587:
 2414              		.loc 5 342 57 view .LVU702
 2415              	.LBB588:
 2416              		.loc 5 344 3 view .LVU703
 2417              	.LBE588:
 2418              	.LBE587:
 2419              	.LBE591:
 2420              	.LBE594:
 2421              		.loc 1 713 23 is_stmt 0 view .LVU704
 2422 0000 10B5     		push	{r4, lr}
 2423              		.cfi_def_cfa_offset 8
 2424              		.cfi_offset 4, -8
 2425              		.cfi_offset 14, -4
 2426              	.LBB595:
 2427              	.LBB592:
 2428              	.LBB590:
 2429              	.LBB589:
 2430              		.loc 5 344 3 view .LVU705
 2431              		.syntax divided
 2432              	@ 344 "ChibiOS/os/common/ext/CMSIS/include/core_cmFunc.h" 1
 2433 0002 72B6     		cpsid i
 2434              	@ 0 "" 2
 2435              		.thumb
 2436              		.syntax unified
 2437              	.LBE589:
 2438              	.LBE590:
 2439              	.LBE592:
 2440              	.LBE595:
 2441              		.loc 3 377 34 is_stmt 1 view .LVU706
 2442              		.loc 3 378 20 view .LVU707
 2443              		.loc 1 716 3 view .LVU708
 2444              	.LBB596:
 2445              	.LBI596:
 2446              		.loc 2 687 20 view .LVU709
 2447              	.LBB597:
 2448              		.loc 2 689 21 view .LVU710
 2449              		.loc 2 691 3 view .LVU711
 2450              	.LBB598:
 2451              	.LBI598:
ARM GAS  /tmp/ccgHkDVU.s 			page 44


 2452              		.loc 2 673 20 view .LVU712
 2453              	.LBB599:
 2454              		.loc 2 675 21 view .LVU713
 2455              		.loc 2 677 3 view .LVU714
 2456              		.loc 2 677 10 is_stmt 0 view .LVU715
 2457 0004 054B     		ldr	r3, .L69
 2458 0006 1A68     		ldr	r2, [r3]
 2459              		.loc 2 677 45 view .LVU716
 2460 0008 9B69     		ldr	r3, [r3, #24]
 2461              	.LBE599:
 2462              	.LBE598:
 2463              		.loc 2 691 6 view .LVU717
 2464 000a 9268     		ldr	r2, [r2, #8]
 2465 000c 9B68     		ldr	r3, [r3, #8]
 2466 000e 9A42     		cmp	r2, r3
 2467 0010 01D2     		bcs	.L68
 2468              	.L67:
 2469              	.LBE597:
 2470              	.LBE596:
 2471              		.loc 1 717 3 is_stmt 1 view .LVU718
 2472              	.LBB601:
 2473              	.LBI601:
 2474              		.loc 3 386 20 view .LVU719
 2475              	.LBB602:
 2476              		.loc 3 388 22 view .LVU720
 2477              		.loc 3 389 33 view .LVU721
 2478              		.loc 3 395 3 view .LVU722
 2479              		.loc 3 395 3 view .LVU723
 2480              		.loc 3 399 3 view .LVU724
 2481              	.LBB603:
 2482              	.LBI603:
 2483              		.loc 4 380 20 view .LVU725
 2484              	.LBE603:
 2485              	.LBE602:
 2486              	.LBE601:
 2487              		.loc 4 382 3 view .LVU726
 2488              	.LBB608:
 2489              	.LBB607:
 2490              	.LBB606:
 2491              	.LBB604:
 2492              	.LBI604:
 2493              		.loc 5 331 57 view .LVU727
 2494              	.LBB605:
 2495              		.loc 5 333 3 view .LVU728
 2496              		.syntax divided
 2497              	@ 333 "ChibiOS/os/common/ext/CMSIS/include/core_cmFunc.h" 1
 2498 0012 62B6     		cpsie i
 2499              	@ 0 "" 2
 2500              		.thumb
 2501              		.syntax unified
 2502              	.LBE605:
 2503              	.LBE604:
 2504              	.LBE606:
 2505              	.LBE607:
 2506              	.LBE608:
 2507              		.loc 1 718 1 is_stmt 0 view .LVU729
 2508              		@ sp needed
ARM GAS  /tmp/ccgHkDVU.s 			page 45


 2509 0014 10BD     		pop	{r4, pc}
 2510              	.L68:
 2511              	.LBB609:
 2512              	.LBB600:
 2513              		.loc 2 692 5 is_stmt 1 view .LVU730
 2514 0016 FFF7FEFF 		bl	chSchDoRescheduleBehind
 2515              	.LVL104:
 2516 001a FAE7     		b	.L67
 2517              	.L70:
 2518              		.align	2
 2519              	.L69:
 2520 001c 00000000 		.word	ch
 2521              	.LBE600:
 2522              	.LBE609:
 2523              		.cfi_endproc
 2524              	.LFE139:
 2525              		.size	chThdYield, .-chThdYield
 2526              		.section	.text.chThdSuspendS,"ax",%progbits
 2527              		.align	1
 2528              		.p2align 4,,15
 2529              		.global	chThdSuspendS
 2530              		.syntax unified
 2531              		.code	16
 2532              		.thumb_func
 2533              		.fpu softvfp
 2534              		.type	chThdSuspendS, %function
 2535              	chThdSuspendS:
 2536              	.LVL105:
 2537              	.LFB140:
 2538              		.loc 1 730 46 view -0
 2539              		.cfi_startproc
 2540              		@ args = 0, pretend = 0, frame = 0
 2541              		@ frame_needed = 0, uses_anonymous_args = 0
 2542              		.loc 1 731 3 view .LVU732
 2543              	.LBB610:
 2544              	.LBI610:
 2545              		.loc 6 275 25 view .LVU733
 2546              	.LBB611:
 2547              		.loc 6 277 3 view .LVU734
 2548              	.LBE611:
 2549              	.LBE610:
 2550              		.loc 1 730 46 is_stmt 0 view .LVU735
 2551 0000 10B5     		push	{r4, lr}
 2552              		.cfi_def_cfa_offset 8
 2553              		.cfi_offset 4, -8
 2554              		.cfi_offset 14, -4
 2555              	.LBB614:
 2556              	.LBB612:
 2557              		.loc 6 277 18 view .LVU736
 2558 0002 054C     		ldr	r4, .L72
 2559              	.LBE612:
 2560              	.LBE614:
 2561              		.loc 1 740 1 view .LVU737
 2562              		@ sp needed
 2563              	.LBB615:
 2564              	.LBB613:
 2565              		.loc 6 277 18 view .LVU738
ARM GAS  /tmp/ccgHkDVU.s 			page 46


 2566 0004 A369     		ldr	r3, [r4, #24]
 2567              	.LVL106:
 2568              		.loc 6 277 18 view .LVU739
 2569              	.LBE613:
 2570              	.LBE615:
 2571              		.loc 1 733 3 is_stmt 1 view .LVU740
 2572              		.loc 1 733 3 view .LVU741
 2573              		.loc 1 735 3 view .LVU742
 2574              		.loc 1 735 8 is_stmt 0 view .LVU743
 2575 0006 0360     		str	r3, [r0]
 2576              		.loc 1 736 3 is_stmt 1 view .LVU744
 2577              		.loc 1 736 15 is_stmt 0 view .LVU745
 2578 0008 5862     		str	r0, [r3, #36]
 2579              		.loc 1 737 3 is_stmt 1 view .LVU746
 2580 000a 0320     		movs	r0, #3
 2581              	.LVL107:
 2582              		.loc 1 737 3 is_stmt 0 view .LVU747
 2583 000c FFF7FEFF 		bl	chSchGoSleepS
 2584              	.LVL108:
 2585              		.loc 1 739 3 is_stmt 1 view .LVU748
 2586              	.LBB616:
 2587              	.LBI616:
 2588              		.loc 6 275 25 view .LVU749
 2589              	.LBB617:
 2590              		.loc 6 277 3 view .LVU750
 2591              	.LBE617:
 2592              	.LBE616:
 2593              		.loc 1 739 28 is_stmt 0 view .LVU751
 2594 0010 A369     		ldr	r3, [r4, #24]
 2595 0012 586A     		ldr	r0, [r3, #36]
 2596              		.loc 1 740 1 view .LVU752
 2597 0014 10BD     		pop	{r4, pc}
 2598              	.L73:
 2599 0016 C046     		.align	2
 2600              	.L72:
 2601 0018 00000000 		.word	ch
 2602              		.cfi_endproc
 2603              	.LFE140:
 2604              		.size	chThdSuspendS, .-chThdSuspendS
 2605              		.section	.text.chThdSuspendTimeoutS,"ax",%progbits
 2606              		.align	1
 2607              		.p2align 4,,15
 2608              		.global	chThdSuspendTimeoutS
 2609              		.syntax unified
 2610              		.code	16
 2611              		.thumb_func
 2612              		.fpu softvfp
 2613              		.type	chThdSuspendTimeoutS, %function
 2614              	chThdSuspendTimeoutS:
 2615              	.LVL109:
 2616              	.LFB141:
 2617              		.loc 1 761 72 is_stmt 1 view -0
 2618              		.cfi_startproc
 2619              		@ args = 0, pretend = 0, frame = 0
 2620              		@ frame_needed = 0, uses_anonymous_args = 0
 2621              		.loc 1 762 3 view .LVU754
 2622              	.LBB618:
ARM GAS  /tmp/ccgHkDVU.s 			page 47


 2623              	.LBI618:
 2624              		.loc 6 275 25 view .LVU755
 2625              	.LBB619:
 2626              		.loc 6 277 3 view .LVU756
 2627              		.loc 6 277 18 is_stmt 0 view .LVU757
 2628 0000 064B     		ldr	r3, .L77
 2629              	.LBE619:
 2630              	.LBE618:
 2631              		.loc 1 761 72 view .LVU758
 2632 0002 10B5     		push	{r4, lr}
 2633              		.cfi_def_cfa_offset 8
 2634              		.cfi_offset 4, -8
 2635              		.cfi_offset 14, -4
 2636              	.LBB621:
 2637              	.LBB620:
 2638              		.loc 6 277 18 view .LVU759
 2639 0004 9B69     		ldr	r3, [r3, #24]
 2640              	.LVL110:
 2641              		.loc 6 277 18 view .LVU760
 2642              	.LBE620:
 2643              	.LBE621:
 2644              		.loc 1 764 3 is_stmt 1 view .LVU761
 2645              		.loc 1 764 3 view .LVU762
 2646              		.loc 1 766 3 view .LVU763
 2647              		.loc 1 766 6 is_stmt 0 view .LVU764
 2648 0006 0029     		cmp	r1, #0
 2649 0008 05D0     		beq	.L76
 2650              		.loc 1 770 3 is_stmt 1 view .LVU765
 2651              		.loc 1 770 8 is_stmt 0 view .LVU766
 2652 000a 0360     		str	r3, [r0]
 2653              		.loc 1 771 3 is_stmt 1 view .LVU767
 2654              		.loc 1 771 15 is_stmt 0 view .LVU768
 2655 000c 5862     		str	r0, [r3, #36]
 2656              		.loc 1 773 3 is_stmt 1 view .LVU769
 2657              		.loc 1 773 10 is_stmt 0 view .LVU770
 2658 000e 0320     		movs	r0, #3
 2659              	.LVL111:
 2660              		.loc 1 773 10 view .LVU771
 2661 0010 FFF7FEFF 		bl	chSchGoSleepTimeoutS
 2662              	.LVL112:
 2663              	.L74:
 2664              		.loc 1 774 1 view .LVU772
 2665              		@ sp needed
 2666 0014 10BD     		pop	{r4, pc}
 2667              	.LVL113:
 2668              	.L76:
 2669              		.loc 1 767 12 view .LVU773
 2670 0016 0120     		movs	r0, #1
 2671              	.LVL114:
 2672              		.loc 1 767 12 view .LVU774
 2673 0018 4042     		rsbs	r0, r0, #0
 2674 001a FBE7     		b	.L74
 2675              	.L78:
 2676              		.align	2
 2677              	.L77:
 2678 001c 00000000 		.word	ch
 2679              		.cfi_endproc
ARM GAS  /tmp/ccgHkDVU.s 			page 48


 2680              	.LFE141:
 2681              		.size	chThdSuspendTimeoutS, .-chThdSuspendTimeoutS
 2682              		.section	.text.chThdResumeI,"ax",%progbits
 2683              		.align	1
 2684              		.p2align 4,,15
 2685              		.global	chThdResumeI
 2686              		.syntax unified
 2687              		.code	16
 2688              		.thumb_func
 2689              		.fpu softvfp
 2690              		.type	chThdResumeI, %function
 2691              	chThdResumeI:
 2692              	.LVL115:
 2693              	.LFB142:
 2694              		.loc 1 786 55 is_stmt 1 view -0
 2695              		.cfi_startproc
 2696              		@ args = 0, pretend = 0, frame = 0
 2697              		@ frame_needed = 0, uses_anonymous_args = 0
 2698              		.loc 1 788 3 view .LVU776
 2699              		.loc 1 788 7 is_stmt 0 view .LVU777
 2700 0000 0368     		ldr	r3, [r0]
 2701              		.loc 1 786 55 view .LVU778
 2702 0002 10B5     		push	{r4, lr}
 2703              		.cfi_def_cfa_offset 8
 2704              		.cfi_offset 4, -8
 2705              		.cfi_offset 14, -4
 2706              		.loc 1 788 6 view .LVU779
 2707 0004 002B     		cmp	r3, #0
 2708 0006 05D0     		beq	.L79
 2709              	.LBB622:
 2710              		.loc 1 789 5 is_stmt 1 view .LVU780
 2711              	.LVL116:
 2712              		.loc 1 791 5 view .LVU781
 2713              		.loc 1 791 5 view .LVU782
 2714              		.loc 1 793 5 view .LVU783
 2715              		.loc 1 793 10 is_stmt 0 view .LVU784
 2716 0008 0022     		movs	r2, #0
 2717 000a 0260     		str	r2, [r0]
 2718              		.loc 1 794 5 is_stmt 1 view .LVU785
 2719              		.loc 1 794 18 is_stmt 0 view .LVU786
 2720 000c 5962     		str	r1, [r3, #36]
 2721              		.loc 1 795 5 is_stmt 1 view .LVU787
 2722              		.loc 1 795 12 is_stmt 0 view .LVU788
 2723 000e 1800     		movs	r0, r3
 2724              	.LVL117:
 2725              		.loc 1 795 12 view .LVU789
 2726 0010 FFF7FEFF 		bl	chSchReadyI
 2727              	.LVL118:
 2728              	.L79:
 2729              		.loc 1 795 12 view .LVU790
 2730              	.LBE622:
 2731              		.loc 1 797 1 view .LVU791
 2732              		@ sp needed
 2733 0014 10BD     		pop	{r4, pc}
 2734              		.cfi_endproc
 2735              	.LFE142:
 2736              		.size	chThdResumeI, .-chThdResumeI
ARM GAS  /tmp/ccgHkDVU.s 			page 49


 2737 0016 C046     		.section	.text.chThdResumeS,"ax",%progbits
 2738              		.align	1
 2739              		.p2align 4,,15
 2740              		.global	chThdResumeS
 2741              		.syntax unified
 2742              		.code	16
 2743              		.thumb_func
 2744              		.fpu softvfp
 2745              		.type	chThdResumeS, %function
 2746              	chThdResumeS:
 2747              	.LVL119:
 2748              	.LFB143:
 2749              		.loc 1 809 55 is_stmt 1 view -0
 2750              		.cfi_startproc
 2751              		@ args = 0, pretend = 0, frame = 0
 2752              		@ frame_needed = 0, uses_anonymous_args = 0
 2753              		.loc 1 811 3 view .LVU793
 2754              		.loc 1 811 7 is_stmt 0 view .LVU794
 2755 0000 0368     		ldr	r3, [r0]
 2756              		.loc 1 809 55 view .LVU795
 2757 0002 10B5     		push	{r4, lr}
 2758              		.cfi_def_cfa_offset 8
 2759              		.cfi_offset 4, -8
 2760              		.cfi_offset 14, -4
 2761              		.loc 1 811 6 view .LVU796
 2762 0004 002B     		cmp	r3, #0
 2763 0006 04D0     		beq	.L84
 2764              	.LBB623:
 2765              		.loc 1 812 5 is_stmt 1 view .LVU797
 2766              	.LVL120:
 2767              		.loc 1 814 5 view .LVU798
 2768              		.loc 1 814 5 view .LVU799
 2769              		.loc 1 816 5 view .LVU800
 2770              		.loc 1 816 10 is_stmt 0 view .LVU801
 2771 0008 0022     		movs	r2, #0
 2772 000a 0260     		str	r2, [r0]
 2773              		.loc 1 817 5 is_stmt 1 view .LVU802
 2774 000c 1800     		movs	r0, r3
 2775              	.LVL121:
 2776              		.loc 1 817 5 is_stmt 0 view .LVU803
 2777 000e FFF7FEFF 		bl	chSchWakeupS
 2778              	.LVL122:
 2779              	.L84:
 2780              		.loc 1 817 5 view .LVU804
 2781              	.LBE623:
 2782              		.loc 1 819 1 view .LVU805
 2783              		@ sp needed
 2784 0012 10BD     		pop	{r4, pc}
 2785              		.cfi_endproc
 2786              	.LFE143:
 2787              		.size	chThdResumeS, .-chThdResumeS
 2788              		.section	.text.chThdResume,"ax",%progbits
 2789              		.align	1
 2790              		.p2align 4,,15
 2791              		.global	chThdResume
 2792              		.syntax unified
 2793              		.code	16
ARM GAS  /tmp/ccgHkDVU.s 			page 50


 2794              		.thumb_func
 2795              		.fpu softvfp
 2796              		.type	chThdResume, %function
 2797              	chThdResume:
 2798              	.LVL123:
 2799              	.LFB144:
 2800              		.loc 1 831 54 is_stmt 1 view -0
 2801              		.cfi_startproc
 2802              		@ args = 0, pretend = 0, frame = 0
 2803              		@ frame_needed = 0, uses_anonymous_args = 0
 2804              		.loc 1 833 3 view .LVU807
 2805              	.LBB624:
 2806              	.LBI624:
 2807              		.loc 3 374 20 view .LVU808
 2808              	.LBE624:
 2809              		.loc 3 376 3 view .LVU809
 2810              	.LBB632:
 2811              	.LBB625:
 2812              	.LBI625:
 2813              		.loc 4 371 20 view .LVU810
 2814              	.LBE625:
 2815              	.LBE632:
 2816              		.loc 4 373 3 view .LVU811
 2817              	.LBB633:
 2818              	.LBB630:
 2819              	.LBB626:
 2820              	.LBI626:
 2821              		.loc 5 342 57 view .LVU812
 2822              	.LBB627:
 2823              		.loc 5 344 3 view .LVU813
 2824              	.LBE627:
 2825              	.LBE626:
 2826              	.LBE630:
 2827              	.LBE633:
 2828              		.loc 1 831 54 is_stmt 0 view .LVU814
 2829 0000 10B5     		push	{r4, lr}
 2830              		.cfi_def_cfa_offset 8
 2831              		.cfi_offset 4, -8
 2832              		.cfi_offset 14, -4
 2833              	.LBB634:
 2834              	.LBB631:
 2835              	.LBB629:
 2836              	.LBB628:
 2837              		.loc 5 344 3 view .LVU815
 2838              		.syntax divided
 2839              	@ 344 "ChibiOS/os/common/ext/CMSIS/include/core_cmFunc.h" 1
 2840 0002 72B6     		cpsid i
 2841              	@ 0 "" 2
 2842              		.thumb
 2843              		.syntax unified
 2844              	.LBE628:
 2845              	.LBE629:
 2846              	.LBE631:
 2847              	.LBE634:
 2848              		.loc 3 377 34 is_stmt 1 view .LVU816
 2849              		.loc 3 378 20 view .LVU817
 2850              		.loc 1 834 3 view .LVU818
ARM GAS  /tmp/ccgHkDVU.s 			page 51


 2851              	.LVL124:
 2852              	.LBB635:
 2853              	.LBI635:
 2854              		.loc 1 809 6 view .LVU819
 2855              	.LBB636:
 2856              		.loc 1 811 3 view .LVU820
 2857              		.loc 1 811 7 is_stmt 0 view .LVU821
 2858 0004 0368     		ldr	r3, [r0]
 2859              		.loc 1 811 6 view .LVU822
 2860 0006 002B     		cmp	r3, #0
 2861 0008 04D0     		beq	.L90
 2862              	.LBB637:
 2863              		.loc 1 812 5 is_stmt 1 view .LVU823
 2864              	.LVL125:
 2865              		.loc 1 814 5 view .LVU824
 2866              		.loc 1 814 5 view .LVU825
 2867              		.loc 1 816 5 view .LVU826
 2868              		.loc 1 816 10 is_stmt 0 view .LVU827
 2869 000a 0022     		movs	r2, #0
 2870 000c 0260     		str	r2, [r0]
 2871              		.loc 1 817 5 is_stmt 1 view .LVU828
 2872 000e 1800     		movs	r0, r3
 2873              	.LVL126:
 2874              		.loc 1 817 5 is_stmt 0 view .LVU829
 2875 0010 FFF7FEFF 		bl	chSchWakeupS
 2876              	.LVL127:
 2877              	.L90:
 2878              		.loc 1 817 5 view .LVU830
 2879              	.LBE637:
 2880              	.LBE636:
 2881              	.LBE635:
 2882              		.loc 1 835 3 is_stmt 1 view .LVU831
 2883              	.LBB638:
 2884              	.LBI638:
 2885              		.loc 3 386 20 view .LVU832
 2886              	.LBB639:
 2887              		.loc 3 388 22 view .LVU833
 2888              		.loc 3 389 33 view .LVU834
 2889              		.loc 3 395 3 view .LVU835
 2890              		.loc 3 395 3 view .LVU836
 2891              		.loc 3 399 3 view .LVU837
 2892              	.LBB640:
 2893              	.LBI640:
 2894              		.loc 4 380 20 view .LVU838
 2895              	.LBE640:
 2896              	.LBE639:
 2897              	.LBE638:
 2898              		.loc 4 382 3 view .LVU839
 2899              	.LBB645:
 2900              	.LBB644:
 2901              	.LBB643:
 2902              	.LBB641:
 2903              	.LBI641:
 2904              		.loc 5 331 57 view .LVU840
 2905              	.LBB642:
 2906              		.loc 5 333 3 view .LVU841
 2907              		.syntax divided
ARM GAS  /tmp/ccgHkDVU.s 			page 52


 2908              	@ 333 "ChibiOS/os/common/ext/CMSIS/include/core_cmFunc.h" 1
 2909 0014 62B6     		cpsie i
 2910              	@ 0 "" 2
 2911              		.thumb
 2912              		.syntax unified
 2913              	.LBE642:
 2914              	.LBE641:
 2915              	.LBE643:
 2916              	.LBE644:
 2917              	.LBE645:
 2918              		.loc 1 836 1 is_stmt 0 view .LVU842
 2919              		@ sp needed
 2920 0016 10BD     		pop	{r4, pc}
 2921              		.cfi_endproc
 2922              	.LFE144:
 2923              		.size	chThdResume, .-chThdResume
 2924              		.section	.text.chThdEnqueueTimeoutS,"ax",%progbits
 2925              		.align	1
 2926              		.p2align 4,,15
 2927              		.global	chThdEnqueueTimeoutS
 2928              		.syntax unified
 2929              		.code	16
 2930              		.thumb_func
 2931              		.fpu softvfp
 2932              		.type	chThdEnqueueTimeoutS, %function
 2933              	chThdEnqueueTimeoutS:
 2934              	.LVL128:
 2935              	.LFB145:
 2936              		.loc 1 861 69 is_stmt 1 view -0
 2937              		.cfi_startproc
 2938              		@ args = 0, pretend = 0, frame = 0
 2939              		@ frame_needed = 0, uses_anonymous_args = 0
 2940              		.loc 1 863 3 view .LVU844
 2941              		.loc 1 861 69 is_stmt 0 view .LVU845
 2942 0000 10B5     		push	{r4, lr}
 2943              		.cfi_def_cfa_offset 8
 2944              		.cfi_offset 4, -8
 2945              		.cfi_offset 14, -4
 2946              		.loc 1 863 6 view .LVU846
 2947 0002 0029     		cmp	r1, #0
 2948 0004 0AD0     		beq	.L96
 2949              		.loc 1 867 3 is_stmt 1 view .LVU847
 2950 0006 074B     		ldr	r3, .L97
 2951              	.LBB646:
 2952              	.LBB647:
 2953              		.loc 2 612 35 is_stmt 0 view .LVU848
 2954 0008 4268     		ldr	r2, [r0, #4]
 2955              	.LBE647:
 2956              	.LBE646:
 2957              		.loc 1 867 3 view .LVU849
 2958 000a 9B69     		ldr	r3, [r3, #24]
 2959              	.LVL129:
 2960              	.LBB649:
 2961              	.LBI646:
 2962              		.loc 2 609 20 is_stmt 1 view .LVU850
 2963              	.LBB648:
 2964              		.loc 2 611 3 view .LVU851
ARM GAS  /tmp/ccgHkDVU.s 			page 53


 2965              		.loc 2 611 30 is_stmt 0 view .LVU852
 2966 000c 1860     		str	r0, [r3]
 2967              		.loc 2 612 3 is_stmt 1 view .LVU853
 2968              		.loc 2 612 30 is_stmt 0 view .LVU854
 2969 000e 5A60     		str	r2, [r3, #4]
 2970              		.loc 2 613 3 is_stmt 1 view .LVU855
 2971              		.loc 2 613 30 is_stmt 0 view .LVU856
 2972 0010 1360     		str	r3, [r2]
 2973              		.loc 2 614 3 is_stmt 1 view .LVU857
 2974              		.loc 2 614 30 is_stmt 0 view .LVU858
 2975 0012 4360     		str	r3, [r0, #4]
 2976              	.LVL130:
 2977              		.loc 2 614 30 view .LVU859
 2978              	.LBE648:
 2979              	.LBE649:
 2980              		.loc 1 869 3 is_stmt 1 view .LVU860
 2981              		.loc 1 869 10 is_stmt 0 view .LVU861
 2982 0014 0420     		movs	r0, #4
 2983              	.LVL131:
 2984              		.loc 1 869 10 view .LVU862
 2985 0016 FFF7FEFF 		bl	chSchGoSleepTimeoutS
 2986              	.LVL132:
 2987              	.L94:
 2988              		.loc 1 870 1 view .LVU863
 2989              		@ sp needed
 2990 001a 10BD     		pop	{r4, pc}
 2991              	.LVL133:
 2992              	.L96:
 2993              		.loc 1 864 12 view .LVU864
 2994 001c 0120     		movs	r0, #1
 2995              	.LVL134:
 2996              		.loc 1 864 12 view .LVU865
 2997 001e 4042     		rsbs	r0, r0, #0
 2998 0020 FBE7     		b	.L94
 2999              	.L98:
 3000 0022 C046     		.align	2
 3001              	.L97:
 3002 0024 00000000 		.word	ch
 3003              		.cfi_endproc
 3004              	.LFE145:
 3005              		.size	chThdEnqueueTimeoutS, .-chThdEnqueueTimeoutS
 3006              		.section	.text.chThdDequeueNextI,"ax",%progbits
 3007              		.align	1
 3008              		.p2align 4,,15
 3009              		.global	chThdDequeueNextI
 3010              		.syntax unified
 3011              		.code	16
 3012              		.thumb_func
 3013              		.fpu softvfp
 3014              		.type	chThdDequeueNextI, %function
 3015              	chThdDequeueNextI:
 3016              	.LVL135:
 3017              	.LFB146:
 3018              		.loc 1 881 57 is_stmt 1 view -0
 3019              		.cfi_startproc
 3020              		@ args = 0, pretend = 0, frame = 0
 3021              		@ frame_needed = 0, uses_anonymous_args = 0
ARM GAS  /tmp/ccgHkDVU.s 			page 54


 3022              		.loc 1 883 3 view .LVU867
 3023              	.LBB650:
 3024              	.LBI650:
 3025              		.loc 2 575 20 view .LVU868
 3026              	.LBB651:
 3027              		.loc 2 577 3 view .LVU869
 3028              		.loc 2 577 20 is_stmt 0 view .LVU870
 3029 0000 0368     		ldr	r3, [r0]
 3030              	.LVL136:
 3031              		.loc 2 577 20 view .LVU871
 3032              	.LBE651:
 3033              	.LBE650:
 3034              		.loc 1 881 57 view .LVU872
 3035 0002 10B5     		push	{r4, lr}
 3036              		.cfi_def_cfa_offset 8
 3037              		.cfi_offset 4, -8
 3038              		.cfi_offset 14, -4
 3039              		.loc 1 883 6 view .LVU873
 3040 0004 9842     		cmp	r0, r3
 3041 0006 06D0     		beq	.L99
 3042              		.loc 1 884 5 is_stmt 1 view .LVU874
 3043              	.LVL137:
 3044              	.LBB652:
 3045              	.LBI652:
 3046              		.loc 6 429 20 view .LVU875
 3047              	.LBB653:
 3048              		.loc 6 430 3 view .LVU876
 3049              		.loc 6 432 3 view .LVU877
 3050              		.loc 6 432 3 view .LVU878
 3051              		.loc 6 434 3 view .LVU879
 3052              	.LBB654:
 3053              	.LBI654:
 3054              		.loc 2 617 25 view .LVU880
 3055              	.LBB655:
 3056              		.loc 2 618 3 view .LVU881
 3057              		.loc 2 620 3 view .LVU882
 3058              		.loc 2 620 36 is_stmt 0 view .LVU883
 3059 0008 1A68     		ldr	r2, [r3]
 3060              		.loc 2 620 25 view .LVU884
 3061 000a 0260     		str	r2, [r0]
 3062              		.loc 2 621 3 is_stmt 1 view .LVU885
 3063              		.loc 2 621 25 is_stmt 0 view .LVU886
 3064 000c 5060     		str	r0, [r2, #4]
 3065              		.loc 2 623 3 is_stmt 1 view .LVU887
 3066              	.LVL138:
 3067              		.loc 2 623 3 is_stmt 0 view .LVU888
 3068              	.LBE655:
 3069              	.LBE654:
 3070              		.loc 6 436 3 is_stmt 1 view .LVU889
 3071              		.loc 6 436 3 view .LVU890
 3072              		.loc 6 438 3 view .LVU891
 3073              		.loc 6 438 16 is_stmt 0 view .LVU892
 3074 000e 5962     		str	r1, [r3, #36]
 3075              		.loc 6 439 3 is_stmt 1 view .LVU893
 3076              		.loc 6 439 10 is_stmt 0 view .LVU894
 3077 0010 1800     		movs	r0, r3
 3078              	.LVL139:
ARM GAS  /tmp/ccgHkDVU.s 			page 55


 3079              		.loc 6 439 10 view .LVU895
 3080 0012 FFF7FEFF 		bl	chSchReadyI
 3081              	.LVL140:
 3082              	.L99:
 3083              		.loc 6 439 10 view .LVU896
 3084              	.LBE653:
 3085              	.LBE652:
 3086              		.loc 1 886 1 view .LVU897
 3087              		@ sp needed
 3088 0016 10BD     		pop	{r4, pc}
 3089              		.cfi_endproc
 3090              	.LFE146:
 3091              		.size	chThdDequeueNextI, .-chThdDequeueNextI
 3092              		.section	.text.chThdDequeueAllI,"ax",%progbits
 3093              		.align	1
 3094              		.p2align 4,,15
 3095              		.global	chThdDequeueAllI
 3096              		.syntax unified
 3097              		.code	16
 3098              		.thumb_func
 3099              		.fpu softvfp
 3100              		.type	chThdDequeueAllI, %function
 3101              	chThdDequeueAllI:
 3102              	.LVL141:
 3103              	.LFB147:
 3104              		.loc 1 896 56 is_stmt 1 view -0
 3105              		.cfi_startproc
 3106              		@ args = 0, pretend = 0, frame = 0
 3107              		@ frame_needed = 0, uses_anonymous_args = 0
 3108              		.loc 1 898 3 view .LVU899
 3109              	.LBB656:
 3110              	.LBI656:
 3111              		.loc 2 575 20 view .LVU900
 3112              	.LBB657:
 3113              		.loc 2 577 3 view .LVU901
 3114              	.LBE657:
 3115              	.LBE656:
 3116              		.loc 1 896 56 is_stmt 0 view .LVU902
 3117 0000 70B5     		push	{r4, r5, r6, lr}
 3118              		.cfi_def_cfa_offset 16
 3119              		.cfi_offset 4, -16
 3120              		.cfi_offset 5, -12
 3121              		.cfi_offset 6, -8
 3122              		.cfi_offset 14, -4
 3123              		.loc 1 896 56 view .LVU903
 3124 0002 0400     		movs	r4, r0
 3125              	.LBB660:
 3126              	.LBB658:
 3127              		.loc 2 577 20 view .LVU904
 3128 0004 0068     		ldr	r0, [r0]
 3129              	.LVL142:
 3130              		.loc 2 577 20 view .LVU905
 3131              	.LBE658:
 3132              	.LBE660:
 3133              		.loc 1 896 56 view .LVU906
 3134 0006 0D00     		movs	r5, r1
 3135              		.loc 1 898 9 view .LVU907
ARM GAS  /tmp/ccgHkDVU.s 			page 56


 3136 0008 8442     		cmp	r4, r0
 3137 000a 08D0     		beq	.L101
 3138              	.LVL143:
 3139              	.L103:
 3140              		.loc 1 899 5 is_stmt 1 view .LVU908
 3141              	.LBB661:
 3142              	.LBI661:
 3143              		.loc 6 429 20 view .LVU909
 3144              	.LBB662:
 3145              		.loc 6 430 3 view .LVU910
 3146              		.loc 6 432 3 view .LVU911
 3147              		.loc 6 432 3 view .LVU912
 3148              		.loc 6 434 3 view .LVU913
 3149              	.LBB663:
 3150              	.LBI663:
 3151              		.loc 2 617 25 view .LVU914
 3152              	.LBB664:
 3153              		.loc 2 618 3 view .LVU915
 3154              		.loc 2 620 3 view .LVU916
 3155              		.loc 2 620 36 is_stmt 0 view .LVU917
 3156 000c 0368     		ldr	r3, [r0]
 3157              		.loc 2 620 25 view .LVU918
 3158 000e 2360     		str	r3, [r4]
 3159              		.loc 2 621 3 is_stmt 1 view .LVU919
 3160              		.loc 2 621 25 is_stmt 0 view .LVU920
 3161 0010 5C60     		str	r4, [r3, #4]
 3162              		.loc 2 623 3 is_stmt 1 view .LVU921
 3163              	.LVL144:
 3164              		.loc 2 623 3 is_stmt 0 view .LVU922
 3165              	.LBE664:
 3166              	.LBE663:
 3167              		.loc 6 436 3 is_stmt 1 view .LVU923
 3168              		.loc 6 436 3 view .LVU924
 3169              		.loc 6 438 3 view .LVU925
 3170              		.loc 6 438 16 is_stmt 0 view .LVU926
 3171 0012 4562     		str	r5, [r0, #36]
 3172              		.loc 6 439 3 is_stmt 1 view .LVU927
 3173              		.loc 6 439 10 is_stmt 0 view .LVU928
 3174 0014 FFF7FEFF 		bl	chSchReadyI
 3175              	.LVL145:
 3176              		.loc 6 439 10 view .LVU929
 3177              	.LBE662:
 3178              	.LBE661:
 3179              	.LBB665:
 3180              		.loc 2 575 20 is_stmt 1 view .LVU930
 3181              	.LBB659:
 3182              		.loc 2 577 3 view .LVU931
 3183              		.loc 2 577 20 is_stmt 0 view .LVU932
 3184 0018 2068     		ldr	r0, [r4]
 3185              	.LVL146:
 3186              		.loc 2 577 20 view .LVU933
 3187              	.LBE659:
 3188              	.LBE665:
 3189              		.loc 1 898 9 view .LVU934
 3190 001a 8442     		cmp	r4, r0
 3191 001c F6D1     		bne	.L103
 3192              	.LVL147:
ARM GAS  /tmp/ccgHkDVU.s 			page 57


 3193              	.L101:
 3194              		.loc 1 901 1 view .LVU935
 3195              		@ sp needed
 3196              	.LVL148:
 3197              	.LVL149:
 3198              		.loc 1 901 1 view .LVU936
 3199 001e 70BD     		pop	{r4, r5, r6, pc}
 3200              		.cfi_endproc
 3201              	.LFE147:
 3202              		.size	chThdDequeueAllI, .-chThdDequeueAllI
 3203              		.section	.rodata.chThdCreateStatic.str1.4,"aMS",%progbits,1
 3204              		.align	2
 3205              	.LC4:
 3206 0000 6E6F6E61 		.ascii	"noname\000"
 3206      6D6500
 3207              		.text
 3208              	.Letext0:
 3209              		.file 10 "/opt/nanovna/gcc-arm-none-eabi-8-2018-q4-major/lib/gcc/arm-none-eabi/8.2.1/include/stdde
 3210              		.file 11 "/opt/nanovna/gcc-arm-none-eabi-8-2018-q4-major/arm-none-eabi/include/machine/_default_ty
 3211              		.file 12 "/opt/nanovna/gcc-arm-none-eabi-8-2018-q4-major/arm-none-eabi/include/sys/_stdint.h"
 3212              		.file 13 "ChibiOS/os/common/ports/ARMCMx/compilers/GCC/chtypes.h"
 3213              		.file 14 "ChibiOS/os/rt/include/chsystypes.h"
 3214              		.file 15 "ChibiOS/os/common/ports/ARMCMx/chcore.h"
 3215              		.file 16 "ChibiOS/os/hal/ports/STM32/LLD/TIMv1/stm32_tim.h"
 3216              		.file 17 "ChibiOS/os/rt/include/chmtx.h"
 3217              		.file 18 "ChibiOS/os/common/ext/CMSIS/ST/STM32F0xx/system_stm32f0xx.h"
 3218              		.file 19 "ChibiOS/os/rt/include/chregistry.h"