ARM GAS  /tmp/ccHM7UMm.s 			page 1


   1              		.cpu cortex-m0
   2              		.eabi_attribute 20, 1
   3              		.eabi_attribute 21, 1
   4              		.eabi_attribute 23, 3
   5              		.eabi_attribute 24, 1
   6              		.eabi_attribute 25, 1
   7              		.eabi_attribute 26, 1
   8              		.eabi_attribute 30, 2
   9              		.eabi_attribute 34, 0
  10              		.eabi_attribute 18, 4
  11              		.file	"chvt.c"
  12              		.text
  13              	.Ltext0:
  14              		.cfi_sections	.debug_frame
  15              		.section	.text._vt_init,"ax",%progbits
  16              		.align	1
  17              		.p2align 4,,15
  18              		.global	_vt_init
  19              		.arch armv6s-m
  20              		.syntax unified
  21              		.code	16
  22              		.thumb_func
  23              		.fpu softvfp
  24              		.type	_vt_init, %function
  25              	_vt_init:
  26              	.LFB121:
  27              		.file 1 "ChibiOS/os/rt/src/chvt.c"
  28              		.loc 1 61 21 view -0
  29              		.cfi_startproc
  30              		@ args = 0, pretend = 0, frame = 0
  31              		@ frame_needed = 0, uses_anonymous_args = 0
  32              		@ link register save eliminated.
  33              		.loc 1 63 3 view .LVU1
  34              		.loc 1 63 18 is_stmt 0 view .LVU2
  35 0000 054B     		ldr	r3, .L3
  36              		.loc 1 71 1 view .LVU3
  37              		@ sp needed
  38              		.loc 1 63 18 view .LVU4
  39 0002 1A00     		movs	r2, r3
  40 0004 1C32     		adds	r2, r2, #28
  41 0006 DA61     		str	r2, [r3, #28]
  42              		.loc 1 64 3 is_stmt 1 view .LVU5
  43              		.loc 1 64 18 is_stmt 0 view .LVU6
  44 0008 1A62     		str	r2, [r3, #32]
  45              		.loc 1 65 3 is_stmt 1 view .LVU7
  46              		.loc 1 65 19 is_stmt 0 view .LVU8
  47 000a 0122     		movs	r2, #1
  48 000c 5242     		rsbs	r2, r2, #0
  49 000e 5A62     		str	r2, [r3, #36]
  50              		.loc 1 69 3 is_stmt 1 view .LVU9
  51              		.loc 1 69 22 is_stmt 0 view .LVU10
  52 0010 0022     		movs	r2, #0
  53 0012 9A62     		str	r2, [r3, #40]
  54              		.loc 1 71 1 view .LVU11
  55 0014 7047     		bx	lr
  56              	.L4:
  57 0016 C046     		.align	2
ARM GAS  /tmp/ccHM7UMm.s 			page 2


  58              	.L3:
  59 0018 00000000 		.word	ch
  60              		.cfi_endproc
  61              	.LFE121:
  62              		.size	_vt_init, .-_vt_init
  63              		.section	.text.chVTDoSetI,"ax",%progbits
  64              		.align	1
  65              		.p2align 4,,15
  66              		.global	chVTDoSetI
  67              		.syntax unified
  68              		.code	16
  69              		.thumb_func
  70              		.fpu softvfp
  71              		.type	chVTDoSetI, %function
  72              	chVTDoSetI:
  73              	.LVL0:
  74              	.LFB122:
  75              		.loc 1 96 45 is_stmt 1 view -0
  76              		.cfi_startproc
  77              		@ args = 0, pretend = 0, frame = 0
  78              		@ frame_needed = 0, uses_anonymous_args = 0
  79              		.loc 1 97 3 view .LVU13
  80              		.loc 1 98 3 view .LVU14
  81              		.loc 1 100 21 view .LVU15
  82              		.loc 1 101 3 view .LVU16
  83              		.loc 1 101 3 view .LVU17
  84              		.loc 1 103 3 view .LVU18
  85              		.loc 1 96 45 is_stmt 0 view .LVU19
  86 0000 70B5     		push	{r4, r5, r6, lr}
  87              		.cfi_def_cfa_offset 16
  88              		.cfi_offset 4, -16
  89              		.cfi_offset 5, -12
  90              		.cfi_offset 6, -8
  91              		.cfi_offset 14, -4
  92              		.loc 1 103 12 view .LVU20
  93 0002 0361     		str	r3, [r0, #16]
  94              		.loc 1 104 3 is_stmt 1 view .LVU21
  95              	.LBB27:
  96              	.LBB28:
  97              	.LBB29:
  98              	.LBB30:
  99              	.LBB31:
 100              		.file 2 "ChibiOS/os/hal/ports/STM32/LLD/TIMv1/hal_st_lld.h"
 101              		.loc 2 141 10 is_stmt 0 view .LVU22
 102 0004 8023     		movs	r3, #128
 103              	.LVL1:
 104              		.loc 2 141 10 view .LVU23
 105 0006 DB05     		lsls	r3, r3, #23
 106              	.LBE31:
 107              	.LBE30:
 108              	.LBE29:
 109              	.LBE28:
 110              	.LBE27:
 111              		.loc 1 96 45 view .LVU24
 112 0008 0500     		movs	r5, r0
 113              		.loc 1 104 13 view .LVU25
 114 000a C260     		str	r2, [r0, #12]
ARM GAS  /tmp/ccHM7UMm.s 			page 3


 115              	.LBB43:
 116              		.loc 1 108 5 is_stmt 1 view .LVU26
 117              	.LBB36:
 118              	.LBI28:
 119              		.file 3 "ChibiOS/os/rt/include/chvt.h"
 120              		.loc 3 228 25 view .LVU27
 121              	.LBE36:
 122              	.LBE43:
 123              		.loc 3 233 3 view .LVU28
 124              	.LBB44:
 125              	.LBB37:
 126              	.LBB34:
 127              	.LBI29:
 128              		.file 4 "ChibiOS/os/common/ports/ARMCMx/chcore_timer.h"
 129              		.loc 4 105 25 view .LVU29
 130              	.LBE34:
 131              	.LBE37:
 132              	.LBE44:
 133              		.loc 4 107 3 view .LVU30
 134              	.LBB45:
 135              	.LBB38:
 136              	.LBB35:
 137              	.LBB33:
 138              	.LBI30:
 139              		.loc 2 139 25 view .LVU31
 140              	.LBB32:
 141              		.loc 2 141 3 view .LVU32
 142              		.loc 2 141 10 is_stmt 0 view .LVU33
 143 000c 586A     		ldr	r0, [r3, #36]
 144              	.LVL2:
 145              		.loc 2 141 10 view .LVU34
 146              	.LBE32:
 147              	.LBE33:
 148              	.LBE35:
 149              	.LBE38:
 150              		.loc 1 112 5 is_stmt 1 view .LVU35
 151 000e 0229     		cmp	r1, #2
 152 0010 00D2     		bcs	.L6
 153 0012 0221     		movs	r1, #2
 154              	.LVL3:
 155              	.L6:
 156              		.loc 1 117 5 view .LVU36
 157              		.loc 1 117 57 is_stmt 0 view .LVU37
 158 0014 164E     		ldr	r6, .L16
 159              		.loc 1 117 8 view .LVU38
 160 0016 3200     		movs	r2, r6
 161              	.LVL4:
 162              		.loc 1 117 57 view .LVU39
 163 0018 F369     		ldr	r3, [r6, #28]
 164              		.loc 1 117 8 view .LVU40
 165 001a 1C32     		adds	r2, r2, #28
 166 001c 9342     		cmp	r3, r2
 167 001e 1DD0     		beq	.L14
 168              		.loc 1 136 5 is_stmt 1 view .LVU41
 169              		.loc 1 136 11 is_stmt 0 view .LVU42
 170 0020 B26A     		ldr	r2, [r6, #40]
 171              		.loc 1 136 17 view .LVU43
ARM GAS  /tmp/ccHM7UMm.s 			page 4


 172 0022 0818     		adds	r0, r1, r0
 173              	.LVL5:
 174              		.loc 1 136 11 view .LVU44
 175 0024 841A     		subs	r4, r0, r2
 176              	.LVL6:
 177              		.loc 1 137 5 is_stmt 1 view .LVU45
 178              		.loc 1 137 31 is_stmt 0 view .LVU46
 179 0026 9A68     		ldr	r2, [r3, #8]
 180              		.loc 1 137 8 view .LVU47
 181 0028 A242     		cmp	r2, r4
 182 002a 03D9     		bls	.L13
 183 002c 11E0     		b	.L15
 184              	.LVL7:
 185              	.L11:
 186              		.loc 1 137 8 view .LVU48
 187              	.LBE45:
 188              		.loc 1 152 5 is_stmt 1 view .LVU49
 189              		.loc 1 153 7 is_stmt 0 view .LVU50
 190 002e 1B68     		ldr	r3, [r3]
 191              	.LVL8:
 192              		.loc 1 152 11 view .LVU51
 193 0030 A41A     		subs	r4, r4, r2
 194              	.LVL9:
 195              		.loc 1 153 5 is_stmt 1 view .LVU52
 196              		.loc 1 151 11 is_stmt 0 view .LVU53
 197 0032 9A68     		ldr	r2, [r3, #8]
 198              	.LVL10:
 199              	.L13:
 200              		.loc 1 151 9 view .LVU54
 201 0034 A242     		cmp	r2, r4
 202 0036 FAD3     		bcc	.L11
 203              		.loc 1 157 3 is_stmt 1 view .LVU55
 204              		.loc 1 158 24 is_stmt 0 view .LVU56
 205 0038 5A68     		ldr	r2, [r3, #4]
 206              		.loc 1 157 13 view .LVU57
 207 003a 2B60     		str	r3, [r5]
 208              		.loc 1 158 3 is_stmt 1 view .LVU58
 209              		.loc 1 158 13 is_stmt 0 view .LVU59
 210 003c 6A60     		str	r2, [r5, #4]
 211              		.loc 1 159 3 is_stmt 1 view .LVU60
 212              		.loc 1 159 19 is_stmt 0 view .LVU61
 213 003e 1560     		str	r5, [r2]
 214              		.loc 1 160 3 is_stmt 1 view .LVU62
 215              		.loc 1 160 11 is_stmt 0 view .LVU63
 216 0040 5D60     		str	r5, [r3, #4]
 217              		.loc 1 161 3 is_stmt 1 view .LVU64
 218              		.loc 1 161 14 is_stmt 0 view .LVU65
 219 0042 AC60     		str	r4, [r5, #8]
 220              		.loc 1 165 3 is_stmt 1 view .LVU66
 221              		.loc 1 165 12 is_stmt 0 view .LVU67
 222 0044 9A68     		ldr	r2, [r3, #8]
 223 0046 141B     		subs	r4, r2, r4
 224              	.LVL11:
 225              		.loc 1 165 12 view .LVU68
 226 0048 9C60     		str	r4, [r3, #8]
 227              	.LVL12:
 228              		.loc 1 166 3 is_stmt 1 view .LVU69
ARM GAS  /tmp/ccHM7UMm.s 			page 5


 229              		.loc 1 166 19 is_stmt 0 view .LVU70
 230 004a 0123     		movs	r3, #1
 231 004c 5B42     		rsbs	r3, r3, #0
 232 004e 7362     		str	r3, [r6, #36]
 233              	.L5:
 234              		.loc 1 167 1 view .LVU71
 235              		@ sp needed
 236              	.LVL13:
 237              		.loc 1 167 1 view .LVU72
 238 0050 70BD     		pop	{r4, r5, r6, pc}
 239              	.LVL14:
 240              	.L15:
 241              	.LBB46:
 242              		.loc 1 140 7 is_stmt 1 view .LVU73
 243              	.LBB39:
 244              	.LBI39:
 245              		.loc 4 93 20 view .LVU74
 246              	.LBB40:
 247              		.loc 4 95 3 view .LVU75
 248 0052 FFF7FEFF 		bl	stSetAlarm
 249              	.LVL15:
 250              		.loc 4 95 3 is_stmt 0 view .LVU76
 251 0056 F369     		ldr	r3, [r6, #28]
 252 0058 9A68     		ldr	r2, [r3, #8]
 253              	.LBE40:
 254              	.LBE39:
 255              	.LBE46:
 256              		.loc 1 150 3 is_stmt 1 view .LVU77
 257              	.LVL16:
 258              		.loc 1 151 3 view .LVU78
 259              		.loc 1 151 3 is_stmt 0 view .LVU79
 260 005a EBE7     		b	.L13
 261              	.LVL17:
 262              	.L14:
 263              	.LBB47:
 264              		.loc 1 121 7 is_stmt 1 view .LVU80
 265              		.loc 1 121 26 is_stmt 0 view .LVU81
 266 005c B062     		str	r0, [r6, #40]
 267              		.loc 1 122 7 is_stmt 1 view .LVU82
 268              		.loc 1 122 22 is_stmt 0 view .LVU83
 269 005e F561     		str	r5, [r6, #28]
 270              		.loc 1 123 7 is_stmt 1 view .LVU84
 271              		.loc 1 123 22 is_stmt 0 view .LVU85
 272 0060 3562     		str	r5, [r6, #32]
 273              		.loc 1 124 7 is_stmt 1 view .LVU86
 274              		.loc 1 129 7 is_stmt 0 view .LVU87
 275 0062 0818     		adds	r0, r1, r0
 276              	.LVL18:
 277              		.loc 1 124 17 view .LVU88
 278 0064 2B60     		str	r3, [r5]
 279              		.loc 1 125 7 is_stmt 1 view .LVU89
 280              		.loc 1 125 17 is_stmt 0 view .LVU90
 281 0066 6B60     		str	r3, [r5, #4]
 282              		.loc 1 126 7 is_stmt 1 view .LVU91
 283              		.loc 1 126 18 is_stmt 0 view .LVU92
 284 0068 A960     		str	r1, [r5, #8]
 285              		.loc 1 129 7 is_stmt 1 view .LVU93
ARM GAS  /tmp/ccHM7UMm.s 			page 6


 286              	.LBB41:
 287              	.LBI41:
 288              		.loc 4 71 20 view .LVU94
 289              	.LBB42:
 290              		.loc 4 73 3 view .LVU95
 291 006a FFF7FEFF 		bl	stStartAlarm
 292              	.LVL19:
 293              		.loc 4 73 3 is_stmt 0 view .LVU96
 294              	.LBE42:
 295              	.LBE41:
 296              		.loc 1 131 7 is_stmt 1 view .LVU97
 297 006e EFE7     		b	.L5
 298              	.L17:
 299              		.align	2
 300              	.L16:
 301 0070 00000000 		.word	ch
 302              	.LBE47:
 303              		.cfi_endproc
 304              	.LFE122:
 305              		.size	chVTDoSetI, .-chVTDoSetI
 306              		.section	.text.chVTDoResetI,"ax",%progbits
 307              		.align	1
 308              		.p2align 4,,15
 309              		.global	chVTDoResetI
 310              		.syntax unified
 311              		.code	16
 312              		.thumb_func
 313              		.fpu softvfp
 314              		.type	chVTDoResetI, %function
 315              	chVTDoResetI:
 316              	.LVL20:
 317              	.LFB123:
 318              		.loc 1 177 41 view -0
 319              		.cfi_startproc
 320              		@ args = 0, pretend = 0, frame = 0
 321              		@ frame_needed = 0, uses_anonymous_args = 0
 322              		.loc 1 179 21 view .LVU99
 323              		.loc 1 180 3 view .LVU100
 324              		.loc 1 180 3 view .LVU101
 325              		.loc 1 181 3 view .LVU102
 326              		.loc 1 181 3 view .LVU103
 327              		.loc 1 197 3 view .LVU104
 328              		.loc 1 201 3 view .LVU105
 329              		.loc 1 201 16 is_stmt 0 view .LVU106
 330 0000 1C4B     		ldr	r3, .L27
 331              		.loc 1 177 41 view .LVU107
 332 0002 10B5     		push	{r4, lr}
 333              		.cfi_def_cfa_offset 8
 334              		.cfi_offset 4, -8
 335              		.cfi_offset 14, -4
 336              		.loc 1 201 6 view .LVU108
 337 0004 D969     		ldr	r1, [r3, #28]
 338 0006 0268     		ldr	r2, [r0]
 339 0008 8142     		cmp	r1, r0
 340 000a 0ED0     		beq	.L19
 341              		.loc 1 203 5 is_stmt 1 view .LVU109
 342              		.loc 1 203 8 is_stmt 0 view .LVU110
ARM GAS  /tmp/ccHM7UMm.s 			page 7


 343 000c 4168     		ldr	r1, [r0, #4]
 344              		.loc 1 208 8 view .LVU111
 345 000e 1C33     		adds	r3, r3, #28
 346              		.loc 1 203 21 view .LVU112
 347 0010 0A60     		str	r2, [r1]
 348              		.loc 1 204 5 is_stmt 1 view .LVU113
 349              		.loc 1 204 8 is_stmt 0 view .LVU114
 350 0012 0268     		ldr	r2, [r0]
 351              		.loc 1 204 21 view .LVU115
 352 0014 5160     		str	r1, [r2, #4]
 353              		.loc 1 205 5 is_stmt 1 view .LVU116
 354              		.loc 1 205 15 is_stmt 0 view .LVU117
 355 0016 0021     		movs	r1, #0
 356 0018 C160     		str	r1, [r0, #12]
 357              		.loc 1 208 5 is_stmt 1 view .LVU118
 358              		.loc 1 208 8 is_stmt 0 view .LVU119
 359 001a 9A42     		cmp	r2, r3
 360 001c 04D0     		beq	.L18
 361              		.loc 1 209 7 is_stmt 1 view .LVU120
 362              		.loc 1 209 24 is_stmt 0 view .LVU121
 363 001e 9168     		ldr	r1, [r2, #8]
 364 0020 8368     		ldr	r3, [r0, #8]
 365 0022 8C46     		mov	ip, r1
 366 0024 6344     		add	r3, r3, ip
 367 0026 9360     		str	r3, [r2, #8]
 368              	.LVL21:
 369              	.L18:
 370              		.loc 1 255 1 view .LVU122
 371              		@ sp needed
 372 0028 10BD     		pop	{r4, pc}
 373              	.LVL22:
 374              	.L19:
 375              		.loc 1 215 3 is_stmt 1 view .LVU123
 376              		.loc 1 216 24 is_stmt 0 view .LVU124
 377 002a 1800     		movs	r0, r3
 378              	.LVL23:
 379              		.loc 1 217 13 view .LVU125
 380 002c 0024     		movs	r4, #0
 381              		.loc 1 216 24 view .LVU126
 382 002e 1C30     		adds	r0, r0, #28
 383              		.loc 1 215 18 view .LVU127
 384 0030 DA61     		str	r2, [r3, #28]
 385              		.loc 1 216 3 is_stmt 1 view .LVU128
 386              		.loc 1 216 24 is_stmt 0 view .LVU129
 387 0032 5060     		str	r0, [r2, #4]
 388              		.loc 1 217 3 is_stmt 1 view .LVU130
 389              		.loc 1 217 13 is_stmt 0 view .LVU131
 390 0034 CC60     		str	r4, [r1, #12]
 391              		.loc 1 220 3 is_stmt 1 view .LVU132
 392              		.loc 1 220 6 is_stmt 0 view .LVU133
 393 0036 8242     		cmp	r2, r0
 394 0038 18D0     		beq	.L25
 395              		.loc 1 227 3 is_stmt 1 view .LVU134
 396              		.loc 1 227 25 is_stmt 0 view .LVU135
 397 003a 8868     		ldr	r0, [r1, #8]
 398 003c 9168     		ldr	r1, [r2, #8]
 399              		.loc 1 236 46 view .LVU136
ARM GAS  /tmp/ccHM7UMm.s 			page 8


 400 003e 9B6A     		ldr	r3, [r3, #40]
 401              		.loc 1 227 25 view .LVU137
 402 0040 8C46     		mov	ip, r1
 403 0042 6044     		add	r0, r0, ip
 404 0044 9060     		str	r0, [r2, #8]
 405              		.loc 1 236 3 is_stmt 1 view .LVU138
 406              	.LBB48:
 407              	.LBI48:
 408              		.loc 3 228 25 view .LVU139
 409              	.LBE48:
 410              		.loc 3 233 3 view .LVU140
 411              	.LBB53:
 412              	.LBB49:
 413              	.LBI49:
 414              		.loc 4 105 25 view .LVU141
 415              	.LBE49:
 416              	.LBE53:
 417              		.loc 4 107 3 view .LVU142
 418              	.LBB54:
 419              	.LBB52:
 420              	.LBB50:
 421              	.LBI50:
 422              		.loc 2 139 25 view .LVU143
 423              	.LBB51:
 424              		.loc 2 141 3 view .LVU144
 425              		.loc 2 141 10 is_stmt 0 view .LVU145
 426 0046 8022     		movs	r2, #128
 427 0048 D205     		lsls	r2, r2, #23
 428 004a 526A     		ldr	r2, [r2, #36]
 429              	.LVL24:
 430              		.loc 2 141 10 view .LVU146
 431              	.LBE51:
 432              	.LBE50:
 433              	.LBE52:
 434              	.LBE54:
 435              		.loc 1 240 3 is_stmt 1 view .LVU147
 436              		.loc 1 236 12 is_stmt 0 view .LVU148
 437 004c D11A     		subs	r1, r2, r3
 438              	.LVL25:
 439              		.loc 1 240 6 view .LVU149
 440 004e 8842     		cmp	r0, r1
 441 0050 EAD9     		bls	.L18
 442              		.loc 1 245 3 is_stmt 1 view .LVU150
 443              		.loc 1 245 9 is_stmt 0 view .LVU151
 444 0052 9B1A     		subs	r3, r3, r2
 445 0054 1818     		adds	r0, r3, r0
 446              		.loc 1 249 3 is_stmt 1 view .LVU152
 447              		.loc 1 253 3 view .LVU153
 448              	.LBB55:
 449              	.LBI55:
 450              		.loc 4 93 20 view .LVU154
 451              	.LBB56:
 452              		.loc 4 95 3 view .LVU155
 453              	.LBE56:
 454              	.LBE55:
 455              		.loc 1 253 3 is_stmt 0 view .LVU156
 456 0056 0228     		cmp	r0, #2
ARM GAS  /tmp/ccHM7UMm.s 			page 9


 457 0058 03D3     		bcc	.L26
 458 005a 8018     		adds	r0, r0, r2
 459              	.LBB59:
 460              	.LBB57:
 461              		.loc 4 95 3 view .LVU157
 462 005c FFF7FEFF 		bl	stSetAlarm
 463              	.LVL26:
 464              		.loc 4 95 3 view .LVU158
 465 0060 E2E7     		b	.L18
 466              	.LVL27:
 467              	.L26:
 468              		.loc 4 95 3 view .LVU159
 469              	.LBE57:
 470              	.LBE59:
 471              		.loc 1 253 3 view .LVU160
 472 0062 0220     		movs	r0, #2
 473 0064 8018     		adds	r0, r0, r2
 474              	.LBB60:
 475              	.LBB58:
 476              		.loc 4 95 3 view .LVU161
 477 0066 FFF7FEFF 		bl	stSetAlarm
 478              	.LVL28:
 479              		.loc 4 95 3 view .LVU162
 480 006a DDE7     		b	.L18
 481              	.L25:
 482              		.loc 4 95 3 view .LVU163
 483              	.LBE58:
 484              	.LBE60:
 485              		.loc 1 221 5 is_stmt 1 view .LVU164
 486              	.LBB61:
 487              	.LBI61:
 488              		.loc 4 81 20 view .LVU165
 489              	.LBB62:
 490              		.loc 4 83 3 view .LVU166
 491 006c FFF7FEFF 		bl	stStopAlarm
 492              	.LVL29:
 493              	.LBE62:
 494              	.LBE61:
 495              		.loc 1 223 5 view .LVU167
 496 0070 DAE7     		b	.L18
 497              	.L28:
 498 0072 C046     		.align	2
 499              	.L27:
 500 0074 00000000 		.word	ch
 501              		.cfi_endproc
 502              	.LFE123:
 503              		.size	chVTDoResetI, .-chVTDoResetI
 504              		.text
 505              	.Letext0:
 506              		.file 5 "/opt/nanovna/gcc-arm-none-eabi-8-2018-q4-major/arm-none-eabi/include/machine/_default_typ
 507              		.file 6 "/opt/nanovna/gcc-arm-none-eabi-8-2018-q4-major/arm-none-eabi/include/sys/_stdint.h"
 508              		.file 7 "ChibiOS/os/common/ports/ARMCMx/compilers/GCC/chtypes.h"
 509              		.file 8 "ChibiOS/os/rt/include/chsystypes.h"
 510              		.file 9 "ChibiOS/os/rt/include/chschd.h"
 511              		.file 10 "ChibiOS/os/common/ports/ARMCMx/chcore.h"
 512              		.file 11 "ChibiOS/os/common/ports/ARMCMx/chcore_v6m.h"
 513              		.file 12 "ChibiOS/os/hal/ports/STM32/LLD/TIMv1/stm32_tim.h"
ARM GAS  /tmp/ccHM7UMm.s 			page 10


 514              		.file 13 "ChibiOS/os/rt/include/chmtx.h"
 515              		.file 14 "ChibiOS/os/common/ext/CMSIS/ST/STM32F0xx/system_stm32f0xx.h"
 516              		.file 15 "ChibiOS/os/rt/include/chsys.h"
 517              		.file 16 "ChibiOS/os/rt/include/chregistry.h"
 518              		.file 17 "ChibiOS/os/hal/include/hal_st.h"