ARM GAS  /tmp/ccZ6U9zI.s 			page 1


   1              		.cpu cortex-m0
   2              		.eabi_attribute 20, 1
   3              		.eabi_attribute 21, 1
   4              		.eabi_attribute 23, 3
   5              		.eabi_attribute 24, 1
   6              		.eabi_attribute 25, 1
   7              		.eabi_attribute 26, 1
   8              		.eabi_attribute 30, 2
   9              		.eabi_attribute 34, 0
  10              		.eabi_attribute 18, 4
  11              		.file	"crt1.c"
  12              		.text
  13              	.Ltext0:
  14              		.cfi_sections	.debug_frame
  15              		.section	.text.__core_init,"ax",%progbits
  16              		.align	1
  17              		.p2align 4,,15
  18              		.weak	__core_init
  19              		.arch armv6s-m
  20              		.syntax unified
  21              		.code	16
  22              		.thumb_func
  23              		.fpu softvfp
  24              		.type	__core_init, %function
  25              	__core_init:
  26              	.LFB34:
  27              		.file 1 "ChibiOS/os/common/startup/ARMCMx/compilers/GCC/crt1.c"
  28              		.loc 1 136 24 view -0
  29              		.cfi_startproc
  30              		@ args = 0, pretend = 0, frame = 0
  31              		@ frame_needed = 0, uses_anonymous_args = 0
  32              		@ link register save eliminated.
  33              		.loc 1 142 1 view .LVU1
  34              		@ sp needed
  35 0000 7047     		bx	lr
  36              		.cfi_endproc
  37              	.LFE34:
  38              		.size	__core_init, .-__core_init
  39 0002 C046     		.section	.text.__early_init,"ax",%progbits
  40              		.align	1
  41              		.p2align 4,,15
  42              		.weak	__early_init
  43              		.syntax unified
  44              		.code	16
  45              		.thumb_func
  46              		.fpu softvfp
  47              		.type	__early_init, %function
  48              	__early_init:
  49              	.LFB40:
  50              		.cfi_startproc
  51              		@ args = 0, pretend = 0, frame = 0
  52              		@ frame_needed = 0, uses_anonymous_args = 0
  53              		@ link register save eliminated.
  54              		@ sp needed
  55 0000 7047     		bx	lr
  56              		.cfi_endproc
  57              	.LFE40:
ARM GAS  /tmp/ccZ6U9zI.s 			page 2


  58              		.size	__early_init, .-__early_init
  59 0002 C046     		.section	.text.__late_init,"ax",%progbits
  60              		.align	1
  61              		.p2align 4,,15
  62              		.weak	__late_init
  63              		.syntax unified
  64              		.code	16
  65              		.thumb_func
  66              		.fpu softvfp
  67              		.type	__late_init, %function
  68              	__late_init:
  69              	.LFB42:
  70              		.cfi_startproc
  71              		@ args = 0, pretend = 0, frame = 0
  72              		@ frame_needed = 0, uses_anonymous_args = 0
  73              		@ link register save eliminated.
  74              		@ sp needed
  75 0000 7047     		bx	lr
  76              		.cfi_endproc
  77              	.LFE42:
  78              		.size	__late_init, .-__late_init
  79 0002 C046     		.section	.text.__default_exit,"ax",%progbits
  80              		.align	1
  81              		.p2align 4,,15
  82              		.weak	__default_exit
  83              		.syntax unified
  84              		.code	16
  85              		.thumb_func
  86              		.fpu softvfp
  87              		.type	__default_exit, %function
  88              	__default_exit:
  89              	.LFB37:
  90              		.loc 1 182 27 view -0
  91              		.cfi_startproc
  92              		@ Volatile: function does not return.
  93              		@ args = 0, pretend = 0, frame = 0
  94              		@ frame_needed = 0, uses_anonymous_args = 0
  95              		@ link register save eliminated.
  96              	.L6:
  97              		.loc 1 185 3 discriminator 1 view .LVU3
  98              		.loc 1 186 3 discriminator 1 view .LVU4
  99 0000 FEE7     		b	.L6
 100              		.cfi_endproc
 101              	.LFE37:
 102              		.size	__default_exit, .-__default_exit
 103 0002 C046     		.section	.text.__init_ram_areas,"ax",%progbits
 104              		.align	1
 105              		.p2align 4,,15
 106              		.global	__init_ram_areas
 107              		.syntax unified
 108              		.code	16
 109              		.thumb_func
 110              		.fpu softvfp
 111              		.type	__init_ram_areas, %function
 112              	__init_ram_areas:
 113              	.LFB38:
 114              		.loc 1 192 29 view -0
ARM GAS  /tmp/ccZ6U9zI.s 			page 3


 115              		.cfi_startproc
 116              		@ args = 0, pretend = 0, frame = 0
 117              		@ frame_needed = 0, uses_anonymous_args = 0
 118              		.loc 1 194 3 view .LVU6
 119              	.LVL0:
 120              		.loc 1 194 3 is_stmt 0 view .LVU7
 121 0000 8022     		movs	r2, #128
 122 0002 9446     		mov	ip, r2
 123              		.loc 1 192 29 view .LVU8
 124 0004 F0B5     		push	{r4, r5, r6, r7, lr}
 125              		.cfi_def_cfa_offset 20
 126              		.cfi_offset 4, -20
 127              		.cfi_offset 5, -16
 128              		.cfi_offset 6, -12
 129              		.cfi_offset 7, -8
 130              		.cfi_offset 14, -4
 131              	.LBB2:
 132              		.loc 1 209 10 view .LVU9
 133 0006 0025     		movs	r5, #0
 134              	.LBE2:
 135              		.loc 1 194 26 view .LVU10
 136 0008 104E     		ldr	r6, .L22
 137              		.loc 1 192 29 view .LVU11
 138 000a 114C     		ldr	r4, .L22+4
 139 000c 1149     		ldr	r1, .L22+8
 140 000e 124B     		ldr	r3, .L22+12
 141 0010 1248     		ldr	r0, .L22+16
 142 0012 B444     		add	ip, ip, r6
 143              	.LVL1:
 144              	.L14:
 145              		.loc 1 196 3 is_stmt 1 view .LVU12
 146              	.LBB3:
 147              		.loc 1 197 5 view .LVU13
 148              		.loc 1 198 5 view .LVU14
 149              		.loc 1 201 5 view .LVU15
 150              		.loc 1 201 11 is_stmt 0 view .LVU16
 151 0014 9942     		cmp	r1, r3
 152 0016 0DD9     		bls	.L19
 153 0018 1A00     		movs	r2, r3
 154              	.LVL2:
 155              	.L9:
 156              		.loc 1 202 7 is_stmt 1 view .LVU17
 157              		.loc 1 202 12 is_stmt 0 view .LVU18
 158 001a 80C8     		ldmia	r0!, {r7}
 159              	.LVL3:
 160              		.loc 1 202 10 view .LVU19
 161 001c 80C2     		stmia	r2!, {r7}
 162              	.LVL4:
 163              		.loc 1 203 7 is_stmt 1 view .LVU20
 164              		.loc 1 204 7 view .LVU21
 165              		.loc 1 201 11 is_stmt 0 view .LVU22
 166 001e 9142     		cmp	r1, r2
 167 0020 FBD8     		bhi	.L9
 168 0022 0139     		subs	r1, r1, #1
 169 0024 C91A     		subs	r1, r1, r3
 170 0026 8908     		lsrs	r1, r1, #2
 171 0028 0131     		adds	r1, r1, #1
ARM GAS  /tmp/ccZ6U9zI.s 			page 4


 172 002a 8900     		lsls	r1, r1, #2
 173 002c 5B18     		adds	r3, r3, r1
 174              	.LVL5:
 175              		.loc 1 210 7 is_stmt 1 view .LVU23
 176              		.loc 1 208 11 is_stmt 0 view .LVU24
 177 002e 9C42     		cmp	r4, r3
 178 0030 02D9     		bls	.L20
 179              	.LVL6:
 180              	.L10:
 181              		.loc 1 209 7 is_stmt 1 view .LVU25
 182              		.loc 1 209 10 is_stmt 0 view .LVU26
 183 0032 20C3     		stmia	r3!, {r5}
 184              	.LVL7:
 185              	.L19:
 186              		.loc 1 210 7 is_stmt 1 view .LVU27
 187              		.loc 1 208 11 is_stmt 0 view .LVU28
 188 0034 9C42     		cmp	r4, r3
 189 0036 FCD8     		bhi	.L10
 190              	.L20:
 191              		.loc 1 212 5 is_stmt 1 view .LVU29
 192              		.loc 1 212 8 is_stmt 0 view .LVU30
 193 0038 1036     		adds	r6, r6, #16
 194              	.LVL8:
 195              		.loc 1 212 8 view .LVU31
 196              	.LBE3:
 197              		.loc 1 214 3 view .LVU32
 198 003a 6645     		cmp	r6, ip
 199 003c 04D0     		beq	.L21
 200 003e 3068     		ldr	r0, [r6]
 201 0040 7368     		ldr	r3, [r6, #4]
 202              	.LVL9:
 203              		.loc 1 214 3 view .LVU33
 204 0042 B168     		ldr	r1, [r6, #8]
 205 0044 F468     		ldr	r4, [r6, #12]
 206 0046 E5E7     		b	.L14
 207              	.LVL10:
 208              	.L21:
 209              		.loc 1 216 1 view .LVU34
 210              		@ sp needed
 211              	.LVL11:
 212              		.loc 1 216 1 view .LVU35
 213 0048 F0BD     		pop	{r4, r5, r6, r7, pc}
 214              	.L23:
 215 004a C046     		.align	2
 216              	.L22:
 217 004c 00000000 		.word	ram_areas
 218 0050 00000000 		.word	__ram0_noinit__
 219 0054 00000000 		.word	__ram0_clear__
 220 0058 00000000 		.word	__ram0_init__
 221 005c 00000000 		.word	__ram0_init_text__
 222              		.cfi_endproc
 223              	.LFE38:
 224              		.size	__init_ram_areas, .-__init_ram_areas
 225              		.section	.rodata.ram_areas,"a"
 226              		.align	2
 227              		.type	ram_areas, %object
 228              		.size	ram_areas, 128
ARM GAS  /tmp/ccZ6U9zI.s 			page 5


 229              	ram_areas:
 230 0000 00000000 		.word	__ram0_init_text__
 231 0004 00000000 		.word	__ram0_init__
 232 0008 00000000 		.word	__ram0_clear__
 233 000c 00000000 		.word	__ram0_noinit__
 234 0010 00000000 		.word	__ram1_init_text__
 235 0014 00000000 		.word	__ram1_init__
 236 0018 00000000 		.word	__ram1_clear__
 237 001c 00000000 		.word	__ram1_noinit__
 238 0020 00000000 		.word	__ram2_init_text__
 239 0024 00000000 		.word	__ram2_init__
 240 0028 00000000 		.word	__ram2_clear__
 241 002c 00000000 		.word	__ram2_noinit__
 242 0030 00000000 		.word	__ram3_init_text__
 243 0034 00000000 		.word	__ram3_init__
 244 0038 00000000 		.word	__ram3_clear__
 245 003c 00000000 		.word	__ram3_noinit__
 246 0040 00000000 		.word	__ram4_init_text__
 247 0044 00000000 		.word	__ram4_init__
 248 0048 00000000 		.word	__ram4_clear__
 249 004c 00000000 		.word	__ram4_noinit__
 250 0050 00000000 		.word	__ram5_init_text__
 251 0054 00000000 		.word	__ram5_init__
 252 0058 00000000 		.word	__ram5_clear__
 253 005c 00000000 		.word	__ram5_noinit__
 254 0060 00000000 		.word	__ram6_init_text__
 255 0064 00000000 		.word	__ram6_init__
 256 0068 00000000 		.word	__ram6_clear__
 257 006c 00000000 		.word	__ram6_noinit__
 258 0070 00000000 		.word	__ram7_init_text__
 259 0074 00000000 		.word	__ram7_init__
 260 0078 00000000 		.word	__ram7_clear__
 261 007c 00000000 		.word	__ram7_noinit__
 262              		.text
 263              	.Letext0:
 264              		.file 2 "/opt/nanovna/gcc-arm-none-eabi-8-2018-q4-major/arm-none-eabi/include/machine/_default_typ
 265              		.file 3 "/opt/nanovna/gcc-arm-none-eabi-8-2018-q4-major/arm-none-eabi/include/sys/_stdint.h"
 266              		.file 4 "ChibiOS/os/common/ext/CMSIS/ST/STM32F0xx/system_stm32f0xx.h"