ARM GAS  /tmp/ccZ6U9zI.s 			page 1


   1              		.cpu cortex-m0
   2              		.eabi_attribute 20, 1
   3              		.eabi_attribute 21, 1
   4              		.eabi_attribute 23, 3
   5              		.eabi_attribute 24, 1
   6              		.eabi_attribute 25, 1
   7              		.eabi_attribute 26, 1
   8              		.eabi_attribute 30, 2
   9              		.eabi_attribute 34, 0
  10              		.eabi_attribute 18, 4
  11              		.file	"crt1.c"
  12              		.text
  13              	.Ltext0:
  14              		.cfi_sections	.debug_frame
  15              		.section	.text.__core_init,"ax",%progbits
  16              		.align	1
  17              		.p2align 4,,15
  18              		.weak	__core_init
  19              		.arch armv6s-m
  20              		.syntax unified
  21              		.code	16
  22              		.thumb_func
  23              		.fpu softvfp
  24              		.type	__core_init, %function
  25              	__core_init:
  26              	.LFB34:
  27              		.file 1 "ChibiOS/os/common/startup/ARMCMx/compilers/GCC/crt1.c"
  28              		.loc 1 136 24 view -0
  29              		.cfi_startproc
  30              		@ args = 0, pretend = 0, frame = 0
  31              		@ frame_needed = 0, uses_anonymous_args = 0
  32              		@ link register save eliminated.
  33              		.loc 1 142 1 view .LVU1
  34              		@ sp needed
  35 0000 7047     		bx	lr
  36              		.cfi_endproc
  37              	.LFE34:
  38              		.size	__core_init, .-__core_init
  39 0002 C046     		.section	.text.__early_init,"ax",%progbits
  40              		.align	1
  41              		.p2align 4,,15
  42              		.weak	__early_init
  43              		.syntax unified
  44              		.code	16
  45              		.thumb_func
  46              		.fpu softvfp
  47              		.type	__early_init, %function
  48              	__early_init:
  49              	.LFB40:
  50              		.cfi_startproc
  51              		@ args = 0, pretend = 0, frame = 0
  52              		@ frame_needed = 0, uses_anonymous_args = 0
  53              		@ link register save eliminated.
  54              		@ sp needed
  55 0000 7047     		bx	lr
  56              		.cfi_endproc
  57              	.LFE40:
ARM GAS  /tmp/ccZ6U9zI.s 			page 2


  58              		.size	__early_init, .-__early_init
  59 0002 C046     		.section	.text.__late_init,"ax",%progbits
  60              		.align	1
  61              		.p2align 4,,15
  62              		.weak	__late_init
  63              		.syntax unified
  64              		.code	16
  65              		.thumb_func
  66              		.fpu softvfp
  67              		.type	__late_init, %function
  68              	__late_init:
  69              	.LFB42:
  70              		.cfi_startproc
  71              		@ args = 0, pretend = 0, frame = 0
  72              		@ frame_needed = 0, uses_anonymous_args = 0
  73              		@ link register save eliminated.
  74              		@ sp needed
  75 0000 7047     		bx	lr
  76              		.cfi_endproc
  77              	.LFE42:
  78              		.size	__late_init, .-__late_init
  79 0002 C046     		.section	.text.__default_exit,"ax",%progbits
  80              		.align	1
  81              		.p2align 4,,15
  82              		.weak	__default_exit
  83              		.syntax unified
  84              		.code	16
  85              		.thumb_func
  86              		.fpu softvfp
  87              		.type	__default_exit, %function
  88              	__default_exit:
  89              	.LFB37:
  90              		.loc 1 182 27 view -0
  91              		.cfi_startproc
  92              		@ Volatile: function does not return.
  93              		@ args = 0, pretend = 0, frame = 0
  94              		@ frame_needed = 0, uses_anonymous_args = 0
  95              		@ link register save eliminated.
  96              	.L6:
  97              		.loc 1 185 3 discriminator 1 view .LVU3
  98              		.loc 1 186 3 discriminator 1 view .LVU4
  99 0000 FEE7     		b	.L6
 100              		.cfi_endproc
 101              	.LFE37:
 102              		.size	__default_exit, .-__default_exit
 103 0002 C046     		.section	.text.__init_ram_areas,"ax",%progbits
 104              		.align	1
 105              		.p2align 4,,15
 106              		.global	__init_ram_areas
 107              		.syntax unified
 108              		.code	16
 109              		.thumb_func
 110              		.fpu softvfp
 111              		.type	__init_ram_areas, %function
 112              	__init_ram_areas:
 113              	.LFB38:
 114              		.loc 1 192 29 view -0
ARM GAS  /tmp/ccZ6U9zI.s 			page 3


 115              		.cfi_startproc
 116              		@ args = 0, pretend = 0, frame = 0
 117              		@ frame_needed = 0, uses_anonymous_args = 0
 118              		.loc 1 194 3 view .LVU6
 119              	.LVL0:
 120              		.loc 1 194 3 is_stmt 0 view .LVU7
 121 0000 8022     		movs	r2, #128
 122 0002 9446     		mov	ip, r2
 123              		.loc 1 192 29 view .LVU8
 124 0004 F0B5     		push	{r4, r5, r6, r7, lr}
 125              		.cfi_def_cfa_offset 20
 126              		.cfi_offset 4, -20
 127              		.cfi_offset 5, -16
 128              		.cfi_offset 6, -12
 129              		.cfi_offset 7, -8
 130              		.cfi_offset 14, -4
 131              	.LBB2:
 132              		.loc 1 209 10 view .LVU9
 133 0006 0025     		movs	r5, #0
 134              	.LBE2:
 135              		.loc 1 194 26 view .LVU10
 136 0008 104E     		ldr	r6, .L22
 137              		.loc 1 192 29 view .LVU11
 138 000a 114C     		ldr	r4, .L22+4
 139 000c 1149     		ldr	r1, .L22+8
 140 000e 124B     		ldr	r3, .L22+12
 141 0010 1248     		ldr	r0, .L22+16
 142 0012 B444     		add	ip, ip, r6
 143              	.LVL1:
 144              	.L14:
 145              		.loc 1 196 3 is_stmt 1 view .LVU12
 146              	.LBB3:
 147              		.loc 1 197 5 view .LVU13
 148              		.loc 1 198 5 view .LVU14
 149              		.loc 1 201 5 view .LVU15
 150              		.loc 1 201 11 is_stmt 0 view .LVU16
 151 0014 9942     		cmp	r1, r3
 152 0016 0DD9     		bls	.L19
 153 0018 1A00     		movs	r2, r3
 154              	.LVL2:
 155              	.L9:
 156              		.loc 1 202 7 is_stmt 1 view .LVU17
 157              		.loc 1 202 12 is_stmt 0 view .LVU18
 158 001a 80C8     		ldmia	r0!, {r7}
 159              	.LVL3:
 160              		.loc 1 202 10 view .LVU19
 161 001c 80C2     		stmia	r2!, {r7}
 162              	.LVL4:
 163              		.loc 1 203 7 is_stmt 1 view .LVU20
 164              		.loc 1 204 7 view .LVU21
 165              		.loc 1 201 11 is_stmt 0 view .LVU22
 166 001e 9142     		cmp	r1, r2
 167 0020 FBD8     		bhi	.L9
 168 0022 0139     		subs	r1, r1, #1
 169 0024 C91A     		subs	r1, r1, r3
 170 0026 8908     		lsrs	r1, r1, #2
 171 0028 0131     		adds	r1, r1, #1
ARM GAS  /tmp/ccZ6U9zI.s 			page 4


 172 002a 8900     		lsls	r1, r1, #2
 173 002c 5B18     		adds	r3, r3, r1
 174              	.LVL5:
 175              		.loc 1 210 7 is_stmt 1 view .LVU23
 176              		.loc 1 208 11 is_stmt 0 view .LVU24
 177 002e 9C42     		cmp	r4, r3
 178 0030 02D9     		bls	.L20
 179              	.LVL6:
 180              	.L10:
 181              		.loc 1 209 7 is_stmt 1 view .LVU25
 182              		.loc 1 209 10 is_stmt 0 view .LVU26
 183 0032 20C3     		stmia	r3!, {r5}
 184              	.LVL7:
 185              	.L19:
 186              		.loc 1 210 7 is_stmt 1 view .LVU27
 187              		.loc 1 208 11 is_stmt 0 view .LVU28
 188 0034 9C42     		cmp	r4, r3
 189 0036 FCD8     		bhi	.L10
 190              	.L20:
 191              		.loc 1 212 5 is_stmt 1 view .LVU29
 192              		.loc 1 212 8 is_stmt 0 view .LVU30
 193 0038 1036     		adds	r6, r6, #16
 194              	.LVL8:
 195              		.loc 1 212 8 view .LVU31
 196              	.LBE3:
 197              		.loc 1 214 3 view .LVU32
 198 003a 6645     		cmp	r6, ip
 199 003c 04D0     		beq	.L21
 200 003e 3068     		ldr	r0, [r6]
 201 0040 7368     		ldr	r3, [r6, #4]
 202              	.LVL9:
 203              		.loc 1 214 3 view .LVU33
 204 0042 B168     		ldr	r1, [r6, #8]
 205 0044 F468     		ldr	r4, [r6, #12]
 206 0046 E5E7     		b	.L14
 207              	.LVL10:
 208              	.L21:
 209              		.loc 1 216 1 view .LVU34
 210              		@ sp needed
 211              	.LVL11:
 212              		.loc 1 216 1 view .LVU35
 213 0048 F0BD     		pop	{r4, r5, r6, r7, pc}
 214              	.L23:
 215 004a C046     		.align	2
 216              	.L22:
 217 004c 00000000 		.word	ram_areas
 218 0050 00000000 		.word	__ram0_noinit__
 219 0054 00000000 		.word	__ram0_clear__
 220 0058 00000000 		.word	__ram0_init__
 221 005c 00000000 		.word	__ram0_init_text__
 222              		.cfi_endproc
 223              	.LFE38:
 224              		.size	__init_ram_areas, .-__init_ram_areas
 225              		.section	.rodata.ram_areas,"a"
 226              		.align	2
 227              		.type	ram_areas, %object
 228              		.size	ram_areas, 128
ARM GAS  /tmp/ccZ6U9zI.s 			page 5


 229              	ram_areas:
 230 0000 00000000 		.word	__ram0_init_text__
 231 0004 00000000 		.word	__ram0_init__
 232 0008 00000000 		.word	__ram0_clear__
 233 000c 00000000 		.word	__ram0_noinit__
 234 0010 00000000 		.word	__ram1_init_text__
 235 0014 00000000 		.word	__ram1_init__
 236 0018 00000000 		.word	__ram1_clear__
 237 001c 00000000 		.word	__ram1_noinit__
 238 0020 00000000 		.word	__ram2_init_text__
 239 0024 00000000 		.word	__ram2_init__
 240 0028 00000000 		.word	__ram2_clear__
 241 002c 00000000 		.word	__ram2_noinit__
 242 0030 00000000 		.word	__ram3_init_text__
 243 0034 00000000 		.word	__ram3_init__
 244 0038 00000000 		.word	__ram3_clear__
 245 003c 00000000 		.word	__ram3_noinit__
 246 0040 00000000 		.word	__ram4_init_text__
 247 0044 00000000 		.word	__ram4_init__
 248 0048 00000000 		.word	__ram4_clear__
 249 004c 00000000 		.word	__ram4_noinit__
 250 0050 00000000 		.word	__ram5_init_text__
 251 0054 00000000 		.word	__ram5_init__
 252 0058 00000000 		.word	__ram5_clear__
 253 005c 00000000 		.word	__ram5_noinit__
 254 0060 00000000 		.word	__ram6_init_text__
 255 0064 00000000 		.word	__ram6_init__
 256 0068 00000000 		.word	__ram6_clear__
 257 006c 00000000 		.word	__ram6_noinit__
 258 0070 00000000 		.word	__ram7_init_text__
 259 0074 00000000 		.word	__ram7_init__
 260 0078 00000000 		.word	__ram7_clear__
 261 007c 00000000 		.word	__ram7_noinit__
 262              		.text
 263              	.Letext0:
 264              		.file 2 "/opt/nanovna/gcc-arm-none-eabi-8-2018-q4-major/arm-none-eabi/include/machine/_default_typ
 265              		.file 3 "/opt/nanovna/gcc-arm-none-eabi-8-2018-q4-major/arm-none-eabi/include/sys/_stdint.h"
 266              		.file 4 "ChibiOS/os/common/ext/CMSIS/ST/STM32F0xx/system_stm32f0xx.h"
 267              		.section	.debug_info,"",%progbits
 268              	.Ldebug_info0:
 269 0000 1E030000 		.4byte	0x31e
 270 0004 0400     		.2byte	0x4
 271 0006 00000000 		.4byte	.Ldebug_abbrev0
 272 000a 04       		.byte	0x4
 273 000b 01       		.uleb128 0x1
 274 000c EA010000 		.4byte	.LASF51
 275 0010 0C       		.byte	0xc
 276 0011 03030000 		.4byte	.LASF52
 277 0015 83010000 		.4byte	.LASF53
 278 0019 18000000 		.4byte	.Ldebug_ranges0+0x18
 279 001d 00000000 		.4byte	0
 280 0021 00000000 		.4byte	.Ldebug_line0
 281 0025 02       		.uleb128 0x2
 282 0026 01       		.byte	0x1
 283 0027 06       		.byte	0x6
 284 0028 75040000 		.4byte	.LASF0
 285 002c 02       		.uleb128 0x2
ARM GAS  /tmp/ccZ6U9zI.s 			page 6


 286 002d 01       		.byte	0x1
 287 002e 08       		.byte	0x8
 288 002f 75010000 		.4byte	.LASF1
 289 0033 02       		.uleb128 0x2
 290 0034 02       		.byte	0x2
 291 0035 05       		.byte	0x5
 292 0036 2B040000 		.4byte	.LASF2
 293 003a 02       		.uleb128 0x2
 294 003b 02       		.byte	0x2
 295 003c 07       		.byte	0x7
 296 003d 80000000 		.4byte	.LASF3
 297 0041 02       		.uleb128 0x2
 298 0042 04       		.byte	0x4
 299 0043 05       		.byte	0x5
 300 0044 5C040000 		.4byte	.LASF4
 301 0048 03       		.uleb128 0x3
 302 0049 AD010000 		.4byte	.LASF9
 303 004d 02       		.byte	0x2
 304 004e 4F       		.byte	0x4f
 305 004f 19       		.byte	0x19
 306 0050 54000000 		.4byte	0x54
 307 0054 02       		.uleb128 0x2
 308 0055 04       		.byte	0x4
 309 0056 07       		.byte	0x7
 310 0057 1A010000 		.4byte	.LASF5
 311 005b 02       		.uleb128 0x2
 312 005c 08       		.byte	0x8
 313 005d 05       		.byte	0x5
 314 005e C8030000 		.4byte	.LASF6
 315 0062 02       		.uleb128 0x2
 316 0063 08       		.byte	0x8
 317 0064 07       		.byte	0x7
 318 0065 56030000 		.4byte	.LASF7
 319 0069 04       		.uleb128 0x4
 320 006a 04       		.byte	0x4
 321 006b 05       		.byte	0x5
 322 006c 696E7400 		.ascii	"int\000"
 323 0070 02       		.uleb128 0x2
 324 0071 04       		.byte	0x4
 325 0072 07       		.byte	0x7
 326 0073 49030000 		.4byte	.LASF8
 327 0077 03       		.uleb128 0x3
 328 0078 53040000 		.4byte	.LASF10
 329 007c 03       		.byte	0x3
 330 007d 30       		.byte	0x30
 331 007e 14       		.byte	0x14
 332 007f 48000000 		.4byte	0x48
 333 0083 05       		.uleb128 0x5
 334 0084 F9030000 		.4byte	.LASF16
 335 0088 04       		.byte	0x4
 336 0089 4C       		.byte	0x4c
 337 008a 11       		.byte	0x11
 338 008b 77000000 		.4byte	0x77
 339 008f 06       		.uleb128 0x6
 340 0090 10       		.byte	0x10
 341 0091 01       		.byte	0x1
 342 0092 34       		.byte	0x34
ARM GAS  /tmp/ccZ6U9zI.s 			page 7


 343 0093 09       		.byte	0x9
 344 0094 CD000000 		.4byte	0xcd
 345 0098 07       		.uleb128 0x7
 346 0099 35040000 		.4byte	.LASF11
 347 009d 01       		.byte	0x1
 348 009e 35       		.byte	0x35
 349 009f 1A       		.byte	0x1a
 350 00a0 CD000000 		.4byte	0xcd
 351 00a4 00       		.byte	0
 352 00a5 07       		.uleb128 0x7
 353 00a6 59000000 		.4byte	.LASF12
 354 00aa 01       		.byte	0x1
 355 00ab 36       		.byte	0x36
 356 00ac 1A       		.byte	0x1a
 357 00ad CD000000 		.4byte	0xcd
 358 00b1 04       		.byte	0x4
 359 00b2 07       		.uleb128 0x7
 360 00b3 F4000000 		.4byte	.LASF13
 361 00b7 01       		.byte	0x1
 362 00b8 37       		.byte	0x37
 363 00b9 1A       		.byte	0x1a
 364 00ba CD000000 		.4byte	0xcd
 365 00be 08       		.byte	0x8
 366 00bf 07       		.uleb128 0x7
 367 00c0 9C030000 		.4byte	.LASF14
 368 00c4 01       		.byte	0x1
 369 00c5 38       		.byte	0x38
 370 00c6 1A       		.byte	0x1a
 371 00c7 CD000000 		.4byte	0xcd
 372 00cb 0C       		.byte	0xc
 373 00cc 00       		.byte	0
 374 00cd 08       		.uleb128 0x8
 375 00ce 04       		.byte	0x4
 376 00cf 77000000 		.4byte	0x77
 377 00d3 03       		.uleb128 0x3
 378 00d4 B8010000 		.4byte	.LASF15
 379 00d8 01       		.byte	0x1
 380 00d9 39       		.byte	0x39
 381 00da 03       		.byte	0x3
 382 00db 8F000000 		.4byte	0x8f
 383 00df 09       		.uleb128 0x9
 384 00e0 D3000000 		.4byte	0xd3
 385 00e4 05       		.uleb128 0x5
 386 00e5 6D000000 		.4byte	.LASF17
 387 00e9 01       		.byte	0x1
 388 00ea 40       		.byte	0x40
 389 00eb 11       		.byte	0x11
 390 00ec 77000000 		.4byte	0x77
 391 00f0 05       		.uleb128 0x5
 392 00f1 2C010000 		.4byte	.LASF18
 393 00f5 01       		.byte	0x1
 394 00f6 40       		.byte	0x40
 395 00f7 25       		.byte	0x25
 396 00f8 77000000 		.4byte	0x77
 397 00fc 05       		.uleb128 0x5
 398 00fd 44040000 		.4byte	.LASF19
 399 0101 01       		.byte	0x1
ARM GAS  /tmp/ccZ6U9zI.s 			page 8


 400 0102 40       		.byte	0x40
 401 0103 34       		.byte	0x34
 402 0104 77000000 		.4byte	0x77
 403 0108 05       		.uleb128 0x5
 404 0109 2D000000 		.4byte	.LASF20
 405 010d 01       		.byte	0x1
 406 010e 40       		.byte	0x40
 407 010f 44       		.byte	0x44
 408 0110 77000000 		.4byte	0x77
 409 0114 05       		.uleb128 0x5
 410 0115 E6030000 		.4byte	.LASF21
 411 0119 01       		.byte	0x1
 412 011a 43       		.byte	0x43
 413 011b 11       		.byte	0x11
 414 011c 77000000 		.4byte	0x77
 415 0120 05       		.uleb128 0x5
 416 0121 A2000000 		.4byte	.LASF22
 417 0125 01       		.byte	0x1
 418 0126 43       		.byte	0x43
 419 0127 25       		.byte	0x25
 420 0128 77000000 		.4byte	0x77
 421 012c 05       		.uleb128 0x5
 422 012d 48010000 		.4byte	.LASF23
 423 0131 01       		.byte	0x1
 424 0132 43       		.byte	0x43
 425 0133 34       		.byte	0x34
 426 0134 77000000 		.4byte	0x77
 427 0138 05       		.uleb128 0x5
 428 0139 65040000 		.4byte	.LASF24
 429 013d 01       		.byte	0x1
 430 013e 43       		.byte	0x43
 431 013f 44       		.byte	0x44
 432 0140 77000000 		.4byte	0x77
 433 0144 05       		.uleb128 0x5
 434 0145 9A010000 		.4byte	.LASF25
 435 0149 01       		.byte	0x1
 436 014a 46       		.byte	0x46
 437 014b 11       		.byte	0x11
 438 014c 77000000 		.4byte	0x77
 439 0150 05       		.uleb128 0x5
 440 0151 11000000 		.4byte	.LASF26
 441 0155 01       		.byte	0x1
 442 0156 46       		.byte	0x46
 443 0157 25       		.byte	0x25
 444 0158 77000000 		.4byte	0x77
 445 015c 05       		.uleb128 0x5
 446 015d 09040000 		.4byte	.LASF27
 447 0161 01       		.byte	0x1
 448 0162 46       		.byte	0x46
 449 0163 34       		.byte	0x34
 450 0164 77000000 		.4byte	0x77
 451 0168 05       		.uleb128 0x5
 452 0169 D6030000 		.4byte	.LASF28
 453 016d 01       		.byte	0x1
 454 016e 46       		.byte	0x46
 455 016f 44       		.byte	0x44
 456 0170 77000000 		.4byte	0x77
ARM GAS  /tmp/ccZ6U9zI.s 			page 9


 457 0174 05       		.uleb128 0x5
 458 0175 E1000000 		.4byte	.LASF29
 459 0179 01       		.byte	0x1
 460 017a 49       		.byte	0x49
 461 017b 11       		.byte	0x11
 462 017c 77000000 		.4byte	0x77
 463 0180 05       		.uleb128 0x5
 464 0181 67010000 		.4byte	.LASF30
 465 0185 01       		.byte	0x1
 466 0186 49       		.byte	0x49
 467 0187 25       		.byte	0x25
 468 0188 77000000 		.4byte	0x77
 469 018c 05       		.uleb128 0x5
 470 018d 93000000 		.4byte	.LASF31
 471 0191 01       		.byte	0x1
 472 0192 49       		.byte	0x49
 473 0193 34       		.byte	0x34
 474 0194 77000000 		.4byte	0x77
 475 0198 05       		.uleb128 0x5
 476 0199 B8030000 		.4byte	.LASF32
 477 019d 01       		.byte	0x1
 478 019e 49       		.byte	0x49
 479 019f 44       		.byte	0x44
 480 01a0 77000000 		.4byte	0x77
 481 01a4 05       		.uleb128 0x5
 482 01a5 18040000 		.4byte	.LASF33
 483 01a9 01       		.byte	0x1
 484 01aa 4C       		.byte	0x4c
 485 01ab 11       		.byte	0x11
 486 01ac 77000000 		.4byte	0x77
 487 01b0 05       		.uleb128 0x5
 488 01b1 F5020000 		.4byte	.LASF34
 489 01b5 01       		.byte	0x1
 490 01b6 4C       		.byte	0x4c
 491 01b7 25       		.byte	0x25
 492 01b8 77000000 		.4byte	0x77
 493 01bc 05       		.uleb128 0x5
 494 01bd 8D030000 		.4byte	.LASF35
 495 01c1 01       		.byte	0x1
 496 01c2 4C       		.byte	0x4c
 497 01c3 34       		.byte	0x34
 498 01c4 77000000 		.4byte	0x77
 499 01c8 05       		.uleb128 0x5
 500 01c9 39030000 		.4byte	.LASF36
 501 01cd 01       		.byte	0x1
 502 01ce 4C       		.byte	0x4c
 503 01cf 44       		.byte	0x44
 504 01d0 77000000 		.4byte	0x77
 505 01d4 05       		.uleb128 0x5
 506 01d5 C8010000 		.4byte	.LASF37
 507 01d9 01       		.byte	0x1
 508 01da 4F       		.byte	0x4f
 509 01db 11       		.byte	0x11
 510 01dc 77000000 		.4byte	0x77
 511 01e0 05       		.uleb128 0x5
 512 01e1 3A010000 		.4byte	.LASF38
 513 01e5 01       		.byte	0x1
ARM GAS  /tmp/ccZ6U9zI.s 			page 10


 514 01e6 4F       		.byte	0x4f
 515 01e7 25       		.byte	0x25
 516 01e8 77000000 		.4byte	0x77
 517 01ec 05       		.uleb128 0x5
 518 01ed 81040000 		.4byte	.LASF39
 519 01f1 01       		.byte	0x1
 520 01f2 4F       		.byte	0x4f
 521 01f3 34       		.byte	0x34
 522 01f4 77000000 		.4byte	0x77
 523 01f8 05       		.uleb128 0x5
 524 01f9 57010000 		.4byte	.LASF40
 525 01fd 01       		.byte	0x1
 526 01fe 4F       		.byte	0x4f
 527 01ff 44       		.byte	0x44
 528 0200 77000000 		.4byte	0x77
 529 0204 05       		.uleb128 0x5
 530 0205 BE000000 		.4byte	.LASF41
 531 0209 01       		.byte	0x1
 532 020a 52       		.byte	0x52
 533 020b 11       		.byte	0x11
 534 020c 77000000 		.4byte	0x77
 535 0210 05       		.uleb128 0x5
 536 0211 B0000000 		.4byte	.LASF42
 537 0215 01       		.byte	0x1
 538 0216 52       		.byte	0x52
 539 0217 25       		.byte	0x25
 540 0218 77000000 		.4byte	0x77
 541 021c 05       		.uleb128 0x5
 542 021d 0B010000 		.4byte	.LASF43
 543 0221 01       		.byte	0x1
 544 0222 52       		.byte	0x52
 545 0223 34       		.byte	0x34
 546 0224 77000000 		.4byte	0x77
 547 0228 05       		.uleb128 0x5
 548 0229 D1000000 		.4byte	.LASF44
 549 022d 01       		.byte	0x1
 550 022e 52       		.byte	0x52
 551 022f 44       		.byte	0x44
 552 0230 77000000 		.4byte	0x77
 553 0234 05       		.uleb128 0x5
 554 0235 6D030000 		.4byte	.LASF45
 555 0239 01       		.byte	0x1
 556 023a 55       		.byte	0x55
 557 023b 11       		.byte	0x11
 558 023c 77000000 		.4byte	0x77
 559 0240 05       		.uleb128 0x5
 560 0241 1F000000 		.4byte	.LASF46
 561 0245 01       		.byte	0x1
 562 0246 55       		.byte	0x55
 563 0247 25       		.byte	0x25
 564 0248 77000000 		.4byte	0x77
 565 024c 05       		.uleb128 0x5
 566 024d DB010000 		.4byte	.LASF47
 567 0251 01       		.byte	0x1
 568 0252 55       		.byte	0x55
 569 0253 34       		.byte	0x34
 570 0254 77000000 		.4byte	0x77
ARM GAS  /tmp/ccZ6U9zI.s 			page 11


 571 0258 05       		.uleb128 0x5
 572 0259 49000000 		.4byte	.LASF48
 573 025d 01       		.byte	0x1
 574 025e 55       		.byte	0x55
 575 025f 44       		.byte	0x44
 576 0260 77000000 		.4byte	0x77
 577 0264 0A       		.uleb128 0xa
 578 0265 DF000000 		.4byte	0xdf
 579 0269 74020000 		.4byte	0x274
 580 026d 0B       		.uleb128 0xb
 581 026e 70000000 		.4byte	0x70
 582 0272 07       		.byte	0x7
 583 0273 00       		.byte	0
 584 0274 09       		.uleb128 0x9
 585 0275 64020000 		.4byte	0x264
 586 0279 0C       		.uleb128 0xc
 587 027a 63000000 		.4byte	.LASF54
 588 027e 01       		.byte	0x1
 589 027f 5C       		.byte	0x5c
 590 0280 1E       		.byte	0x1e
 591 0281 74020000 		.4byte	0x274
 592 0285 05       		.uleb128 0x5
 593 0286 03       		.byte	0x3
 594 0287 00000000 		.4byte	ram_areas
 595 028b 0D       		.uleb128 0xd
 596 028c 00000000 		.4byte	.LASF55
 597 0290 01       		.byte	0x1
 598 0291 C0       		.byte	0xc0
 599 0292 06       		.byte	0x6
 600 0293 00000000 		.4byte	.LFB38
 601 0297 60000000 		.4byte	.LFE38-.LFB38
 602 029b 01       		.uleb128 0x1
 603 029c 9C       		.byte	0x9c
 604 029d E1020000 		.4byte	0x2e1
 605 02a1 0E       		.uleb128 0xe
 606 02a2 72617000 		.ascii	"rap\000"
 607 02a6 01       		.byte	0x1
 608 02a7 C2       		.byte	0xc2
 609 02a8 1A       		.byte	0x1a
 610 02a9 E1020000 		.4byte	0x2e1
 611 02ad 04000000 		.4byte	.LLST0
 612 02b1 00000000 		.4byte	.LVUS0
 613 02b5 0F       		.uleb128 0xf
 614 02b6 00000000 		.4byte	.Ldebug_ranges0+0
 615 02ba 0E       		.uleb128 0xe
 616 02bb 747000   		.ascii	"tp\000"
 617 02be 01       		.byte	0x1
 618 02bf C5       		.byte	0xc5
 619 02c0 0F       		.byte	0xf
 620 02c1 CD000000 		.4byte	0xcd
 621 02c5 2F000000 		.4byte	.LLST1
 622 02c9 27000000 		.4byte	.LVUS1
 623 02cd 0E       		.uleb128 0xe
 624 02ce 7000     		.ascii	"p\000"
 625 02d0 01       		.byte	0x1
 626 02d1 C6       		.byte	0xc6
 627 02d2 0F       		.byte	0xf
ARM GAS  /tmp/ccZ6U9zI.s 			page 12


 628 02d3 CD000000 		.4byte	0xcd
 629 02d7 74000000 		.4byte	.LLST2
 630 02db 66000000 		.4byte	.LVUS2
 631 02df 00       		.byte	0
 632 02e0 00       		.byte	0
 633 02e1 08       		.uleb128 0x8
 634 02e2 04       		.byte	0x4
 635 02e3 DF000000 		.4byte	0xdf
 636 02e7 10       		.uleb128 0x10
 637 02e8 A9030000 		.4byte	.LASF56
 638 02ec 01       		.byte	0x1
 639 02ed B6       		.byte	0xb6
 640 02ee 06       		.byte	0x6
 641 02ef 00000000 		.4byte	.LFB37
 642 02f3 02000000 		.4byte	.LFE37-.LFB37
 643 02f7 01       		.uleb128 0x1
 644 02f8 9C       		.byte	0x9c
 645 02f9 11       		.uleb128 0x11
 646 02fa FF000000 		.4byte	.LASF49
 647 02fe 01       		.byte	0x1
 648 02ff A9       		.byte	0xa9
 649 0300 06       		.byte	0x6
 650 0301 11       		.uleb128 0x11
 651 0302 80030000 		.4byte	.LASF50
 652 0306 01       		.byte	0x1
 653 0307 9B       		.byte	0x9b
 654 0308 06       		.byte	0x6
 655 0309 12       		.uleb128 0x12
 656 030a 3D000000 		.4byte	.LASF57
 657 030e 01       		.byte	0x1
 658 030f 88       		.byte	0x88
 659 0310 06       		.byte	0x6
 660 0311 01       		.byte	0x1
 661 0312 13       		.uleb128 0x13
 662 0313 09030000 		.4byte	0x309
 663 0317 00000000 		.4byte	.LFB34
 664 031b 02000000 		.4byte	.LFE34-.LFB34
 665 031f 01       		.uleb128 0x1
 666 0320 9C       		.byte	0x9c
 667 0321 00       		.byte	0
 668              		.section	.debug_abbrev,"",%progbits
 669              	.Ldebug_abbrev0:
 670 0000 01       		.uleb128 0x1
 671 0001 11       		.uleb128 0x11
 672 0002 01       		.byte	0x1
 673 0003 25       		.uleb128 0x25
 674 0004 0E       		.uleb128 0xe
 675 0005 13       		.uleb128 0x13
 676 0006 0B       		.uleb128 0xb
 677 0007 03       		.uleb128 0x3
 678 0008 0E       		.uleb128 0xe
 679 0009 1B       		.uleb128 0x1b
 680 000a 0E       		.uleb128 0xe
 681 000b 55       		.uleb128 0x55
 682 000c 17       		.uleb128 0x17
 683 000d 11       		.uleb128 0x11
 684 000e 01       		.uleb128 0x1
ARM GAS  /tmp/ccZ6U9zI.s 			page 13


 685 000f 10       		.uleb128 0x10
 686 0010 17       		.uleb128 0x17
 687 0011 00       		.byte	0
 688 0012 00       		.byte	0
 689 0013 02       		.uleb128 0x2
 690 0014 24       		.uleb128 0x24
 691 0015 00       		.byte	0
 692 0016 0B       		.uleb128 0xb
 693 0017 0B       		.uleb128 0xb
 694 0018 3E       		.uleb128 0x3e
 695 0019 0B       		.uleb128 0xb
 696 001a 03       		.uleb128 0x3
 697 001b 0E       		.uleb128 0xe
 698 001c 00       		.byte	0
 699 001d 00       		.byte	0
 700 001e 03       		.uleb128 0x3
 701 001f 16       		.uleb128 0x16
 702 0020 00       		.byte	0
 703 0021 03       		.uleb128 0x3
 704 0022 0E       		.uleb128 0xe
 705 0023 3A       		.uleb128 0x3a
 706 0024 0B       		.uleb128 0xb
 707 0025 3B       		.uleb128 0x3b
 708 0026 0B       		.uleb128 0xb
 709 0027 39       		.uleb128 0x39
 710 0028 0B       		.uleb128 0xb
 711 0029 49       		.uleb128 0x49
 712 002a 13       		.uleb128 0x13
 713 002b 00       		.byte	0
 714 002c 00       		.byte	0
 715 002d 04       		.uleb128 0x4
 716 002e 24       		.uleb128 0x24
 717 002f 00       		.byte	0
 718 0030 0B       		.uleb128 0xb
 719 0031 0B       		.uleb128 0xb
 720 0032 3E       		.uleb128 0x3e
 721 0033 0B       		.uleb128 0xb
 722 0034 03       		.uleb128 0x3
 723 0035 08       		.uleb128 0x8
 724 0036 00       		.byte	0
 725 0037 00       		.byte	0
 726 0038 05       		.uleb128 0x5
 727 0039 34       		.uleb128 0x34
 728 003a 00       		.byte	0
 729 003b 03       		.uleb128 0x3
 730 003c 0E       		.uleb128 0xe
 731 003d 3A       		.uleb128 0x3a
 732 003e 0B       		.uleb128 0xb
 733 003f 3B       		.uleb128 0x3b
 734 0040 0B       		.uleb128 0xb
 735 0041 39       		.uleb128 0x39
 736 0042 0B       		.uleb128 0xb
 737 0043 49       		.uleb128 0x49
 738 0044 13       		.uleb128 0x13
 739 0045 3F       		.uleb128 0x3f
 740 0046 19       		.uleb128 0x19
 741 0047 3C       		.uleb128 0x3c
ARM GAS  /tmp/ccZ6U9zI.s 			page 14


 742 0048 19       		.uleb128 0x19
 743 0049 00       		.byte	0
 744 004a 00       		.byte	0
 745 004b 06       		.uleb128 0x6
 746 004c 13       		.uleb128 0x13
 747 004d 01       		.byte	0x1
 748 004e 0B       		.uleb128 0xb
 749 004f 0B       		.uleb128 0xb
 750 0050 3A       		.uleb128 0x3a
 751 0051 0B       		.uleb128 0xb
 752 0052 3B       		.uleb128 0x3b
 753 0053 0B       		.uleb128 0xb
 754 0054 39       		.uleb128 0x39
 755 0055 0B       		.uleb128 0xb
 756 0056 01       		.uleb128 0x1
 757 0057 13       		.uleb128 0x13
 758 0058 00       		.byte	0
 759 0059 00       		.byte	0
 760 005a 07       		.uleb128 0x7
 761 005b 0D       		.uleb128 0xd
 762 005c 00       		.byte	0
 763 005d 03       		.uleb128 0x3
 764 005e 0E       		.uleb128 0xe
 765 005f 3A       		.uleb128 0x3a
 766 0060 0B       		.uleb128 0xb
 767 0061 3B       		.uleb128 0x3b
 768 0062 0B       		.uleb128 0xb
 769 0063 39       		.uleb128 0x39
 770 0064 0B       		.uleb128 0xb
 771 0065 49       		.uleb128 0x49
 772 0066 13       		.uleb128 0x13
 773 0067 38       		.uleb128 0x38
 774 0068 0B       		.uleb128 0xb
 775 0069 00       		.byte	0
 776 006a 00       		.byte	0
 777 006b 08       		.uleb128 0x8
 778 006c 0F       		.uleb128 0xf
 779 006d 00       		.byte	0
 780 006e 0B       		.uleb128 0xb
 781 006f 0B       		.uleb128 0xb
 782 0070 49       		.uleb128 0x49
 783 0071 13       		.uleb128 0x13
 784 0072 00       		.byte	0
 785 0073 00       		.byte	0
 786 0074 09       		.uleb128 0x9
 787 0075 26       		.uleb128 0x26
 788 0076 00       		.byte	0
 789 0077 49       		.uleb128 0x49
 790 0078 13       		.uleb128 0x13
 791 0079 00       		.byte	0
 792 007a 00       		.byte	0
 793 007b 0A       		.uleb128 0xa
 794 007c 01       		.uleb128 0x1
 795 007d 01       		.byte	0x1
 796 007e 49       		.uleb128 0x49
 797 007f 13       		.uleb128 0x13
 798 0080 01       		.uleb128 0x1
ARM GAS  /tmp/ccZ6U9zI.s 			page 15


 799 0081 13       		.uleb128 0x13
 800 0082 00       		.byte	0
 801 0083 00       		.byte	0
 802 0084 0B       		.uleb128 0xb
 803 0085 21       		.uleb128 0x21
 804 0086 00       		.byte	0
 805 0087 49       		.uleb128 0x49
 806 0088 13       		.uleb128 0x13
 807 0089 2F       		.uleb128 0x2f
 808 008a 0B       		.uleb128 0xb
 809 008b 00       		.byte	0
 810 008c 00       		.byte	0
 811 008d 0C       		.uleb128 0xc
 812 008e 34       		.uleb128 0x34
 813 008f 00       		.byte	0
 814 0090 03       		.uleb128 0x3
 815 0091 0E       		.uleb128 0xe
 816 0092 3A       		.uleb128 0x3a
 817 0093 0B       		.uleb128 0xb
 818 0094 3B       		.uleb128 0x3b
 819 0095 0B       		.uleb128 0xb
 820 0096 39       		.uleb128 0x39
 821 0097 0B       		.uleb128 0xb
 822 0098 49       		.uleb128 0x49
 823 0099 13       		.uleb128 0x13
 824 009a 02       		.uleb128 0x2
 825 009b 18       		.uleb128 0x18
 826 009c 00       		.byte	0
 827 009d 00       		.byte	0
 828 009e 0D       		.uleb128 0xd
 829 009f 2E       		.uleb128 0x2e
 830 00a0 01       		.byte	0x1
 831 00a1 3F       		.uleb128 0x3f
 832 00a2 19       		.uleb128 0x19
 833 00a3 03       		.uleb128 0x3
 834 00a4 0E       		.uleb128 0xe
 835 00a5 3A       		.uleb128 0x3a
 836 00a6 0B       		.uleb128 0xb
 837 00a7 3B       		.uleb128 0x3b
 838 00a8 0B       		.uleb128 0xb
 839 00a9 39       		.uleb128 0x39
 840 00aa 0B       		.uleb128 0xb
 841 00ab 27       		.uleb128 0x27
 842 00ac 19       		.uleb128 0x19
 843 00ad 11       		.uleb128 0x11
 844 00ae 01       		.uleb128 0x1
 845 00af 12       		.uleb128 0x12
 846 00b0 06       		.uleb128 0x6
 847 00b1 40       		.uleb128 0x40
 848 00b2 18       		.uleb128 0x18
 849 00b3 9742     		.uleb128 0x2117
 850 00b5 19       		.uleb128 0x19
 851 00b6 01       		.uleb128 0x1
 852 00b7 13       		.uleb128 0x13
 853 00b8 00       		.byte	0
 854 00b9 00       		.byte	0
 855 00ba 0E       		.uleb128 0xe
ARM GAS  /tmp/ccZ6U9zI.s 			page 16


 856 00bb 34       		.uleb128 0x34
 857 00bc 00       		.byte	0
 858 00bd 03       		.uleb128 0x3
 859 00be 08       		.uleb128 0x8
 860 00bf 3A       		.uleb128 0x3a
 861 00c0 0B       		.uleb128 0xb
 862 00c1 3B       		.uleb128 0x3b
 863 00c2 0B       		.uleb128 0xb
 864 00c3 39       		.uleb128 0x39
 865 00c4 0B       		.uleb128 0xb
 866 00c5 49       		.uleb128 0x49
 867 00c6 13       		.uleb128 0x13
 868 00c7 02       		.uleb128 0x2
 869 00c8 17       		.uleb128 0x17
 870 00c9 B742     		.uleb128 0x2137
 871 00cb 17       		.uleb128 0x17
 872 00cc 00       		.byte	0
 873 00cd 00       		.byte	0
 874 00ce 0F       		.uleb128 0xf
 875 00cf 0B       		.uleb128 0xb
 876 00d0 01       		.byte	0x1
 877 00d1 55       		.uleb128 0x55
 878 00d2 17       		.uleb128 0x17
 879 00d3 00       		.byte	0
 880 00d4 00       		.byte	0
 881 00d5 10       		.uleb128 0x10
 882 00d6 2E       		.uleb128 0x2e
 883 00d7 00       		.byte	0
 884 00d8 3F       		.uleb128 0x3f
 885 00d9 19       		.uleb128 0x19
 886 00da 03       		.uleb128 0x3
 887 00db 0E       		.uleb128 0xe
 888 00dc 3A       		.uleb128 0x3a
 889 00dd 0B       		.uleb128 0xb
 890 00de 3B       		.uleb128 0x3b
 891 00df 0B       		.uleb128 0xb
 892 00e0 39       		.uleb128 0x39
 893 00e1 0B       		.uleb128 0xb
 894 00e2 27       		.uleb128 0x27
 895 00e3 19       		.uleb128 0x19
 896 00e4 8701     		.uleb128 0x87
 897 00e6 19       		.uleb128 0x19
 898 00e7 11       		.uleb128 0x11
 899 00e8 01       		.uleb128 0x1
 900 00e9 12       		.uleb128 0x12
 901 00ea 06       		.uleb128 0x6
 902 00eb 40       		.uleb128 0x40
 903 00ec 18       		.uleb128 0x18
 904 00ed 9742     		.uleb128 0x2117
 905 00ef 19       		.uleb128 0x19
 906 00f0 00       		.byte	0
 907 00f1 00       		.byte	0
 908 00f2 11       		.uleb128 0x11
 909 00f3 2E       		.uleb128 0x2e
 910 00f4 00       		.byte	0
 911 00f5 3F       		.uleb128 0x3f
 912 00f6 19       		.uleb128 0x19
ARM GAS  /tmp/ccZ6U9zI.s 			page 17


 913 00f7 03       		.uleb128 0x3
 914 00f8 0E       		.uleb128 0xe
 915 00f9 3A       		.uleb128 0x3a
 916 00fa 0B       		.uleb128 0xb
 917 00fb 3B       		.uleb128 0x3b
 918 00fc 0B       		.uleb128 0xb
 919 00fd 39       		.uleb128 0x39
 920 00fe 0B       		.uleb128 0xb
 921 00ff 27       		.uleb128 0x27
 922 0100 19       		.uleb128 0x19
 923 0101 00       		.byte	0
 924 0102 00       		.byte	0
 925 0103 12       		.uleb128 0x12
 926 0104 2E       		.uleb128 0x2e
 927 0105 00       		.byte	0
 928 0106 3F       		.uleb128 0x3f
 929 0107 19       		.uleb128 0x19
 930 0108 03       		.uleb128 0x3
 931 0109 0E       		.uleb128 0xe
 932 010a 3A       		.uleb128 0x3a
 933 010b 0B       		.uleb128 0xb
 934 010c 3B       		.uleb128 0x3b
 935 010d 0B       		.uleb128 0xb
 936 010e 39       		.uleb128 0x39
 937 010f 0B       		.uleb128 0xb
 938 0110 27       		.uleb128 0x27
 939 0111 19       		.uleb128 0x19
 940 0112 20       		.uleb128 0x20
 941 0113 0B       		.uleb128 0xb
 942 0114 00       		.byte	0
 943 0115 00       		.byte	0
 944 0116 13       		.uleb128 0x13
 945 0117 2E       		.uleb128 0x2e
 946 0118 00       		.byte	0
 947 0119 31       		.uleb128 0x31
 948 011a 13       		.uleb128 0x13
 949 011b 11       		.uleb128 0x11
 950 011c 01       		.uleb128 0x1
 951 011d 12       		.uleb128 0x12
 952 011e 06       		.uleb128 0x6
 953 011f 40       		.uleb128 0x40
 954 0120 18       		.uleb128 0x18
 955 0121 9742     		.uleb128 0x2117
 956 0123 19       		.uleb128 0x19
 957 0124 00       		.byte	0
 958 0125 00       		.byte	0
 959 0126 00       		.byte	0
 960              		.section	.debug_loc,"",%progbits
 961              	.Ldebug_loc0:
 962              	.LVUS0:
 963 0000 02       		.uleb128 .LVU7
 964 0001 00       		.uleb128 .LVU12
 965 0002 00       		.uleb128 .LVU12
 966 0003 01       		.uleb128 .LVU35
 967              	.LLST0:
 968 0004 00000000 		.4byte	.LVL0
 969 0008 14000000 		.4byte	.LVL1
ARM GAS  /tmp/ccZ6U9zI.s 			page 18


 970 000c 0600     		.2byte	0x6
 971 000e 03       		.byte	0x3
 972 000f 00000000 		.4byte	ram_areas
 973 0013 9F       		.byte	0x9f
 974 0014 14000000 		.4byte	.LVL1
 975 0018 48000000 		.4byte	.LVL11
 976 001c 0100     		.2byte	0x1
 977 001e 56       		.byte	0x56
 978 001f 00000000 		.4byte	0
 979 0023 00000000 		.4byte	0
 980              	.LVUS1:
 981 0027 02       		.uleb128 .LVU14
 982 0028 00       		.uleb128 .LVU17
 983 0029 00       		.uleb128 .LVU17
 984 002a 00       		.uleb128 .LVU19
 985 002b 00       		.uleb128 .LVU19
 986 002c 02       		.uleb128 .LVU22
 987 002d 02       		.uleb128 .LVU22
 988 002e 00       		.uleb128 .LVU25
 989              	.LLST1:
 990 002f 14000000 		.4byte	.LVL1
 991 0033 1A000000 		.4byte	.LVL2
 992 0037 0200     		.2byte	0x2
 993 0039 76       		.byte	0x76
 994 003a 00       		.sleb128 0
 995 003b 1A000000 		.4byte	.LVL2
 996 003f 1C000000 		.4byte	.LVL3
 997 0043 0100     		.2byte	0x1
 998 0045 50       		.byte	0x50
 999 0046 1C000000 		.4byte	.LVL3
 1000 004a 1E000000 		.4byte	.LVL4
 1001 004e 0300     		.2byte	0x3
 1002 0050 70       		.byte	0x70
 1003 0051 7C       		.sleb128 -4
 1004 0052 9F       		.byte	0x9f
 1005 0053 1E000000 		.4byte	.LVL4
 1006 0057 32000000 		.4byte	.LVL6
 1007 005b 0100     		.2byte	0x1
 1008 005d 50       		.byte	0x50
 1009 005e 00000000 		.4byte	0
 1010 0062 00000000 		.4byte	0
 1011              	.LVUS2:
 1012 0066 03       		.uleb128 .LVU15
 1013 0067 00       		.uleb128 .LVU17
 1014 0068 00       		.uleb128 .LVU17
 1015 0069 00       		.uleb128 .LVU20
 1016 006a 00       		.uleb128 .LVU20
 1017 006b 01       		.uleb128 .LVU21
 1018 006c 01       		.uleb128 .LVU21
 1019 006d 00       		.uleb128 .LVU23
 1020 006e 00       		.uleb128 .LVU23
 1021 006f 00       		.uleb128 .LVU27
 1022 0070 01       		.uleb128 .LVU28
 1023 0071 00       		.uleb128 .LVU33
 1024 0072 00       		.uleb128 .LVU34
 1025 0073 00       		.uleb128 0
 1026              	.LLST2:
ARM GAS  /tmp/ccZ6U9zI.s 			page 19


 1027 0074 14000000 		.4byte	.LVL1
 1028 0078 1A000000 		.4byte	.LVL2
 1029 007c 0200     		.2byte	0x2
 1030 007e 76       		.byte	0x76
 1031 007f 04       		.sleb128 4
 1032 0080 1A000000 		.4byte	.LVL2
 1033 0084 1E000000 		.4byte	.LVL4
 1034 0088 0100     		.2byte	0x1
 1035 008a 52       		.byte	0x52
 1036 008b 1E000000 		.4byte	.LVL4
 1037 008f 1E000000 		.4byte	.LVL4
 1038 0093 0300     		.2byte	0x3
 1039 0095 72       		.byte	0x72
 1040 0096 7C       		.sleb128 -4
 1041 0097 9F       		.byte	0x9f
 1042 0098 1E000000 		.4byte	.LVL4
 1043 009c 2E000000 		.4byte	.LVL5
 1044 00a0 0100     		.2byte	0x1
 1045 00a2 52       		.byte	0x52
 1046 00a3 2E000000 		.4byte	.LVL5
 1047 00a7 34000000 		.4byte	.LVL7
 1048 00ab 0100     		.2byte	0x1
 1049 00ad 53       		.byte	0x53
 1050 00ae 34000000 		.4byte	.LVL7
 1051 00b2 42000000 		.4byte	.LVL9
 1052 00b6 0100     		.2byte	0x1
 1053 00b8 53       		.byte	0x53
 1054 00b9 48000000 		.4byte	.LVL10
 1055 00bd 60000000 		.4byte	.LFE38
 1056 00c1 0100     		.2byte	0x1
 1057 00c3 53       		.byte	0x53
 1058 00c4 00000000 		.4byte	0
 1059 00c8 00000000 		.4byte	0
 1060              		.section	.debug_aranges,"",%progbits
 1061 0000 2C000000 		.4byte	0x2c
 1062 0004 0200     		.2byte	0x2
 1063 0006 00000000 		.4byte	.Ldebug_info0
 1064 000a 04       		.byte	0x4
 1065 000b 00       		.byte	0
 1066 000c 0000     		.2byte	0
 1067 000e 0000     		.2byte	0
 1068 0010 00000000 		.4byte	.LFB34
 1069 0014 02000000 		.4byte	.LFE34-.LFB34
 1070 0018 00000000 		.4byte	.LFB37
 1071 001c 02000000 		.4byte	.LFE37-.LFB37
 1072 0020 00000000 		.4byte	.LFB38
 1073 0024 60000000 		.4byte	.LFE38-.LFB38
 1074 0028 00000000 		.4byte	0
 1075 002c 00000000 		.4byte	0
 1076              		.section	.debug_ranges,"",%progbits
 1077              	.Ldebug_ranges0:
 1078 0000 06000000 		.4byte	.LBB2
 1079 0004 08000000 		.4byte	.LBE2
 1080 0008 14000000 		.4byte	.LBB3
 1081 000c 3A000000 		.4byte	.LBE3
 1082 0010 00000000 		.4byte	0
 1083 0014 00000000 		.4byte	0
ARM GAS  /tmp/ccZ6U9zI.s 			page 20


 1084 0018 00000000 		.4byte	.LFB34
 1085 001c 02000000 		.4byte	.LFE34
 1086 0020 00000000 		.4byte	.LFB37
 1087 0024 02000000 		.4byte	.LFE37
 1088 0028 00000000 		.4byte	.LFB38
 1089 002c 60000000 		.4byte	.LFE38
 1090 0030 00000000 		.4byte	0
 1091 0034 00000000 		.4byte	0
 1092              		.section	.debug_line,"",%progbits
 1093              	.Ldebug_line0:
 1094 0000 EE010000 		.section	.debug_str,"MS",%progbits,1
 1094      03004201 
 1094      00000201 
 1094      FB0E0D00 
 1094      01010101 
 1095              	.LASF55:
 1096 0000 5F5F696E 		.ascii	"__init_ram_areas\000"
 1096      69745F72 
 1096      616D5F61 
 1096      72656173 
 1096      00
 1097              	.LASF26:
 1098 0011 5F5F7261 		.ascii	"__ram2_init__\000"
 1098      6D325F69 
 1098      6E69745F 
 1098      5F00
 1099              	.LASF46:
 1100 001f 5F5F7261 		.ascii	"__ram7_init__\000"
 1100      6D375F69 
 1100      6E69745F 
 1100      5F00
 1101              	.LASF20:
 1102 002d 5F5F7261 		.ascii	"__ram0_noinit__\000"
 1102      6D305F6E 
 1102      6F696E69 
 1102      745F5F00 
 1103              	.LASF57:
 1104 003d 5F5F636F 		.ascii	"__core_init\000"
 1104      72655F69 
 1104      6E697400 
 1105              	.LASF48:
 1106 0049 5F5F7261 		.ascii	"__ram7_noinit__\000"
 1106      6D375F6E 
 1106      6F696E69 
 1106      745F5F00 
 1107              	.LASF12:
 1108 0059 696E6974 		.ascii	"init_area\000"
 1108      5F617265 
 1108      6100
 1109              	.LASF54:
 1110 0063 72616D5F 		.ascii	"ram_areas\000"
 1110      61726561 
 1110      7300
 1111              	.LASF17:
 1112 006d 5F5F7261 		.ascii	"__ram0_init_text__\000"
 1112      6D305F69 
 1112      6E69745F 
ARM GAS  /tmp/ccZ6U9zI.s 			page 21


 1112      74657874 
 1112      5F5F00
 1113              	.LASF3:
 1114 0080 73686F72 		.ascii	"short unsigned int\000"
 1114      7420756E 
 1114      7369676E 
 1114      65642069 
 1114      6E7400
 1115              	.LASF31:
 1116 0093 5F5F7261 		.ascii	"__ram3_clear__\000"
 1116      6D335F63 
 1116      6C656172 
 1116      5F5F00
 1117              	.LASF22:
 1118 00a2 5F5F7261 		.ascii	"__ram1_init__\000"
 1118      6D315F69 
 1118      6E69745F 
 1118      5F00
 1119              	.LASF42:
 1120 00b0 5F5F7261 		.ascii	"__ram6_init__\000"
 1120      6D365F69 
 1120      6E69745F 
 1120      5F00
 1121              	.LASF41:
 1122 00be 5F5F7261 		.ascii	"__ram6_init_text__\000"
 1122      6D365F69 
 1122      6E69745F 
 1122      74657874 
 1122      5F5F00
 1123              	.LASF44:
 1124 00d1 5F5F7261 		.ascii	"__ram6_noinit__\000"
 1124      6D365F6E 
 1124      6F696E69 
 1124      745F5F00 
 1125              	.LASF29:
 1126 00e1 5F5F7261 		.ascii	"__ram3_init_text__\000"
 1126      6D335F69 
 1126      6E69745F 
 1126      74657874 
 1126      5F5F00
 1127              	.LASF13:
 1128 00f4 636C6561 		.ascii	"clear_area\000"
 1128      725F6172 
 1128      656100
 1129              	.LASF49:
 1130 00ff 5F5F6C61 		.ascii	"__late_init\000"
 1130      74655F69 
 1130      6E697400 
 1131              	.LASF43:
 1132 010b 5F5F7261 		.ascii	"__ram6_clear__\000"
 1132      6D365F63 
 1132      6C656172 
 1132      5F5F00
 1133              	.LASF5:
 1134 011a 6C6F6E67 		.ascii	"long unsigned int\000"
 1134      20756E73 
 1134      69676E65 
ARM GAS  /tmp/ccZ6U9zI.s 			page 22


 1134      6420696E 
 1134      7400
 1135              	.LASF18:
 1136 012c 5F5F7261 		.ascii	"__ram0_init__\000"
 1136      6D305F69 
 1136      6E69745F 
 1136      5F00
 1137              	.LASF38:
 1138 013a 5F5F7261 		.ascii	"__ram5_init__\000"
 1138      6D355F69 
 1138      6E69745F 
 1138      5F00
 1139              	.LASF23:
 1140 0148 5F5F7261 		.ascii	"__ram1_clear__\000"
 1140      6D315F63 
 1140      6C656172 
 1140      5F5F00
 1141              	.LASF40:
 1142 0157 5F5F7261 		.ascii	"__ram5_noinit__\000"
 1142      6D355F6E 
 1142      6F696E69 
 1142      745F5F00 
 1143              	.LASF30:
 1144 0167 5F5F7261 		.ascii	"__ram3_init__\000"
 1144      6D335F69 
 1144      6E69745F 
 1144      5F00
 1145              	.LASF1:
 1146 0175 756E7369 		.ascii	"unsigned char\000"
 1146      676E6564 
 1146      20636861 
 1146      7200
 1147              	.LASF53:
 1148 0183 2F6F7074 		.ascii	"/opt/nanovna/NanoVNA-H\000"
 1148      2F6E616E 
 1148      6F766E61 
 1148      2F4E616E 
 1148      6F564E41 
 1149              	.LASF25:
 1150 019a 5F5F7261 		.ascii	"__ram2_init_text__\000"
 1150      6D325F69 
 1150      6E69745F 
 1150      74657874 
 1150      5F5F00
 1151              	.LASF9:
 1152 01ad 5F5F7569 		.ascii	"__uint32_t\000"
 1152      6E743332 
 1152      5F7400
 1153              	.LASF15:
 1154 01b8 72616D5F 		.ascii	"ram_init_area_t\000"
 1154      696E6974 
 1154      5F617265 
 1154      615F7400 
 1155              	.LASF37:
 1156 01c8 5F5F7261 		.ascii	"__ram5_init_text__\000"
 1156      6D355F69 
 1156      6E69745F 
ARM GAS  /tmp/ccZ6U9zI.s 			page 23


 1156      74657874 
 1156      5F5F00
 1157              	.LASF47:
 1158 01db 5F5F7261 		.ascii	"__ram7_clear__\000"
 1158      6D375F63 
 1158      6C656172 
 1158      5F5F00
 1159              	.LASF51:
 1160 01ea 474E5520 		.ascii	"GNU C11 8.2.1 20181213 (release) [gcc-8-branch revi"
 1160      43313120 
 1160      382E322E 
 1160      31203230 
 1160      31383132 
 1161 021d 73696F6E 		.ascii	"sion 267074] -mcpu=cortex-m0 -mno-thumb-interwork -"
 1161      20323637 
 1161      3037345D 
 1161      202D6D63 
 1161      70753D63 
 1162 0250 6D746875 		.ascii	"mthumb -mfloat-abi=soft -march=armv6s-m -ggdb -O2 -"
 1162      6D62202D 
 1162      6D666C6F 
 1162      61742D61 
 1162      62693D73 
 1163 0283 7374643D 		.ascii	"std=gnu11 -fomit-frame-pointer -falign-functions=16"
 1163      676E7531 
 1163      31202D66 
 1163      6F6D6974 
 1163      2D667261 
 1164 02b6 202D6673 		.ascii	" -fstack-usage -ffunction-sections -fdata-sections "
 1164      7461636B 
 1164      2D757361 
 1164      6765202D 
 1164      6666756E 
 1165 02e9 2D666E6F 		.ascii	"-fno-common\000"
 1165      2D636F6D 
 1165      6D6F6E00 
 1166              	.LASF34:
 1167 02f5 5F5F7261 		.ascii	"__ram4_init__\000"
 1167      6D345F69 
 1167      6E69745F 
 1167      5F00
 1168              	.LASF52:
 1169 0303 43686962 		.ascii	"ChibiOS/os/common/startup/ARMCMx/compilers/GCC/crt1"
 1169      694F532F 
 1169      6F732F63 
 1169      6F6D6D6F 
 1169      6E2F7374 
 1170 0336 2E6300   		.ascii	".c\000"
 1171              	.LASF36:
 1172 0339 5F5F7261 		.ascii	"__ram4_noinit__\000"
 1172      6D345F6E 
 1172      6F696E69 
 1172      745F5F00 
 1173              	.LASF8:
 1174 0349 756E7369 		.ascii	"unsigned int\000"
 1174      676E6564 
 1174      20696E74 
ARM GAS  /tmp/ccZ6U9zI.s 			page 24


 1174      00
 1175              	.LASF7:
 1176 0356 6C6F6E67 		.ascii	"long long unsigned int\000"
 1176      206C6F6E 
 1176      6720756E 
 1176      7369676E 
 1176      65642069 
 1177              	.LASF45:
 1178 036d 5F5F7261 		.ascii	"__ram7_init_text__\000"
 1178      6D375F69 
 1178      6E69745F 
 1178      74657874 
 1178      5F5F00
 1179              	.LASF50:
 1180 0380 5F5F6561 		.ascii	"__early_init\000"
 1180      726C795F 
 1180      696E6974 
 1180      00
 1181              	.LASF35:
 1182 038d 5F5F7261 		.ascii	"__ram4_clear__\000"
 1182      6D345F63 
 1182      6C656172 
 1182      5F5F00
 1183              	.LASF14:
 1184 039c 6E6F5F69 		.ascii	"no_init_area\000"
 1184      6E69745F 
 1184      61726561 
 1184      00
 1185              	.LASF56:
 1186 03a9 5F5F6465 		.ascii	"__default_exit\000"
 1186      6661756C 
 1186      745F6578 
 1186      697400
 1187              	.LASF32:
 1188 03b8 5F5F7261 		.ascii	"__ram3_noinit__\000"
 1188      6D335F6E 
 1188      6F696E69 
 1188      745F5F00 
 1189              	.LASF6:
 1190 03c8 6C6F6E67 		.ascii	"long long int\000"
 1190      206C6F6E 
 1190      6720696E 
 1190      7400
 1191              	.LASF28:
 1192 03d6 5F5F7261 		.ascii	"__ram2_noinit__\000"
 1192      6D325F6E 
 1192      6F696E69 
 1192      745F5F00 
 1193              	.LASF21:
 1194 03e6 5F5F7261 		.ascii	"__ram1_init_text__\000"
 1194      6D315F69 
 1194      6E69745F 
 1194      74657874 
 1194      5F5F00
 1195              	.LASF16:
 1196 03f9 53797374 		.ascii	"SystemCoreClock\000"
 1196      656D436F 
ARM GAS  /tmp/ccZ6U9zI.s 			page 25


 1196      7265436C 
 1196      6F636B00 
 1197              	.LASF27:
 1198 0409 5F5F7261 		.ascii	"__ram2_clear__\000"
 1198      6D325F63 
 1198      6C656172 
 1198      5F5F00
 1199              	.LASF33:
 1200 0418 5F5F7261 		.ascii	"__ram4_init_text__\000"
 1200      6D345F69 
 1200      6E69745F 
 1200      74657874 
 1200      5F5F00
 1201              	.LASF2:
 1202 042b 73686F72 		.ascii	"short int\000"
 1202      7420696E 
 1202      7400
 1203              	.LASF11:
 1204 0435 696E6974 		.ascii	"init_text_area\000"
 1204      5F746578 
 1204      745F6172 
 1204      656100
 1205              	.LASF19:
 1206 0444 5F5F7261 		.ascii	"__ram0_clear__\000"
 1206      6D305F63 
 1206      6C656172 
 1206      5F5F00
 1207              	.LASF10:
 1208 0453 75696E74 		.ascii	"uint32_t\000"
 1208      33325F74 
 1208      00
 1209              	.LASF4:
 1210 045c 6C6F6E67 		.ascii	"long int\000"
 1210      20696E74 
 1210      00
 1211              	.LASF24:
 1212 0465 5F5F7261 		.ascii	"__ram1_noinit__\000"
 1212      6D315F6E 
 1212      6F696E69 
 1212      745F5F00 
 1213              	.LASF0:
 1214 0475 7369676E 		.ascii	"signed char\000"
 1214      65642063 
 1214      68617200 
 1215              	.LASF39:
 1216 0481 5F5F7261 		.ascii	"__ram5_clear__\000"
 1216      6D355F63 
 1216      6C656172 
 1216      5F5F00
 1217              		.ident	"GCC: (GNU Tools for Arm Embedded Processors 8-2018-q4-major) 8.2.1 20181213 (release) [gcc
ARM GAS  /tmp/ccZ6U9zI.s 			page 26


DEFINED SYMBOLS
                            *ABS*:0000000000000000 crt1.c
     /tmp/ccZ6U9zI.s:16     .text.__core_init:0000000000000000 $t
     /tmp/ccZ6U9zI.s:25     .text.__core_init:0000000000000000 __core_init
     /tmp/ccZ6U9zI.s:40     .text.__early_init:0000000000000000 $t
     /tmp/ccZ6U9zI.s:48     .text.__early_init:0000000000000000 __early_init
     /tmp/ccZ6U9zI.s:60     .text.__late_init:0000000000000000 $t
     /tmp/ccZ6U9zI.s:68     .text.__late_init:0000000000000000 __late_init
     /tmp/ccZ6U9zI.s:80     .text.__default_exit:0000000000000000 $t
     /tmp/ccZ6U9zI.s:88     .text.__default_exit:0000000000000000 __default_exit
     /tmp/ccZ6U9zI.s:104    .text.__init_ram_areas:0000000000000000 $t
     /tmp/ccZ6U9zI.s:112    .text.__init_ram_areas:0000000000000000 __init_ram_areas
     /tmp/ccZ6U9zI.s:217    .text.__init_ram_areas:000000000000004c $d
     /tmp/ccZ6U9zI.s:229    .rodata.ram_areas:0000000000000000 ram_areas
     /tmp/ccZ6U9zI.s:226    .rodata.ram_areas:0000000000000000 $d

UNDEFINED SYMBOLS
__ram0_noinit__
__ram0_clear__
__ram0_init__
__ram0_init_text__
__ram1_init_text__
__ram1_init__
__ram1_clear__
__ram1_noinit__
__ram2_init_text__
__ram2_init__
__ram2_clear__
__ram2_noinit__
__ram3_init_text__
__ram3_init__
__ram3_clear__
__ram3_noinit__
__ram4_init_text__
__ram4_init__
__ram4_clear__
__ram4_noinit__
__ram5_init_text__
__ram5_init__
__ram5_clear__
__ram5_noinit__
__ram6_init_text__
__ram6_init__
__ram6_clear__
__ram6_noinit__
__ram7_init_text__
__ram7_init__
__ram7_clear__
__ram7_noinit__
