ARM GAS  /tmp/ccHRUzJb.s 			page 1


   1              		.cpu cortex-m0
   2              		.eabi_attribute 20, 1
   3              		.eabi_attribute 21, 1
   4              		.eabi_attribute 23, 3
   5              		.eabi_attribute 24, 1
   6              		.eabi_attribute 25, 1
   7              		.eabi_attribute 26, 1
   8              		.eabi_attribute 30, 2
   9              		.eabi_attribute 34, 0
  10              		.eabi_attribute 18, 4
  11              		.file	"dsp.c"
  12              		.text
  13              	.Ltext0:
  14              		.cfi_sections	.debug_frame
  15              		.section	.text.dsp_process,"ax",%progbits
  16              		.align	1
  17              		.p2align 4,,15
  18              		.global	dsp_process
  19              		.arch armv6s-m
  20              		.syntax unified
  21              		.code	16
  22              		.thumb_func
  23              		.fpu softvfp
  24              		.type	dsp_process, %function
  25              	dsp_process:
  26              	.LVL0:
  27              	.LFB178:
  28              		.file 1 "dsp.c"
  29              		.loc 1 50 1 view -0
  30              		.cfi_startproc
  31              		@ args = 0, pretend = 0, frame = 8
  32              		@ frame_needed = 0, uses_anonymous_args = 0
  33              		.loc 1 51 3 view .LVU1
  34              		.loc 1 52 3 view .LVU2
  35              		.loc 1 50 1 is_stmt 0 view .LVU3
  36 0000 F0B5     		push	{r4, r5, r6, r7, lr}
  37              		.cfi_def_cfa_offset 20
  38              		.cfi_offset 4, -20
  39              		.cfi_offset 5, -16
  40              		.cfi_offset 6, -12
  41              		.cfi_offset 7, -8
  42              		.cfi_offset 14, -4
  43 0002 DE46     		mov	lr, fp
  44 0004 5746     		mov	r7, r10
  45 0006 4E46     		mov	r6, r9
  46 0008 4546     		mov	r5, r8
  47 000a E0B5     		push	{r5, r6, r7, lr}
  48              		.cfi_def_cfa_offset 36
  49              		.cfi_offset 8, -36
  50              		.cfi_offset 9, -32
  51              		.cfi_offset 10, -28
  52              		.cfi_offset 11, -24
  53              		.loc 1 52 12 view .LVU4
  54 000c 4908     		lsrs	r1, r1, #1
  55              	.LVL1:
  56              		.loc 1 53 3 is_stmt 1 view .LVU5
  57              		.loc 1 54 3 view .LVU6
ARM GAS  /tmp/ccHRUzJb.s 			page 2


  58              		.loc 1 55 3 view .LVU7
  59              		.loc 1 56 3 view .LVU8
  60              		.loc 1 57 3 view .LVU9
  61              		.loc 1 59 3 view .LVU10
  62              		.loc 1 50 1 is_stmt 0 view .LVU11
  63 000e 83B0     		sub	sp, sp, #12
  64              		.cfi_def_cfa_offset 48
  65              		.loc 1 59 3 view .LVU12
  66 0010 0029     		cmp	r1, #0
  67 0012 48D0     		beq	.L4
  68 0014 8900     		lsls	r1, r1, #2
  69              	.LVL2:
  70              		.loc 1 59 3 view .LVU13
  71 0016 4318     		adds	r3, r0, r1
  72 0018 0193     		str	r3, [sp, #4]
  73              		.loc 1 57 11 view .LVU14
  74 001a 0023     		movs	r3, #0
  75              		.loc 1 59 3 view .LVU15
  76 001c 254A     		ldr	r2, .L8
  77 001e 264F     		ldr	r7, .L8+4
  78 0020 264D     		ldr	r5, .L8+8
  79              		.loc 1 57 11 view .LVU16
  80 0022 9846     		mov	r8, r3
  81              		.loc 1 56 11 view .LVU17
  82 0024 9946     		mov	r9, r3
  83              		.loc 1 55 11 view .LVU18
  84 0026 9A46     		mov	r10, r3
  85              		.loc 1 54 11 view .LVU19
  86 0028 9B46     		mov	fp, r3
  87              	.LBB2:
  88              		.loc 1 69 23 view .LVU20
  89 002a 0F26     		movs	r6, #15
  90 002c 9446     		mov	ip, r2
  91 002e 05E0     		b	.L3
  92              	.LVL3:
  93              	.L7:
  94              		.loc 1 69 23 view .LVU21
  95 0030 0023     		movs	r3, #0
  96 0032 FD5E     		ldrsh	r5, [r7, r3]
  97 0034 0222     		movs	r2, #2
  98 0036 BB5E     		ldrsh	r3, [r7, r2]
  99 0038 0437     		adds	r7, r7, #4
 100 003a 9C46     		mov	ip, r3
 101              	.LVL4:
 102              	.L3:
 103              		.loc 1 60 5 is_stmt 1 discriminator 3 view .LVU22
 104              		.loc 1 69 19 is_stmt 0 discriminator 3 view .LVU23
 105 003c 2A00     		movs	r2, r5
 106              		.loc 1 60 14 discriminator 3 view .LVU24
 107 003e 08C8     		ldmia	r0!, {r3}
 108              	.LVL5:
 109              		.loc 1 61 5 is_stmt 1 discriminator 3 view .LVU25
 110              		.loc 1 62 5 discriminator 3 view .LVU26
 111              		.loc 1 67 5 discriminator 3 view .LVU27
 112              		.loc 1 68 5 discriminator 3 view .LVU28
 113              		.loc 1 69 5 discriminator 3 view .LVU29
 114              		.loc 1 69 19 is_stmt 0 discriminator 3 view .LVU30
ARM GAS  /tmp/ccHRUzJb.s 			page 3


 115 0040 1C14     		asrs	r4, r3, #16
 116 0042 6243     		muls	r2, r4
 117              	.LVL6:
 118              		.loc 1 69 23 discriminator 3 view .LVU31
 119 0044 D117     		asrs	r1, r2, #31
 120 0046 3140     		ands	r1, r6
 121 0048 8918     		adds	r1, r1, r2
 122              		.loc 1 70 19 discriminator 3 view .LVU32
 123 004a 6246     		mov	r2, ip
 124 004c 6243     		muls	r2, r4
 125              		.loc 1 70 23 discriminator 3 view .LVU33
 126 004e D417     		asrs	r4, r2, #31
 127 0050 3440     		ands	r4, r6
 128 0052 A418     		adds	r4, r4, r2
 129              		.loc 1 71 18 discriminator 3 view .LVU34
 130 0054 2A00     		movs	r2, r5
 131 0056 1BB2     		sxth	r3, r3
 132              	.LVL7:
 133              		.loc 1 71 18 discriminator 3 view .LVU35
 134 0058 5A43     		muls	r2, r3
 135              		.loc 1 71 22 discriminator 3 view .LVU36
 136 005a D517     		asrs	r5, r2, #31
 137              	.LVL8:
 138              		.loc 1 71 22 discriminator 3 view .LVU37
 139 005c 3540     		ands	r5, r6
 140 005e AD18     		adds	r5, r5, r2
 141              		.loc 1 72 18 discriminator 3 view .LVU38
 142 0060 6246     		mov	r2, ip
 143 0062 5A43     		muls	r2, r3
 144              		.loc 1 72 22 discriminator 3 view .LVU39
 145 0064 D317     		asrs	r3, r2, #31
 146              	.LVL9:
 147              		.loc 1 72 22 discriminator 3 view .LVU40
 148 0066 3340     		ands	r3, r6
 149 0068 9B18     		adds	r3, r3, r2
 150 006a 1B11     		asrs	r3, r3, #4
 151              		.loc 1 72 11 discriminator 3 view .LVU41
 152 006c 9844     		add	r8, r8, r3
 153              	.LVL10:
 154              		.loc 1 72 11 discriminator 3 view .LVU42
 155              	.LBE2:
 156              		.loc 1 59 3 discriminator 3 view .LVU43
 157 006e 019B     		ldr	r3, [sp, #4]
 158              	.LBB3:
 159              		.loc 1 69 23 discriminator 3 view .LVU44
 160 0070 0911     		asrs	r1, r1, #4
 161              		.loc 1 70 23 discriminator 3 view .LVU45
 162 0072 2411     		asrs	r4, r4, #4
 163              		.loc 1 71 22 discriminator 3 view .LVU46
 164 0074 2D11     		asrs	r5, r5, #4
 165              		.loc 1 69 12 discriminator 3 view .LVU47
 166 0076 8B44     		add	fp, fp, r1
 167              	.LVL11:
 168              		.loc 1 70 5 is_stmt 1 discriminator 3 view .LVU48
 169              		.loc 1 70 12 is_stmt 0 discriminator 3 view .LVU49
 170 0078 A244     		add	r10, r10, r4
 171              	.LVL12:
ARM GAS  /tmp/ccHRUzJb.s 			page 4


 172              		.loc 1 71 5 is_stmt 1 discriminator 3 view .LVU50
 173              		.loc 1 71 11 is_stmt 0 discriminator 3 view .LVU51
 174 007a A944     		add	r9, r9, r5
 175              	.LVL13:
 176              		.loc 1 72 5 is_stmt 1 discriminator 3 view .LVU52
 177              		.loc 1 72 5 is_stmt 0 discriminator 3 view .LVU53
 178              	.LBE3:
 179              		.loc 1 59 3 discriminator 3 view .LVU54
 180 007c 8342     		cmp	r3, r0
 181 007e D7D1     		bne	.L7
 182              	.LVL14:
 183              	.L2:
 184              		.loc 1 81 3 is_stmt 1 view .LVU55
 185              		.loc 1 81 14 is_stmt 0 view .LVU56
 186 0080 5A46     		mov	r2, fp
 187 0082 0F4B     		ldr	r3, .L8+12
 188 0084 1A60     		str	r2, [r3]
 189              		.loc 1 82 3 is_stmt 1 view .LVU57
 190              		.loc 1 82 14 is_stmt 0 view .LVU58
 191 0086 5246     		mov	r2, r10
 192 0088 0E4B     		ldr	r3, .L8+16
 193 008a 1A60     		str	r2, [r3]
 194              		.loc 1 83 3 is_stmt 1 view .LVU59
 195              		.loc 1 83 13 is_stmt 0 view .LVU60
 196 008c 4A46     		mov	r2, r9
 197 008e 0E4B     		ldr	r3, .L8+20
 198 0090 1A60     		str	r2, [r3]
 199              		.loc 1 84 3 is_stmt 1 view .LVU61
 200              		.loc 1 84 13 is_stmt 0 view .LVU62
 201 0092 4246     		mov	r2, r8
 202 0094 0D4B     		ldr	r3, .L8+24
 203 0096 1A60     		str	r2, [r3]
 204              		.loc 1 85 1 view .LVU63
 205 0098 03B0     		add	sp, sp, #12
 206              		@ sp needed
 207 009a 3CBC     		pop	{r2, r3, r4, r5}
 208 009c 9046     		mov	r8, r2
 209 009e 9946     		mov	r9, r3
 210 00a0 A246     		mov	r10, r4
 211 00a2 AB46     		mov	fp, r5
 212 00a4 F0BD     		pop	{r4, r5, r6, r7, pc}
 213              	.LVL15:
 214              	.L4:
 215              		.loc 1 57 11 view .LVU64
 216 00a6 0023     		movs	r3, #0
 217 00a8 9846     		mov	r8, r3
 218              		.loc 1 56 11 view .LVU65
 219 00aa 9946     		mov	r9, r3
 220              		.loc 1 55 11 view .LVU66
 221 00ac 9A46     		mov	r10, r3
 222              		.loc 1 54 11 view .LVU67
 223 00ae 9B46     		mov	fp, r3
 224 00b0 E6E7     		b	.L2
 225              	.L9:
 226 00b2 C046     		.align	2
 227              	.L8:
 228 00b4 35790000 		.word	31029
ARM GAS  /tmp/ccHRUzJb.s 			page 5


 229 00b8 04000000 		.word	sincos_tbl+4
 230 00bc 25290000 		.word	10533
 231 00c0 00000000 		.word	.LANCHOR0
 232 00c4 00000000 		.word	.LANCHOR1
 233 00c8 00000000 		.word	.LANCHOR2
 234 00cc 00000000 		.word	.LANCHOR3
 235              		.cfi_endproc
 236              	.LFE178:
 237              		.size	dsp_process, .-dsp_process
 238              		.global	__aeabi_i2f
 239              		.global	__aeabi_fmul
 240              		.global	__aeabi_fadd
 241              		.global	__aeabi_fdiv
 242              		.global	__aeabi_fsub
 243              		.section	.text.calculate_gamma,"ax",%progbits
 244              		.align	1
 245              		.p2align 4,,15
 246              		.global	calculate_gamma
 247              		.syntax unified
 248              		.code	16
 249              		.thumb_func
 250              		.fpu softvfp
 251              		.type	calculate_gamma, %function
 252              	calculate_gamma:
 253              	.LVL16:
 254              	.LFB179:
 255              		.loc 1 88 1 is_stmt 1 view -0
 256              		.cfi_startproc
 257              		@ args = 0, pretend = 0, frame = 0
 258              		@ frame_needed = 0, uses_anonymous_args = 0
 259              		.loc 1 91 3 view .LVU69
 260              		.loc 1 88 1 is_stmt 0 view .LVU70
 261 0000 F0B5     		push	{r4, r5, r6, r7, lr}
 262              		.cfi_def_cfa_offset 20
 263              		.cfi_offset 4, -20
 264              		.cfi_offset 5, -16
 265              		.cfi_offset 6, -12
 266              		.cfi_offset 7, -8
 267              		.cfi_offset 14, -4
 268 0002 D646     		mov	lr, r10
 269 0004 4F46     		mov	r7, r9
 270 0006 4646     		mov	r6, r8
 271              		.loc 1 91 9 view .LVU71
 272 0008 254B     		ldr	r3, .L11
 273              		.loc 1 88 1 view .LVU72
 274 000a C0B5     		push	{r6, r7, lr}
 275              		.cfi_def_cfa_offset 32
 276              		.cfi_offset 8, -32
 277              		.cfi_offset 9, -28
 278              		.cfi_offset 10, -24
 279              		.loc 1 88 1 view .LVU73
 280 000c 0600     		movs	r6, r0
 281              		.loc 1 91 9 view .LVU74
 282 000e 1868     		ldr	r0, [r3]
 283              	.LVL17:
 284              		.loc 1 91 9 view .LVU75
 285 0010 FFF7FEFF 		bl	__aeabi_i2f
ARM GAS  /tmp/ccHRUzJb.s 			page 6


 286              	.LVL18:
 287              		.loc 1 92 9 view .LVU76
 288 0014 234B     		ldr	r3, .L11+4
 289              		.loc 1 91 9 view .LVU77
 290 0016 041C     		adds	r4, r0, #0
 291              	.LVL19:
 292              		.loc 1 92 3 is_stmt 1 view .LVU78
 293              		.loc 1 92 9 is_stmt 0 view .LVU79
 294 0018 1868     		ldr	r0, [r3]
 295              	.LVL20:
 296              		.loc 1 92 9 view .LVU80
 297 001a FFF7FEFF 		bl	__aeabi_i2f
 298              	.LVL21:
 299              		.loc 1 93 17 view .LVU81
 300 001e 211C     		adds	r1, r4, #0
 301              		.loc 1 92 9 view .LVU82
 302 0020 051C     		adds	r5, r0, #0
 303              	.LVL22:
 304              		.loc 1 93 3 is_stmt 1 view .LVU83
 305              		.loc 1 93 17 is_stmt 0 view .LVU84
 306 0022 201C     		adds	r0, r4, #0
 307              	.LVL23:
 308              		.loc 1 93 17 view .LVU85
 309 0024 FFF7FEFF 		bl	__aeabi_fmul
 310              	.LVL24:
 311              		.loc 1 93 27 view .LVU86
 312 0028 291C     		adds	r1, r5, #0
 313              		.loc 1 93 17 view .LVU87
 314 002a 071C     		adds	r7, r0, #0
 315              		.loc 1 93 27 view .LVU88
 316 002c 281C     		adds	r0, r5, #0
 317 002e FFF7FEFF 		bl	__aeabi_fmul
 318              	.LVL25:
 319 0032 011C     		adds	r1, r0, #0
 320              		.loc 1 93 9 view .LVU89
 321 0034 381C     		adds	r0, r7, #0
 322 0036 FFF7FEFF 		bl	__aeabi_fadd
 323              	.LVL26:
 324              		.loc 1 95 9 view .LVU90
 325 003a 1B4B     		ldr	r3, .L11+8
 326              		.loc 1 93 9 view .LVU91
 327 003c 071C     		adds	r7, r0, #0
 328              	.LVL27:
 329              		.loc 1 95 3 is_stmt 1 view .LVU92
 330              		.loc 1 95 9 is_stmt 0 view .LVU93
 331 003e 1868     		ldr	r0, [r3]
 332              	.LVL28:
 333              		.loc 1 95 9 view .LVU94
 334 0040 FFF7FEFF 		bl	__aeabi_i2f
 335              	.LVL29:
 336              		.loc 1 96 9 view .LVU95
 337 0044 194B     		ldr	r3, .L11+12
 338              		.loc 1 95 9 view .LVU96
 339 0046 8146     		mov	r9, r0
 340              	.LVL30:
 341              		.loc 1 96 3 is_stmt 1 view .LVU97
 342              		.loc 1 96 9 is_stmt 0 view .LVU98
ARM GAS  /tmp/ccHRUzJb.s 			page 7


 343 0048 1868     		ldr	r0, [r3]
 344              	.LVL31:
 345              		.loc 1 96 9 view .LVU99
 346 004a FFF7FEFF 		bl	__aeabi_i2f
 347              	.LVL32:
 348 004e 8046     		mov	r8, r0
 349              	.LVL33:
 350              		.loc 1 97 3 is_stmt 1 view .LVU100
 351              		.loc 1 97 19 is_stmt 0 view .LVU101
 352 0050 011C     		adds	r1, r0, #0
 353 0052 281C     		adds	r0, r5, #0
 354              	.LVL34:
 355              		.loc 1 97 19 view .LVU102
 356 0054 FFF7FEFF 		bl	__aeabi_fmul
 357              	.LVL35:
 358              		.loc 1 97 29 view .LVU103
 359 0058 4946     		mov	r1, r9
 360              		.loc 1 97 19 view .LVU104
 361 005a 8246     		mov	r10, r0
 362              		.loc 1 97 29 view .LVU105
 363 005c 201C     		adds	r0, r4, #0
 364 005e FFF7FEFF 		bl	__aeabi_fmul
 365              	.LVL36:
 366 0062 011C     		adds	r1, r0, #0
 367              		.loc 1 97 24 view .LVU106
 368 0064 5046     		mov	r0, r10
 369 0066 FFF7FEFF 		bl	__aeabi_fadd
 370              	.LVL37:
 371              		.loc 1 97 35 view .LVU107
 372 006a 391C     		adds	r1, r7, #0
 373 006c FFF7FEFF 		bl	__aeabi_fdiv
 374              	.LVL38:
 375              		.loc 1 98 19 view .LVU108
 376 0070 4946     		mov	r1, r9
 377              		.loc 1 97 12 view .LVU109
 378 0072 3060     		str	r0, [r6]
 379              		.loc 1 98 3 is_stmt 1 view .LVU110
 380              		.loc 1 98 19 is_stmt 0 view .LVU111
 381 0074 281C     		adds	r0, r5, #0
 382 0076 FFF7FEFF 		bl	__aeabi_fmul
 383              	.LVL39:
 384              		.loc 1 98 29 view .LVU112
 385 007a 4146     		mov	r1, r8
 386              		.loc 1 98 19 view .LVU113
 387 007c 051C     		adds	r5, r0, #0
 388              	.LVL40:
 389              		.loc 1 98 29 view .LVU114
 390 007e 201C     		adds	r0, r4, #0
 391 0080 FFF7FEFF 		bl	__aeabi_fmul
 392              	.LVL41:
 393 0084 011C     		adds	r1, r0, #0
 394              		.loc 1 98 24 view .LVU115
 395 0086 281C     		adds	r0, r5, #0
 396 0088 FFF7FEFF 		bl	__aeabi_fsub
 397              	.LVL42:
 398              		.loc 1 98 35 view .LVU116
 399 008c 391C     		adds	r1, r7, #0
ARM GAS  /tmp/ccHRUzJb.s 			page 8


 400 008e FFF7FEFF 		bl	__aeabi_fdiv
 401              	.LVL43:
 402              		.loc 1 106 1 view .LVU117
 403              		@ sp needed
 404              		.loc 1 98 12 view .LVU118
 405 0092 7060     		str	r0, [r6, #4]
 406              	.LVL44:
 407              	.LVL45:
 408              	.LVL46:
 409              	.LVL47:
 410              	.LVL48:
 411              		.loc 1 106 1 view .LVU119
 412 0094 1CBC     		pop	{r2, r3, r4}
 413 0096 9046     		mov	r8, r2
 414 0098 9946     		mov	r9, r3
 415 009a A246     		mov	r10, r4
 416 009c F0BD     		pop	{r4, r5, r6, r7, pc}
 417              	.L12:
 418 009e C046     		.align	2
 419              	.L11:
 420 00a0 00000000 		.word	.LANCHOR2
 421 00a4 00000000 		.word	.LANCHOR3
 422 00a8 00000000 		.word	.LANCHOR0
 423 00ac 00000000 		.word	.LANCHOR1
 424              		.cfi_endproc
 425              	.LFE179:
 426              		.size	calculate_gamma, .-calculate_gamma
 427              		.global	__aeabi_i2d
 428              		.global	__aeabi_dmul
 429              		.global	__aeabi_d2f
 430              		.section	.text.fetch_amplitude,"ax",%progbits
 431              		.align	1
 432              		.p2align 4,,15
 433              		.global	fetch_amplitude
 434              		.syntax unified
 435              		.code	16
 436              		.thumb_func
 437              		.fpu softvfp
 438              		.type	fetch_amplitude, %function
 439              	fetch_amplitude:
 440              	.LVL49:
 441              	.LFB180:
 442              		.loc 1 109 1 is_stmt 1 view -0
 443              		.cfi_startproc
 444              		@ args = 0, pretend = 0, frame = 0
 445              		@ frame_needed = 0, uses_anonymous_args = 0
 446              		.loc 1 110 3 view .LVU121
 447              		.loc 1 110 26 is_stmt 0 view .LVU122
 448 0000 0C4B     		ldr	r3, .L14
 449              		.loc 1 109 1 view .LVU123
 450 0002 10B5     		push	{r4, lr}
 451              		.cfi_def_cfa_offset 8
 452              		.cfi_offset 4, -8
 453              		.cfi_offset 14, -4
 454              		.loc 1 109 1 view .LVU124
 455 0004 0400     		movs	r4, r0
 456              		.loc 1 110 26 view .LVU125
ARM GAS  /tmp/ccHRUzJb.s 			page 9


 457 0006 1868     		ldr	r0, [r3]
 458              	.LVL50:
 459              		.loc 1 110 26 view .LVU126
 460 0008 FFF7FEFF 		bl	__aeabi_i2d
 461              	.LVL51:
 462 000c 0A4A     		ldr	r2, .L14+4
 463 000e 0B4B     		ldr	r3, .L14+8
 464 0010 FFF7FEFF 		bl	__aeabi_dmul
 465              	.LVL52:
 466 0014 FFF7FEFF 		bl	__aeabi_d2f
 467              	.LVL53:
 468              		.loc 1 111 26 view .LVU127
 469 0018 094B     		ldr	r3, .L14+12
 470              		.loc 1 110 26 view .LVU128
 471 001a 2060     		str	r0, [r4]
 472              		.loc 1 111 3 is_stmt 1 view .LVU129
 473              		.loc 1 111 26 is_stmt 0 view .LVU130
 474 001c 1868     		ldr	r0, [r3]
 475 001e FFF7FEFF 		bl	__aeabi_i2d
 476              	.LVL54:
 477 0022 054A     		ldr	r2, .L14+4
 478 0024 054B     		ldr	r3, .L14+8
 479 0026 FFF7FEFF 		bl	__aeabi_dmul
 480              	.LVL55:
 481 002a FFF7FEFF 		bl	__aeabi_d2f
 482              	.LVL56:
 483              		.loc 1 112 1 view .LVU131
 484              		@ sp needed
 485              		.loc 1 111 26 view .LVU132
 486 002e 6060     		str	r0, [r4, #4]
 487              	.LVL57:
 488              		.loc 1 112 1 view .LVU133
 489 0030 10BD     		pop	{r4, pc}
 490              	.L15:
 491 0032 C046     		.align	2
 492              	.L14:
 493 0034 00000000 		.word	.LANCHOR0
 494 0038 95D626E8 		.word	-400107883
 495 003c 0B2E113E 		.word	1041313291
 496 0040 00000000 		.word	.LANCHOR1
 497              		.cfi_endproc
 498              	.LFE180:
 499              		.size	fetch_amplitude, .-fetch_amplitude
 500              		.section	.text.fetch_amplitude_ref,"ax",%progbits
 501              		.align	1
 502              		.p2align 4,,15
 503              		.global	fetch_amplitude_ref
 504              		.syntax unified
 505              		.code	16
 506              		.thumb_func
 507              		.fpu softvfp
 508              		.type	fetch_amplitude_ref, %function
 509              	fetch_amplitude_ref:
 510              	.LVL58:
 511              	.LFB181:
 512              		.loc 1 115 1 is_stmt 1 view -0
 513              		.cfi_startproc
ARM GAS  /tmp/ccHRUzJb.s 			page 10


 514              		@ args = 0, pretend = 0, frame = 0
 515              		@ frame_needed = 0, uses_anonymous_args = 0
 516              		.loc 1 116 3 view .LVU135
 517              		.loc 1 116 25 is_stmt 0 view .LVU136
 518 0000 0C4B     		ldr	r3, .L17
 519              		.loc 1 115 1 view .LVU137
 520 0002 10B5     		push	{r4, lr}
 521              		.cfi_def_cfa_offset 8
 522              		.cfi_offset 4, -8
 523              		.cfi_offset 14, -4
 524              		.loc 1 115 1 view .LVU138
 525 0004 0400     		movs	r4, r0
 526              		.loc 1 116 25 view .LVU139
 527 0006 1868     		ldr	r0, [r3]
 528              	.LVL59:
 529              		.loc 1 116 25 view .LVU140
 530 0008 FFF7FEFF 		bl	__aeabi_i2d
 531              	.LVL60:
 532 000c 0A4A     		ldr	r2, .L17+4
 533 000e 0B4B     		ldr	r3, .L17+8
 534 0010 FFF7FEFF 		bl	__aeabi_dmul
 535              	.LVL61:
 536 0014 FFF7FEFF 		bl	__aeabi_d2f
 537              	.LVL62:
 538              		.loc 1 117 25 view .LVU141
 539 0018 094B     		ldr	r3, .L17+12
 540              		.loc 1 116 25 view .LVU142
 541 001a 2060     		str	r0, [r4]
 542              		.loc 1 117 3 is_stmt 1 view .LVU143
 543              		.loc 1 117 25 is_stmt 0 view .LVU144
 544 001c 1868     		ldr	r0, [r3]
 545 001e FFF7FEFF 		bl	__aeabi_i2d
 546              	.LVL63:
 547 0022 054A     		ldr	r2, .L17+4
 548 0024 054B     		ldr	r3, .L17+8
 549 0026 FFF7FEFF 		bl	__aeabi_dmul
 550              	.LVL64:
 551 002a FFF7FEFF 		bl	__aeabi_d2f
 552              	.LVL65:
 553              		.loc 1 118 1 view .LVU145
 554              		@ sp needed
 555              		.loc 1 117 25 view .LVU146
 556 002e 6060     		str	r0, [r4, #4]
 557              	.LVL66:
 558              		.loc 1 118 1 view .LVU147
 559 0030 10BD     		pop	{r4, pc}
 560              	.L18:
 561 0032 C046     		.align	2
 562              	.L17:
 563 0034 00000000 		.word	.LANCHOR2
 564 0038 95D626E8 		.word	-400107883
 565 003c 0B2E113E 		.word	1041313291
 566 0040 00000000 		.word	.LANCHOR3
 567              		.cfi_endproc
 568              	.LFE181:
 569              		.size	fetch_amplitude_ref, .-fetch_amplitude_ref
 570              		.section	.text.reset_dsp_accumerator,"ax",%progbits
ARM GAS  /tmp/ccHRUzJb.s 			page 11


 571              		.align	1
 572              		.p2align 4,,15
 573              		.global	reset_dsp_accumerator
 574              		.syntax unified
 575              		.code	16
 576              		.thumb_func
 577              		.fpu softvfp
 578              		.type	reset_dsp_accumerator, %function
 579              	reset_dsp_accumerator:
 580              	.LFB182:
 581              		.loc 1 121 1 is_stmt 1 view -0
 582              		.cfi_startproc
 583              		@ args = 0, pretend = 0, frame = 0
 584              		@ frame_needed = 0, uses_anonymous_args = 0
 585              		@ link register save eliminated.
 586              		.loc 1 122 3 view .LVU149
 587              		.loc 1 122 13 is_stmt 0 view .LVU150
 588 0000 0023     		movs	r3, #0
 589 0002 044A     		ldr	r2, .L20
 590              		.loc 1 126 1 view .LVU151
 591              		@ sp needed
 592              		.loc 1 122 13 view .LVU152
 593 0004 1360     		str	r3, [r2]
 594              		.loc 1 123 3 is_stmt 1 view .LVU153
 595              		.loc 1 123 13 is_stmt 0 view .LVU154
 596 0006 044A     		ldr	r2, .L20+4
 597 0008 1360     		str	r3, [r2]
 598              		.loc 1 124 3 is_stmt 1 view .LVU155
 599              		.loc 1 124 14 is_stmt 0 view .LVU156
 600 000a 044A     		ldr	r2, .L20+8
 601 000c 1360     		str	r3, [r2]
 602              		.loc 1 125 3 is_stmt 1 view .LVU157
 603              		.loc 1 125 14 is_stmt 0 view .LVU158
 604 000e 044A     		ldr	r2, .L20+12
 605 0010 1360     		str	r3, [r2]
 606              		.loc 1 126 1 view .LVU159
 607 0012 7047     		bx	lr
 608              	.L21:
 609              		.align	2
 610              	.L20:
 611 0014 00000000 		.word	.LANCHOR2
 612 0018 00000000 		.word	.LANCHOR3
 613 001c 00000000 		.word	.LANCHOR0
 614 0020 00000000 		.word	.LANCHOR1
 615              		.cfi_endproc
 616              	.LFE182:
 617              		.size	reset_dsp_accumerator, .-reset_dsp_accumerator
 618              		.section	.bss.acc_ref_c,"aw",%nobits
 619              		.align	2
 620              		.set	.LANCHOR3,. + 0
 621              		.type	acc_ref_c, %object
 622              		.size	acc_ref_c, 4
 623              	acc_ref_c:
 624 0000 00000000 		.space	4
 625              		.section	.bss.acc_ref_s,"aw",%nobits
 626              		.align	2
 627              		.set	.LANCHOR2,. + 0
ARM GAS  /tmp/ccHRUzJb.s 			page 12


 628              		.type	acc_ref_s, %object
 629              		.size	acc_ref_s, 4
 630              	acc_ref_s:
 631 0000 00000000 		.space	4
 632              		.section	.bss.acc_samp_c,"aw",%nobits
 633              		.align	2
 634              		.set	.LANCHOR1,. + 0
 635              		.type	acc_samp_c, %object
 636              		.size	acc_samp_c, 4
 637              	acc_samp_c:
 638 0000 00000000 		.space	4
 639              		.section	.bss.acc_samp_s,"aw",%nobits
 640              		.align	2
 641              		.set	.LANCHOR0,. + 0
 642              		.type	acc_samp_s, %object
 643              		.size	acc_samp_s, 4
 644              	acc_samp_s:
 645 0000 00000000 		.space	4
 646              		.section	.rodata.sincos_tbl,"a"
 647              		.align	2
 648              		.type	sincos_tbl, %object
 649              		.size	sincos_tbl, 192
 650              	sincos_tbl:
 651 0000 2529     		.short	10533
 652 0002 3579     		.short	31029
 653 0004 6E6A     		.short	27246
 654 0006 1D47     		.short	18205
 655 0008 BA7F     		.short	32698
 656 000a A1F7     		.short	-2143
 657 000c 3C60     		.short	24636
 658 000e 9BAB     		.short	-21605
 659 0010 F918     		.short	6393
 660 0012 7682     		.short	-32138
 661 0014 63C7     		.short	-14493
 662 0016 338D     		.short	-29389
 663 0018 338D     		.short	-29389
 664 001a 63C7     		.short	-14493
 665 001c 7682     		.short	-32138
 666 001e F918     		.short	6393
 667 0020 9BAB     		.short	-21605
 668 0022 3C60     		.short	24636
 669 0024 A1F7     		.short	-2143
 670 0026 BA7F     		.short	32698
 671 0028 1D47     		.short	18205
 672 002a 6E6A     		.short	27246
 673 002c 3579     		.short	31029
 674 002e 2529     		.short	10533
 675 0030 3579     		.short	31029
 676 0032 DBD6     		.short	-10533
 677 0034 1D47     		.short	18205
 678 0036 9295     		.short	-27246
 679 0038 A1F7     		.short	-2143
 680 003a 4680     		.short	-32698
 681 003c 9BAB     		.short	-21605
 682 003e C49F     		.short	-24636
 683 0040 7682     		.short	-32138
 684 0042 07E7     		.short	-6393
ARM GAS  /tmp/ccHRUzJb.s 			page 13


 685 0044 338D     		.short	-29389
 686 0046 9D38     		.short	14493
 687 0048 63C7     		.short	-14493
 688 004a CD72     		.short	29389
 689 004c F918     		.short	6393
 690 004e 8A7D     		.short	32138
 691 0050 3C60     		.short	24636
 692 0052 6554     		.short	21605
 693 0054 BA7F     		.short	32698
 694 0056 5F08     		.short	2143
 695 0058 6E6A     		.short	27246
 696 005a E3B8     		.short	-18205
 697 005c 2529     		.short	10533
 698 005e CB86     		.short	-31029
 699 0060 DBD6     		.short	-10533
 700 0062 CB86     		.short	-31029
 701 0064 9295     		.short	-27246
 702 0066 E3B8     		.short	-18205
 703 0068 4680     		.short	-32698
 704 006a 5F08     		.short	2143
 705 006c C49F     		.short	-24636
 706 006e 6554     		.short	21605
 707 0070 07E7     		.short	-6393
 708 0072 8A7D     		.short	32138
 709 0074 9D38     		.short	14493
 710 0076 CD72     		.short	29389
 711 0078 CD72     		.short	29389
 712 007a 9D38     		.short	14493
 713 007c 8A7D     		.short	32138
 714 007e 07E7     		.short	-6393
 715 0080 6554     		.short	21605
 716 0082 C49F     		.short	-24636
 717 0084 5F08     		.short	2143
 718 0086 4680     		.short	-32698
 719 0088 E3B8     		.short	-18205
 720 008a 9295     		.short	-27246
 721 008c CB86     		.short	-31029
 722 008e DBD6     		.short	-10533
 723 0090 CB86     		.short	-31029
 724 0092 2529     		.short	10533
 725 0094 E3B8     		.short	-18205
 726 0096 6E6A     		.short	27246
 727 0098 5F08     		.short	2143
 728 009a BA7F     		.short	32698
 729 009c 6554     		.short	21605
 730 009e 3C60     		.short	24636
 731 00a0 8A7D     		.short	32138
 732 00a2 F918     		.short	6393
 733 00a4 CD72     		.short	29389
 734 00a6 63C7     		.short	-14493
 735 00a8 9D38     		.short	14493
 736 00aa 338D     		.short	-29389
 737 00ac 07E7     		.short	-6393
 738 00ae 7682     		.short	-32138
 739 00b0 C49F     		.short	-24636
 740 00b2 9BAB     		.short	-21605
 741 00b4 4680     		.short	-32698
ARM GAS  /tmp/ccHRUzJb.s 			page 14


 742 00b6 A1F7     		.short	-2143
 743 00b8 9295     		.short	-27246
 744 00ba 1D47     		.short	18205
 745 00bc DBD6     		.short	-10533
 746 00be 3579     		.short	31029
 747              		.text
 748              	.Letext0:
 749              		.file 2 "/opt/nanovna/gcc-arm-none-eabi-8-2018-q4-major/arm-none-eabi/include/machine/_default_typ
 750              		.file 3 "/opt/nanovna/gcc-arm-none-eabi-8-2018-q4-major/arm-none-eabi/include/sys/_stdint.h"
 751              		.file 4 "/opt/nanovna/gcc-arm-none-eabi-8-2018-q4-major/lib/gcc/arm-none-eabi/8.2.1/include/stddef
 752              		.file 5 "/opt/nanovna/gcc-arm-none-eabi-8-2018-q4-major/arm-none-eabi/include/sys/lock.h"
 753              		.file 6 "/opt/nanovna/gcc-arm-none-eabi-8-2018-q4-major/arm-none-eabi/include/sys/_types.h"
 754              		.file 7 "/opt/nanovna/gcc-arm-none-eabi-8-2018-q4-major/arm-none-eabi/include/sys/reent.h"
 755              		.file 8 "/opt/nanovna/gcc-arm-none-eabi-8-2018-q4-major/arm-none-eabi/include/math.h"
 756              		.file 9 "ChibiOS/os/common/ports/ARMCMx/compilers/GCC/chtypes.h"
 757              		.file 10 "ChibiOS/os/rt/include/chsystypes.h"
 758              		.file 11 "ChibiOS/os/rt/include/chschd.h"
 759              		.file 12 "ChibiOS/os/common/ext/CMSIS/ST/STM32F0xx/system_stm32f0xx.h"
 760              		.file 13 "ChibiOS/os/common/ports/ARMCMx/chcore.h"
 761              		.file 14 "ChibiOS/os/common/ports/ARMCMx/chcore_v6m.h"
 762              		.file 15 "ChibiOS/os/rt/include/chmtx.h"
 763              		.file 16 "ChibiOS/os/rt/include/chsys.h"
 764              		.file 17 "ChibiOS/os/rt/include/chregistry.h"
 765              		.file 18 "nanovna.h"