ARM GAS  /tmp/ccn8DkCC.s 			page 1


   1              		.cpu cortex-m0
   2              		.eabi_attribute 20, 1
   3              		.eabi_attribute 21, 1
   4              		.eabi_attribute 23, 3
   5              		.eabi_attribute 24, 1
   6              		.eabi_attribute 25, 1
   7              		.eabi_attribute 26, 1
   8              		.eabi_attribute 30, 2
   9              		.eabi_attribute 34, 0
  10              		.eabi_attribute 18, 4
  11              		.file	"flash.c"
  12              		.text
  13              	.Ltext0:
  14              		.cfi_sections	.debug_frame
  15              		.section	.text.flash_erase_page0,"ax",%progbits
  16              		.align	1
  17              		.p2align 4,,15
  18              		.arch armv6s-m
  19              		.syntax unified
  20              		.code	16
  21              		.thumb_func
  22              		.fpu softvfp
  23              		.type	flash_erase_page0, %function
  24              	flash_erase_page0:
  25              	.LVL0:
  26              	.LFB153:
  27              		.file 1 "flash.c"
  28              		.loc 1 34 1 view -0
  29              		.cfi_startproc
  30              		@ args = 0, pretend = 0, frame = 0
  31              		@ frame_needed = 0, uses_anonymous_args = 0
  32              		@ link register save eliminated.
  33              		.loc 1 35 2 view .LVU1
  34              	.LBB93:
  35              	.LBI93:
  36              		.loc 1 25 12 view .LVU2
  37              	.LBB94:
  38              		.loc 1 27 3 view .LVU3
  39              		.loc 1 27 15 is_stmt 0 view .LVU4
  40 0000 0B4A     		ldr	r2, .L9
  41              	.L2:
  42              		.loc 1 29 3 is_stmt 1 view .LVU5
  43              		.loc 1 27 15 is_stmt 0 view .LVU6
  44 0002 D368     		ldr	r3, [r2, #12]
  45              		.loc 1 27 9 view .LVU7
  46 0004 012B     		cmp	r3, #1
  47 0006 FCD0     		beq	.L2
  48              		.loc 1 30 3 is_stmt 1 view .LVU8
  49              	.LBE94:
  50              	.LBE93:
  51              		.loc 1 36 12 is_stmt 0 view .LVU9
  52 0008 0221     		movs	r1, #2
  53              	.LBB96:
  54              	.LBB95:
  55              		.loc 1 30 15 view .LVU10
  56 000a D368     		ldr	r3, [r2, #12]
  57              	.LBE95:
ARM GAS  /tmp/ccn8DkCC.s 			page 2


  58              	.LBE96:
  59              		.loc 1 36 2 is_stmt 1 view .LVU11
  60              		.loc 1 36 12 is_stmt 0 view .LVU12
  61 000c 1369     		ldr	r3, [r2, #16]
  62 000e 0B43     		orrs	r3, r1
  63 0010 1361     		str	r3, [r2, #16]
  64              		.loc 1 37 2 is_stmt 1 view .LVU13
  65              		.loc 1 37 12 is_stmt 0 view .LVU14
  66 0012 5061     		str	r0, [r2, #20]
  67              		.loc 1 38 2 is_stmt 1 view .LVU15
  68              		.loc 1 38 12 is_stmt 0 view .LVU16
  69 0014 1369     		ldr	r3, [r2, #16]
  70 0016 3E31     		adds	r1, r1, #62
  71 0018 0B43     		orrs	r3, r1
  72 001a 1361     		str	r3, [r2, #16]
  73              		.loc 1 39 2 is_stmt 1 view .LVU17
  74              	.LBB97:
  75              	.LBI97:
  76              		.loc 1 25 12 view .LVU18
  77              	.LBB98:
  78              		.loc 1 27 15 is_stmt 0 view .LVU19
  79 001c 044A     		ldr	r2, .L9
  80              	.L3:
  81              		.loc 1 29 3 is_stmt 1 view .LVU20
  82              		.loc 1 27 15 is_stmt 0 view .LVU21
  83 001e D368     		ldr	r3, [r2, #12]
  84              		.loc 1 27 9 view .LVU22
  85 0020 012B     		cmp	r3, #1
  86 0022 FCD0     		beq	.L3
  87              		.loc 1 30 3 is_stmt 1 view .LVU23
  88              	.LBE98:
  89              	.LBE97:
  90              		.loc 1 40 12 is_stmt 0 view .LVU24
  91 0024 0221     		movs	r1, #2
  92              	.LBB100:
  93              	.LBB99:
  94              		.loc 1 30 15 view .LVU25
  95 0026 D368     		ldr	r3, [r2, #12]
  96              	.LBE99:
  97              	.LBE100:
  98              		.loc 1 40 2 is_stmt 1 view .LVU26
  99              		.loc 1 40 12 is_stmt 0 view .LVU27
 100 0028 1369     		ldr	r3, [r2, #16]
 101              		.loc 1 41 1 view .LVU28
 102              		@ sp needed
 103              		.loc 1 40 12 view .LVU29
 104 002a 8B43     		bics	r3, r1
 105 002c 1361     		str	r3, [r2, #16]
 106              		.loc 1 41 1 view .LVU30
 107 002e 7047     		bx	lr
 108              	.L10:
 109              		.align	2
 110              	.L9:
 111 0030 00200240 		.word	1073881088
 112              		.cfi_endproc
 113              	.LFE153:
 114              		.size	flash_erase_page0, .-flash_erase_page0
ARM GAS  /tmp/ccn8DkCC.s 			page 3


 115              		.section	.text.config_save,"ax",%progbits
 116              		.align	1
 117              		.p2align 4,,15
 118              		.global	config_save
 119              		.syntax unified
 120              		.code	16
 121              		.thumb_func
 122              		.fpu softvfp
 123              		.type	config_save, %function
 124              	config_save:
 125              	.LFB158:
 126              		.loc 1 88 1 is_stmt 1 view -0
 127              		.cfi_startproc
 128              		@ args = 0, pretend = 0, frame = 0
 129              		@ frame_needed = 0, uses_anonymous_args = 0
 130              		.loc 1 89 3 view .LVU32
 131              	.LVL1:
 132              		.loc 1 90 3 view .LVU33
 133              		.loc 1 91 3 view .LVU34
 134              		.loc 1 93 3 view .LVU35
 135              		.loc 1 88 1 is_stmt 0 view .LVU36
 136 0000 70B5     		push	{r4, r5, r6, lr}
 137              		.cfi_def_cfa_offset 16
 138              		.cfi_offset 4, -16
 139              		.cfi_offset 5, -12
 140              		.cfi_offset 6, -8
 141              		.cfi_offset 14, -4
 142              		.loc 1 93 16 view .LVU37
 143 0002 1A4C     		ldr	r4, .L23
 144              		.loc 1 94 19 view .LVU38
 145 0004 0022     		movs	r2, #0
 146 0006 2100     		movs	r1, r4
 147              		.loc 1 93 16 view .LVU39
 148 0008 194B     		ldr	r3, .L23+4
 149              		.loc 1 94 19 view .LVU40
 150 000a 6262     		str	r2, [r4, #36]
 151              		.loc 1 93 16 view .LVU41
 152 000c 2360     		str	r3, [r4]
 153              		.loc 1 94 3 is_stmt 1 view .LVU42
 154              		.loc 1 95 3 view .LVU43
 155              	.LVL2:
 156              	.LBB101:
 157              	.LBI101:
 158              		.loc 1 68 17 view .LVU44
 159              	.LBB102:
 160              		.loc 1 70 3 view .LVU45
 161              		.loc 1 71 3 view .LVU46
 162              		.loc 1 72 3 view .LVU47
 163              		.loc 1 73 3 view .LVU48
 164              		.loc 1 73 3 is_stmt 0 view .LVU49
 165 000e 2831     		adds	r1, r1, #40
 166 0010 00E0     		b	.L13
 167              	.LVL3:
 168              	.L22:
 169              		.loc 1 73 3 view .LVU50
 170 0012 2368     		ldr	r3, [r4]
 171              	.LVL4:
ARM GAS  /tmp/ccn8DkCC.s 			page 4


 172              	.L13:
 173              		.loc 1 74 5 is_stmt 1 view .LVU51
 174              		.loc 1 74 16 is_stmt 0 view .LVU52
 175 0014 0434     		adds	r4, r4, #4
 176              	.LVL5:
 177              		.loc 1 74 11 view .LVU53
 178 0016 5A40     		eors	r2, r3
 179              	.LVL6:
 180              		.loc 1 73 9 view .LVU54
 181 0018 8C42     		cmp	r4, r1
 182 001a FAD1     		bne	.L22
 183              		.loc 1 75 3 is_stmt 1 view .LVU55
 184              	.LVL7:
 185              		.loc 1 75 3 is_stmt 0 view .LVU56
 186              	.LBE102:
 187              	.LBE101:
 188              		.loc 1 95 19 view .LVU57
 189 001c 2300     		movs	r3, r4
 190 001e 283B     		subs	r3, r3, #40
 191 0020 5A62     		str	r2, [r3, #36]
 192              		.loc 1 97 3 is_stmt 1 view .LVU58
 193              	.LBB103:
 194              	.LBI103:
 195              		.loc 1 60 13 view .LVU59
 196              	.LBB104:
 197              		.loc 1 63 3 view .LVU60
 198              		.loc 1 63 15 is_stmt 0 view .LVU61
 199 0022 144E     		ldr	r6, .L23+8
 200 0024 144B     		ldr	r3, .L23+12
 201 0026 7360     		str	r3, [r6, #4]
 202              		.loc 1 64 3 is_stmt 1 view .LVU62
 203              		.loc 1 64 15 is_stmt 0 view .LVU63
 204 0028 144B     		ldr	r3, .L23+16
 205 002a 7360     		str	r3, [r6, #4]
 206              	.LBE104:
 207              	.LBE103:
 208              		.loc 1 100 3 is_stmt 1 view .LVU64
 209              	.LVL8:
 210              	.LBB105:
 211              	.LBI105:
 212              		.loc 1 43 12 view .LVU65
 213              	.LBB106:
 214              		.loc 1 45 3 view .LVU66
 215              	.LBB107:
 216              	.LBI107:
 217              		.file 2 "ChibiOS/os/rt/include/chsys.h"
 218              		.loc 2 374 20 view .LVU67
 219              	.LBE107:
 220              	.LBE106:
 221              	.LBE105:
 222              		.loc 2 376 3 view .LVU68
 223              	.LBB126:
 224              	.LBB122:
 225              	.LBB112:
 226              	.LBB108:
 227              	.LBI108:
 228              		.file 3 "ChibiOS/os/common/ports/ARMCMx/chcore_v6m.h"
ARM GAS  /tmp/ccn8DkCC.s 			page 5


 229              		.loc 3 371 20 view .LVU69
 230              	.LBE108:
 231              	.LBE112:
 232              	.LBE122:
 233              	.LBE126:
 234              		.loc 3 373 3 view .LVU70
 235              	.LBB127:
 236              	.LBB123:
 237              	.LBB113:
 238              	.LBB111:
 239              	.LBB109:
 240              	.LBI109:
 241              		.file 4 "ChibiOS/os/common/ext/CMSIS/include/core_cmFunc.h"
 242              		.loc 4 342 57 view .LVU71
 243              	.LBB110:
 244              		.loc 4 344 3 view .LVU72
 245              		.syntax divided
 246              	@ 344 "ChibiOS/os/common/ext/CMSIS/include/core_cmFunc.h" 1
 247 002c 72B6     		cpsid i
 248              	@ 0 "" 2
 249              		.thumb
 250              		.syntax unified
 251              	.LBE110:
 252              	.LBE109:
 253              	.LBE111:
 254              	.LBE113:
 255              	.LBE123:
 256              	.LBE127:
 257              		.loc 2 377 34 view .LVU73
 258              		.loc 2 378 20 view .LVU74
 259              	.LBB128:
 260              	.LBB124:
 261              		.loc 1 46 3 view .LVU75
 262 002e 1448     		ldr	r0, .L23+20
 263 0030 FFF7FEFF 		bl	flash_erase_page0
 264              	.LVL9:
 265              		.loc 1 47 3 view .LVU76
 266              	.LBB114:
 267              	.LBI114:
 268              		.loc 2 386 20 view .LVU77
 269              	.LBB115:
 270              		.loc 2 388 22 view .LVU78
 271              		.loc 2 389 33 view .LVU79
 272              		.loc 2 395 3 view .LVU80
 273              		.loc 2 395 3 view .LVU81
 274              		.loc 2 399 3 view .LVU82
 275              	.LBB116:
 276              	.LBI116:
 277              		.loc 3 380 20 view .LVU83
 278              	.LBE116:
 279              	.LBE115:
 280              	.LBE114:
 281              	.LBE124:
 282              	.LBE128:
 283              		.loc 3 382 3 view .LVU84
 284              	.LBB129:
 285              	.LBB125:
ARM GAS  /tmp/ccn8DkCC.s 			page 6


 286              	.LBB121:
 287              	.LBB120:
 288              	.LBB119:
 289              	.LBB117:
 290              	.LBI117:
 291              		.loc 4 331 57 view .LVU85
 292              	.LBB118:
 293              		.loc 4 333 3 view .LVU86
 294              		.syntax divided
 295              	@ 333 "ChibiOS/os/common/ext/CMSIS/include/core_cmFunc.h" 1
 296 0034 62B6     		cpsie i
 297              	@ 0 "" 2
 298              		.thumb
 299              		.syntax unified
 300              	.LBE118:
 301              	.LBE117:
 302              	.LBE119:
 303              	.LBE120:
 304              	.LBE121:
 305              		.loc 1 48 3 view .LVU87
 306              	.LVL10:
 307              		.loc 1 48 3 is_stmt 0 view .LVU88
 308              	.LBE125:
 309              	.LBE129:
 310              	.LBB130:
 311              	.LBB131:
 312              		.loc 1 54 12 view .LVU89
 313 0036 0120     		movs	r0, #1
 314 0038 124B     		ldr	r3, .L23+24
 315              	.LBE131:
 316              	.LBE130:
 317              		.loc 1 90 13 view .LVU90
 318 003a 1149     		ldr	r1, .L23+20
 319 003c E518     		adds	r5, r4, r3
 320              	.LBB141:
 321              	.LBB138:
 322              	.LBB132:
 323              	.LBB133:
 324              		.loc 1 27 15 view .LVU91
 325 003e 3300     		movs	r3, r6
 326              	.LBE133:
 327              	.LBE132:
 328              	.LBE138:
 329              	.LBE141:
 330              		.loc 1 103 8 view .LVU92
 331 0040 114E     		ldr	r6, .L23+28
 332              	.LVL11:
 333              	.L16:
 334              		.loc 1 104 5 is_stmt 1 view .LVU93
 335              		.loc 1 104 5 is_stmt 0 view .LVU94
 336 0042 4C5B     		ldrh	r4, [r1, r5]
 337              	.LVL12:
 338              	.LBB142:
 339              	.LBI130:
 340              		.loc 1 51 13 is_stmt 1 view .LVU95
 341              	.LBB139:
 342              		.loc 1 53 2 view .LVU96
ARM GAS  /tmp/ccn8DkCC.s 			page 7


 343              	.LBB135:
 344              	.LBI132:
 345              		.loc 1 25 12 view .LVU97
 346              	.LBB134:
 347              		.loc 1 27 3 view .LVU98
 348              	.L14:
 349              		.loc 1 29 3 view .LVU99
 350              		.loc 1 27 15 is_stmt 0 view .LVU100
 351 0044 DA68     		ldr	r2, [r3, #12]
 352              		.loc 1 27 9 view .LVU101
 353 0046 012A     		cmp	r2, #1
 354 0048 FCD0     		beq	.L14
 355              		.loc 1 30 3 is_stmt 1 view .LVU102
 356              		.loc 1 30 15 is_stmt 0 view .LVU103
 357 004a DA68     		ldr	r2, [r3, #12]
 358              	.LBE134:
 359              	.LBE135:
 360              		.loc 1 54 2 is_stmt 1 view .LVU104
 361              		.loc 1 54 12 is_stmt 0 view .LVU105
 362 004c 1A69     		ldr	r2, [r3, #16]
 363 004e 0243     		orrs	r2, r0
 364 0050 1A61     		str	r2, [r3, #16]
 365              		.loc 1 55 5 is_stmt 1 view .LVU106
 366              		.loc 1 55 30 is_stmt 0 view .LVU107
 367 0052 0C80     		strh	r4, [r1]
 368              		.loc 1 56 2 is_stmt 1 view .LVU108
 369              	.LBB136:
 370              	.LBI136:
 371              		.loc 1 25 12 view .LVU109
 372              	.L15:
 373              	.LBB137:
 374              		.loc 1 29 3 view .LVU110
 375              		.loc 1 27 15 is_stmt 0 view .LVU111
 376 0054 DA68     		ldr	r2, [r3, #12]
 377              		.loc 1 27 9 view .LVU112
 378 0056 012A     		cmp	r2, #1
 379 0058 FCD0     		beq	.L15
 380              		.loc 1 30 3 is_stmt 1 view .LVU113
 381              		.loc 1 30 15 is_stmt 0 view .LVU114
 382 005a DA68     		ldr	r2, [r3, #12]
 383              	.LBE137:
 384              	.LBE136:
 385              		.loc 1 57 2 is_stmt 1 view .LVU115
 386              		.loc 1 57 12 is_stmt 0 view .LVU116
 387 005c 1A69     		ldr	r2, [r3, #16]
 388              	.LBE139:
 389              	.LBE142:
 390              		.loc 1 105 8 view .LVU117
 391 005e 0231     		adds	r1, r1, #2
 392              	.LVL13:
 393              	.LBB143:
 394              	.LBB140:
 395              		.loc 1 57 12 view .LVU118
 396 0060 8243     		bics	r2, r0
 397 0062 1A61     		str	r2, [r3, #16]
 398              	.LVL14:
 399              		.loc 1 57 12 view .LVU119
ARM GAS  /tmp/ccn8DkCC.s 			page 8


 400              	.LBE140:
 401              	.LBE143:
 402              		.loc 1 105 5 is_stmt 1 view .LVU120
 403              		.loc 1 103 8 is_stmt 0 view .LVU121
 404 0064 B142     		cmp	r1, r6
 405 0066 ECD1     		bne	.L16
 406              		.loc 1 108 3 is_stmt 1 view .LVU122
 407              		.loc 1 109 1 is_stmt 0 view .LVU123
 408 0068 0020     		movs	r0, #0
 409              		@ sp needed
 410 006a 70BD     		pop	{r4, r5, r6, pc}
 411              	.L24:
 412              		.align	2
 413              	.L23:
 414 006c 00000000 		.word	config
 415 0070 4A4E4F43 		.word	1129270858
 416 0074 00200240 		.word	1073881088
 417 0078 23016745 		.word	1164378403
 418 007c AB89EFCD 		.word	-839939669
 419 0080 00980108 		.word	134322176
 420 0084 D867FEF7 		.word	-134322216
 421 0088 28980108 		.word	134322216
 422              		.cfi_endproc
 423              	.LFE158:
 424              		.size	config_save, .-config_save
 425              		.section	.text.config_recall,"ax",%progbits
 426              		.align	1
 427              		.p2align 4,,15
 428              		.global	config_recall
 429              		.syntax unified
 430              		.code	16
 431              		.thumb_func
 432              		.fpu softvfp
 433              		.type	config_recall, %function
 434              	config_recall:
 435              	.LFB159:
 436              		.loc 1 112 1 is_stmt 1 view -0
 437              		.cfi_startproc
 438              		@ args = 0, pretend = 0, frame = 0
 439              		@ frame_needed = 0, uses_anonymous_args = 0
 440              		.loc 1 113 3 view .LVU125
 441              	.LVL15:
 442              		.loc 1 114 3 view .LVU126
 443              		.loc 1 116 3 view .LVU127
 444              		.loc 1 116 10 is_stmt 0 view .LVU128
 445 0000 104B     		ldr	r3, .L31
 446              		.loc 1 116 6 view .LVU129
 447 0002 114A     		ldr	r2, .L31+4
 448 0004 1968     		ldr	r1, [r3]
 449              		.loc 1 112 1 view .LVU130
 450 0006 10B5     		push	{r4, lr}
 451              		.cfi_def_cfa_offset 8
 452              		.cfi_offset 4, -8
 453              		.cfi_offset 14, -4
 454              		.loc 1 116 6 view .LVU131
 455 0008 9142     		cmp	r1, r2
 456 000a 17D1     		bne	.L30
ARM GAS  /tmp/ccn8DkCC.s 			page 9


 457              	.LBB144:
 458              	.LBB145:
 459              		.loc 1 72 12 view .LVU132
 460 000c 0022     		movs	r2, #0
 461              		.loc 1 73 9 view .LVU133
 462 000e 0F4C     		ldr	r4, .L31+8
 463 0010 00E0     		b	.L27
 464              	.LVL16:
 465              	.L29:
 466              		.loc 1 74 11 view .LVU134
 467 0012 0200     		movs	r2, r0
 468              	.LVL17:
 469              	.L27:
 470              		.loc 1 74 5 is_stmt 1 view .LVU135
 471              		.loc 1 74 14 is_stmt 0 view .LVU136
 472 0014 02CB     		ldmia	r3!, {r1}
 473              	.LVL18:
 474              		.loc 1 74 11 view .LVU137
 475 0016 0800     		movs	r0, r1
 476 0018 5040     		eors	r0, r2
 477              	.LVL19:
 478              		.loc 1 73 9 view .LVU138
 479 001a A342     		cmp	r3, r4
 480 001c F9D1     		bne	.L29
 481              		.loc 1 75 3 is_stmt 1 view .LVU139
 482              	.LVL20:
 483              		.loc 1 75 3 is_stmt 0 view .LVU140
 484              	.LBE145:
 485              	.LBE144:
 486              		.loc 1 118 6 view .LVU141
 487 001e 9142     		cmp	r1, r2
 488 0020 0CD1     		bne	.L30
 489              		.loc 1 122 3 is_stmt 1 view .LVU142
 490              		.loc 1 123 3 view .LVU143
 491              		.loc 1 122 3 is_stmt 0 view .LVU144
 492 0022 0B49     		ldr	r1, .L31+12
 493 0024 074B     		ldr	r3, .L31
 494 0026 0A00     		movs	r2, r1
 495 0028 13CB     		ldmia	r3!, {r0, r1, r4}
 496 002a 13C2     		stmia	r2!, {r0, r1, r4}
 497 002c 13CB     		ldmia	r3!, {r0, r1, r4}
 498 002e 13C2     		stmia	r2!, {r0, r1, r4}
 499 0030 13CB     		ldmia	r3!, {r0, r1, r4}
 500 0032 13C2     		stmia	r2!, {r0, r1, r4}
 501              		.loc 1 123 10 view .LVU145
 502 0034 0020     		movs	r0, #0
 503              		.loc 1 122 3 view .LVU146
 504 0036 1B68     		ldr	r3, [r3]
 505 0038 1360     		str	r3, [r2]
 506              	.L25:
 507              		.loc 1 124 1 view .LVU147
 508              		@ sp needed
 509 003a 10BD     		pop	{r4, pc}
 510              	.L30:
 511              		.loc 1 117 12 view .LVU148
 512 003c 0120     		movs	r0, #1
 513 003e 4042     		rsbs	r0, r0, #0
ARM GAS  /tmp/ccn8DkCC.s 			page 10


 514 0040 FBE7     		b	.L25
 515              	.L32:
 516 0042 C046     		.align	2
 517              	.L31:
 518 0044 00980108 		.word	134322176
 519 0048 4A4E4F43 		.word	1129270858
 520 004c 28980108 		.word	134322216
 521 0050 00000000 		.word	config
 522              		.cfi_endproc
 523              	.LFE159:
 524              		.size	config_recall, .-config_recall
 525              		.section	.text.caldata_save,"ax",%progbits
 526              		.align	1
 527              		.p2align 4,,15
 528              		.global	caldata_save
 529              		.syntax unified
 530              		.code	16
 531              		.thumb_func
 532              		.fpu softvfp
 533              		.type	caldata_save, %function
 534              	caldata_save:
 535              	.LVL21:
 536              	.LFB160:
 537              		.loc 1 137 1 is_stmt 1 view -0
 538              		.cfi_startproc
 539              		@ args = 0, pretend = 0, frame = 0
 540              		@ frame_needed = 0, uses_anonymous_args = 0
 541              		.loc 1 138 3 view .LVU150
 542              		.loc 1 139 3 view .LVU151
 543              		.loc 1 140 3 view .LVU152
 544              		.loc 1 142 3 view .LVU153
 545              		.loc 1 137 1 is_stmt 0 view .LVU154
 546 0000 F8B5     		push	{r3, r4, r5, r6, r7, lr}
 547              		.cfi_def_cfa_offset 24
 548              		.cfi_offset 3, -24
 549              		.cfi_offset 4, -20
 550              		.cfi_offset 5, -16
 551              		.cfi_offset 6, -12
 552              		.cfi_offset 7, -8
 553              		.cfi_offset 14, -4
 554 0002 4546     		mov	r5, r8
 555 0004 DE46     		mov	lr, fp
 556 0006 5746     		mov	r7, r10
 557 0008 4E46     		mov	r6, r9
 558 000a E0B5     		push	{r5, r6, r7, lr}
 559              		.cfi_def_cfa_offset 40
 560              		.cfi_offset 8, -40
 561              		.cfi_offset 9, -36
 562              		.cfi_offset 10, -32
 563              		.cfi_offset 11, -28
 564              		.loc 1 137 1 view .LVU155
 565 000c 0500     		movs	r5, r0
 566              		.loc 1 142 6 view .LVU156
 567 000e 0328     		cmp	r0, #3
 568 0010 65D8     		bhi	.L43
 569              		.loc 1 144 3 is_stmt 1 view .LVU157
 570              		.loc 1 144 29 is_stmt 0 view .LVU158
ARM GAS  /tmp/ccn8DkCC.s 			page 11


 571 0012 344B     		ldr	r3, .L51
 572              		.loc 1 146 23 view .LVU159
 573 0014 3449     		ldr	r1, .L51+4
 574              		.loc 1 144 29 view .LVU160
 575 0016 9A46     		mov	r10, r3
 576 0018 8300     		lsls	r3, r0, #2
 577 001a 9846     		mov	r8, r3
 578 001c 5346     		mov	r3, r10
 579 001e 4246     		mov	r2, r8
 580 0020 9E58     		ldr	r6, [r3, r2]
 581              		.loc 1 146 23 view .LVU161
 582 0022 324B     		ldr	r3, .L51+8
 583              		.loc 1 147 26 view .LVU162
 584 0024 0022     		movs	r2, #0
 585              		.loc 1 146 23 view .LVU163
 586 0026 9946     		mov	r9, r3
 587              		.loc 1 147 26 view .LVU164
 588 0028 4846     		mov	r0, r9
 589              	.LVL22:
 590              		.loc 1 146 23 view .LVU165
 591 002a 1960     		str	r1, [r3]
 592              		.loc 1 147 26 view .LVU166
 593 002c 304B     		ldr	r3, .L51+12
 594              		.loc 1 144 7 view .LVU167
 595 002e 3400     		movs	r4, r6
 596              	.LVL23:
 597              		.loc 1 146 3 is_stmt 1 view .LVU168
 598              		.loc 1 147 3 view .LVU169
 599              		.loc 1 147 26 is_stmt 0 view .LVU170
 600 0030 C250     		str	r2, [r0, r3]
 601              		.loc 1 148 3 is_stmt 1 view .LVU171
 602              	.LVL24:
 603              	.LBB146:
 604              	.LBI146:
 605              		.loc 1 68 17 view .LVU172
 606              	.LBB147:
 607              		.loc 1 70 3 view .LVU173
 608              		.loc 1 71 3 view .LVU174
 609              		.loc 1 72 3 view .LVU175
 610              		.loc 1 73 3 view .LVU176
 611              		.loc 1 73 3 is_stmt 0 view .LVU177
 612 0032 3048     		ldr	r0, .L51+16
 613              		.loc 1 70 13 view .LVU178
 614 0034 4B46     		mov	r3, r9
 615 0036 4844     		add	r0, r0, r9
 616 0038 00E0     		b	.L36
 617              	.LVL25:
 618              	.L50:
 619              		.loc 1 70 13 view .LVU179
 620 003a 1968     		ldr	r1, [r3]
 621              	.LVL26:
 622              	.L36:
 623              		.loc 1 74 5 is_stmt 1 view .LVU180
 624              		.loc 1 74 16 is_stmt 0 view .LVU181
 625 003c 0433     		adds	r3, r3, #4
 626              	.LVL27:
 627              		.loc 1 74 11 view .LVU182
ARM GAS  /tmp/ccn8DkCC.s 			page 12


 628 003e 4A40     		eors	r2, r1
 629              	.LVL28:
 630              		.loc 1 73 9 view .LVU183
 631 0040 8342     		cmp	r3, r0
 632 0042 FAD1     		bne	.L50
 633              		.loc 1 75 3 is_stmt 1 view .LVU184
 634              	.LVL29:
 635              		.loc 1 75 3 is_stmt 0 view .LVU185
 636              	.LBE147:
 637              	.LBE146:
 638              		.loc 1 148 26 view .LVU186
 639 0044 2C49     		ldr	r1, .L51+20
 640              		.loc 1 153 12 view .LVU187
 641 0046 3700     		movs	r7, r6
 642              		.loc 1 148 26 view .LVU188
 643 0048 8C46     		mov	ip, r1
 644 004a 2949     		ldr	r1, .L51+12
 645 004c 6344     		add	r3, r3, ip
 646 004e 5A50     		str	r2, [r3, r1]
 647              		.loc 1 150 3 is_stmt 1 view .LVU189
 648              	.LBB148:
 649              	.LBI148:
 650              		.loc 1 60 13 view .LVU190
 651              	.LBB149:
 652              		.loc 1 63 3 view .LVU191
 653              		.loc 1 63 15 is_stmt 0 view .LVU192
 654 0050 2A4B     		ldr	r3, .L51+24
 655 0052 2B4A     		ldr	r2, .L51+28
 656 0054 5A60     		str	r2, [r3, #4]
 657              		.loc 1 64 3 is_stmt 1 view .LVU193
 658              		.loc 1 64 15 is_stmt 0 view .LVU194
 659 0056 2B4A     		ldr	r2, .L51+32
 660 0058 5A60     		str	r2, [r3, #4]
 661              	.LBE149:
 662              	.LBE148:
 663              		.loc 1 153 3 is_stmt 1 view .LVU195
 664              	.LVL30:
 665              		.loc 1 154 3 view .LVU196
 666              		.loc 1 155 3 view .LVU197
 667              		.loc 1 155 3 is_stmt 0 view .LVU198
 668 005a C023     		movs	r3, #192
 669 005c 5B01     		lsls	r3, r3, #5
 670 005e F118     		adds	r1, r6, r3
 671 0060 8023     		movs	r3, #128
 672 0062 1B01     		lsls	r3, r3, #4
 673 0064 F218     		adds	r2, r6, r3
 674 0066 0023     		movs	r3, #0
 675 0068 9142     		cmp	r1, r2
 676 006a 5B41     		adcs	r3, r3, r3
 677 006c 5A42     		rsbs	r2, r3, #0
 678 006e 0223     		movs	r3, #2
 679 0070 1340     		ands	r3, r2
 680 0072 0133     		adds	r3, r3, #1
 681 0074 DB02     		lsls	r3, r3, #11
 682 0076 9B46     		mov	fp, r3
 683 0078 B344     		add	fp, fp, r6
 684              	.LVL31:
ARM GAS  /tmp/ccn8DkCC.s 			page 13


 685              	.L39:
 686              		.loc 1 156 5 is_stmt 1 view .LVU199
 687              	.LBB150:
 688              	.LBI150:
 689              		.loc 1 43 12 view .LVU200
 690              	.LBB151:
 691              		.loc 1 45 3 view .LVU201
 692              	.LBB152:
 693              	.LBI152:
 694              		.loc 2 374 20 view .LVU202
 695              	.LBE152:
 696              	.LBE151:
 697              	.LBE150:
 698              		.loc 2 376 3 view .LVU203
 699              	.LBB171:
 700              	.LBB167:
 701              	.LBB157:
 702              	.LBB153:
 703              	.LBI153:
 704              		.loc 3 371 20 view .LVU204
 705              	.LBE153:
 706              	.LBE157:
 707              	.LBE167:
 708              	.LBE171:
 709              		.loc 3 373 3 view .LVU205
 710              	.LBB172:
 711              	.LBB168:
 712              	.LBB158:
 713              	.LBB156:
 714              	.LBB154:
 715              	.LBI154:
 716              		.loc 4 342 57 view .LVU206
 717              	.LBB155:
 718              		.loc 4 344 3 view .LVU207
 719              		.syntax divided
 720              	@ 344 "ChibiOS/os/common/ext/CMSIS/include/core_cmFunc.h" 1
 721 007a 72B6     		cpsid i
 722              	@ 0 "" 2
 723              		.thumb
 724              		.syntax unified
 725              	.LBE155:
 726              	.LBE154:
 727              	.LBE156:
 728              	.LBE158:
 729              	.LBE168:
 730              	.LBE172:
 731              		.loc 2 377 34 view .LVU208
 732              		.loc 2 378 20 view .LVU209
 733              	.LBB173:
 734              	.LBB169:
 735              		.loc 1 46 3 view .LVU210
 736 007c 3800     		movs	r0, r7
 737 007e FFF7FEFF 		bl	flash_erase_page0
 738              	.LVL32:
 739              		.loc 1 47 3 view .LVU211
 740              	.LBB159:
 741              	.LBI159:
ARM GAS  /tmp/ccn8DkCC.s 			page 14


 742              		.loc 2 386 20 view .LVU212
 743              	.LBB160:
 744              		.loc 2 388 22 view .LVU213
 745              		.loc 2 389 33 view .LVU214
 746              		.loc 2 395 3 view .LVU215
 747              		.loc 2 395 3 view .LVU216
 748              		.loc 2 399 3 view .LVU217
 749              	.LBB161:
 750              	.LBI161:
 751              		.loc 3 380 20 view .LVU218
 752              	.LBE161:
 753              	.LBE160:
 754              	.LBE159:
 755              	.LBE169:
 756              	.LBE173:
 757              		.loc 3 382 3 view .LVU219
 758              	.LBB174:
 759              	.LBB170:
 760              	.LBB166:
 761              	.LBB165:
 762              	.LBB164:
 763              	.LBB162:
 764              	.LBI162:
 765              		.loc 4 331 57 view .LVU220
 766              	.LBB163:
 767              		.loc 4 333 3 view .LVU221
 768              		.syntax divided
 769              	@ 333 "ChibiOS/os/common/ext/CMSIS/include/core_cmFunc.h" 1
 770 0082 62B6     		cpsie i
 771              	@ 0 "" 2
 772              		.thumb
 773              		.syntax unified
 774              	.LBE163:
 775              	.LBE162:
 776              	.LBE164:
 777              	.LBE165:
 778              	.LBE166:
 779              		.loc 1 48 3 view .LVU222
 780              	.LVL33:
 781              		.loc 1 48 3 is_stmt 0 view .LVU223
 782              	.LBE170:
 783              	.LBE174:
 784              		.loc 1 157 5 is_stmt 1 view .LVU224
 785              		.loc 1 157 7 is_stmt 0 view .LVU225
 786 0084 8023     		movs	r3, #128
 787 0086 1B01     		lsls	r3, r3, #4
 788 0088 9C46     		mov	ip, r3
 789 008a 6744     		add	r7, r7, ip
 790              	.LVL34:
 791              		.loc 1 155 9 view .LVU226
 792 008c 5F45     		cmp	r7, fp
 793 008e F4D1     		bne	.L39
 794 0090 184B     		ldr	r3, .L51+16
 795              	.LBB175:
 796              	.LBB176:
 797              		.loc 1 54 12 view .LVU227
 798 0092 0121     		movs	r1, #1
ARM GAS  /tmp/ccn8DkCC.s 			page 15


 799 0094 F718     		adds	r7, r6, r3
 800              	.LVL35:
 801              		.loc 1 54 12 view .LVU228
 802              	.LBE176:
 803              	.LBE175:
 804              		.loc 1 162 5 view .LVU229
 805 0096 4B46     		mov	r3, r9
 806 0098 981B     		subs	r0, r3, r6
 807              	.LBB186:
 808              	.LBB183:
 809              	.LBB177:
 810              	.LBB178:
 811              		.loc 1 27 15 view .LVU230
 812 009a 184B     		ldr	r3, .L51+24
 813              	.LVL36:
 814              	.L42:
 815              		.loc 1 27 15 view .LVU231
 816              	.LBE178:
 817              	.LBE177:
 818              	.LBE183:
 819              	.LBE186:
 820              		.loc 1 162 5 is_stmt 1 view .LVU232
 821              		.loc 1 162 5 is_stmt 0 view .LVU233
 822 009c 265A     		ldrh	r6, [r4, r0]
 823              	.LVL37:
 824              	.LBB187:
 825              	.LBI175:
 826              		.loc 1 51 13 is_stmt 1 view .LVU234
 827              	.LBB184:
 828              		.loc 1 53 2 view .LVU235
 829              	.LBB180:
 830              	.LBI177:
 831              		.loc 1 25 12 view .LVU236
 832              	.LBB179:
 833              		.loc 1 27 3 view .LVU237
 834              	.L40:
 835              		.loc 1 29 3 view .LVU238
 836              		.loc 1 27 15 is_stmt 0 view .LVU239
 837 009e DA68     		ldr	r2, [r3, #12]
 838              		.loc 1 27 9 view .LVU240
 839 00a0 012A     		cmp	r2, #1
 840 00a2 FCD0     		beq	.L40
 841              		.loc 1 30 3 is_stmt 1 view .LVU241
 842              		.loc 1 30 15 is_stmt 0 view .LVU242
 843 00a4 DA68     		ldr	r2, [r3, #12]
 844              	.LBE179:
 845              	.LBE180:
 846              		.loc 1 54 2 is_stmt 1 view .LVU243
 847              		.loc 1 54 12 is_stmt 0 view .LVU244
 848 00a6 1A69     		ldr	r2, [r3, #16]
 849 00a8 0A43     		orrs	r2, r1
 850 00aa 1A61     		str	r2, [r3, #16]
 851              		.loc 1 55 5 is_stmt 1 view .LVU245
 852              		.loc 1 55 30 is_stmt 0 view .LVU246
 853 00ac 2680     		strh	r6, [r4]
 854              		.loc 1 56 2 is_stmt 1 view .LVU247
 855              	.LBB181:
ARM GAS  /tmp/ccn8DkCC.s 			page 16


 856              	.LBI181:
 857              		.loc 1 25 12 view .LVU248
 858              	.L41:
 859              	.LBB182:
 860              		.loc 1 29 3 view .LVU249
 861              		.loc 1 27 15 is_stmt 0 view .LVU250
 862 00ae DA68     		ldr	r2, [r3, #12]
 863              		.loc 1 27 9 view .LVU251
 864 00b0 012A     		cmp	r2, #1
 865 00b2 FCD0     		beq	.L41
 866              		.loc 1 30 3 is_stmt 1 view .LVU252
 867              		.loc 1 30 15 is_stmt 0 view .LVU253
 868 00b4 DA68     		ldr	r2, [r3, #12]
 869              	.LBE182:
 870              	.LBE181:
 871              		.loc 1 57 2 is_stmt 1 view .LVU254
 872              		.loc 1 57 12 is_stmt 0 view .LVU255
 873 00b6 1A69     		ldr	r2, [r3, #16]
 874              	.LBE184:
 875              	.LBE187:
 876              		.loc 1 163 8 view .LVU256
 877 00b8 0234     		adds	r4, r4, #2
 878              	.LVL38:
 879              	.LBB188:
 880              	.LBB185:
 881              		.loc 1 57 12 view .LVU257
 882 00ba 8A43     		bics	r2, r1
 883 00bc 1A61     		str	r2, [r3, #16]
 884              	.LVL39:
 885              		.loc 1 57 12 view .LVU258
 886              	.LBE185:
 887              	.LBE188:
 888              		.loc 1 163 5 is_stmt 1 view .LVU259
 889              		.loc 1 161 8 is_stmt 0 view .LVU260
 890 00be BC42     		cmp	r4, r7
 891 00c0 ECD1     		bne	.L42
 892              		.loc 1 167 3 is_stmt 1 view .LVU261
 893              		.loc 1 167 16 is_stmt 0 view .LVU262
 894 00c2 5346     		mov	r3, r10
 895 00c4 4246     		mov	r2, r8
 896              		.loc 1 170 10 view .LVU263
 897 00c6 0020     		movs	r0, #0
 898              		.loc 1 167 16 view .LVU264
 899 00c8 9A58     		ldr	r2, [r3, r2]
 900 00ca 0F4B     		ldr	r3, .L51+36
 901 00cc 1A60     		str	r2, [r3]
 902              		.loc 1 168 3 is_stmt 1 view .LVU265
 903              		.loc 1 168 14 is_stmt 0 view .LVU266
 904 00ce 0F4B     		ldr	r3, .L51+40
 905 00d0 1D80     		strh	r5, [r3]
 906              		.loc 1 170 3 is_stmt 1 view .LVU267
 907              	.LVL40:
 908              	.L33:
 909              		.loc 1 171 1 is_stmt 0 view .LVU268
 910              		@ sp needed
 911              	.LVL41:
 912              		.loc 1 171 1 view .LVU269
ARM GAS  /tmp/ccn8DkCC.s 			page 17


 913 00d2 3CBC     		pop	{r2, r3, r4, r5}
 914 00d4 9046     		mov	r8, r2
 915 00d6 9946     		mov	r9, r3
 916 00d8 A246     		mov	r10, r4
 917 00da AB46     		mov	fp, r5
 918 00dc F8BD     		pop	{r3, r4, r5, r6, r7, pc}
 919              	.LVL42:
 920              	.L43:
 921              		.loc 1 143 12 view .LVU270
 922 00de 0120     		movs	r0, #1
 923              	.LVL43:
 924              		.loc 1 143 12 view .LVU271
 925 00e0 4042     		rsbs	r0, r0, #0
 926 00e2 F6E7     		b	.L33
 927              	.L52:
 928              		.align	2
 929              	.L51:
 930 00e4 00000000 		.word	.LANCHOR0
 931 00e8 4A4E4F43 		.word	1129270858
 932 00ec 00000000 		.word	current_props
 933 00f0 C8110000 		.word	4552
 934 00f4 CC110000 		.word	4556
 935 00f8 34EEFFFF 		.word	-4556
 936 00fc 00200240 		.word	1073881088
 937 0100 23016745 		.word	1164378403
 938 0104 AB89EFCD 		.word	-839939669
 939 0108 00000000 		.word	active_props
 940 010c 00000000 		.word	.LANCHOR1
 941              		.cfi_endproc
 942              	.LFE160:
 943              		.size	caldata_save, .-caldata_save
 944              		.section	.text.caldata_recall,"ax",%progbits
 945              		.align	1
 946              		.p2align 4,,15
 947              		.global	caldata_recall
 948              		.syntax unified
 949              		.code	16
 950              		.thumb_func
 951              		.fpu softvfp
 952              		.type	caldata_recall, %function
 953              	caldata_recall:
 954              	.LVL44:
 955              	.LFB161:
 956              		.loc 1 174 1 is_stmt 1 view -0
 957              		.cfi_startproc
 958              		@ args = 0, pretend = 0, frame = 0
 959              		@ frame_needed = 0, uses_anonymous_args = 0
 960              		.loc 1 175 3 view .LVU273
 961              		.loc 1 176 3 view .LVU274
 962              		.loc 1 178 3 view .LVU275
 963              		.loc 1 174 1 is_stmt 0 view .LVU276
 964 0000 70B5     		push	{r4, r5, r6, lr}
 965              		.cfi_def_cfa_offset 16
 966              		.cfi_offset 4, -16
 967              		.cfi_offset 5, -12
 968              		.cfi_offset 6, -8
 969              		.cfi_offset 14, -4
ARM GAS  /tmp/ccn8DkCC.s 			page 18


 970              		.loc 1 178 6 view .LVU277
 971 0002 0328     		cmp	r0, #3
 972 0004 27D8     		bhi	.L61
 973              		.loc 1 182 3 is_stmt 1 view .LVU278
 974              		.loc 1 182 33 is_stmt 0 view .LVU279
 975 0006 154B     		ldr	r3, .L62
 976 0008 8200     		lsls	r2, r0, #2
 977 000a D158     		ldr	r1, [r2, r3]
 978              	.LVL45:
 979              		.loc 1 184 3 is_stmt 1 view .LVU280
 980              		.loc 1 184 6 is_stmt 0 view .LVU281
 981 000c 144B     		ldr	r3, .L62+4
 982 000e 0A68     		ldr	r2, [r1]
 983 0010 9A42     		cmp	r2, r3
 984 0012 20D1     		bne	.L61
 985              		.loc 1 186 3 is_stmt 1 view .LVU282
 986              	.LVL46:
 987              	.LBB189:
 988              	.LBI189:
 989              		.loc 1 68 17 view .LVU283
 990              	.LBB190:
 991              		.loc 1 70 3 view .LVU284
 992              		.loc 1 71 3 view .LVU285
 993              		.loc 1 72 3 view .LVU286
 994              		.loc 1 73 3 view .LVU287
 995              		.loc 1 73 3 is_stmt 0 view .LVU288
 996 0014 134A     		ldr	r2, .L62+8
 997 0016 0B1D     		adds	r3, r1, #4
 998 0018 8C18     		adds	r4, r1, r2
 999              	.LVL47:
 1000              		.loc 1 73 3 view .LVU289
 1001 001a 0022     		movs	r2, #0
 1002 001c 9C42     		cmp	r4, r3
 1003 001e 5241     		adcs	r2, r2, r2
 1004 0020 114B     		ldr	r3, .L62+12
 1005 0022 5242     		rsbs	r2, r2, #0
 1006 0024 1A40     		ands	r2, r3
 1007 0026 0132     		adds	r2, r2, #1
 1008 0028 9200     		lsls	r2, r2, #2
 1009 002a 5218     		adds	r2, r2, r1
 1010              	.LBE190:
 1011              	.LBE189:
 1012              		.loc 1 184 6 view .LVU290
 1013 002c 0B00     		movs	r3, r1
 1014              	.LBB192:
 1015              	.LBB191:
 1016              		.loc 1 72 12 view .LVU291
 1017 002e 0024     		movs	r4, #0
 1018              	.LVL48:
 1019              		.loc 1 72 12 view .LVU292
 1020 0030 00E0     		b	.L57
 1021              	.LVL49:
 1022              	.L60:
 1023              		.loc 1 74 11 view .LVU293
 1024 0032 3400     		movs	r4, r6
 1025              	.LVL50:
 1026              	.L57:
ARM GAS  /tmp/ccn8DkCC.s 			page 19


 1027              		.loc 1 74 5 is_stmt 1 view .LVU294
 1028              		.loc 1 74 14 is_stmt 0 view .LVU295
 1029 0034 20CB     		ldmia	r3!, {r5}
 1030              	.LVL51:
 1031              		.loc 1 74 11 view .LVU296
 1032 0036 2E00     		movs	r6, r5
 1033 0038 6640     		eors	r6, r4
 1034              	.LVL52:
 1035              		.loc 1 73 9 view .LVU297
 1036 003a 9342     		cmp	r3, r2
 1037 003c F9D1     		bne	.L60
 1038              		.loc 1 75 3 is_stmt 1 view .LVU298
 1039              	.LVL53:
 1040              		.loc 1 75 3 is_stmt 0 view .LVU299
 1041              	.LBE191:
 1042              	.LBE192:
 1043              		.loc 1 186 6 view .LVU300
 1044 003e A542     		cmp	r5, r4
 1045 0040 09D1     		bne	.L61
 1046              		.loc 1 190 3 is_stmt 1 view .LVU301
 1047              		.loc 1 190 16 is_stmt 0 view .LVU302
 1048 0042 0A4B     		ldr	r3, .L62+16
 1049              		.loc 1 194 3 view .LVU303
 1050 0044 074A     		ldr	r2, .L62+8
 1051              		.loc 1 190 16 view .LVU304
 1052 0046 1960     		str	r1, [r3]
 1053              		.loc 1 191 3 is_stmt 1 view .LVU305
 1054              		.loc 1 191 14 is_stmt 0 view .LVU306
 1055 0048 094B     		ldr	r3, .L62+20
 1056 004a 1880     		strh	r0, [r3]
 1057              		.loc 1 194 3 is_stmt 1 view .LVU307
 1058 004c 0948     		ldr	r0, .L62+24
 1059              	.LVL54:
 1060              		.loc 1 194 3 is_stmt 0 view .LVU308
 1061 004e FFF7FEFF 		bl	memcpy
 1062              	.LVL55:
 1063              		.loc 1 196 3 is_stmt 1 view .LVU309
 1064              		.loc 1 196 10 is_stmt 0 view .LVU310
 1065 0052 0020     		movs	r0, #0
 1066              	.LVL56:
 1067              	.L53:
 1068              		.loc 1 197 1 view .LVU311
 1069              		@ sp needed
 1070 0054 70BD     		pop	{r4, r5, r6, pc}
 1071              	.LVL57:
 1072              	.L61:
 1073              		.loc 1 179 12 view .LVU312
 1074 0056 0120     		movs	r0, #1
 1075              	.LVL58:
 1076              		.loc 1 179 12 view .LVU313
 1077 0058 4042     		rsbs	r0, r0, #0
 1078 005a FBE7     		b	.L53
 1079              	.L63:
 1080              		.align	2
 1081              	.L62:
 1082 005c 00000000 		.word	.LANCHOR0
 1083 0060 4A4E4F43 		.word	1129270858
ARM GAS  /tmp/ccn8DkCC.s 			page 20


 1084 0064 CC110000 		.word	4556
 1085 0068 72040000 		.word	1138
 1086 006c 00000000 		.word	active_props
 1087 0070 00000000 		.word	.LANCHOR1
 1088 0074 00000000 		.word	current_props
 1089              		.cfi_endproc
 1090              	.LFE161:
 1091              		.size	caldata_recall, .-caldata_recall
 1092              		.section	.text.caldata_ref,"ax",%progbits
 1093              		.align	1
 1094              		.p2align 4,,15
 1095              		.global	caldata_ref
 1096              		.syntax unified
 1097              		.code	16
 1098              		.thumb_func
 1099              		.fpu softvfp
 1100              		.type	caldata_ref, %function
 1101              	caldata_ref:
 1102              	.LVL59:
 1103              	.LFB162:
 1104              		.loc 1 200 1 is_stmt 1 view -0
 1105              		.cfi_startproc
 1106              		@ args = 0, pretend = 0, frame = 0
 1107              		@ frame_needed = 0, uses_anonymous_args = 0
 1108              		.loc 1 201 3 view .LVU315
 1109              		.loc 1 202 3 view .LVU316
 1110              		.loc 1 200 1 is_stmt 0 view .LVU317
 1111 0000 30B5     		push	{r4, r5, lr}
 1112              		.cfi_def_cfa_offset 12
 1113              		.cfi_offset 4, -12
 1114              		.cfi_offset 5, -8
 1115              		.cfi_offset 14, -4
 1116              		.loc 1 202 6 view .LVU318
 1117 0002 0328     		cmp	r0, #3
 1118 0004 21D8     		bhi	.L70
 1119              		.loc 1 204 3 is_stmt 1 view .LVU319
 1120              		.loc 1 204 39 is_stmt 0 view .LVU320
 1121 0006 124B     		ldr	r3, .L73
 1122 0008 8000     		lsls	r0, r0, #2
 1123              	.LVL60:
 1124              		.loc 1 204 39 view .LVU321
 1125 000a C058     		ldr	r0, [r0, r3]
 1126              	.LVL61:
 1127              		.loc 1 206 3 is_stmt 1 view .LVU322
 1128              		.loc 1 206 6 is_stmt 0 view .LVU323
 1129 000c 114B     		ldr	r3, .L73+4
 1130 000e 0268     		ldr	r2, [r0]
 1131 0010 9A42     		cmp	r2, r3
 1132 0012 1AD1     		bne	.L70
 1133              		.loc 1 208 3 is_stmt 1 view .LVU324
 1134              	.LVL62:
 1135              	.LBB193:
 1136              	.LBI193:
 1137              		.loc 1 68 17 view .LVU325
 1138              	.LBB194:
 1139              		.loc 1 70 3 view .LVU326
 1140              		.loc 1 71 3 view .LVU327
ARM GAS  /tmp/ccn8DkCC.s 			page 21


 1141              		.loc 1 72 3 view .LVU328
 1142              		.loc 1 73 3 view .LVU329
 1143              		.loc 1 73 3 is_stmt 0 view .LVU330
 1144 0014 0021     		movs	r1, #0
 1145 0016 104A     		ldr	r2, .L73+8
 1146 0018 031D     		adds	r3, r0, #4
 1147 001a 8218     		adds	r2, r0, r2
 1148              	.LVL63:
 1149              		.loc 1 73 3 view .LVU331
 1150 001c 9A42     		cmp	r2, r3
 1151 001e 4941     		adcs	r1, r1, r1
 1152 0020 0E4B     		ldr	r3, .L73+12
 1153 0022 4942     		rsbs	r1, r1, #0
 1154 0024 1940     		ands	r1, r3
 1155 0026 0131     		adds	r1, r1, #1
 1156 0028 8900     		lsls	r1, r1, #2
 1157 002a 4118     		adds	r1, r0, r1
 1158              	.LBE194:
 1159              	.LBE193:
 1160              		.loc 1 206 6 view .LVU332
 1161 002c 0300     		movs	r3, r0
 1162              	.LBB196:
 1163              	.LBB195:
 1164              		.loc 1 72 12 view .LVU333
 1165 002e 0024     		movs	r4, #0
 1166 0030 00E0     		b	.L68
 1167              	.LVL64:
 1168              	.L71:
 1169              		.loc 1 74 11 view .LVU334
 1170 0032 2C00     		movs	r4, r5
 1171              	.LVL65:
 1172              	.L68:
 1173              		.loc 1 74 5 is_stmt 1 view .LVU335
 1174              		.loc 1 74 14 is_stmt 0 view .LVU336
 1175 0034 04CB     		ldmia	r3!, {r2}
 1176              	.LVL66:
 1177              		.loc 1 74 11 view .LVU337
 1178 0036 1500     		movs	r5, r2
 1179 0038 6540     		eors	r5, r4
 1180              	.LVL67:
 1181              		.loc 1 73 9 view .LVU338
 1182 003a 8B42     		cmp	r3, r1
 1183 003c F9D1     		bne	.L71
 1184              		.loc 1 75 3 is_stmt 1 view .LVU339
 1185              	.LVL68:
 1186              		.loc 1 75 3 is_stmt 0 view .LVU340
 1187              	.LBE195:
 1188              	.LBE196:
 1189              		.loc 1 209 12 view .LVU341
 1190 003e 121B     		subs	r2, r2, r4
 1191 0040 5342     		rsbs	r3, r2, #0
 1192 0042 5A41     		adcs	r2, r2, r3
 1193 0044 5242     		rsbs	r2, r2, #0
 1194 0046 1040     		ands	r0, r2
 1195              	.LVL69:
 1196              	.L64:
 1197              		.loc 1 211 1 view .LVU342
ARM GAS  /tmp/ccn8DkCC.s 			page 22


 1198              		@ sp needed
 1199 0048 30BD     		pop	{r4, r5, pc}
 1200              	.L70:
 1201              		.loc 1 209 12 view .LVU343
 1202 004a 0020     		movs	r0, #0
 1203 004c FCE7     		b	.L64
 1204              	.L74:
 1205 004e C046     		.align	2
 1206              	.L73:
 1207 0050 00000000 		.word	.LANCHOR0
 1208 0054 4A4E4F43 		.word	1129270858
 1209 0058 CC110000 		.word	4556
 1210 005c 72040000 		.word	1138
 1211              		.cfi_endproc
 1212              	.LFE162:
 1213              		.size	caldata_ref, .-caldata_ref
 1214              		.section	.text.clear_all_config_prop_data,"ax",%progbits
 1215              		.align	1
 1216              		.p2align 4,,15
 1217              		.global	clear_all_config_prop_data
 1218              		.syntax unified
 1219              		.code	16
 1220              		.thumb_func
 1221              		.fpu softvfp
 1222              		.type	clear_all_config_prop_data, %function
 1223              	clear_all_config_prop_data:
 1224              	.LFB163:
 1225              		.loc 1 220 1 is_stmt 1 view -0
 1226              		.cfi_startproc
 1227              		@ args = 0, pretend = 0, frame = 0
 1228              		@ frame_needed = 0, uses_anonymous_args = 0
 1229              		.loc 1 221 3 view .LVU345
 1230              	.LBB197:
 1231              	.LBI197:
 1232              		.loc 1 60 13 view .LVU346
 1233              	.LBB198:
 1234              		.loc 1 63 3 view .LVU347
 1235              		.loc 1 63 15 is_stmt 0 view .LVU348
 1236 0000 094B     		ldr	r3, .L78
 1237 0002 0A4A     		ldr	r2, .L78+4
 1238              	.LBE198:
 1239              	.LBE197:
 1240              		.loc 1 220 1 view .LVU349
 1241 0004 70B5     		push	{r4, r5, r6, lr}
 1242              		.cfi_def_cfa_offset 16
 1243              		.cfi_offset 4, -16
 1244              		.cfi_offset 5, -12
 1245              		.cfi_offset 6, -8
 1246              		.cfi_offset 14, -4
 1247              	.LBB201:
 1248              	.LBB199:
 1249              		.loc 1 63 15 view .LVU350
 1250 0006 5A60     		str	r2, [r3, #4]
 1251              		.loc 1 64 3 is_stmt 1 view .LVU351
 1252              		.loc 1 64 15 is_stmt 0 view .LVU352
 1253 0008 094A     		ldr	r2, .L78+8
 1254              	.LBE199:
ARM GAS  /tmp/ccn8DkCC.s 			page 23


 1255              	.LBE201:
 1256              		.loc 1 224 12 view .LVU353
 1257 000a 0A4C     		ldr	r4, .L78+12
 1258              		.loc 1 226 9 view .LVU354
 1259 000c 0A4D     		ldr	r5, .L78+16
 1260              	.LBB202:
 1261              	.LBB200:
 1262              		.loc 1 64 15 view .LVU355
 1263 000e 5A60     		str	r2, [r3, #4]
 1264              	.LBE200:
 1265              	.LBE202:
 1266              		.loc 1 224 3 is_stmt 1 view .LVU356
 1267              	.LVL70:
 1268              		.loc 1 225 3 view .LVU357
 1269              		.loc 1 226 3 view .LVU358
 1270              	.L76:
 1271              		.loc 1 227 5 view .LVU359
 1272              	.LBB203:
 1273              	.LBI203:
 1274              		.loc 1 43 12 view .LVU360
 1275              	.LBB204:
 1276              		.loc 1 45 3 view .LVU361
 1277              	.LBB205:
 1278              	.LBI205:
 1279              		.loc 2 374 20 view .LVU362
 1280              	.LBE205:
 1281              	.LBE204:
 1282              	.LBE203:
 1283              		.loc 2 376 3 view .LVU363
 1284              	.LBB224:
 1285              	.LBB220:
 1286              	.LBB210:
 1287              	.LBB206:
 1288              	.LBI206:
 1289              		.loc 3 371 20 view .LVU364
 1290              	.LBE206:
 1291              	.LBE210:
 1292              	.LBE220:
 1293              	.LBE224:
 1294              		.loc 3 373 3 view .LVU365
 1295              	.LBB225:
 1296              	.LBB221:
 1297              	.LBB211:
 1298              	.LBB209:
 1299              	.LBB207:
 1300              	.LBI207:
 1301              		.loc 4 342 57 view .LVU366
 1302              	.LBB208:
 1303              		.loc 4 344 3 view .LVU367
 1304              		.syntax divided
 1305              	@ 344 "ChibiOS/os/common/ext/CMSIS/include/core_cmFunc.h" 1
 1306 0010 72B6     		cpsid i
 1307              	@ 0 "" 2
 1308              		.thumb
 1309              		.syntax unified
 1310              	.LBE208:
 1311              	.LBE207:
ARM GAS  /tmp/ccn8DkCC.s 			page 24


 1312              	.LBE209:
 1313              	.LBE211:
 1314              	.LBE221:
 1315              	.LBE225:
 1316              		.loc 2 377 34 view .LVU368
 1317              		.loc 2 378 20 view .LVU369
 1318              	.LBB226:
 1319              	.LBB222:
 1320              		.loc 1 46 3 view .LVU370
 1321 0012 2000     		movs	r0, r4
 1322 0014 FFF7FEFF 		bl	flash_erase_page0
 1323              	.LVL71:
 1324              		.loc 1 47 3 view .LVU371
 1325              	.LBB212:
 1326              	.LBI212:
 1327              		.loc 2 386 20 view .LVU372
 1328              	.LBB213:
 1329              		.loc 2 388 22 view .LVU373
 1330              		.loc 2 389 33 view .LVU374
 1331              		.loc 2 395 3 view .LVU375
 1332              		.loc 2 395 3 view .LVU376
 1333              		.loc 2 399 3 view .LVU377
 1334              	.LBB214:
 1335              	.LBI214:
 1336              		.loc 3 380 20 view .LVU378
 1337              	.LBE214:
 1338              	.LBE213:
 1339              	.LBE212:
 1340              	.LBE222:
 1341              	.LBE226:
 1342              		.loc 3 382 3 view .LVU379
 1343              	.LBB227:
 1344              	.LBB223:
 1345              	.LBB219:
 1346              	.LBB218:
 1347              	.LBB217:
 1348              	.LBB215:
 1349              	.LBI215:
 1350              		.loc 4 331 57 view .LVU380
 1351              	.LBB216:
 1352              		.loc 4 333 3 view .LVU381
 1353              		.syntax divided
 1354              	@ 333 "ChibiOS/os/common/ext/CMSIS/include/core_cmFunc.h" 1
 1355 0018 62B6     		cpsie i
 1356              	@ 0 "" 2
 1357              		.thumb
 1358              		.syntax unified
 1359              	.LBE216:
 1360              	.LBE215:
 1361              	.LBE217:
 1362              	.LBE218:
 1363              	.LBE219:
 1364              		.loc 1 48 3 view .LVU382
 1365              	.LVL72:
 1366              		.loc 1 48 3 is_stmt 0 view .LVU383
 1367              	.LBE223:
 1368              	.LBE227:
ARM GAS  /tmp/ccn8DkCC.s 			page 25


 1369              		.loc 1 228 5 is_stmt 1 view .LVU384
 1370              		.loc 1 228 7 is_stmt 0 view .LVU385
 1371 001a 8023     		movs	r3, #128
 1372 001c 1B01     		lsls	r3, r3, #4
 1373 001e 9C46     		mov	ip, r3
 1374 0020 6444     		add	r4, r4, ip
 1375              	.LVL73:
 1376              		.loc 1 226 9 view .LVU386
 1377 0022 AC42     		cmp	r4, r5
 1378 0024 F4D1     		bne	.L76
 1379              		.loc 1 230 1 view .LVU387
 1380              		@ sp needed
 1381              	.LVL74:
 1382              		.loc 1 230 1 view .LVU388
 1383 0026 70BD     		pop	{r4, r5, r6, pc}
 1384              	.L79:
 1385              		.align	2
 1386              	.L78:
 1387 0028 00200240 		.word	1073881088
 1388 002c 23016745 		.word	1164378403
 1389 0030 AB89EFCD 		.word	-839939669
 1390 0034 00980108 		.word	134322176
 1391 0038 00000208 		.word	134348800
 1392              		.cfi_endproc
 1393              	.LFE163:
 1394              		.size	clear_all_config_prop_data, .-clear_all_config_prop_data
 1395              		.global	save_config_prop_area_size
 1396              		.global	lastsaveid
 1397              		.global	saveareas
 1398              		.global	save_config_area
 1399              		.section	.bss.lastsaveid,"aw",%nobits
 1400              		.align	1
 1401              		.set	.LANCHOR1,. + 0
 1402              		.type	lastsaveid, %object
 1403              		.size	lastsaveid, 2
 1404              	lastsaveid:
 1405 0000 0000     		.space	2
 1406              		.section	.rodata.save_config_area,"a"
 1407              		.align	2
 1408              		.type	save_config_area, %object
 1409              		.size	save_config_area, 4
 1410              	save_config_area:
 1411 0000 00980108 		.word	134322176
 1412              		.section	.rodata.save_config_prop_area_size,"a"
 1413              		.align	2
 1414              		.type	save_config_prop_area_size, %object
 1415              		.size	save_config_prop_area_size, 4
 1416              	save_config_prop_area_size:
 1417 0000 00680000 		.word	26624
 1418              		.section	.rodata.saveareas,"a"
 1419              		.align	2
 1420              		.set	.LANCHOR0,. + 0
 1421              		.type	saveareas, %object
 1422              		.size	saveareas, 16
 1423              	saveareas:
 1424 0000 00A00108 		.word	134324224
 1425 0004 00B80108 		.word	134330368
ARM GAS  /tmp/ccn8DkCC.s 			page 26


 1426 0008 00D00108 		.word	134336512
 1427 000c 00E80108 		.word	134342656
 1428              		.text
 1429              	.Letext0:
 1430              		.file 5 "/opt/nanovna/gcc-arm-none-eabi-8-2018-q4-major/lib/gcc/arm-none-eabi/8.2.1/include/stddef
 1431              		.file 6 "/opt/nanovna/gcc-arm-none-eabi-8-2018-q4-major/arm-none-eabi/include/machine/_default_typ
 1432              		.file 7 "/opt/nanovna/gcc-arm-none-eabi-8-2018-q4-major/arm-none-eabi/include/sys/_stdint.h"
 1433              		.file 8 "ChibiOS/os/common/ports/ARMCMx/compilers/GCC/chtypes.h"
 1434              		.file 9 "ChibiOS/os/rt/include/chsystypes.h"
 1435              		.file 10 "ChibiOS/os/rt/include/chschd.h"
 1436              		.file 11 "ChibiOS/os/common/ext/CMSIS/ST/STM32F0xx/stm32f072xb.h"
 1437              		.file 12 "ChibiOS/os/common/ports/ARMCMx/chcore.h"
 1438              		.file 13 "ChibiOS/os/hal/ports/STM32/LLD/TIMv1/stm32_tim.h"
 1439              		.file 14 "ChibiOS/os/rt/include/chmtx.h"
 1440              		.file 15 "ChibiOS/os/common/ext/CMSIS/ST/STM32F0xx/system_stm32f0xx.h"
 1441              		.file 16 "ChibiOS/os/rt/include/chregistry.h"
 1442              		.file 17 "ChibiOS/os/rt/include/chevents.h"
 1443              		.file 18 "ChibiOS/os/hal/ports/STM32/LLD/DMAv1/stm32_dma.h"
 1444              		.file 19 "ChibiOS/os/hal/include/hal_queues.h"
 1445              		.file 20 "ChibiOS/os/hal/ports/STM32/LLD/GPIOv2/hal_pal_lld.h"
 1446              		.file 21 "ChibiOS/os/hal/include/hal_ext.h"
 1447              		.file 22 "ChibiOS/os/hal/ports/STM32/LLD/EXTIv1/hal_ext_lld.h"
 1448              		.file 23 "ChibiOS/os/hal/include/hal_gpt.h"
 1449              		.file 24 "ChibiOS/os/hal/ports/STM32/LLD/TIMv1/hal_gpt_lld.h"
 1450              		.file 25 "ChibiOS/os/hal/include/hal_i2c.h"
 1451              		.file 26 "ChibiOS/os/hal/ports/STM32/LLD/I2Cv2/hal_i2c_lld.h"
 1452              		.file 27 "ChibiOS/os/hal/include/hal_i2s.h"
 1453              		.file 28 "ChibiOS/os/hal/ports/STM32/LLD/SPIv2/hal_i2s_lld.h"
 1454              		.file 29 "/opt/nanovna/gcc-arm-none-eabi-8-2018-q4-major/arm-none-eabi/include/sys/lock.h"
 1455              		.file 30 "/opt/nanovna/gcc-arm-none-eabi-8-2018-q4-major/arm-none-eabi/include/sys/_types.h"
 1456              		.file 31 "/opt/nanovna/gcc-arm-none-eabi-8-2018-q4-major/arm-none-eabi/include/sys/reent.h"
 1457              		.file 32 "/opt/nanovna/gcc-arm-none-eabi-8-2018-q4-major/arm-none-eabi/include/time.h"
 1458              		.file 33 "ChibiOS/os/hal/include/hal_rtc.h"
 1459              		.file 34 "ChibiOS/os/hal/ports/STM32/LLD/RTCv2/hal_rtc_lld.h"
 1460              		.file 35 "ChibiOS/os/hal/include/hal_serial.h"
 1461              		.file 36 "ChibiOS/os/hal/ports/STM32/LLD/USARTv2/hal_serial_lld.h"
 1462              		.file 37 "ChibiOS/os/hal/include/hal_spi.h"
 1463              		.file 38 "ChibiOS/os/hal/ports/STM32/LLD/SPIv2/hal_spi_lld.h"
 1464              		.file 39 "ChibiOS/os/hal/include/hal_usb.h"
 1465              		.file 40 "ChibiOS/os/hal/ports/STM32/LLD/USBv1/hal_usb_lld.h"
 1466              		.file 41 "nanovna.h"
 1467              		.file 42 "<built-in>"