ARM GAS  /tmp/ccWl1WAG.s 			page 1


   1              		.cpu cortex-m0
   2              		.eabi_attribute 20, 1
   3              		.eabi_attribute 21, 1
   4              		.eabi_attribute 23, 3
   5              		.eabi_attribute 24, 1
   6              		.eabi_attribute 25, 1
   7              		.eabi_attribute 26, 1
   8              		.eabi_attribute 30, 2
   9              		.eabi_attribute 34, 0
  10              		.eabi_attribute 18, 4
  11              		.file	"hal_rtc_lld.c"
  12              		.text
  13              	.Ltext0:
  14              		.cfi_sections	.debug_frame
  15              		.section	.text.rtc_lld_init,"ax",%progbits
  16              		.align	1
  17              		.p2align 4,,15
  18              		.global	rtc_lld_init
  19              		.arch armv6s-m
  20              		.syntax unified
  21              		.code	16
  22              		.thumb_func
  23              		.fpu softvfp
  24              		.type	rtc_lld_init, %function
  25              	rtc_lld_init:
  26              	.LFB157:
  27              		.file 1 "ChibiOS/os/hal/ports/STM32/LLD/RTCv2/hal_rtc_lld.c"
  28              		.loc 1 294 25 view -0
  29              		.cfi_startproc
  30              		@ args = 0, pretend = 0, frame = 0
  31              		@ frame_needed = 0, uses_anonymous_args = 0
  32              		.loc 1 297 3 view .LVU1
  33              		.loc 1 294 25 is_stmt 0 view .LVU2
  34 0000 10B5     		push	{r4, lr}
  35              		.cfi_def_cfa_offset 8
  36              		.cfi_offset 4, -8
  37              		.cfi_offset 14, -4
  38              		.loc 1 297 3 view .LVU3
  39 0002 124C     		ldr	r4, .L8
  40 0004 2000     		movs	r0, r4
  41 0006 FFF7FEFF 		bl	rtcObjectInit
  42              	.LVL0:
  43              		.loc 1 300 3 is_stmt 1 view .LVU4
  44              		.loc 1 303 18 is_stmt 0 view .LVU5
  45 000a CA22     		movs	r2, #202
  46              		.loc 1 300 13 view .LVU6
  47 000c 104B     		ldr	r3, .L8+4
  48 000e 2360     		str	r3, [r4]
  49              		.loc 1 303 3 is_stmt 1 view .LVU7
  50              		.loc 1 303 18 is_stmt 0 view .LVU8
  51 0010 5A62     		str	r2, [r3, #36]
  52              		.loc 1 304 3 is_stmt 1 view .LVU9
  53              		.loc 1 304 18 is_stmt 0 view .LVU10
  54 0012 773A     		subs	r2, r2, #119
  55 0014 5A62     		str	r2, [r3, #36]
  56              		.loc 1 308 3 is_stmt 1 view .LVU11
  57              		.loc 1 308 18 is_stmt 0 view .LVU12
ARM GAS  /tmp/ccWl1WAG.s 			page 2


  58 0016 DA68     		ldr	r2, [r3, #12]
  59              		.loc 1 308 6 view .LVU13
  60 0018 D206     		lsls	r2, r2, #27
  61 001a 12D4     		bmi	.L2
  62              		.loc 1 310 5 is_stmt 1 view .LVU14
  63              	.LBB22:
  64              	.LBI22:
  65              		.loc 1 75 13 view .LVU15
  66              	.LBB23:
  67              		.loc 1 77 3 view .LVU16
  68              		.loc 1 77 18 is_stmt 0 view .LVU17
  69 001c 8021     		movs	r1, #128
  70 001e DA68     		ldr	r2, [r3, #12]
  71 0020 0A43     		orrs	r2, r1
  72 0022 DA60     		str	r2, [r3, #12]
  73              		.loc 1 78 3 is_stmt 1 view .LVU18
  74              		.loc 1 78 26 is_stmt 0 view .LVU19
  75 0024 4039     		subs	r1, r1, #64
  76              	.L3:
  77              		.loc 1 79 5 is_stmt 1 view .LVU20
  78              		.loc 1 78 20 is_stmt 0 view .LVU21
  79 0026 DA68     		ldr	r2, [r3, #12]
  80              		.loc 1 78 9 view .LVU22
  81 0028 1142     		tst	r1, r2
  82 002a FCD0     		beq	.L3
  83              	.LBE23:
  84              	.LBE22:
  85              		.loc 1 312 5 is_stmt 1 view .LVU23
  86              		.loc 1 312 21 is_stmt 0 view .LVU24
  87 002c 0022     		movs	r2, #0
  88              		.loc 1 313 21 view .LVU25
  89 002e 8021     		movs	r1, #128
  90              		.loc 1 312 21 view .LVU26
  91 0030 9A60     		str	r2, [r3, #8]
  92              		.loc 1 313 5 is_stmt 1 view .LVU27
  93              		.loc 1 314 21 is_stmt 0 view .LVU28
  94 0032 084A     		ldr	r2, .L8+8
  95              		.loc 1 313 21 view .LVU29
  96 0034 D960     		str	r1, [r3, #12]
  97              		.loc 1 314 5 is_stmt 1 view .LVU30
  98              		.loc 1 314 21 is_stmt 0 view .LVU31
  99 0036 1A61     		str	r2, [r3, #16]
 100              		.loc 1 315 5 is_stmt 1 view .LVU32
 101              		.loc 1 315 21 is_stmt 0 view .LVU33
 102 0038 1A61     		str	r2, [r3, #16]
 103              		.loc 1 317 5 is_stmt 1 view .LVU34
 104              	.LBB24:
 105              	.LBI24:
 106              		.loc 1 87 20 view .LVU35
 107              	.LBB25:
 108              		.loc 1 89 3 view .LVU36
 109              		.loc 1 89 18 is_stmt 0 view .LVU37
 110 003a DA68     		ldr	r2, [r3, #12]
 111 003c 8A43     		bics	r2, r1
 112 003e DA60     		str	r2, [r3, #12]
 113              	.L1:
 114              	.LBE25:
ARM GAS  /tmp/ccWl1WAG.s 			page 3


 115              	.LBE24:
 116              		.loc 1 321 1 view .LVU38
 117              		@ sp needed
 118 0040 10BD     		pop	{r4, pc}
 119              	.L2:
 120              		.loc 1 320 5 is_stmt 1 view .LVU39
 121              		.loc 1 320 20 is_stmt 0 view .LVU40
 122 0042 2021     		movs	r1, #32
 123 0044 DA68     		ldr	r2, [r3, #12]
 124 0046 8A43     		bics	r2, r1
 125 0048 DA60     		str	r2, [r3, #12]
 126              		.loc 1 321 1 view .LVU41
 127 004a F9E7     		b	.L1
 128              	.L9:
 129              		.align	2
 130              	.L8:
 131 004c 00000000 		.word	.LANCHOR0
 132 0050 00280040 		.word	1073752064
 133 0054 FF031F00 		.word	2032639
 134              		.cfi_endproc
 135              	.LFE157:
 136              		.size	rtc_lld_init, .-rtc_lld_init
 137              		.global	__aeabi_uidiv
 138              		.global	__aeabi_idiv
 139              		.global	__aeabi_uidivmod
 140              		.global	__aeabi_idivmod
 141              		.section	.text.rtc_lld_set_time,"ax",%progbits
 142              		.align	1
 143              		.p2align 4,,15
 144              		.global	rtc_lld_set_time
 145              		.syntax unified
 146              		.code	16
 147              		.thumb_func
 148              		.fpu softvfp
 149              		.type	rtc_lld_set_time, %function
 150              	rtc_lld_set_time:
 151              	.LVL1:
 152              	.LFB158:
 153              		.loc 1 334 69 is_stmt 1 view -0
 154              		.cfi_startproc
 155              		@ args = 0, pretend = 0, frame = 0
 156              		@ frame_needed = 0, uses_anonymous_args = 0
 157              		.loc 1 335 3 view .LVU43
 158              		.loc 1 336 3 view .LVU44
 159              		.loc 1 338 3 view .LVU45
 160              	.LBB38:
 161              	.LBI38:
 162              		.loc 1 139 17 view .LVU46
 163              	.LBB39:
 164              		.loc 1 140 3 view .LVU47
 165              		.loc 1 143 3 view .LVU48
 166              	.LBE39:
 167              	.LBE38:
 168              		.loc 1 334 69 is_stmt 0 view .LVU49
 169 0000 F0B5     		push	{r4, r5, r6, r7, lr}
 170              		.cfi_def_cfa_offset 20
 171              		.cfi_offset 4, -20
ARM GAS  /tmp/ccWl1WAG.s 			page 4


 172              		.cfi_offset 5, -16
 173              		.cfi_offset 6, -12
 174              		.cfi_offset 7, -8
 175              		.cfi_offset 14, -4
 176 0002 D646     		mov	lr, r10
 177 0004 4F46     		mov	r7, r9
 178 0006 4646     		mov	r6, r8
 179              	.LBB45:
 180              	.LBB40:
 181              		.loc 1 143 15 view .LVU50
 182 0008 4B68     		ldr	r3, [r1, #4]
 183              	.LBE40:
 184              	.LBE45:
 185              		.loc 1 334 69 view .LVU51
 186 000a C0B5     		push	{r6, r7, lr}
 187              		.cfi_def_cfa_offset 32
 188              		.cfi_offset 8, -32
 189              		.cfi_offset 9, -28
 190              		.cfi_offset 10, -24
 191              		.loc 1 334 69 view .LVU52
 192 000c 0F00     		movs	r7, r1
 193              	.LBB46:
 194              	.LBB41:
 195              		.loc 1 143 29 view .LVU53
 196 000e FA21     		movs	r1, #250
 197              	.LVL2:
 198              		.loc 1 143 29 view .LVU54
 199              	.LBE41:
 200              	.LBE46:
 201              		.loc 1 334 69 view .LVU55
 202 0010 0500     		movs	r5, r0
 203              	.LBB47:
 204              	.LBB42:
 205              		.loc 1 143 15 view .LVU56
 206 0012 5801     		lsls	r0, r3, #5
 207              	.LVL3:
 208              		.loc 1 143 29 view .LVU57
 209 0014 8900     		lsls	r1, r1, #2
 210              		.loc 1 143 15 view .LVU58
 211 0016 4009     		lsrs	r0, r0, #5
 212              		.loc 1 143 29 view .LVU59
 213 0018 FFF7FEFF 		bl	__aeabi_idiv
 214              	.LVL4:
 215              		.loc 1 159 5 view .LVU60
 216 001c 3E49     		ldr	r1, .L14
 217              		.loc 1 143 29 view .LVU61
 218 001e 0600     		movs	r6, r0
 219              	.LVL5:
 220              		.loc 1 146 3 is_stmt 1 view .LVU62
 221              		.loc 1 147 3 view .LVU63
 222              		.loc 1 148 3 view .LVU64
 223              		.loc 1 149 3 view .LVU65
 224              		.loc 1 152 3 view .LVU66
 225              		.loc 1 153 3 view .LVU67
 226              		.loc 1 154 3 view .LVU68
 227              		.loc 1 155 3 view .LVU69
 228              		.loc 1 158 3 view .LVU70
ARM GAS  /tmp/ccWl1WAG.s 			page 5


 229              		.loc 1 159 3 view .LVU71
 230              		.loc 1 160 3 view .LVU72
 231              		.loc 1 159 5 is_stmt 0 view .LVU73
 232 0020 FFF7FEFF 		bl	__aeabi_uidiv
 233              	.LVL6:
 234              		.loc 1 146 23 view .LVU74
 235 0024 0A21     		movs	r1, #10
 236              		.loc 1 160 16 view .LVU75
 237 0026 0405     		lsls	r4, r0, #20
 238              		.loc 1 146 23 view .LVU76
 239 0028 3000     		movs	r0, r6
 240 002a FFF7FEFF 		bl	__aeabi_uidivmod
 241              	.LVL7:
 242              		.loc 1 147 5 view .LVU77
 243 002e 3000     		movs	r0, r6
 244              		.loc 1 160 6 view .LVU78
 245 0030 0C43     		orrs	r4, r1
 246              		.loc 1 147 5 view .LVU79
 247 0032 0A21     		movs	r1, #10
 248 0034 FFF7FEFF 		bl	__aeabi_uidiv
 249              	.LVL8:
 250              		.loc 1 148 17 view .LVU80
 251 0038 0621     		movs	r1, #6
 252 003a FFF7FEFF 		bl	__aeabi_uidivmod
 253              	.LVL9:
 254              		.loc 1 148 22 view .LVU81
 255 003e 0901     		lsls	r1, r1, #4
 256              		.loc 1 160 6 view .LVU82
 257 0040 0C43     		orrs	r4, r1
 258              		.loc 1 149 5 view .LVU83
 259 0042 3000     		movs	r0, r6
 260 0044 3C21     		movs	r1, #60
 261 0046 FFF7FEFF 		bl	__aeabi_uidiv
 262              	.LVL10:
 263              		.loc 1 152 17 view .LVU84
 264 004a 0A21     		movs	r1, #10
 265 004c FFF7FEFF 		bl	__aeabi_uidivmod
 266              	.LVL11:
 267              		.loc 1 152 23 view .LVU85
 268 0050 0902     		lsls	r1, r1, #8
 269              		.loc 1 160 6 view .LVU86
 270 0052 0C43     		orrs	r4, r1
 271              		.loc 1 153 5 view .LVU87
 272 0054 9621     		movs	r1, #150
 273 0056 3000     		movs	r0, r6
 274 0058 8900     		lsls	r1, r1, #2
 275 005a FFF7FEFF 		bl	__aeabi_uidiv
 276              	.LVL12:
 277              		.loc 1 154 17 view .LVU88
 278 005e 0621     		movs	r1, #6
 279 0060 FFF7FEFF 		bl	__aeabi_uidivmod
 280              	.LVL13:
 281              		.loc 1 154 22 view .LVU89
 282 0064 0903     		lsls	r1, r1, #12
 283              		.loc 1 160 6 view .LVU90
 284 0066 0C43     		orrs	r4, r1
 285              		.loc 1 155 5 view .LVU91
ARM GAS  /tmp/ccWl1WAG.s 			page 6


 286 0068 E121     		movs	r1, #225
 287 006a 3000     		movs	r0, r6
 288 006c 0901     		lsls	r1, r1, #4
 289 006e FFF7FEFF 		bl	__aeabi_uidiv
 290              	.LVL14:
 291              		.loc 1 158 17 view .LVU92
 292 0072 0A21     		movs	r1, #10
 293 0074 FFF7FEFF 		bl	__aeabi_uidivmod
 294              	.LVL15:
 295              	.LBE42:
 296              	.LBE47:
 297              	.LBB48:
 298              	.LBB49:
 299              		.loc 1 177 5 view .LVU93
 300 0078 3B78     		ldrb	r3, [r7]
 301              	.LBE49:
 302              	.LBE48:
 303              	.LBB53:
 304              	.LBB43:
 305              		.loc 1 158 23 view .LVU94
 306 007a 0904     		lsls	r1, r1, #16
 307              	.LBE43:
 308              	.LBE53:
 309              	.LBB54:
 310              	.LBB50:
 311              		.loc 1 177 5 view .LVU95
 312 007c 9846     		mov	r8, r3
 313              		.loc 1 183 15 view .LVU96
 314 007e 7B78     		ldrb	r3, [r7, #1]
 315              	.LBE50:
 316              	.LBE54:
 317              	.LBB55:
 318              	.LBB44:
 319              		.loc 1 160 6 view .LVU97
 320 0080 0C43     		orrs	r4, r1
 321              	.LVL16:
 322              		.loc 1 162 3 is_stmt 1 view .LVU98
 323              		.loc 1 162 3 is_stmt 0 view .LVU99
 324              	.LBE44:
 325              	.LBE55:
 326              		.loc 1 339 3 is_stmt 1 view .LVU100
 327              	.LBB56:
 328              	.LBI48:
 329              		.loc 1 173 17 view .LVU101
 330              	.LBB51:
 331              		.loc 1 174 3 view .LVU102
 332              		.loc 1 177 3 view .LVU103
 333              		.loc 1 178 3 view .LVU104
 334              		.loc 1 179 3 view .LVU105
 335              		.loc 1 180 3 view .LVU106
 336              		.loc 1 183 3 view .LVU107
 337              		.loc 1 183 15 is_stmt 0 view .LVU108
 338 0082 9946     		mov	r9, r3
 339 0084 1B07     		lsls	r3, r3, #28
 340              		.loc 1 183 5 view .LVU109
 341 0086 1B0F     		lsrs	r3, r3, #28
 342              		.loc 1 178 17 view .LVU110
ARM GAS  /tmp/ccWl1WAG.s 			page 7


 343 0088 0A21     		movs	r1, #10
 344 008a 4046     		mov	r0, r8
 345              		.loc 1 183 5 view .LVU111
 346 008c 9A46     		mov	r10, r3
 347              	.LVL17:
 348              		.loc 1 184 3 is_stmt 1 view .LVU112
 349              		.loc 1 185 3 view .LVU113
 350              		.loc 1 186 3 view .LVU114
 351              		.loc 1 189 3 view .LVU115
 352              		.loc 1 178 17 is_stmt 0 view .LVU116
 353 008e FFF7FEFF 		bl	__aeabi_uidivmod
 354              	.LVL18:
 355              		.loc 1 184 17 view .LVU117
 356 0092 5046     		mov	r0, r10
 357              		.loc 1 178 23 view .LVU118
 358 0094 0E04     		lsls	r6, r1, #16
 359              		.loc 1 184 17 view .LVU119
 360 0096 0A21     		movs	r1, #10
 361 0098 FFF7FEFF 		bl	__aeabi_uidivmod
 362              	.LVL19:
 363              		.loc 1 189 15 view .LVU120
 364 009c BF78     		ldrb	r7, [r7, #2]
 365              	.LVL20:
 366              		.loc 1 184 23 view .LVU121
 367 009e 0902     		lsls	r1, r1, #8
 368              		.loc 1 189 15 view .LVU122
 369 00a0 FF06     		lsls	r7, r7, #27
 370              		.loc 1 189 5 view .LVU123
 371 00a2 FF0E     		lsrs	r7, r7, #27
 372              	.LVL21:
 373              		.loc 1 190 3 is_stmt 1 view .LVU124
 374              		.loc 1 191 3 view .LVU125
 375              		.loc 1 192 3 view .LVU126
 376              		.loc 1 195 3 view .LVU127
 377              		.loc 1 195 6 is_stmt 0 view .LVU128
 378 00a4 0E43     		orrs	r6, r1
 379              		.loc 1 190 23 view .LVU129
 380 00a6 3800     		movs	r0, r7
 381 00a8 0A21     		movs	r1, #10
 382 00aa FFF7FEFF 		bl	__aeabi_uidivmod
 383              	.LVL22:
 384              		.loc 1 185 5 view .LVU130
 385 00ae 5046     		mov	r0, r10
 386              		.loc 1 195 6 view .LVU131
 387 00b0 0E43     		orrs	r6, r1
 388              		.loc 1 185 5 view .LVU132
 389 00b2 0A21     		movs	r1, #10
 390 00b4 FFF7FEFF 		bl	__aeabi_uidiv
 391              	.LVL23:
 392              		.loc 1 186 23 view .LVU133
 393 00b8 0003     		lsls	r0, r0, #12
 394              		.loc 1 195 6 view .LVU134
 395 00ba 0643     		orrs	r6, r0
 396              		.loc 1 191 5 view .LVU135
 397 00bc 0A21     		movs	r1, #10
 398 00be 3800     		movs	r0, r7
 399 00c0 FFF7FEFF 		bl	__aeabi_uidiv
ARM GAS  /tmp/ccWl1WAG.s 			page 8


 400              	.LVL24:
 401              		.loc 1 195 22 view .LVU136
 402 00c4 4B46     		mov	r3, r9
 403              		.loc 1 192 23 view .LVU137
 404 00c6 0001     		lsls	r0, r0, #4
 405              		.loc 1 195 22 view .LVU138
 406 00c8 5909     		lsrs	r1, r3, #5
 407              		.loc 1 195 6 view .LVU139
 408 00ca 0643     		orrs	r6, r0
 409              		.loc 1 195 34 view .LVU140
 410 00cc 4903     		lsls	r1, r1, #13
 411              		.loc 1 195 6 view .LVU141
 412 00ce 0E43     		orrs	r6, r1
 413              		.loc 1 179 5 view .LVU142
 414 00d0 4046     		mov	r0, r8
 415 00d2 0A21     		movs	r1, #10
 416 00d4 FFF7FEFF 		bl	__aeabi_uidiv
 417              	.LVL25:
 418              		.loc 1 180 17 view .LVU143
 419 00d8 0A21     		movs	r1, #10
 420 00da FFF7FEFF 		bl	__aeabi_uidivmod
 421              	.LVL26:
 422              		.loc 1 180 23 view .LVU144
 423 00de 0F05     		lsls	r7, r1, #20
 424              	.LVL27:
 425              		.loc 1 180 23 view .LVU145
 426              	.LBE51:
 427              	.LBE56:
 428              	.LBB57:
 429              	.LBB58:
 430              		.file 2 "ChibiOS/os/hal/osal/rt/osal.h"
 431              		.loc 2 544 10 view .LVU146
 432 00e0 FFF7FEFF 		bl	chSysGetStatusAndLockX
 433              	.LVL28:
 434              	.LBE58:
 435              	.LBE57:
 436              	.LBB60:
 437              	.LBB61:
 438              		.loc 1 77 18 view .LVU147
 439 00e4 8021     		movs	r1, #128
 440              	.LBE61:
 441              	.LBE60:
 442              	.LBB63:
 443              	.LBB52:
 444              		.loc 1 195 6 view .LVU148
 445 00e6 3743     		orrs	r7, r6
 446              	.LVL29:
 447              		.loc 1 197 3 is_stmt 1 view .LVU149
 448              		.loc 1 197 3 is_stmt 0 view .LVU150
 449              	.LBE52:
 450              	.LBE63:
 451              		.loc 1 342 3 is_stmt 1 view .LVU151
 452              	.LBB64:
 453              	.LBI57:
 454              		.loc 2 542 24 view .LVU152
 455              	.LBB59:
 456              		.loc 2 544 3 view .LVU153
ARM GAS  /tmp/ccWl1WAG.s 			page 9


 457              		.loc 2 544 3 is_stmt 0 view .LVU154
 458              	.LBE59:
 459              	.LBE64:
 460              		.loc 1 345 3 is_stmt 1 view .LVU155
 461              	.LBB65:
 462              	.LBI60:
 463              		.loc 1 75 13 view .LVU156
 464              	.LBB62:
 465              		.loc 1 77 3 view .LVU157
 466              		.loc 1 78 26 is_stmt 0 view .LVU158
 467 00e8 4026     		movs	r6, #64
 468              		.loc 1 77 8 view .LVU159
 469 00ea 0C4B     		ldr	r3, .L14+4
 470 00ec 1A68     		ldr	r2, [r3]
 471              		.loc 1 77 18 view .LVU160
 472 00ee D368     		ldr	r3, [r2, #12]
 473 00f0 0B43     		orrs	r3, r1
 474 00f2 D360     		str	r3, [r2, #12]
 475              		.loc 1 78 3 is_stmt 1 view .LVU161
 476              	.L11:
 477              		.loc 1 79 5 view .LVU162
 478              		.loc 1 78 20 is_stmt 0 view .LVU163
 479 00f4 D368     		ldr	r3, [r2, #12]
 480              		.loc 1 78 9 view .LVU164
 481 00f6 1E42     		tst	r6, r3
 482 00f8 FCD0     		beq	.L11
 483              	.LBE62:
 484              	.LBE65:
 485              		.loc 1 346 3 is_stmt 1 view .LVU165
 486              	.LBB66:
 487              	.LBB67:
 488              		.loc 1 89 18 is_stmt 0 view .LVU166
 489 00fa 8021     		movs	r1, #128
 490              	.LBE67:
 491              	.LBE66:
 492              		.loc 1 346 7 view .LVU167
 493 00fc 2B68     		ldr	r3, [r5]
 494              		.loc 1 352 1 view .LVU168
 495              		@ sp needed
 496              		.loc 1 346 17 view .LVU169
 497 00fe 1C60     		str	r4, [r3]
 498              		.loc 1 347 3 is_stmt 1 view .LVU170
 499              		.loc 1 347 17 is_stmt 0 view .LVU171
 500 0100 5F60     		str	r7, [r3, #4]
 501              		.loc 1 348 3 is_stmt 1 view .LVU172
 502              	.LBB69:
 503              	.LBI66:
 504              		.loc 1 87 20 view .LVU173
 505              	.LBB68:
 506              		.loc 1 89 3 view .LVU174
 507              		.loc 1 89 18 is_stmt 0 view .LVU175
 508 0102 D368     		ldr	r3, [r2, #12]
 509 0104 8B43     		bics	r3, r1
 510 0106 D360     		str	r3, [r2, #12]
 511              	.LBE68:
 512              	.LBE69:
 513              		.loc 1 351 3 is_stmt 1 view .LVU176
ARM GAS  /tmp/ccWl1WAG.s 			page 10


 514              	.LVL30:
 515              	.LBB70:
 516              	.LBI70:
 517              		.loc 2 556 20 view .LVU177
 518              	.LBB71:
 519              		.loc 2 558 3 view .LVU178
 520 0108 FFF7FEFF 		bl	chSysRestoreStatusX
 521              	.LVL31:
 522              	.LVL32:
 523              	.LVL33:
 524              	.LVL34:
 525              		.loc 2 558 3 is_stmt 0 view .LVU179
 526              	.LBE71:
 527              	.LBE70:
 528              		.loc 1 352 1 view .LVU180
 529 010c 1CBC     		pop	{r2, r3, r4}
 530 010e 9046     		mov	r8, r2
 531 0110 9946     		mov	r9, r3
 532 0112 A246     		mov	r10, r4
 533 0114 F0BD     		pop	{r4, r5, r6, r7, pc}
 534              	.L15:
 535 0116 C046     		.align	2
 536              	.L14:
 537 0118 A08C0000 		.word	36000
 538 011c 00000000 		.word	.LANCHOR0
 539              		.cfi_endproc
 540              	.LFE158:
 541              		.size	rtc_lld_set_time, .-rtc_lld_set_time
 542              		.section	.text.rtc_lld_get_time,"ax",%progbits
 543              		.align	1
 544              		.p2align 4,,15
 545              		.global	rtc_lld_get_time
 546              		.syntax unified
 547              		.code	16
 548              		.thumb_func
 549              		.fpu softvfp
 550              		.type	rtc_lld_get_time, %function
 551              	rtc_lld_get_time:
 552              	.LVL35:
 553              	.LFB159:
 554              		.loc 1 363 63 is_stmt 1 view -0
 555              		.cfi_startproc
 556              		@ args = 0, pretend = 0, frame = 0
 557              		@ frame_needed = 0, uses_anonymous_args = 0
 558              		.loc 1 364 3 view .LVU182
 559              		.loc 1 365 3 view .LVU183
 560              		.loc 1 367 3 view .LVU184
 561              		.loc 1 369 3 view .LVU185
 562              		.loc 1 372 3 view .LVU186
 563              	.LBB80:
 564              	.LBI80:
 565              		.loc 2 542 24 view .LVU187
 566              	.LBB81:
 567              		.loc 2 544 3 view .LVU188
 568              	.LBE81:
 569              	.LBE80:
 570              		.loc 1 363 63 is_stmt 0 view .LVU189
ARM GAS  /tmp/ccWl1WAG.s 			page 11


 571 0000 F8B5     		push	{r3, r4, r5, r6, r7, lr}
 572              		.cfi_def_cfa_offset 24
 573              		.cfi_offset 3, -24
 574              		.cfi_offset 4, -20
 575              		.cfi_offset 5, -16
 576              		.cfi_offset 6, -12
 577              		.cfi_offset 7, -8
 578              		.cfi_offset 14, -4
 579 0002 CE46     		mov	lr, r9
 580 0004 4746     		mov	r7, r8
 581 0006 0500     		movs	r5, r0
 582 0008 80B5     		push	{r7, lr}
 583              		.cfi_def_cfa_offset 32
 584              		.cfi_offset 8, -32
 585              		.cfi_offset 9, -28
 586              		.loc 1 363 63 view .LVU190
 587 000a 0C00     		movs	r4, r1
 588              	.LBB83:
 589              	.LBB82:
 590              		.loc 2 544 10 view .LVU191
 591 000c FFF7FEFF 		bl	chSysGetStatusAndLockX
 592              	.LVL36:
 593              		.loc 2 544 10 view .LVU192
 594              	.LBE82:
 595              	.LBE83:
 596              		.loc 1 376 3 is_stmt 1 view .LVU193
 597              		.loc 1 376 26 is_stmt 0 view .LVU194
 598 0010 2021     		movs	r1, #32
 599              		.loc 1 376 15 view .LVU195
 600 0012 2A68     		ldr	r2, [r5]
 601              	.L17:
 602              		.loc 1 377 5 is_stmt 1 discriminator 1 view .LVU196
 603              		.loc 1 376 20 is_stmt 0 discriminator 1 view .LVU197
 604 0014 D368     		ldr	r3, [r2, #12]
 605              		.loc 1 376 9 discriminator 1 view .LVU198
 606 0016 1942     		tst	r1, r3
 607 0018 FCD0     		beq	.L17
 608              		.loc 1 379 3 is_stmt 1 view .LVU199
 609              		.loc 1 379 7 is_stmt 0 view .LVU200
 610 001a 966A     		ldr	r6, [r2, #40]
 611              	.LVL37:
 612              		.loc 1 381 3 is_stmt 1 view .LVU201
 613              		.loc 1 381 7 is_stmt 0 view .LVU202
 614 001c 1768     		ldr	r7, [r2]
 615              	.LVL38:
 616              		.loc 1 382 3 is_stmt 1 view .LVU203
 617              		.loc 1 382 7 is_stmt 0 view .LVU204
 618 001e 5568     		ldr	r5, [r2, #4]
 619              	.LVL39:
 620              		.loc 1 383 3 is_stmt 1 view .LVU205
 621              		.loc 1 383 18 is_stmt 0 view .LVU206
 622 0020 D368     		ldr	r3, [r2, #12]
 623              		.loc 1 403 1 view .LVU207
 624              		@ sp needed
 625              		.loc 1 383 18 view .LVU208
 626 0022 8B43     		bics	r3, r1
 627 0024 D360     		str	r3, [r2, #12]
ARM GAS  /tmp/ccWl1WAG.s 			page 12


 628              		.loc 1 386 3 is_stmt 1 view .LVU209
 629              	.LVL40:
 630              	.LBB84:
 631              	.LBI84:
 632              		.loc 2 556 20 view .LVU210
 633              	.LBB85:
 634              		.loc 2 558 3 view .LVU211
 635 0026 FFF7FEFF 		bl	chSysRestoreStatusX
 636              	.LVL41:
 637              		.loc 2 558 3 is_stmt 0 view .LVU212
 638              	.LBE85:
 639              	.LBE84:
 640              		.loc 1 390 3 is_stmt 1 view .LVU213
 641              	.LBB86:
 642              	.LBI86:
 643              		.loc 1 100 13 view .LVU214
 644              	.LBB87:
 645              		.loc 1 101 3 view .LVU215
 646              		.loc 1 103 3 view .LVU216
 647              		.loc 1 103 34 is_stmt 0 view .LVU217
 648 002a 0323     		movs	r3, #3
 649              		.loc 1 103 13 view .LVU218
 650 002c 390D     		lsrs	r1, r7, #20
 651              		.loc 1 103 34 view .LVU219
 652 002e 1940     		ands	r1, r3
 653 0030 9946     		mov	r9, r3
 654              		.loc 1 103 6 view .LVU220
 655 0032 CB01     		lsls	r3, r1, #7
 656 0034 5B18     		adds	r3, r3, r1
 657 0036 9B00     		lsls	r3, r3, #2
 658 0038 5B18     		adds	r3, r3, r1
 659 003a 1801     		lsls	r0, r3, #4
 660 003c 1B18     		adds	r3, r3, r0
 661 003e 1B01     		lsls	r3, r3, #4
 662 0040 5B18     		adds	r3, r3, r1
 663              		.loc 1 104 34 view .LVU221
 664 0042 0F21     		movs	r1, #15
 665              		.loc 1 104 13 view .LVU222
 666 0044 380C     		lsrs	r0, r7, #16
 667              		.loc 1 104 34 view .LVU223
 668 0046 0840     		ands	r0, r1
 669 0048 8446     		mov	ip, r0
 670              		.loc 1 104 41 view .LVU224
 671 004a 6246     		mov	r2, ip
 672 004c 3048     		ldr	r0, .L20
 673              		.loc 1 103 6 view .LVU225
 674 004e 1B02     		lsls	r3, r3, #8
 675              	.LVL42:
 676              		.loc 1 104 3 is_stmt 1 view .LVU226
 677              		.loc 1 105 3 view .LVU227
 678              		.loc 1 106 3 view .LVU228
 679              		.loc 1 107 3 view .LVU229
 680              		.loc 1 108 3 view .LVU230
 681              		.loc 1 104 41 is_stmt 0 view .LVU231
 682 0050 5043     		muls	r0, r2
 683              		.loc 1 104 5 view .LVU232
 684 0052 C318     		adds	r3, r0, r3
ARM GAS  /tmp/ccWl1WAG.s 			page 13


 685              	.LVL43:
 686              		.loc 1 108 34 view .LVU233
 687 0054 0800     		movs	r0, r1
 688 0056 3840     		ands	r0, r7
 689              		.loc 1 108 41 view .LVU234
 690 0058 0200     		movs	r2, r0
 691              		.loc 1 108 34 view .LVU235
 692 005a 8446     		mov	ip, r0
 693              		.loc 1 108 41 view .LVU236
 694 005c 4001     		lsls	r0, r0, #5
 695 005e 801A     		subs	r0, r0, r2
 696              		.loc 1 105 35 view .LVU237
 697 0060 0722     		movs	r2, #7
 698              		.loc 1 108 41 view .LVU238
 699 0062 8000     		lsls	r0, r0, #2
 700 0064 6044     		add	r0, r0, ip
 701 0066 C000     		lsls	r0, r0, #3
 702 0068 1B18     		adds	r3, r3, r0
 703              		.loc 1 105 13 view .LVU239
 704 006a 380B     		lsrs	r0, r7, #12
 705              	.LVL44:
 706              		.loc 1 105 35 view .LVU240
 707 006c 9446     		mov	ip, r2
 708 006e 0240     		ands	r2, r0
 709              		.loc 1 105 41 view .LVU241
 710 0070 2848     		ldr	r0, .L20+4
 711              	.LVL45:
 712              		.loc 1 105 41 view .LVU242
 713 0072 5043     		muls	r0, r2
 714 0074 1818     		adds	r0, r3, r0
 715              		.loc 1 106 13 view .LVU243
 716 0076 3B0A     		lsrs	r3, r7, #8
 717              		.loc 1 106 35 view .LVU244
 718 0078 0B40     		ands	r3, r1
 719 007a 9846     		mov	r8, r3
 720              		.loc 1 106 41 view .LVU245
 721 007c 4246     		mov	r2, r8
 722 007e 264B     		ldr	r3, .L20+8
 723              		.loc 1 107 13 view .LVU246
 724 0080 3F09     		lsrs	r7, r7, #4
 725              	.LVL46:
 726              		.loc 1 106 41 view .LVU247
 727 0082 5343     		muls	r3, r2
 728              		.loc 1 107 34 view .LVU248
 729 0084 6246     		mov	r2, ip
 730 0086 1740     		ands	r7, r2
 731              	.LBE87:
 732              	.LBE86:
 733              		.loc 1 395 48 view .LVU249
 734 0088 244A     		ldr	r2, .L20+12
 735 008a C318     		adds	r3, r0, r3
 736              	.LBB90:
 737              	.LBB88:
 738              		.loc 1 109 3 is_stmt 1 view .LVU250
 739              	.LVL47:
 740              		.loc 1 109 3 is_stmt 0 view .LVU251
 741              	.LBE88:
ARM GAS  /tmp/ccWl1WAG.s 			page 14


 742              	.LBE90:
 743              		.loc 1 395 3 is_stmt 1 view .LVU252
 744              		.loc 1 399 3 view .LVU253
 745              		.loc 1 395 48 is_stmt 0 view .LVU254
 746 008c 9446     		mov	ip, r2
 747              	.LBB91:
 748              	.LBB92:
 749              		.loc 1 126 59 view .LVU255
 750 008e 4A46     		mov	r2, r9
 751              	.LBE92:
 752              	.LBE91:
 753              	.LBB96:
 754              	.LBB89:
 755              		.loc 1 107 41 view .LVU256
 756 0090 2348     		ldr	r0, .L20+16
 757 0092 4743     		muls	r7, r0
 758              		.loc 1 108 5 view .LVU257
 759 0094 FF18     		adds	r7, r7, r3
 760              	.LBE89:
 761              	.LBE96:
 762              		.loc 1 395 48 view .LVU258
 763 0096 B305     		lsls	r3, r6, #22
 764 0098 9B1B     		subs	r3, r3, r6
 765 009a 9B01     		lsls	r3, r3, #6
 766 009c 9B19     		adds	r3, r3, r6
 767 009e 5B00     		lsls	r3, r3, #1
 768 00a0 9B19     		adds	r3, r3, r6
 769              	.LBB97:
 770              	.LBB93:
 771              		.loc 1 126 27 view .LVU259
 772 00a2 2E09     		lsrs	r6, r5, #4
 773              	.LVL48:
 774              		.loc 1 126 59 view .LVU260
 775 00a4 3240     		ands	r2, r6
 776 00a6 9600     		lsls	r6, r2, #2
 777 00a8 9219     		adds	r2, r2, r6
 778              		.loc 1 126 19 view .LVU261
 779 00aa 1F26     		movs	r6, #31
 780              	.LBE93:
 781              	.LBE97:
 782              		.loc 1 395 48 view .LVU262
 783 00ac DB00     		lsls	r3, r3, #3
 784 00ae 6344     		add	r3, r3, ip
 785              		.loc 1 395 8 view .LVU263
 786 00b0 9B0A     		lsrs	r3, r3, #10
 787              		.loc 1 399 25 view .LVU264
 788 00b2 FB18     		adds	r3, r7, r3
 789 00b4 5B01     		lsls	r3, r3, #5
 790 00b6 5809     		lsrs	r0, r3, #5
 791 00b8 6368     		ldr	r3, [r4, #4]
 792              	.LBB98:
 793              	.LBB94:
 794              		.loc 1 126 59 view .LVU265
 795 00ba 5200     		lsls	r2, r2, #1
 796              	.LBE94:
 797              	.LBE98:
 798              		.loc 1 399 25 view .LVU266
ARM GAS  /tmp/ccWl1WAG.s 			page 15


 799 00bc DB0E     		lsrs	r3, r3, #27
 800 00be DB06     		lsls	r3, r3, #27
 801 00c0 0343     		orrs	r3, r0
 802 00c2 6360     		str	r3, [r4, #4]
 803              		.loc 1 402 3 is_stmt 1 view .LVU267
 804              	.LVL49:
 805              	.LBB99:
 806              	.LBI91:
 807              		.loc 1 120 13 view .LVU268
 808              	.LBB95:
 809              		.loc 1 122 3 view .LVU269
 810              		.loc 1 122 27 is_stmt 0 view .LVU270
 811 00c4 2B0D     		lsrs	r3, r5, #20
 812              		.loc 1 122 60 view .LVU271
 813 00c6 0B40     		ands	r3, r1
 814 00c8 9800     		lsls	r0, r3, #2
 815 00ca 1B18     		adds	r3, r3, r0
 816              		.loc 1 123 27 view .LVU272
 817 00cc 280C     		lsrs	r0, r5, #16
 818              		.loc 1 123 48 view .LVU273
 819 00ce 0840     		ands	r0, r1
 820              		.loc 1 122 60 view .LVU274
 821 00d0 5B00     		lsls	r3, r3, #1
 822 00d2 1B18     		adds	r3, r3, r0
 823              		.loc 1 122 19 view .LVU275
 824 00d4 2370     		strb	r3, [r4]
 825              		.loc 1 124 3 is_stmt 1 view .LVU276
 826              		.loc 1 126 3 view .LVU277
 827              		.loc 1 124 60 is_stmt 0 view .LVU278
 828 00d6 EB04     		lsls	r3, r5, #19
 829 00d8 DB0F     		lsrs	r3, r3, #31
 830 00da 9800     		lsls	r0, r3, #2
 831 00dc 1B18     		adds	r3, r3, r0
 832              		.loc 1 125 27 view .LVU279
 833 00de 280A     		lsrs	r0, r5, #8
 834              		.loc 1 125 49 view .LVU280
 835 00e0 0840     		ands	r0, r1
 836              		.loc 1 124 60 view .LVU281
 837 00e2 5B00     		lsls	r3, r3, #1
 838 00e4 1B18     		adds	r3, r3, r0
 839              		.loc 1 124 19 view .LVU282
 840 00e6 6078     		ldrb	r0, [r4, #1]
 841 00e8 0B40     		ands	r3, r1
 842 00ea 8843     		bics	r0, r1
 843              		.loc 1 127 48 view .LVU283
 844 00ec 2940     		ands	r1, r5
 845              		.loc 1 126 59 view .LVU284
 846 00ee 5118     		adds	r1, r2, r1
 847              		.loc 1 126 19 view .LVU285
 848 00f0 A278     		ldrb	r2, [r4, #2]
 849              		.loc 1 128 23 view .LVU286
 850 00f2 0343     		orrs	r3, r0
 851              		.loc 1 128 29 view .LVU287
 852 00f4 6D0B     		lsrs	r5, r5, #13
 853              	.LVL50:
 854              		.loc 1 126 19 view .LVU288
 855 00f6 B243     		bics	r2, r6
ARM GAS  /tmp/ccWl1WAG.s 			page 16


 856 00f8 3140     		ands	r1, r6
 857              		.loc 1 128 23 view .LVU289
 858 00fa 6D01     		lsls	r5, r5, #5
 859 00fc 1E40     		ands	r6, r3
 860 00fe 3543     		orrs	r5, r6
 861              		.loc 1 126 19 view .LVU290
 862 0100 1143     		orrs	r1, r2
 863              		.loc 1 128 23 view .LVU291
 864 0102 6570     		strb	r5, [r4, #1]
 865              		.loc 1 126 19 view .LVU292
 866 0104 A170     		strb	r1, [r4, #2]
 867              		.loc 1 128 3 is_stmt 1 view .LVU293
 868              	.LVL51:
 869              	.LVL52:
 870              		.loc 1 128 3 is_stmt 0 view .LVU294
 871              	.LBE95:
 872              	.LBE99:
 873              		.loc 1 403 1 view .LVU295
 874 0106 0CBC     		pop	{r2, r3}
 875 0108 9046     		mov	r8, r2
 876 010a 9946     		mov	r9, r3
 877 010c F8BD     		pop	{r3, r4, r5, r6, r7, pc}
 878              	.L21:
 879 010e C046     		.align	2
 880              	.L20:
 881 0110 80EE3600 		.word	3600000
 882 0114 C0270900 		.word	600000
 883 0118 60EA0000 		.word	60000
 884 011c 189C0F00 		.word	1023000
 885 0120 10270000 		.word	10000
 886              		.cfi_endproc
 887              	.LFE159:
 888              		.size	rtc_lld_get_time, .-rtc_lld_get_time
 889              		.section	.text.rtc_lld_set_alarm,"ax",%progbits
 890              		.align	1
 891              		.p2align 4,,15
 892              		.global	rtc_lld_set_alarm
 893              		.syntax unified
 894              		.code	16
 895              		.thumb_func
 896              		.fpu softvfp
 897              		.type	rtc_lld_set_alarm, %function
 898              	rtc_lld_set_alarm:
 899              	.LVL53:
 900              	.LFB160:
 901              		.loc 1 420 51 is_stmt 1 view -0
 902              		.cfi_startproc
 903              		@ args = 0, pretend = 0, frame = 0
 904              		@ frame_needed = 0, uses_anonymous_args = 0
 905              		.loc 1 421 3 view .LVU297
 906              		.loc 1 424 3 view .LVU298
 907              	.LBB100:
 908              	.LBI100:
 909              		.loc 2 542 24 view .LVU299
 910              	.LBB101:
 911              		.loc 2 544 3 view .LVU300
 912              	.LBE101:
ARM GAS  /tmp/ccWl1WAG.s 			page 17


 913              	.LBE100:
 914              		.loc 1 420 51 is_stmt 0 view .LVU301
 915 0000 70B5     		push	{r4, r5, r6, lr}
 916              		.cfi_def_cfa_offset 16
 917              		.cfi_offset 4, -16
 918              		.cfi_offset 5, -12
 919              		.cfi_offset 6, -8
 920              		.cfi_offset 14, -4
 921              		.loc 1 420 51 view .LVU302
 922 0002 0C00     		movs	r4, r1
 923 0004 0600     		movs	r6, r0
 924 0006 1500     		movs	r5, r2
 925              	.LBB103:
 926              	.LBB102:
 927              		.loc 2 544 10 view .LVU303
 928 0008 FFF7FEFF 		bl	chSysGetStatusAndLockX
 929              	.LVL54:
 930              		.loc 2 544 10 view .LVU304
 931              	.LBE102:
 932              	.LBE103:
 933              		.loc 1 426 3 is_stmt 1 view .LVU305
 934              		.loc 1 426 6 is_stmt 0 view .LVU306
 935 000c 002C     		cmp	r4, #0
 936 000e 17D1     		bne	.L23
 937              		.loc 1 427 5 is_stmt 1 view .LVU307
 938 0010 3368     		ldr	r3, [r6]
 939              		.loc 1 428 21 is_stmt 0 view .LVU308
 940 0012 9A68     		ldr	r2, [r3, #8]
 941              		.loc 1 427 8 view .LVU309
 942 0014 002D     		cmp	r5, #0
 943 0016 16D0     		beq	.L24
 944              		.loc 1 428 7 is_stmt 1 view .LVU310
 945              		.loc 1 428 21 is_stmt 0 view .LVU311
 946 0018 0F49     		ldr	r1, .L28
 947 001a 0A40     		ands	r2, r1
 948              		.loc 1 429 31 view .LVU312
 949 001c 0331     		adds	r1, r1, #3
 950              		.loc 1 428 21 view .LVU313
 951 001e 9A60     		str	r2, [r3, #8]
 952              		.loc 1 429 7 is_stmt 1 view .LVU314
 953              		.loc 1 429 31 is_stmt 0 view .LVU315
 954 0020 FF31     		adds	r1, r1, #255
 955              	.L25:
 956              		.loc 1 430 9 is_stmt 1 discriminator 1 view .LVU316
 957              		.loc 1 429 25 is_stmt 0 discriminator 1 view .LVU317
 958 0022 DA68     		ldr	r2, [r3, #12]
 959              		.loc 1 429 13 discriminator 1 view .LVU318
 960 0024 1142     		tst	r1, r2
 961 0026 FCD0     		beq	.L25
 962              		.loc 1 431 7 is_stmt 1 view .LVU319
 963              		.loc 1 431 36 is_stmt 0 view .LVU320
 964 0028 2A68     		ldr	r2, [r5]
 965              		.loc 1 431 25 view .LVU321
 966 002a DA61     		str	r2, [r3, #28]
 967              		.loc 1 432 7 is_stmt 1 view .LVU322
 968              		.loc 1 432 21 is_stmt 0 view .LVU323
 969 002c 8022     		movs	r2, #128
ARM GAS  /tmp/ccWl1WAG.s 			page 18


 970 002e 9968     		ldr	r1, [r3, #8]
 971 0030 5200     		lsls	r2, r2, #1
 972 0032 0A43     		orrs	r2, r1
 973 0034 9A60     		str	r2, [r3, #8]
 974              		.loc 1 433 7 is_stmt 1 view .LVU324
 975              		.loc 1 433 21 is_stmt 0 view .LVU325
 976 0036 8022     		movs	r2, #128
 977 0038 9968     		ldr	r1, [r3, #8]
 978 003a 5201     		lsls	r2, r2, #5
 979 003c 0A43     		orrs	r2, r1
 980 003e 9A60     		str	r2, [r3, #8]
 981              	.L23:
 982              		.loc 1 458 3 is_stmt 1 view .LVU326
 983              	.LVL55:
 984              	.LBB104:
 985              	.LBI104:
 986              		.loc 2 556 20 view .LVU327
 987              	.LBB105:
 988              		.loc 2 558 3 view .LVU328
 989 0040 FFF7FEFF 		bl	chSysRestoreStatusX
 990              	.LVL56:
 991              		.loc 2 558 3 is_stmt 0 view .LVU329
 992              	.LBE105:
 993              	.LBE104:
 994              		.loc 1 459 1 view .LVU330
 995              		@ sp needed
 996              	.LVL57:
 997              	.LVL58:
 998              	.LVL59:
 999              		.loc 1 459 1 view .LVU331
 1000 0044 70BD     		pop	{r4, r5, r6, pc}
 1001              	.LVL60:
 1002              	.L24:
 1003              		.loc 1 436 7 is_stmt 1 view .LVU332
 1004              		.loc 1 436 21 is_stmt 0 view .LVU333
 1005 0046 0549     		ldr	r1, .L28+4
 1006 0048 0A40     		ands	r2, r1
 1007 004a 9A60     		str	r2, [r3, #8]
 1008              		.loc 1 437 7 is_stmt 1 view .LVU334
 1009              		.loc 1 437 21 is_stmt 0 view .LVU335
 1010 004c 9A68     		ldr	r2, [r3, #8]
 1011 004e 0249     		ldr	r1, .L28
 1012 0050 0A40     		ands	r2, r1
 1013 0052 9A60     		str	r2, [r3, #8]
 1014 0054 F4E7     		b	.L23
 1015              	.L29:
 1016 0056 C046     		.align	2
 1017              	.L28:
 1018 0058 FFFEFFFF 		.word	-257
 1019 005c FFEFFFFF 		.word	-4097
 1020              		.cfi_endproc
 1021              	.LFE160:
 1022              		.size	rtc_lld_set_alarm, .-rtc_lld_set_alarm
 1023              		.section	.text.rtc_lld_get_alarm,"ax",%progbits
 1024              		.align	1
 1025              		.p2align 4,,15
 1026              		.global	rtc_lld_get_alarm
ARM GAS  /tmp/ccWl1WAG.s 			page 19


 1027              		.syntax unified
 1028              		.code	16
 1029              		.thumb_func
 1030              		.fpu softvfp
 1031              		.type	rtc_lld_get_alarm, %function
 1032              	rtc_lld_get_alarm:
 1033              	.LVL61:
 1034              	.LFB161:
 1035              		.loc 1 473 45 is_stmt 1 view -0
 1036              		.cfi_startproc
 1037              		@ args = 0, pretend = 0, frame = 0
 1038              		@ frame_needed = 0, uses_anonymous_args = 0
 1039              		@ link register save eliminated.
 1040              		.loc 1 475 3 view .LVU337
 1041              		.loc 1 475 6 is_stmt 0 view .LVU338
 1042 0000 0029     		cmp	r1, #0
 1043 0002 02D1     		bne	.L30
 1044              		.loc 1 476 5 is_stmt 1 view .LVU339
 1045              		.loc 1 476 28 is_stmt 0 view .LVU340
 1046 0004 0368     		ldr	r3, [r0]
 1047              		.loc 1 476 33 view .LVU341
 1048 0006 DB69     		ldr	r3, [r3, #28]
 1049              		.loc 1 476 22 view .LVU342
 1050 0008 1360     		str	r3, [r2]
 1051              	.L30:
 1052              		.loc 1 481 1 view .LVU343
 1053              		@ sp needed
 1054 000a 7047     		bx	lr
 1055              		.cfi_endproc
 1056              	.LFE161:
 1057              		.size	rtc_lld_get_alarm, .-rtc_lld_get_alarm
 1058              		.global	RTCD1
 1059              		.section	.bss.RTCD1,"aw",%nobits
 1060              		.align	2
 1061              		.set	.LANCHOR0,. + 0
 1062              		.type	RTCD1, %object
 1063              		.size	RTCD1, 4
 1064              	RTCD1:
 1065 0000 00000000 		.space	4
 1066              		.text
 1067              	.Letext0:
 1068              		.file 3 "/opt/nanovna/gcc-arm-none-eabi-8-2018-q4-major/lib/gcc/arm-none-eabi/8.2.1/include/stddef
 1069              		.file 4 "/opt/nanovna/gcc-arm-none-eabi-8-2018-q4-major/arm-none-eabi/include/machine/_default_typ
 1070              		.file 5 "/opt/nanovna/gcc-arm-none-eabi-8-2018-q4-major/arm-none-eabi/include/sys/_stdint.h"
 1071              		.file 6 "ChibiOS/os/common/ports/ARMCMx/compilers/GCC/chtypes.h"
 1072              		.file 7 "ChibiOS/os/rt/include/chsystypes.h"
 1073              		.file 8 "ChibiOS/os/rt/include/chschd.h"
 1074              		.file 9 "ChibiOS/os/common/ext/CMSIS/ST/STM32F0xx/stm32f072xb.h"
 1075              		.file 10 "ChibiOS/os/common/ports/ARMCMx/chcore.h"
 1076              		.file 11 "ChibiOS/os/common/ports/ARMCMx/chcore_v6m.h"
 1077              		.file 12 "ChibiOS/os/hal/ports/STM32/LLD/TIMv1/stm32_tim.h"
 1078              		.file 13 "ChibiOS/os/rt/include/chmtx.h"
 1079              		.file 14 "ChibiOS/os/common/ext/CMSIS/ST/STM32F0xx/system_stm32f0xx.h"
 1080              		.file 15 "ChibiOS/os/rt/include/chsys.h"
 1081              		.file 16 "ChibiOS/os/rt/include/chregistry.h"
 1082              		.file 17 "ChibiOS/os/rt/include/chevents.h"
 1083              		.file 18 "ChibiOS/os/hal/ports/STM32/LLD/DMAv1/stm32_dma.h"
ARM GAS  /tmp/ccWl1WAG.s 			page 20


 1084              		.file 19 "ChibiOS/os/hal/include/hal_queues.h"
 1085              		.file 20 "ChibiOS/os/hal/ports/STM32/LLD/GPIOv2/hal_pal_lld.h"
 1086              		.file 21 "ChibiOS/os/hal/include/hal_ext.h"
 1087              		.file 22 "ChibiOS/os/hal/ports/STM32/LLD/EXTIv1/hal_ext_lld.h"
 1088              		.file 23 "ChibiOS/os/hal/include/hal_gpt.h"
 1089              		.file 24 "ChibiOS/os/hal/ports/STM32/LLD/TIMv1/hal_gpt_lld.h"
 1090              		.file 25 "ChibiOS/os/hal/include/hal_i2c.h"
 1091              		.file 26 "ChibiOS/os/hal/ports/STM32/LLD/I2Cv2/hal_i2c_lld.h"
 1092              		.file 27 "ChibiOS/os/hal/include/hal_i2s.h"
 1093              		.file 28 "ChibiOS/os/hal/ports/STM32/LLD/SPIv2/hal_i2s_lld.h"
 1094              		.file 29 "/opt/nanovna/gcc-arm-none-eabi-8-2018-q4-major/arm-none-eabi/include/sys/lock.h"
 1095              		.file 30 "/opt/nanovna/gcc-arm-none-eabi-8-2018-q4-major/arm-none-eabi/include/sys/_types.h"
 1096              		.file 31 "/opt/nanovna/gcc-arm-none-eabi-8-2018-q4-major/arm-none-eabi/include/sys/reent.h"
 1097              		.file 32 "/opt/nanovna/gcc-arm-none-eabi-8-2018-q4-major/arm-none-eabi/include/time.h"
 1098              		.file 33 "ChibiOS/os/hal/include/hal_rtc.h"
 1099              		.file 34 "ChibiOS/os/hal/ports/STM32/LLD/RTCv2/hal_rtc_lld.h"
 1100              		.file 35 "ChibiOS/os/hal/include/hal_serial.h"
 1101              		.file 36 "ChibiOS/os/hal/ports/STM32/LLD/USARTv2/hal_serial_lld.h"
 1102              		.file 37 "ChibiOS/os/hal/include/hal_spi.h"
 1103              		.file 38 "ChibiOS/os/hal/ports/STM32/LLD/SPIv2/hal_spi_lld.h"
 1104              		.file 39 "ChibiOS/os/hal/include/hal_usb.h"
 1105              		.file 40 "ChibiOS/os/hal/ports/STM32/LLD/USBv1/hal_usb_lld.h"