ARM GAS  /tmp/ccY4KcjI.s 			page 1


   1              		.cpu cortex-m0
   2              		.eabi_attribute 20, 1
   3              		.eabi_attribute 21, 1
   4              		.eabi_attribute 23, 3
   5              		.eabi_attribute 24, 1
   6              		.eabi_attribute 25, 1
   7              		.eabi_attribute 26, 1
   8              		.eabi_attribute 30, 2
   9              		.eabi_attribute 34, 0
  10              		.eabi_attribute 18, 4
  11              		.file	"hal_serial_usb.c"
  12              		.text
  13              	.Ltext0:
  14              		.cfi_sections	.debug_frame
  15              		.section	.text.obnotify,"ax",%progbits
  16              		.align	1
  17              		.p2align 4,,15
  18              		.arch armv6s-m
  19              		.syntax unified
  20              		.code	16
  21              		.thumb_func
  22              		.fpu softvfp
  23              		.type	obnotify, %function
  24              	obnotify:
  25              	.LVL0:
  26              	.LFB160:
  27              		.file 1 "ChibiOS/os/hal/src/hal_serial_usb.c"
  28              		.loc 1 168 47 view -0
  29              		.cfi_startproc
  30              		@ args = 0, pretend = 0, frame = 8
  31              		@ frame_needed = 0, uses_anonymous_args = 0
  32              		.loc 1 169 3 view .LVU1
  33              		.loc 1 170 3 view .LVU2
  34              		.loc 1 168 47 is_stmt 0 view .LVU3
  35 0000 30B5     		push	{r4, r5, lr}
  36              		.cfi_def_cfa_offset 12
  37              		.cfi_offset 4, -12
  38              		.cfi_offset 5, -8
  39              		.cfi_offset 14, -4
  40              		.loc 1 174 8 view .LVU4
  41 0002 BE25     		movs	r5, #190
  42              		.loc 1 170 20 view .LVU5
  43 0004 046B     		ldr	r4, [r0, #48]
  44              	.LVL1:
  45              		.loc 1 174 3 is_stmt 1 view .LVU6
  46              		.loc 1 174 8 is_stmt 0 view .LVU7
  47 0006 6D00     		lsls	r5, r5, #1
  48 0008 6259     		ldr	r2, [r4, r5]
  49              		.loc 1 168 47 view .LVU8
  50 000a 83B0     		sub	sp, sp, #12
  51              		.cfi_def_cfa_offset 24
  52              		.loc 1 174 8 view .LVU9
  53 000c 1368     		ldr	r3, [r2]
  54              		.loc 1 174 6 view .LVU10
  55 000e 1978     		ldrb	r1, [r3]
  56 0010 0429     		cmp	r1, #4
  57 0012 02D1     		bne	.L1
ARM GAS  /tmp/ccY4KcjI.s 			page 2


  58              		.loc 1 174 62 discriminator 1 view .LVU11
  59 0014 217A     		ldrb	r1, [r4, #8]
  60 0016 0229     		cmp	r1, #2
  61 0018 01D0     		beq	.L10
  62              	.LVL2:
  63              	.L1:
  64              		.loc 1 188 1 view .LVU12
  65 001a 03B0     		add	sp, sp, #12
  66              		@ sp needed
  67              	.LVL3:
  68              		.loc 1 188 1 view .LVU13
  69 001c 30BD     		pop	{r4, r5, pc}
  70              	.LVL4:
  71              	.L10:
  72              		.loc 1 180 3 is_stmt 1 view .LVU14
  73              		.loc 1 180 8 is_stmt 0 view .LVU15
  74 001e 1179     		ldrb	r1, [r2, #4]
  75 0020 0122     		movs	r2, #1
  76 0022 8A40     		lsls	r2, r2, r1
  77              		.loc 1 180 7 view .LVU16
  78 0024 1B89     		ldrh	r3, [r3, #8]
  79              		.loc 1 180 6 view .LVU17
  80 0026 1342     		tst	r3, r2
  81 0028 F7D1     		bne	.L1
  82              	.LBB124:
  83              		.loc 1 182 5 is_stmt 1 view .LVU18
  84              		.loc 1 182 20 is_stmt 0 view .LVU19
  85 002a 2000     		movs	r0, r4
  86              	.LVL5:
  87              		.loc 1 182 20 view .LVU20
  88 002c 01A9     		add	r1, sp, #4
  89 002e 4030     		adds	r0, r0, #64
  90 0030 FFF7FEFF 		bl	obqGetFullBufferI
  91              	.LVL6:
  92 0034 021E     		subs	r2, r0, #0
  93              	.LVL7:
  94              		.loc 1 183 5 is_stmt 1 view .LVU21
  95              		.loc 1 183 8 is_stmt 0 view .LVU22
  96 0036 F0D0     		beq	.L1
  97              		.loc 1 185 7 is_stmt 1 view .LVU23
  98              		.loc 1 185 29 is_stmt 0 view .LVU24
  99 0038 6359     		ldr	r3, [r4, r5]
 100              		.loc 1 185 7 view .LVU25
 101 003a 1979     		ldrb	r1, [r3, #4]
 102 003c 1868     		ldr	r0, [r3]
 103              	.LVL8:
 104              		.loc 1 185 7 view .LVU26
 105 003e 019B     		ldr	r3, [sp, #4]
 106 0040 FFF7FEFF 		bl	usbStartTransmitI
 107              	.LVL9:
 108              		.loc 1 185 7 view .LVU27
 109 0044 E9E7     		b	.L1
 110              	.LBE124:
 111              		.cfi_endproc
 112              	.LFE160:
 113              		.size	obnotify, .-obnotify
 114 0046 C046     		.section	.text.ibnotify,"ax",%progbits
ARM GAS  /tmp/ccY4KcjI.s 			page 3


 115              		.align	1
 116              		.p2align 4,,15
 117              		.syntax unified
 118              		.code	16
 119              		.thumb_func
 120              		.fpu softvfp
 121              		.type	ibnotify, %function
 122              	ibnotify:
 123              	.LVL10:
 124              	.LFB159:
 125              		.loc 1 141 47 is_stmt 1 view -0
 126              		.cfi_startproc
 127              		@ args = 0, pretend = 0, frame = 0
 128              		@ frame_needed = 0, uses_anonymous_args = 0
 129              		.loc 1 142 3 view .LVU29
 130              		.loc 1 141 47 is_stmt 0 view .LVU30
 131 0000 70B5     		push	{r4, r5, r6, lr}
 132              		.cfi_def_cfa_offset 16
 133              		.cfi_offset 4, -16
 134              		.cfi_offset 5, -12
 135              		.cfi_offset 6, -8
 136              		.cfi_offset 14, -4
 137              		.loc 1 146 8 view .LVU31
 138 0002 BE25     		movs	r5, #190
 139              		.loc 1 142 20 view .LVU32
 140 0004 046B     		ldr	r4, [r0, #48]
 141              	.LVL11:
 142              		.loc 1 146 3 is_stmt 1 view .LVU33
 143              		.loc 1 146 8 is_stmt 0 view .LVU34
 144 0006 6D00     		lsls	r5, r5, #1
 145 0008 6259     		ldr	r2, [r4, r5]
 146 000a 1368     		ldr	r3, [r2]
 147              		.loc 1 146 6 view .LVU35
 148 000c 1978     		ldrb	r1, [r3]
 149 000e 0429     		cmp	r1, #4
 150 0010 02D1     		bne	.L11
 151              		.loc 1 146 62 discriminator 1 view .LVU36
 152 0012 217A     		ldrb	r1, [r4, #8]
 153 0014 0229     		cmp	r1, #2
 154 0016 00D0     		beq	.L18
 155              	.LVL12:
 156              	.L11:
 157              		.loc 1 161 1 view .LVU37
 158              		@ sp needed
 159              	.LVL13:
 160              		.loc 1 161 1 view .LVU38
 161 0018 70BD     		pop	{r4, r5, r6, pc}
 162              	.LVL14:
 163              	.L18:
 164              		.loc 1 152 3 is_stmt 1 view .LVU39
 165              		.loc 1 152 8 is_stmt 0 view .LVU40
 166 001a 5179     		ldrb	r1, [r2, #5]
 167 001c 0122     		movs	r2, #1
 168 001e 8A40     		lsls	r2, r2, r1
 169              		.loc 1 152 7 view .LVU41
 170 0020 5B89     		ldrh	r3, [r3, #10]
 171              		.loc 1 152 6 view .LVU42
ARM GAS  /tmp/ccY4KcjI.s 			page 4


 172 0022 1342     		tst	r3, r2
 173 0024 F8D1     		bne	.L11
 174              	.LBB125:
 175              		.loc 1 154 5 is_stmt 1 view .LVU43
 176              		.loc 1 154 20 is_stmt 0 view .LVU44
 177 0026 2000     		movs	r0, r4
 178              	.LVL15:
 179              		.loc 1 154 20 view .LVU45
 180 0028 0C30     		adds	r0, r0, #12
 181 002a FFF7FEFF 		bl	ibqGetEmptyBufferI
 182              	.LVL16:
 183 002e 021E     		subs	r2, r0, #0
 184              	.LVL17:
 185              		.loc 1 155 5 is_stmt 1 view .LVU46
 186              		.loc 1 155 8 is_stmt 0 view .LVU47
 187 0030 F2D0     		beq	.L11
 188              		.loc 1 157 7 is_stmt 1 view .LVU48
 189              		.loc 1 157 28 is_stmt 0 view .LVU49
 190 0032 6359     		ldr	r3, [r4, r5]
 191              		.loc 1 157 7 view .LVU50
 192 0034 5979     		ldrb	r1, [r3, #5]
 193 0036 1868     		ldr	r0, [r3]
 194              	.LVL18:
 195              		.loc 1 157 7 view .LVU51
 196 0038 8023     		movs	r3, #128
 197 003a FFF7FEFF 		bl	usbStartReceiveI
 198              	.LVL19:
 199              		.loc 1 157 7 view .LVU52
 200 003e EBE7     		b	.L11
 201              	.LBE125:
 202              		.cfi_endproc
 203              	.LFE159:
 204              		.size	ibnotify, .-ibnotify
 205              		.section	.text.readt,"ax",%progbits
 206              		.align	1
 207              		.p2align 4,,15
 208              		.syntax unified
 209              		.code	16
 210              		.thumb_func
 211              		.fpu softvfp
 212              		.type	readt, %function
 213              	readt:
 214              	.LVL20:
 215              	.LFB158:
 216              		.loc 1 122 73 is_stmt 1 view -0
 217              		.cfi_startproc
 218              		@ args = 0, pretend = 0, frame = 0
 219              		@ frame_needed = 0, uses_anonymous_args = 0
 220              		.loc 1 124 3 view .LVU54
 221              		.loc 1 122 73 is_stmt 0 view .LVU55
 222 0000 70B5     		push	{r4, r5, r6, lr}
 223              		.cfi_def_cfa_offset 16
 224              		.cfi_offset 4, -16
 225              		.cfi_offset 5, -12
 226              		.cfi_offset 6, -8
 227              		.cfi_offset 14, -4
 228              		.loc 1 122 73 view .LVU56
ARM GAS  /tmp/ccY4KcjI.s 			page 5


 229 0002 0400     		movs	r4, r0
 230              		.loc 1 124 7 view .LVU57
 231 0004 BE20     		movs	r0, #190
 232              	.LVL21:
 233              		.loc 1 124 7 view .LVU58
 234 0006 4000     		lsls	r0, r0, #1
 235 0008 2058     		ldr	r0, [r4, r0]
 236 000a 0068     		ldr	r0, [r0]
 237              		.loc 1 124 6 view .LVU59
 238 000c 0578     		ldrb	r5, [r0]
 239              		.loc 1 125 12 view .LVU60
 240 000e 0020     		movs	r0, #0
 241              		.loc 1 124 6 view .LVU61
 242 0010 042D     		cmp	r5, #4
 243 0012 00D0     		beq	.L22
 244              	.LVL22:
 245              	.L19:
 246              		.loc 1 129 1 view .LVU62
 247              		@ sp needed
 248              	.LVL23:
 249              		.loc 1 129 1 view .LVU63
 250 0014 70BD     		pop	{r4, r5, r6, pc}
 251              	.LVL24:
 252              	.L22:
 253              		.loc 1 128 3 is_stmt 1 view .LVU64
 254              		.loc 1 128 10 is_stmt 0 view .LVU65
 255 0016 2000     		movs	r0, r4
 256 0018 0C30     		adds	r0, r0, #12
 257 001a FFF7FEFF 		bl	ibqReadTimeout
 258              	.LVL25:
 259              		.loc 1 128 10 view .LVU66
 260 001e F9E7     		b	.L19
 261              		.cfi_endproc
 262              	.LFE158:
 263              		.size	readt, .-readt
 264              		.section	.text.writet,"ax",%progbits
 265              		.align	1
 266              		.p2align 4,,15
 267              		.syntax unified
 268              		.code	16
 269              		.thumb_func
 270              		.fpu softvfp
 271              		.type	writet, %function
 272              	writet:
 273              	.LVL26:
 274              	.LFB157:
 275              		.loc 1 113 80 is_stmt 1 view -0
 276              		.cfi_startproc
 277              		@ args = 0, pretend = 0, frame = 0
 278              		@ frame_needed = 0, uses_anonymous_args = 0
 279              		.loc 1 115 3 view .LVU68
 280              		.loc 1 113 80 is_stmt 0 view .LVU69
 281 0000 70B5     		push	{r4, r5, r6, lr}
 282              		.cfi_def_cfa_offset 16
 283              		.cfi_offset 4, -16
 284              		.cfi_offset 5, -12
 285              		.cfi_offset 6, -8
ARM GAS  /tmp/ccY4KcjI.s 			page 6


 286              		.cfi_offset 14, -4
 287              		.loc 1 113 80 view .LVU70
 288 0002 0400     		movs	r4, r0
 289              		.loc 1 115 7 view .LVU71
 290 0004 BE20     		movs	r0, #190
 291              	.LVL27:
 292              		.loc 1 115 7 view .LVU72
 293 0006 4000     		lsls	r0, r0, #1
 294 0008 2058     		ldr	r0, [r4, r0]
 295 000a 0068     		ldr	r0, [r0]
 296              		.loc 1 115 6 view .LVU73
 297 000c 0578     		ldrb	r5, [r0]
 298              		.loc 1 116 12 view .LVU74
 299 000e 0020     		movs	r0, #0
 300              		.loc 1 115 6 view .LVU75
 301 0010 042D     		cmp	r5, #4
 302 0012 00D0     		beq	.L26
 303              	.LVL28:
 304              	.L23:
 305              		.loc 1 120 1 view .LVU76
 306              		@ sp needed
 307              	.LVL29:
 308              		.loc 1 120 1 view .LVU77
 309 0014 70BD     		pop	{r4, r5, r6, pc}
 310              	.LVL30:
 311              	.L26:
 312              		.loc 1 119 3 is_stmt 1 view .LVU78
 313              		.loc 1 119 10 is_stmt 0 view .LVU79
 314 0016 2000     		movs	r0, r4
 315 0018 4030     		adds	r0, r0, #64
 316 001a FFF7FEFF 		bl	obqWriteTimeout
 317              	.LVL31:
 318              		.loc 1 119 10 view .LVU80
 319 001e F9E7     		b	.L23
 320              		.cfi_endproc
 321              	.LFE157:
 322              		.size	writet, .-writet
 323              		.section	.text.gett,"ax",%progbits
 324              		.align	1
 325              		.p2align 4,,15
 326              		.syntax unified
 327              		.code	16
 328              		.thumb_func
 329              		.fpu softvfp
 330              		.type	gett, %function
 331              	gett:
 332              	.LVL32:
 333              	.LFB156:
 334              		.loc 1 104 48 is_stmt 1 view -0
 335              		.cfi_startproc
 336              		@ args = 0, pretend = 0, frame = 0
 337              		@ frame_needed = 0, uses_anonymous_args = 0
 338              		.loc 1 106 3 view .LVU82
 339              		.loc 1 106 7 is_stmt 0 view .LVU83
 340 0000 BE23     		movs	r3, #190
 341 0002 5B00     		lsls	r3, r3, #1
 342 0004 C358     		ldr	r3, [r0, r3]
ARM GAS  /tmp/ccY4KcjI.s 			page 7


 343              		.loc 1 104 48 view .LVU84
 344 0006 10B5     		push	{r4, lr}
 345              		.cfi_def_cfa_offset 8
 346              		.cfi_offset 4, -8
 347              		.cfi_offset 14, -4
 348              		.loc 1 106 7 view .LVU85
 349 0008 1B68     		ldr	r3, [r3]
 350              		.loc 1 106 6 view .LVU86
 351 000a 1B78     		ldrb	r3, [r3]
 352 000c 042B     		cmp	r3, #4
 353 000e 03D1     		bne	.L29
 354              		.loc 1 110 3 is_stmt 1 view .LVU87
 355              		.loc 1 110 10 is_stmt 0 view .LVU88
 356 0010 0C30     		adds	r0, r0, #12
 357              	.LVL33:
 358              		.loc 1 110 10 view .LVU89
 359 0012 FFF7FEFF 		bl	ibqGetTimeout
 360              	.LVL34:
 361              	.L27:
 362              		.loc 1 111 1 view .LVU90
 363              		@ sp needed
 364 0016 10BD     		pop	{r4, pc}
 365              	.LVL35:
 366              	.L29:
 367              		.loc 1 107 12 view .LVU91
 368 0018 0220     		movs	r0, #2
 369              	.LVL36:
 370              		.loc 1 107 12 view .LVU92
 371 001a 4042     		rsbs	r0, r0, #0
 372 001c FBE7     		b	.L27
 373              		.cfi_endproc
 374              	.LFE156:
 375              		.size	gett, .-gett
 376 001e C046     		.section	.text.get,"ax",%progbits
 377              		.align	1
 378              		.p2align 4,,15
 379              		.syntax unified
 380              		.code	16
 381              		.thumb_func
 382              		.fpu softvfp
 383              		.type	get, %function
 384              	get:
 385              	.LVL37:
 386              	.LFB154:
 387              		.loc 1 86 28 is_stmt 1 view -0
 388              		.cfi_startproc
 389              		@ args = 0, pretend = 0, frame = 0
 390              		@ frame_needed = 0, uses_anonymous_args = 0
 391              		.loc 1 88 3 view .LVU94
 392              		.loc 1 88 7 is_stmt 0 view .LVU95
 393 0000 BE23     		movs	r3, #190
 394 0002 5B00     		lsls	r3, r3, #1
 395 0004 C358     		ldr	r3, [r0, r3]
 396              		.loc 1 86 28 view .LVU96
 397 0006 10B5     		push	{r4, lr}
 398              		.cfi_def_cfa_offset 8
 399              		.cfi_offset 4, -8
ARM GAS  /tmp/ccY4KcjI.s 			page 8


 400              		.cfi_offset 14, -4
 401              		.loc 1 88 7 view .LVU97
 402 0008 1B68     		ldr	r3, [r3]
 403              		.loc 1 88 6 view .LVU98
 404 000a 1B78     		ldrb	r3, [r3]
 405 000c 042B     		cmp	r3, #4
 406 000e 05D1     		bne	.L32
 407              		.loc 1 92 3 is_stmt 1 view .LVU99
 408              		.loc 1 92 10 is_stmt 0 view .LVU100
 409 0010 0121     		movs	r1, #1
 410 0012 0C30     		adds	r0, r0, #12
 411              	.LVL38:
 412              		.loc 1 92 10 view .LVU101
 413 0014 4942     		rsbs	r1, r1, #0
 414 0016 FFF7FEFF 		bl	ibqGetTimeout
 415              	.LVL39:
 416              	.L30:
 417              		.loc 1 93 1 view .LVU102
 418              		@ sp needed
 419 001a 10BD     		pop	{r4, pc}
 420              	.LVL40:
 421              	.L32:
 422              		.loc 1 89 12 view .LVU103
 423 001c 0220     		movs	r0, #2
 424              	.LVL41:
 425              		.loc 1 89 12 view .LVU104
 426 001e 4042     		rsbs	r0, r0, #0
 427 0020 FBE7     		b	.L30
 428              		.cfi_endproc
 429              	.LFE154:
 430              		.size	get, .-get
 431 0022 C046     		.section	.text.putt,"ax",%progbits
 432              		.align	1
 433              		.p2align 4,,15
 434              		.syntax unified
 435              		.code	16
 436              		.thumb_func
 437              		.fpu softvfp
 438              		.type	putt, %function
 439              	putt:
 440              	.LVL42:
 441              	.LFB155:
 442              		.loc 1 95 59 is_stmt 1 view -0
 443              		.cfi_startproc
 444              		@ args = 0, pretend = 0, frame = 0
 445              		@ frame_needed = 0, uses_anonymous_args = 0
 446              		.loc 1 97 3 view .LVU106
 447              		.loc 1 97 7 is_stmt 0 view .LVU107
 448 0000 BE23     		movs	r3, #190
 449 0002 5B00     		lsls	r3, r3, #1
 450 0004 C358     		ldr	r3, [r0, r3]
 451              		.loc 1 95 59 view .LVU108
 452 0006 10B5     		push	{r4, lr}
 453              		.cfi_def_cfa_offset 8
 454              		.cfi_offset 4, -8
 455              		.cfi_offset 14, -4
 456              		.loc 1 97 7 view .LVU109
ARM GAS  /tmp/ccY4KcjI.s 			page 9


 457 0008 1B68     		ldr	r3, [r3]
 458              		.loc 1 97 6 view .LVU110
 459 000a 1B78     		ldrb	r3, [r3]
 460 000c 042B     		cmp	r3, #4
 461 000e 03D1     		bne	.L35
 462              		.loc 1 101 3 is_stmt 1 view .LVU111
 463              		.loc 1 101 10 is_stmt 0 view .LVU112
 464 0010 4030     		adds	r0, r0, #64
 465              	.LVL43:
 466              		.loc 1 101 10 view .LVU113
 467 0012 FFF7FEFF 		bl	obqPutTimeout
 468              	.LVL44:
 469              	.L33:
 470              		.loc 1 102 1 view .LVU114
 471              		@ sp needed
 472 0016 10BD     		pop	{r4, pc}
 473              	.LVL45:
 474              	.L35:
 475              		.loc 1 98 12 view .LVU115
 476 0018 0220     		movs	r0, #2
 477              	.LVL46:
 478              		.loc 1 98 12 view .LVU116
 479 001a 4042     		rsbs	r0, r0, #0
 480 001c FBE7     		b	.L33
 481              		.cfi_endproc
 482              	.LFE155:
 483              		.size	putt, .-putt
 484 001e C046     		.section	.text.put,"ax",%progbits
 485              		.align	1
 486              		.p2align 4,,15
 487              		.syntax unified
 488              		.code	16
 489              		.thumb_func
 490              		.fpu softvfp
 491              		.type	put, %function
 492              	put:
 493              	.LVL47:
 494              	.LFB153:
 495              		.loc 1 77 39 is_stmt 1 view -0
 496              		.cfi_startproc
 497              		@ args = 0, pretend = 0, frame = 0
 498              		@ frame_needed = 0, uses_anonymous_args = 0
 499              		.loc 1 79 3 view .LVU118
 500              		.loc 1 79 7 is_stmt 0 view .LVU119
 501 0000 BE23     		movs	r3, #190
 502 0002 5B00     		lsls	r3, r3, #1
 503 0004 C358     		ldr	r3, [r0, r3]
 504              		.loc 1 77 39 view .LVU120
 505 0006 10B5     		push	{r4, lr}
 506              		.cfi_def_cfa_offset 8
 507              		.cfi_offset 4, -8
 508              		.cfi_offset 14, -4
 509              		.loc 1 79 7 view .LVU121
 510 0008 1B68     		ldr	r3, [r3]
 511              		.loc 1 79 6 view .LVU122
 512 000a 1B78     		ldrb	r3, [r3]
 513 000c 042B     		cmp	r3, #4
ARM GAS  /tmp/ccY4KcjI.s 			page 10


 514 000e 05D1     		bne	.L38
 515              		.loc 1 83 3 is_stmt 1 view .LVU123
 516              		.loc 1 83 10 is_stmt 0 view .LVU124
 517 0010 0122     		movs	r2, #1
 518 0012 4030     		adds	r0, r0, #64
 519              	.LVL48:
 520              		.loc 1 83 10 view .LVU125
 521 0014 5242     		rsbs	r2, r2, #0
 522 0016 FFF7FEFF 		bl	obqPutTimeout
 523              	.LVL49:
 524              	.L36:
 525              		.loc 1 84 1 view .LVU126
 526              		@ sp needed
 527 001a 10BD     		pop	{r4, pc}
 528              	.LVL50:
 529              	.L38:
 530              		.loc 1 80 12 view .LVU127
 531 001c 0220     		movs	r0, #2
 532              	.LVL51:
 533              		.loc 1 80 12 view .LVU128
 534 001e 4042     		rsbs	r0, r0, #0
 535 0020 FBE7     		b	.L36
 536              		.cfi_endproc
 537              	.LFE153:
 538              		.size	put, .-put
 539 0022 C046     		.section	.text.read,"ax",%progbits
 540              		.align	1
 541              		.p2align 4,,15
 542              		.syntax unified
 543              		.code	16
 544              		.thumb_func
 545              		.fpu softvfp
 546              		.type	read, %function
 547              	read:
 548              	.LVL52:
 549              	.LFB152:
 550              		.loc 1 67 53 is_stmt 1 view -0
 551              		.cfi_startproc
 552              		@ args = 0, pretend = 0, frame = 0
 553              		@ frame_needed = 0, uses_anonymous_args = 0
 554              		.loc 1 69 3 view .LVU130
 555              		.loc 1 67 53 is_stmt 0 view .LVU131
 556 0000 0300     		movs	r3, r0
 557              		.loc 1 69 7 view .LVU132
 558 0002 BE20     		movs	r0, #190
 559              	.LVL53:
 560              		.loc 1 69 7 view .LVU133
 561 0004 4000     		lsls	r0, r0, #1
 562 0006 1858     		ldr	r0, [r3, r0]
 563              		.loc 1 67 53 view .LVU134
 564 0008 10B5     		push	{r4, lr}
 565              		.cfi_def_cfa_offset 8
 566              		.cfi_offset 4, -8
 567              		.cfi_offset 14, -4
 568              		.loc 1 69 7 view .LVU135
 569 000a 0068     		ldr	r0, [r0]
 570              		.loc 1 69 6 view .LVU136
ARM GAS  /tmp/ccY4KcjI.s 			page 11


 571 000c 0478     		ldrb	r4, [r0]
 572              		.loc 1 70 12 view .LVU137
 573 000e 0020     		movs	r0, #0
 574              		.loc 1 69 6 view .LVU138
 575 0010 042C     		cmp	r4, #4
 576 0012 00D0     		beq	.L42
 577              	.LVL54:
 578              	.L39:
 579              		.loc 1 75 1 view .LVU139
 580              		@ sp needed
 581 0014 10BD     		pop	{r4, pc}
 582              	.LVL55:
 583              	.L42:
 584              	.LBB128:
 585              	.LBI128:
 586              		.loc 1 67 15 is_stmt 1 view .LVU140
 587              	.LBB129:
 588              		.loc 1 73 3 view .LVU141
 589              		.loc 1 73 10 is_stmt 0 view .LVU142
 590 0016 0C33     		adds	r3, r3, #12
 591              	.LVL56:
 592              		.loc 1 73 10 view .LVU143
 593 0018 1800     		movs	r0, r3
 594 001a 0123     		movs	r3, #1
 595              	.LVL57:
 596              		.loc 1 73 10 view .LVU144
 597 001c 5B42     		rsbs	r3, r3, #0
 598 001e FFF7FEFF 		bl	ibqReadTimeout
 599              	.LVL58:
 600              		.loc 1 73 10 view .LVU145
 601 0022 F7E7     		b	.L39
 602              	.LBE129:
 603              	.LBE128:
 604              		.cfi_endproc
 605              	.LFE152:
 606              		.size	read, .-read
 607              		.section	.text.write,"ax",%progbits
 608              		.align	1
 609              		.p2align 4,,15
 610              		.syntax unified
 611              		.code	16
 612              		.thumb_func
 613              		.fpu softvfp
 614              		.type	write, %function
 615              	write:
 616              	.LVL59:
 617              	.LFB151:
 618              		.loc 1 57 60 is_stmt 1 view -0
 619              		.cfi_startproc
 620              		@ args = 0, pretend = 0, frame = 0
 621              		@ frame_needed = 0, uses_anonymous_args = 0
 622              		.loc 1 59 3 view .LVU147
 623              		.loc 1 57 60 is_stmt 0 view .LVU148
 624 0000 0300     		movs	r3, r0
 625              		.loc 1 59 7 view .LVU149
 626 0002 BE20     		movs	r0, #190
 627              	.LVL60:
ARM GAS  /tmp/ccY4KcjI.s 			page 12


 628              		.loc 1 59 7 view .LVU150
 629 0004 4000     		lsls	r0, r0, #1
 630 0006 1858     		ldr	r0, [r3, r0]
 631              		.loc 1 57 60 view .LVU151
 632 0008 10B5     		push	{r4, lr}
 633              		.cfi_def_cfa_offset 8
 634              		.cfi_offset 4, -8
 635              		.cfi_offset 14, -4
 636              		.loc 1 59 7 view .LVU152
 637 000a 0068     		ldr	r0, [r0]
 638              		.loc 1 59 6 view .LVU153
 639 000c 0478     		ldrb	r4, [r0]
 640              		.loc 1 60 12 view .LVU154
 641 000e 0020     		movs	r0, #0
 642              		.loc 1 59 6 view .LVU155
 643 0010 042C     		cmp	r4, #4
 644 0012 00D0     		beq	.L46
 645              	.LVL61:
 646              	.L43:
 647              		.loc 1 65 1 view .LVU156
 648              		@ sp needed
 649 0014 10BD     		pop	{r4, pc}
 650              	.LVL62:
 651              	.L46:
 652              	.LBB132:
 653              	.LBI132:
 654              		.loc 1 57 15 is_stmt 1 view .LVU157
 655              	.LBB133:
 656              		.loc 1 63 3 view .LVU158
 657              		.loc 1 63 10 is_stmt 0 view .LVU159
 658 0016 4033     		adds	r3, r3, #64
 659              	.LVL63:
 660              		.loc 1 63 10 view .LVU160
 661 0018 1800     		movs	r0, r3
 662 001a 0123     		movs	r3, #1
 663              	.LVL64:
 664              		.loc 1 63 10 view .LVU161
 665 001c 5B42     		rsbs	r3, r3, #0
 666 001e FFF7FEFF 		bl	obqWriteTimeout
 667              	.LVL65:
 668              		.loc 1 63 10 view .LVU162
 669 0022 F7E7     		b	.L43
 670              	.LBE133:
 671              	.LBE132:
 672              		.cfi_endproc
 673              	.LFE151:
 674              		.size	write, .-write
 675              		.section	.text.sduInit,"ax",%progbits
 676              		.align	1
 677              		.p2align 4,,15
 678              		.global	sduInit
 679              		.syntax unified
 680              		.code	16
 681              		.thumb_func
 682              		.fpu softvfp
 683              		.type	sduInit, %function
 684              	sduInit:
ARM GAS  /tmp/ccY4KcjI.s 			page 13


 685              	.LFB161:
 686              		.loc 1 201 20 is_stmt 1 view -0
 687              		.cfi_startproc
 688              		@ args = 0, pretend = 0, frame = 0
 689              		@ frame_needed = 0, uses_anonymous_args = 0
 690              		@ link register save eliminated.
 691              		.loc 1 202 1 view .LVU164
 692              		@ sp needed
 693 0000 7047     		bx	lr
 694              		.cfi_endproc
 695              	.LFE161:
 696              		.size	sduInit, .-sduInit
 697 0002 C046     		.section	.text.sduObjectInit,"ax",%progbits
 698              		.align	1
 699              		.p2align 4,,15
 700              		.global	sduObjectInit
 701              		.syntax unified
 702              		.code	16
 703              		.thumb_func
 704              		.fpu softvfp
 705              		.type	sduObjectInit, %function
 706              	sduObjectInit:
 707              	.LVL66:
 708              	.LFB162:
 709              		.loc 1 213 43 view -0
 710              		.cfi_startproc
 711              		@ args = 0, pretend = 0, frame = 0
 712              		@ frame_needed = 0, uses_anonymous_args = 0
 713              		.loc 1 215 3 view .LVU166
 714              		.loc 1 215 13 is_stmt 0 view .LVU167
 715 0000 0300     		movs	r3, r0
 716 0002 0F4A     		ldr	r2, .L49
 717              		.loc 1 213 43 view .LVU168
 718 0004 10B5     		push	{r4, lr}
 719              		.cfi_def_cfa_offset 8
 720              		.cfi_offset 4, -8
 721              		.cfi_offset 14, -4
 722              		.loc 1 215 13 view .LVU169
 723 0006 04C3     		stmia	r3!, {r2}
 724              		.loc 1 216 3 is_stmt 1 view .LVU170
 725              	.LVL67:
 726              	.LBB134:
 727              	.LBI134:
 728              		.file 2 "ChibiOS/os/hal/osal/rt/osal.h"
 729              		.loc 2 821 20 view .LVU171
 730              	.LBE134:
 731              		.loc 2 823 3 view .LVU172
 732              	.LBB137:
 733              	.LBB135:
 734              	.LBI135:
 735              		.file 3 "ChibiOS/os/rt/include/chevents.h"
 736              		.loc 3 170 20 view .LVU173
 737              	.LBB136:
 738              		.loc 3 172 3 view .LVU174
 739              		.loc 3 172 13 is_stmt 0 view .LVU175
 740 0008 4360     		str	r3, [r0, #4]
 741              	.LVL68:
ARM GAS  /tmp/ccY4KcjI.s 			page 14


 742              		.loc 3 172 13 view .LVU176
 743              	.LBE136:
 744              	.LBE135:
 745              	.LBE137:
 746              		.loc 1 217 3 is_stmt 1 view .LVU177
 747              		.loc 1 217 15 is_stmt 0 view .LVU178
 748 000a 0123     		movs	r3, #1
 749              		.loc 1 213 43 view .LVU179
 750 000c 0400     		movs	r4, r0
 751              		.loc 1 218 37 view .LVU180
 752 000e 0100     		movs	r1, r0
 753              		.loc 1 217 15 view .LVU181
 754 0010 0372     		strb	r3, [r0, #8]
 755              		.loc 1 218 3 is_stmt 1 view .LVU182
 756 0012 0C4B     		ldr	r3, .L49+4
 757              		.loc 1 213 43 is_stmt 0 view .LVU183
 758 0014 82B0     		sub	sp, sp, #8
 759              		.cfi_def_cfa_offset 16
 760              		.loc 1 218 3 view .LVU184
 761 0016 0093     		str	r3, [sp]
 762              		.loc 1 218 37 view .LVU185
 763 0018 7431     		adds	r1, r1, #116
 764              		.loc 1 218 3 view .LVU186
 765 001a 0C30     		adds	r0, r0, #12
 766              	.LVL69:
 767              		.loc 1 218 3 view .LVU187
 768 001c 0194     		str	r4, [sp, #4]
 769 001e 0123     		movs	r3, #1
 770 0020 8022     		movs	r2, #128
 771 0022 FFF7FEFF 		bl	ibqObjectInit
 772              	.LVL70:
 773              		.loc 1 221 3 is_stmt 1 view .LVU188
 774              		.loc 1 221 37 is_stmt 0 view .LVU189
 775 0026 2100     		movs	r1, r4
 776              		.loc 1 221 3 view .LVU190
 777 0028 2000     		movs	r0, r4
 778 002a 074B     		ldr	r3, .L49+8
 779              		.loc 1 221 37 view .LVU191
 780 002c F831     		adds	r1, r1, #248
 781              		.loc 1 221 3 view .LVU192
 782 002e 0093     		str	r3, [sp]
 783 0030 4030     		adds	r0, r0, #64
 784 0032 0194     		str	r4, [sp, #4]
 785 0034 0123     		movs	r3, #1
 786 0036 8022     		movs	r2, #128
 787 0038 FFF7FEFF 		bl	obqObjectInit
 788              	.LVL71:
 789              		.loc 1 224 1 view .LVU193
 790 003c 02B0     		add	sp, sp, #8
 791              		@ sp needed
 792              	.LVL72:
 793              		.loc 1 224 1 view .LVU194
 794 003e 10BD     		pop	{r4, pc}
 795              	.L50:
 796              		.align	2
 797              	.L49:
 798 0040 00000000 		.word	.LANCHOR0
ARM GAS  /tmp/ccY4KcjI.s 			page 15


 799 0044 00000000 		.word	ibnotify
 800 0048 00000000 		.word	obnotify
 801              		.cfi_endproc
 802              	.LFE162:
 803              		.size	sduObjectInit, .-sduObjectInit
 804              		.section	.text.sduStart,"ax",%progbits
 805              		.align	1
 806              		.p2align 4,,15
 807              		.global	sduStart
 808              		.syntax unified
 809              		.code	16
 810              		.thumb_func
 811              		.fpu softvfp
 812              		.type	sduStart, %function
 813              	sduStart:
 814              	.LVL73:
 815              	.LFB163:
 816              		.loc 1 234 69 is_stmt 1 view -0
 817              		.cfi_startproc
 818              		@ args = 0, pretend = 0, frame = 0
 819              		@ frame_needed = 0, uses_anonymous_args = 0
 820              		@ link register save eliminated.
 821              		.loc 1 235 3 view .LVU196
 822              		.loc 1 235 14 is_stmt 0 view .LVU197
 823 0000 0A68     		ldr	r2, [r1]
 824              	.LVL74:
 825              		.loc 1 237 3 is_stmt 1 view .LVU198
 826              		.loc 1 237 3 view .LVU199
 827              		.loc 1 239 3 view .LVU200
 828              	.LBB138:
 829              	.LBI138:
 830              		.loc 2 491 20 view .LVU201
 831              	.LBE138:
 832              		.loc 2 493 3 view .LVU202
 833              	.LBB146:
 834              	.LBB139:
 835              	.LBI139:
 836              		.file 4 "ChibiOS/os/rt/include/chsys.h"
 837              		.loc 4 374 20 view .LVU203
 838              	.LBE139:
 839              	.LBE146:
 840              		.loc 4 376 3 view .LVU204
 841              	.LBB147:
 842              	.LBB144:
 843              	.LBB140:
 844              	.LBI140:
 845              		.file 5 "ChibiOS/os/common/ports/ARMCMx/chcore_v6m.h"
 846              		.loc 5 371 20 view .LVU205
 847              	.LBE140:
 848              	.LBE144:
 849              	.LBE147:
 850              		.loc 5 373 3 view .LVU206
 851              	.LBB148:
 852              	.LBB145:
 853              	.LBB143:
 854              	.LBB141:
 855              	.LBI141:
ARM GAS  /tmp/ccY4KcjI.s 			page 16


 856              		.file 6 "ChibiOS/os/common/ext/CMSIS/include/core_cmFunc.h"
 857              		.loc 6 342 57 view .LVU207
 858              	.LBB142:
 859              		.loc 6 344 3 view .LVU208
 860              		.syntax divided
 861              	@ 344 "ChibiOS/os/common/ext/CMSIS/include/core_cmFunc.h" 1
 862 0002 72B6     		cpsid i
 863              	@ 0 "" 2
 864              		.thumb
 865              		.syntax unified
 866              	.LBE142:
 867              	.LBE141:
 868              	.LBE143:
 869              	.LBE145:
 870              	.LBE148:
 871              		.loc 4 377 34 view .LVU209
 872              		.loc 4 378 20 view .LVU210
 873              		.loc 1 240 3 view .LVU211
 874              		.loc 1 240 3 view .LVU212
 875              		.loc 1 242 3 view .LVU213
 876              		.loc 1 242 25 is_stmt 0 view .LVU214
 877 0004 0B79     		ldrb	r3, [r1, #4]
 878              		.loc 1 242 43 view .LVU215
 879 0006 0933     		adds	r3, r3, #9
 880 0008 9B00     		lsls	r3, r3, #2
 881 000a D318     		adds	r3, r2, r3
 882 000c 5860     		str	r0, [r3, #4]
 883              		.loc 1 243 3 is_stmt 1 view .LVU216
 884              		.loc 1 243 26 is_stmt 0 view .LVU217
 885 000e 4B79     		ldrb	r3, [r1, #5]
 886              		.loc 1 243 43 view .LVU218
 887 0010 1133     		adds	r3, r3, #17
 888 0012 9B00     		lsls	r3, r3, #2
 889 0014 9850     		str	r0, [r3, r2]
 890              		.loc 1 244 3 is_stmt 1 view .LVU219
 891              		.loc 1 244 13 is_stmt 0 view .LVU220
 892 0016 8B79     		ldrb	r3, [r1, #6]
 893              		.loc 1 244 6 view .LVU221
 894 0018 002B     		cmp	r3, #0
 895 001a 03D0     		beq	.L52
 896              		.loc 1 245 5 is_stmt 1 view .LVU222
 897              		.loc 1 245 43 is_stmt 0 view .LVU223
 898 001c 0933     		adds	r3, r3, #9
 899 001e 9B00     		lsls	r3, r3, #2
 900 0020 D218     		adds	r2, r2, r3
 901              	.LVL75:
 902              		.loc 1 245 43 view .LVU224
 903 0022 5060     		str	r0, [r2, #4]
 904              	.L52:
 905              		.loc 1 247 3 is_stmt 1 view .LVU225
 906              		.loc 1 247 16 is_stmt 0 view .LVU226
 907 0024 BE23     		movs	r3, #190
 908 0026 5B00     		lsls	r3, r3, #1
 909 0028 C150     		str	r1, [r0, r3]
 910              		.loc 1 248 3 is_stmt 1 view .LVU227
 911              		.loc 1 248 15 is_stmt 0 view .LVU228
 912 002a 7B3B     		subs	r3, r3, #123
ARM GAS  /tmp/ccY4KcjI.s 			page 17


 913 002c FF3B     		subs	r3, r3, #255
 914 002e 0372     		strb	r3, [r0, #8]
 915              		.loc 1 249 3 is_stmt 1 view .LVU229
 916              	.LBB149:
 917              	.LBI149:
 918              		.loc 2 502 20 view .LVU230
 919              	.LBE149:
 920              		.loc 2 504 3 view .LVU231
 921              	.LBB158:
 922              	.LBB150:
 923              	.LBI150:
 924              		.loc 4 386 20 view .LVU232
 925              	.LBB151:
 926              		.loc 4 388 22 view .LVU233
 927              		.loc 4 389 33 view .LVU234
 928              		.loc 4 395 3 view .LVU235
 929              		.loc 4 395 3 view .LVU236
 930              		.loc 4 399 3 view .LVU237
 931              	.LBB152:
 932              	.LBI152:
 933              		.loc 5 380 20 view .LVU238
 934              	.LBE152:
 935              	.LBE151:
 936              	.LBE150:
 937              	.LBE158:
 938              		.loc 5 382 3 view .LVU239
 939              	.LBB159:
 940              	.LBB157:
 941              	.LBB156:
 942              	.LBB155:
 943              	.LBB153:
 944              	.LBI153:
 945              		.loc 6 331 57 view .LVU240
 946              	.LBB154:
 947              		.loc 6 333 3 view .LVU241
 948              		.syntax divided
 949              	@ 333 "ChibiOS/os/common/ext/CMSIS/include/core_cmFunc.h" 1
 950 0030 62B6     		cpsie i
 951              	@ 0 "" 2
 952              		.thumb
 953              		.syntax unified
 954              	.LBE154:
 955              	.LBE153:
 956              	.LBE155:
 957              	.LBE156:
 958              	.LBE157:
 959              	.LBE159:
 960              		.loc 1 250 1 is_stmt 0 view .LVU242
 961              		@ sp needed
 962 0032 7047     		bx	lr
 963              		.cfi_endproc
 964              	.LFE163:
 965              		.size	sduStart, .-sduStart
 966              		.section	.text.sduDisconnectI,"ax",%progbits
 967              		.align	1
 968              		.p2align 4,,15
 969              		.global	sduDisconnectI
ARM GAS  /tmp/ccY4KcjI.s 			page 18


 970              		.syntax unified
 971              		.code	16
 972              		.thumb_func
 973              		.fpu softvfp
 974              		.type	sduDisconnectI, %function
 975              	sduDisconnectI:
 976              	.LVL76:
 977              	.LFB165:
 978              		.loc 1 293 44 is_stmt 1 view -0
 979              		.cfi_startproc
 980              		@ args = 0, pretend = 0, frame = 0
 981              		@ frame_needed = 0, uses_anonymous_args = 0
 982              		.loc 1 296 3 view .LVU244
 983              	.LBB160:
 984              	.LBI160:
 985              		.loc 2 841 20 view .LVU245
 986              	.LBB161:
 987              		.loc 2 844 3 view .LVU246
 988              	.LBE161:
 989              	.LBE160:
 990              		.loc 1 293 44 is_stmt 0 view .LVU247
 991 0000 10B5     		push	{r4, lr}
 992              		.cfi_def_cfa_offset 8
 993              		.cfi_offset 4, -8
 994              		.cfi_offset 14, -4
 995              		.loc 1 293 44 view .LVU248
 996 0002 0400     		movs	r4, r0
 997              	.LBB164:
 998              	.LBB162:
 999              		.loc 2 844 3 view .LVU249
 1000 0004 0221     		movs	r1, #2
 1001              	.LBE162:
 1002              	.LBE164:
 1003              		.loc 1 296 3 view .LVU250
 1004 0006 0430     		adds	r0, r0, #4
 1005              	.LVL77:
 1006              	.LBB165:
 1007              	.LBB163:
 1008              		.loc 2 844 3 view .LVU251
 1009 0008 FFF7FEFF 		bl	chEvtBroadcastFlagsI
 1010              	.LVL78:
 1011              		.loc 2 844 3 view .LVU252
 1012              	.LBE163:
 1013              	.LBE165:
 1014              		.loc 1 296 39 is_stmt 1 view .LVU253
 1015              		.loc 1 297 3 view .LVU254
 1016 000c 2000     		movs	r0, r4
 1017 000e 0C30     		adds	r0, r0, #12
 1018 0010 FFF7FEFF 		bl	ibqResetI
 1019              	.LVL79:
 1020              		.loc 1 298 3 view .LVU255
 1021 0014 2000     		movs	r0, r4
 1022 0016 4030     		adds	r0, r0, #64
 1023 0018 FFF7FEFF 		bl	obqResetI
 1024              	.LVL80:
 1025              		.loc 1 299 1 is_stmt 0 view .LVU256
 1026              		@ sp needed
ARM GAS  /tmp/ccY4KcjI.s 			page 19


 1027              	.LVL81:
 1028              		.loc 1 299 1 view .LVU257
 1029 001c 10BD     		pop	{r4, pc}
 1030              		.cfi_endproc
 1031              	.LFE165:
 1032              		.size	sduDisconnectI, .-sduDisconnectI
 1033 001e C046     		.section	.text.sduStop,"ax",%progbits
 1034              		.align	1
 1035              		.p2align 4,,15
 1036              		.global	sduStop
 1037              		.syntax unified
 1038              		.code	16
 1039              		.thumb_func
 1040              		.fpu softvfp
 1041              		.type	sduStop, %function
 1042              	sduStop:
 1043              	.LVL82:
 1044              	.LFB164:
 1045              		.loc 1 261 37 is_stmt 1 view -0
 1046              		.cfi_startproc
 1047              		@ args = 0, pretend = 0, frame = 0
 1048              		@ frame_needed = 0, uses_anonymous_args = 0
 1049              		.loc 1 262 3 view .LVU259
 1050              		.loc 1 262 14 is_stmt 0 view .LVU260
 1051 0000 BE23     		movs	r3, #190
 1052 0002 5B00     		lsls	r3, r3, #1
 1053 0004 C258     		ldr	r2, [r0, r3]
 1054              		.loc 1 261 37 view .LVU261
 1055 0006 10B5     		push	{r4, lr}
 1056              		.cfi_def_cfa_offset 8
 1057              		.cfi_offset 4, -8
 1058              		.cfi_offset 14, -4
 1059              		.loc 1 262 14 view .LVU262
 1060 0008 1268     		ldr	r2, [r2]
 1061              	.LVL83:
 1062              		.loc 1 264 3 is_stmt 1 view .LVU263
 1063              		.loc 1 264 3 view .LVU264
 1064              		.loc 1 266 3 view .LVU265
 1065              	.LBB166:
 1066              	.LBI166:
 1067              		.loc 2 491 20 view .LVU266
 1068              	.LBE166:
 1069              		.loc 2 493 3 view .LVU267
 1070              	.LBB174:
 1071              	.LBB167:
 1072              	.LBI167:
 1073              		.loc 4 374 20 view .LVU268
 1074              	.LBE167:
 1075              	.LBE174:
 1076              		.loc 4 376 3 view .LVU269
 1077              	.LBB175:
 1078              	.LBB172:
 1079              	.LBB168:
 1080              	.LBI168:
 1081              		.loc 5 371 20 view .LVU270
 1082              	.LBE168:
 1083              	.LBE172:
ARM GAS  /tmp/ccY4KcjI.s 			page 20


 1084              	.LBE175:
 1085              		.loc 5 373 3 view .LVU271
 1086              	.LBB176:
 1087              	.LBB173:
 1088              	.LBB171:
 1089              	.LBB169:
 1090              	.LBI169:
 1091              		.loc 6 342 57 view .LVU272
 1092              	.LBB170:
 1093              		.loc 6 344 3 view .LVU273
 1094              		.syntax divided
 1095              	@ 344 "ChibiOS/os/common/ext/CMSIS/include/core_cmFunc.h" 1
 1096 000a 72B6     		cpsid i
 1097              	@ 0 "" 2
 1098              		.thumb
 1099              		.syntax unified
 1100              	.LBE170:
 1101              	.LBE169:
 1102              	.LBE171:
 1103              	.LBE173:
 1104              	.LBE176:
 1105              		.loc 4 377 34 view .LVU274
 1106              		.loc 4 378 20 view .LVU275
 1107              		.loc 1 267 3 view .LVU276
 1108              		.loc 1 267 3 view .LVU277
 1109              		.loc 1 271 3 view .LVU278
 1110              		.loc 1 271 49 is_stmt 0 view .LVU279
 1111 000c 0024     		movs	r4, #0
 1112              		.loc 1 271 23 view .LVU280
 1113 000e C158     		ldr	r1, [r0, r3]
 1114              		.loc 1 271 31 view .LVU281
 1115 0010 0B79     		ldrb	r3, [r1, #4]
 1116              		.loc 1 271 49 view .LVU282
 1117 0012 0933     		adds	r3, r3, #9
 1118 0014 9B00     		lsls	r3, r3, #2
 1119 0016 D318     		adds	r3, r2, r3
 1120 0018 5C60     		str	r4, [r3, #4]
 1121              		.loc 1 272 3 is_stmt 1 view .LVU283
 1122              		.loc 1 272 32 is_stmt 0 view .LVU284
 1123 001a 4B79     		ldrb	r3, [r1, #5]
 1124              		.loc 1 272 49 view .LVU285
 1125 001c 1133     		adds	r3, r3, #17
 1126 001e 9B00     		lsls	r3, r3, #2
 1127 0020 9C50     		str	r4, [r3, r2]
 1128              		.loc 1 273 3 is_stmt 1 view .LVU286
 1129              		.loc 1 273 19 is_stmt 0 view .LVU287
 1130 0022 8B79     		ldrb	r3, [r1, #6]
 1131              		.loc 1 273 6 view .LVU288
 1132 0024 002B     		cmp	r3, #0
 1133 0026 03D0     		beq	.L58
 1134              		.loc 1 274 5 is_stmt 1 view .LVU289
 1135              		.loc 1 274 49 is_stmt 0 view .LVU290
 1136 0028 0933     		adds	r3, r3, #9
 1137 002a 9B00     		lsls	r3, r3, #2
 1138 002c D218     		adds	r2, r2, r3
 1139              	.LVL84:
 1140              		.loc 1 274 49 view .LVU291
ARM GAS  /tmp/ccY4KcjI.s 			page 21


 1141 002e 5460     		str	r4, [r2, #4]
 1142              	.L58:
 1143              		.loc 1 276 3 is_stmt 1 view .LVU292
 1144              		.loc 1 276 15 is_stmt 0 view .LVU293
 1145 0030 0123     		movs	r3, #1
 1146 0032 0372     		strb	r3, [r0, #8]
 1147              		.loc 1 279 3 is_stmt 1 view .LVU294
 1148 0034 FFF7FEFF 		bl	sduDisconnectI
 1149              	.LVL85:
 1150              		.loc 1 280 3 view .LVU295
 1151              	.LBB177:
 1152              	.LBI177:
 1153              		.loc 2 598 20 view .LVU296
 1154              	.LBB178:
 1155              		.loc 2 600 3 view .LVU297
 1156 0038 FFF7FEFF 		bl	chSchRescheduleS
 1157              	.LVL86:
 1158              	.LBE178:
 1159              	.LBE177:
 1160              		.loc 1 281 3 view .LVU298
 1161              	.LBB179:
 1162              	.LBI179:
 1163              		.loc 2 502 20 view .LVU299
 1164              	.LBE179:
 1165              		.loc 2 504 3 view .LVU300
 1166              	.LBB188:
 1167              	.LBB180:
 1168              	.LBI180:
 1169              		.loc 4 386 20 view .LVU301
 1170              	.LBB181:
 1171              		.loc 4 388 22 view .LVU302
 1172              		.loc 4 389 33 view .LVU303
 1173              		.loc 4 395 3 view .LVU304
 1174              		.loc 4 395 3 view .LVU305
 1175              		.loc 4 399 3 view .LVU306
 1176              	.LBB182:
 1177              	.LBI182:
 1178              		.loc 5 380 20 view .LVU307
 1179              	.LBE182:
 1180              	.LBE181:
 1181              	.LBE180:
 1182              	.LBE188:
 1183              		.loc 5 382 3 view .LVU308
 1184              	.LBB189:
 1185              	.LBB187:
 1186              	.LBB186:
 1187              	.LBB185:
 1188              	.LBB183:
 1189              	.LBI183:
 1190              		.loc 6 331 57 view .LVU309
 1191              	.LBB184:
 1192              		.loc 6 333 3 view .LVU310
 1193              		.syntax divided
 1194              	@ 333 "ChibiOS/os/common/ext/CMSIS/include/core_cmFunc.h" 1
 1195 003c 62B6     		cpsie i
 1196              	@ 0 "" 2
 1197              		.thumb
ARM GAS  /tmp/ccY4KcjI.s 			page 22


 1198              		.syntax unified
 1199              	.LBE184:
 1200              	.LBE183:
 1201              	.LBE185:
 1202              	.LBE186:
 1203              	.LBE187:
 1204              	.LBE189:
 1205              		.loc 1 282 1 is_stmt 0 view .LVU311
 1206              		@ sp needed
 1207 003e 10BD     		pop	{r4, pc}
 1208              		.cfi_endproc
 1209              	.LFE164:
 1210              		.size	sduStop, .-sduStop
 1211              		.section	.text.sduConfigureHookI,"ax",%progbits
 1212              		.align	1
 1213              		.p2align 4,,15
 1214              		.global	sduConfigureHookI
 1215              		.syntax unified
 1216              		.code	16
 1217              		.thumb_func
 1218              		.fpu softvfp
 1219              		.type	sduConfigureHookI, %function
 1220              	sduConfigureHookI:
 1221              	.LVL87:
 1222              	.LFB166:
 1223              		.loc 1 308 47 is_stmt 1 view -0
 1224              		.cfi_startproc
 1225              		@ args = 0, pretend = 0, frame = 0
 1226              		@ frame_needed = 0, uses_anonymous_args = 0
 1227              		.loc 1 309 3 view .LVU313
 1228              		.loc 1 311 3 view .LVU314
 1229              		.loc 1 308 47 is_stmt 0 view .LVU315
 1230 0000 70B5     		push	{r4, r5, r6, lr}
 1231              		.cfi_def_cfa_offset 16
 1232              		.cfi_offset 4, -16
 1233              		.cfi_offset 5, -12
 1234              		.cfi_offset 6, -8
 1235              		.cfi_offset 14, -4
 1236              		.loc 1 311 3 view .LVU316
 1237 0002 0500     		movs	r5, r0
 1238              		.loc 1 308 47 view .LVU317
 1239 0004 0400     		movs	r4, r0
 1240              		.loc 1 311 3 view .LVU318
 1241 0006 0C35     		adds	r5, r5, #12
 1242 0008 2800     		movs	r0, r5
 1243              	.LVL88:
 1244              		.loc 1 311 3 view .LVU319
 1245 000a FFF7FEFF 		bl	ibqResetI
 1246              	.LVL89:
 1247              		.loc 1 312 3 is_stmt 1 view .LVU320
 1248 000e 2000     		movs	r0, r4
 1249 0010 4030     		adds	r0, r0, #64
 1250 0012 FFF7FEFF 		bl	obqResetI
 1251              	.LVL90:
 1252              		.loc 1 313 3 view .LVU321
 1253              	.LBB190:
 1254              	.LBI190:
ARM GAS  /tmp/ccY4KcjI.s 			page 23


 1255              		.loc 2 841 20 view .LVU322
 1256              	.LBB191:
 1257              		.loc 2 844 3 view .LVU323
 1258              	.LBE191:
 1259              	.LBE190:
 1260              		.loc 1 313 3 is_stmt 0 view .LVU324
 1261 0016 201D     		adds	r0, r4, #4
 1262              	.LVL91:
 1263              	.LBB193:
 1264              	.LBB192:
 1265              		.loc 2 844 3 view .LVU325
 1266 0018 0121     		movs	r1, #1
 1267 001a FFF7FEFF 		bl	chEvtBroadcastFlagsI
 1268              	.LVL92:
 1269              		.loc 2 844 3 view .LVU326
 1270              	.LBE192:
 1271              	.LBE193:
 1272              		.loc 1 313 36 is_stmt 1 view .LVU327
 1273              		.loc 1 316 3 view .LVU328
 1274              		.loc 1 316 9 is_stmt 0 view .LVU329
 1275 001e 2800     		movs	r0, r5
 1276 0020 FFF7FEFF 		bl	ibqGetEmptyBufferI
 1277              	.LVL93:
 1278              		.loc 1 320 24 view .LVU330
 1279 0024 BE23     		movs	r3, #190
 1280 0026 5B00     		lsls	r3, r3, #1
 1281 0028 E358     		ldr	r3, [r4, r3]
 1282              		.loc 1 316 9 view .LVU331
 1283 002a 0200     		movs	r2, r0
 1284              	.LVL94:
 1285              		.loc 1 318 3 is_stmt 1 view .LVU332
 1286              		.loc 1 318 3 view .LVU333
 1287              		.loc 1 320 3 view .LVU334
 1288 002c 5979     		ldrb	r1, [r3, #5]
 1289 002e 1868     		ldr	r0, [r3]
 1290              	.LVL95:
 1291              		.loc 1 320 3 is_stmt 0 view .LVU335
 1292 0030 8023     		movs	r3, #128
 1293 0032 FFF7FEFF 		bl	usbStartReceiveI
 1294              	.LVL96:
 1295              		.loc 1 322 1 view .LVU336
 1296              		@ sp needed
 1297              	.LVL97:
 1298              	.LVL98:
 1299              		.loc 1 322 1 view .LVU337
 1300 0036 70BD     		pop	{r4, r5, r6, pc}
 1301              		.cfi_endproc
 1302              	.LFE166:
 1303              		.size	sduConfigureHookI, .-sduConfigureHookI
 1304              		.section	.text.sduRequestsHook,"ax",%progbits
 1305              		.align	1
 1306              		.p2align 4,,15
 1307              		.global	sduRequestsHook
 1308              		.syntax unified
 1309              		.code	16
 1310              		.thumb_func
 1311              		.fpu softvfp
ARM GAS  /tmp/ccY4KcjI.s 			page 24


 1312              		.type	sduRequestsHook, %function
 1313              	sduRequestsHook:
 1314              	.LVL99:
 1315              	.LFB167:
 1316              		.loc 1 339 39 is_stmt 1 view -0
 1317              		.cfi_startproc
 1318              		@ args = 0, pretend = 0, frame = 0
 1319              		@ frame_needed = 0, uses_anonymous_args = 0
 1320              		@ link register save eliminated.
 1321              		.loc 1 341 3 view .LVU339
 1322              		.loc 1 341 19 is_stmt 0 view .LVU340
 1323 0000 7423     		movs	r3, #116
 1324              		.loc 1 341 6 view .LVU341
 1325 0002 C15C     		ldrb	r1, [r0, r3]
 1326 0004 143B     		subs	r3, r3, #20
 1327              		.loc 1 339 39 view .LVU342
 1328 0006 0200     		movs	r2, r0
 1329              		.loc 1 341 6 view .LVU343
 1330 0008 0B40     		ands	r3, r1
 1331              		.loc 1 357 10 view .LVU344
 1332 000a 0020     		movs	r0, #0
 1333              	.LVL100:
 1334              		.loc 1 341 6 view .LVU345
 1335 000c 202B     		cmp	r3, #32
 1336 000e 00D0     		beq	.L69
 1337              	.L64:
 1338              		.loc 1 358 1 view .LVU346
 1339              		@ sp needed
 1340 0010 7047     		bx	lr
 1341              	.L69:
 1342              		.loc 1 342 5 is_stmt 1 view .LVU347
 1343              		.loc 1 342 24 is_stmt 0 view .LVU348
 1344 0012 5533     		adds	r3, r3, #85
 1345 0014 D35C     		ldrb	r3, [r2, r3]
 1346              		.loc 1 342 5 view .LVU349
 1347 0016 202B     		cmp	r3, #32
 1348 0018 FAD3     		bcc	.L64
 1349 001a 212B     		cmp	r3, #33
 1350 001c 06D8     		bhi	.L70
 1351              		.loc 1 344 7 is_stmt 1 view .LVU350
 1352 001e 074B     		ldr	r3, .L71
 1353 0020 1067     		str	r0, [r2, #112]
 1354 0022 9366     		str	r3, [r2, #104]
 1355              		.loc 1 344 7 view .LVU351
 1356 0024 0723     		movs	r3, #7
 1357              		.loc 1 345 14 is_stmt 0 view .LVU352
 1358 0026 0120     		movs	r0, #1
 1359              		.loc 1 344 7 view .LVU353
 1360 0028 D366     		str	r3, [r2, #108]
 1361              		.loc 1 344 7 is_stmt 1 view .LVU354
 1362              		.loc 1 344 79 view .LVU355
 1363              		.loc 1 345 7 view .LVU356
 1364              		.loc 1 345 14 is_stmt 0 view .LVU357
 1365 002a F1E7     		b	.L64
 1366              	.L70:
 1367              		.loc 1 342 5 view .LVU358
 1368 002c 222B     		cmp	r3, #34
ARM GAS  /tmp/ccY4KcjI.s 			page 25


 1369 002e EFD1     		bne	.L64
 1370              		.loc 1 351 7 is_stmt 1 view .LVU359
 1371 0030 9066     		str	r0, [r2, #104]
 1372              		.loc 1 351 7 view .LVU360
 1373 0032 D066     		str	r0, [r2, #108]
 1374              		.loc 1 351 7 view .LVU361
 1375 0034 1067     		str	r0, [r2, #112]
 1376              		.loc 1 351 44 view .LVU362
 1377              		.loc 1 352 7 view .LVU363
 1378              		.loc 1 352 14 is_stmt 0 view .LVU364
 1379 0036 0120     		movs	r0, #1
 1380 0038 EAE7     		b	.L64
 1381              	.L72:
 1382 003a C046     		.align	2
 1383              	.L71:
 1384 003c 00000000 		.word	.LANCHOR1
 1385              		.cfi_endproc
 1386              	.LFE167:
 1387              		.size	sduRequestsHook, .-sduRequestsHook
 1388              		.section	.text.sduSOFHookI,"ax",%progbits
 1389              		.align	1
 1390              		.p2align 4,,15
 1391              		.global	sduSOFHookI
 1392              		.syntax unified
 1393              		.code	16
 1394              		.thumb_func
 1395              		.fpu softvfp
 1396              		.type	sduSOFHookI, %function
 1397              	sduSOFHookI:
 1398              	.LVL101:
 1399              	.LFB168:
 1400              		.loc 1 369 41 is_stmt 1 view -0
 1401              		.cfi_startproc
 1402              		@ args = 0, pretend = 0, frame = 8
 1403              		@ frame_needed = 0, uses_anonymous_args = 0
 1404              		.loc 1 373 3 view .LVU366
 1405              		.loc 1 369 41 is_stmt 0 view .LVU367
 1406 0000 70B5     		push	{r4, r5, r6, lr}
 1407              		.cfi_def_cfa_offset 16
 1408              		.cfi_offset 4, -16
 1409              		.cfi_offset 5, -12
 1410              		.cfi_offset 6, -8
 1411              		.cfi_offset 14, -4
 1412              		.loc 1 373 8 view .LVU368
 1413 0002 BE25     		movs	r5, #190
 1414 0004 6D00     		lsls	r5, r5, #1
 1415 0006 4259     		ldr	r2, [r0, r5]
 1416              		.loc 1 369 41 view .LVU369
 1417 0008 82B0     		sub	sp, sp, #8
 1418              		.cfi_def_cfa_offset 24
 1419              		.loc 1 373 8 view .LVU370
 1420 000a 1368     		ldr	r3, [r2]
 1421              		.loc 1 369 41 view .LVU371
 1422 000c 0400     		movs	r4, r0
 1423              		.loc 1 373 6 view .LVU372
 1424 000e 1978     		ldrb	r1, [r3]
 1425 0010 0429     		cmp	r1, #4
ARM GAS  /tmp/ccY4KcjI.s 			page 26


 1426 0012 02D1     		bne	.L73
 1427              		.loc 1 373 62 discriminator 1 view .LVU373
 1428 0014 017A     		ldrb	r1, [r0, #8]
 1429 0016 0229     		cmp	r1, #2
 1430 0018 01D0     		beq	.L80
 1431              	.LVL102:
 1432              	.L73:
 1433              		.loc 1 394 1 view .LVU374
 1434 001a 02B0     		add	sp, sp, #8
 1435              		@ sp needed
 1436              	.LVL103:
 1437              		.loc 1 394 1 view .LVU375
 1438 001c 70BD     		pop	{r4, r5, r6, pc}
 1439              	.LVL104:
 1440              	.L80:
 1441              		.loc 1 380 3 is_stmt 1 view .LVU376
 1442              		.loc 1 380 7 is_stmt 0 view .LVU377
 1443 001e 1179     		ldrb	r1, [r2, #4]
 1444 0020 0122     		movs	r2, #1
 1445 0022 8A40     		lsls	r2, r2, r1
 1446 0024 1B89     		ldrh	r3, [r3, #8]
 1447              		.loc 1 380 6 view .LVU378
 1448 0026 1342     		tst	r3, r2
 1449 0028 F7D1     		bne	.L73
 1450              		.loc 1 386 3 is_stmt 1 view .LVU379
 1451              		.loc 1 386 7 is_stmt 0 view .LVU380
 1452 002a 0600     		movs	r6, r0
 1453 002c 4036     		adds	r6, r6, #64
 1454 002e 3000     		movs	r0, r6
 1455              	.LVL105:
 1456              		.loc 1 386 7 view .LVU381
 1457 0030 FFF7FEFF 		bl	obqTryFlushI
 1458              	.LVL106:
 1459              		.loc 1 386 6 view .LVU382
 1460 0034 0028     		cmp	r0, #0
 1461 0036 F0D0     		beq	.L73
 1462              	.LBB194:
 1463              		.loc 1 387 5 is_stmt 1 view .LVU383
 1464              		.loc 1 388 5 view .LVU384
 1465              		.loc 1 388 20 is_stmt 0 view .LVU385
 1466 0038 01A9     		add	r1, sp, #4
 1467 003a 3000     		movs	r0, r6
 1468 003c FFF7FEFF 		bl	obqGetFullBufferI
 1469              	.LVL107:
 1470              		.loc 1 392 27 view .LVU386
 1471 0040 6359     		ldr	r3, [r4, r5]
 1472              		.loc 1 388 20 view .LVU387
 1473 0042 0200     		movs	r2, r0
 1474              	.LVL108:
 1475              		.loc 1 390 5 is_stmt 1 view .LVU388
 1476              		.loc 1 390 5 view .LVU389
 1477              		.loc 1 392 5 view .LVU390
 1478 0044 1979     		ldrb	r1, [r3, #4]
 1479 0046 1868     		ldr	r0, [r3]
 1480              	.LVL109:
 1481              		.loc 1 392 5 is_stmt 0 view .LVU391
 1482 0048 019B     		ldr	r3, [sp, #4]
ARM GAS  /tmp/ccY4KcjI.s 			page 27


 1483 004a FFF7FEFF 		bl	usbStartTransmitI
 1484              	.LVL110:
 1485              		.loc 1 392 5 view .LVU392
 1486 004e E4E7     		b	.L73
 1487              	.LBE194:
 1488              		.cfi_endproc
 1489              	.LFE168:
 1490              		.size	sduSOFHookI, .-sduSOFHookI
 1491              		.section	.text.sduDataTransmitted,"ax",%progbits
 1492              		.align	1
 1493              		.p2align 4,,15
 1494              		.global	sduDataTransmitted
 1495              		.syntax unified
 1496              		.code	16
 1497              		.thumb_func
 1498              		.fpu softvfp
 1499              		.type	sduDataTransmitted, %function
 1500              	sduDataTransmitted:
 1501              	.LVL111:
 1502              	.LFB169:
 1503              		.loc 1 404 54 is_stmt 1 view -0
 1504              		.cfi_startproc
 1505              		@ args = 0, pretend = 0, frame = 8
 1506              		@ frame_needed = 0, uses_anonymous_args = 0
 1507              		.loc 1 405 3 view .LVU394
 1508              		.loc 1 406 3 view .LVU395
 1509              		.loc 1 407 3 view .LVU396
 1510              		.loc 1 407 20 is_stmt 0 view .LVU397
 1511 0000 0B00     		movs	r3, r1
 1512              		.loc 1 404 54 view .LVU398
 1513 0002 F0B5     		push	{r4, r5, r6, r7, lr}
 1514              		.cfi_def_cfa_offset 20
 1515              		.cfi_offset 4, -20
 1516              		.cfi_offset 5, -16
 1517              		.cfi_offset 6, -12
 1518              		.cfi_offset 7, -8
 1519              		.cfi_offset 14, -4
 1520              		.loc 1 407 20 view .LVU399
 1521 0004 0933     		adds	r3, r3, #9
 1522 0006 9B00     		lsls	r3, r3, #2
 1523 0008 C318     		adds	r3, r0, r3
 1524 000a 5C68     		ldr	r4, [r3, #4]
 1525              	.LVL112:
 1526              		.loc 1 409 3 is_stmt 1 view .LVU400
 1527              		.loc 1 404 54 is_stmt 0 view .LVU401
 1528 000c 83B0     		sub	sp, sp, #12
 1529              		.cfi_def_cfa_offset 32
 1530              		.loc 1 404 54 view .LVU402
 1531 000e 0500     		movs	r5, r0
 1532 0010 0E00     		movs	r6, r1
 1533              		.loc 1 409 6 view .LVU403
 1534 0012 002C     		cmp	r4, #0
 1535 0014 19D0     		beq	.L81
 1536              		.loc 1 413 3 is_stmt 1 view .LVU404
 1537              	.LBB195:
 1538              	.LBI195:
 1539              		.loc 2 513 20 view .LVU405
ARM GAS  /tmp/ccY4KcjI.s 			page 28


 1540              	.LBE195:
 1541              		.loc 2 515 3 view .LVU406
 1542              	.LBB207:
 1543              	.LBB196:
 1544              	.LBI196:
 1545              		.loc 4 414 20 view .LVU407
 1546              	.LBE196:
 1547              	.LBE207:
 1548              		.loc 4 416 3 view .LVU408
 1549              	.LBB208:
 1550              	.LBB204:
 1551              	.LBB197:
 1552              	.LBI197:
 1553              		.loc 5 390 20 view .LVU409
 1554              	.LBE197:
 1555              	.LBE204:
 1556              	.LBE208:
 1557              		.loc 5 392 3 view .LVU410
 1558              	.LBB209:
 1559              	.LBB205:
 1560              	.LBB202:
 1561              	.LBB198:
 1562              	.LBI198:
 1563              		.loc 5 371 20 view .LVU411
 1564              	.LBE198:
 1565              	.LBE202:
 1566              	.LBE205:
 1567              	.LBE209:
 1568              		.loc 5 373 3 view .LVU412
 1569              	.LBB210:
 1570              	.LBB206:
 1571              	.LBB203:
 1572              	.LBB201:
 1573              	.LBB199:
 1574              	.LBI199:
 1575              		.loc 6 342 57 view .LVU413
 1576              	.LBB200:
 1577              		.loc 6 344 3 view .LVU414
 1578              		.syntax divided
 1579              	@ 344 "ChibiOS/os/common/ext/CMSIS/include/core_cmFunc.h" 1
 1580 0016 72B6     		cpsid i
 1581              	@ 0 "" 2
 1582              		.thumb
 1583              		.syntax unified
 1584              	.LBE200:
 1585              	.LBE199:
 1586              	.LBE201:
 1587              	.LBE203:
 1588              	.LBE206:
 1589              	.LBE210:
 1590              		.loc 4 417 34 view .LVU415
 1591              		.loc 4 418 29 view .LVU416
 1592              		.loc 1 416 3 view .LVU417
 1593              	.LVL113:
 1594              	.LBB211:
 1595              	.LBI211:
 1596              		.loc 2 841 20 view .LVU418
ARM GAS  /tmp/ccY4KcjI.s 			page 29


 1597              	.LBB212:
 1598              		.loc 2 844 3 view .LVU419
 1599 0018 B700     		lsls	r7, r6, #2
 1600              	.LBE212:
 1601              	.LBE211:
 1602              		.loc 1 416 3 is_stmt 0 view .LVU420
 1603 001a 201D     		adds	r0, r4, #4
 1604              	.LVL114:
 1605              	.LBB214:
 1606              	.LBB213:
 1607              		.loc 2 844 3 view .LVU421
 1608 001c 0821     		movs	r1, #8
 1609              	.LVL115:
 1610              		.loc 2 844 3 view .LVU422
 1611 001e EF19     		adds	r7, r5, r7
 1612 0020 FFF7FEFF 		bl	chEvtBroadcastFlagsI
 1613              	.LVL116:
 1614              		.loc 2 844 3 view .LVU423
 1615              	.LBE213:
 1616              	.LBE214:
 1617              		.loc 1 416 39 is_stmt 1 view .LVU424
 1618              		.loc 1 419 3 view .LVU425
 1619              		.loc 1 419 20 is_stmt 0 view .LVU426
 1620 0024 FB68     		ldr	r3, [r7, #12]
 1621 0026 4034     		adds	r4, r4, #64
 1622              	.LVL117:
 1623              		.loc 1 419 30 view .LVU427
 1624 0028 5B69     		ldr	r3, [r3, #20]
 1625              		.loc 1 419 6 view .LVU428
 1626 002a 1B68     		ldr	r3, [r3]
 1627 002c 002B     		cmp	r3, #0
 1628 002e 1FD1     		bne	.L93
 1629              		.loc 1 424 3 is_stmt 1 view .LVU429
 1630              		.loc 1 424 9 is_stmt 0 view .LVU430
 1631 0030 01A9     		add	r1, sp, #4
 1632 0032 2000     		movs	r0, r4
 1633 0034 FFF7FEFF 		bl	obqGetFullBufferI
 1634              	.LVL118:
 1635              		.loc 1 426 3 is_stmt 1 view .LVU431
 1636              		.loc 1 426 6 is_stmt 0 view .LVU432
 1637 0038 0028     		cmp	r0, #0
 1638 003a 08D0     		beq	.L85
 1639              	.L94:
 1640              		.loc 1 429 5 is_stmt 1 view .LVU433
 1641 003c 0200     		movs	r2, r0
 1642 003e 019B     		ldr	r3, [sp, #4]
 1643 0040 3100     		movs	r1, r6
 1644 0042 2800     		movs	r0, r5
 1645              	.LVL119:
 1646              		.loc 1 429 5 is_stmt 0 view .LVU434
 1647 0044 FFF7FEFF 		bl	usbStartTransmitI
 1648              	.LVL120:
 1649              	.L86:
 1650              		.loc 1 443 3 is_stmt 1 view .LVU435
 1651              		.loc 1 445 3 view .LVU436
 1652              	.LBB215:
 1653              	.LBI215:
ARM GAS  /tmp/ccY4KcjI.s 			page 30


 1654              		.loc 2 524 20 view .LVU437
 1655              	.LBE215:
 1656              		.loc 2 526 3 view .LVU438
 1657              	.LBB227:
 1658              	.LBB216:
 1659              	.LBI216:
 1660              		.loc 4 434 20 view .LVU439
 1661              	.LBE216:
 1662              	.LBE227:
 1663              		.loc 4 436 31 view .LVU440
 1664              		.loc 4 437 33 view .LVU441
 1665              		.loc 4 438 3 view .LVU442
 1666              	.LBB228:
 1667              	.LBB224:
 1668              	.LBB217:
 1669              	.LBI217:
 1670              		.loc 5 400 20 view .LVU443
 1671              	.LBE217:
 1672              	.LBE224:
 1673              	.LBE228:
 1674              		.loc 5 402 3 view .LVU444
 1675              	.LBB229:
 1676              	.LBB225:
 1677              	.LBB222:
 1678              	.LBB218:
 1679              	.LBI218:
 1680              		.loc 5 380 20 view .LVU445
 1681              	.LBE218:
 1682              	.LBE222:
 1683              	.LBE225:
 1684              	.LBE229:
 1685              		.loc 5 382 3 view .LVU446
 1686              	.LBB230:
 1687              	.LBB226:
 1688              	.LBB223:
 1689              	.LBB221:
 1690              	.LBB219:
 1691              	.LBI219:
 1692              		.loc 6 331 57 view .LVU447
 1693              	.LBB220:
 1694              		.loc 6 333 3 view .LVU448
 1695              		.syntax divided
 1696              	@ 333 "ChibiOS/os/common/ext/CMSIS/include/core_cmFunc.h" 1
 1697 0048 62B6     		cpsie i
 1698              	@ 0 "" 2
 1699              	.LVL121:
 1700              		.thumb
 1701              		.syntax unified
 1702              	.L81:
 1703              		.loc 6 333 3 is_stmt 0 view .LVU449
 1704              	.LBE220:
 1705              	.LBE219:
 1706              	.LBE221:
 1707              	.LBE223:
 1708              	.LBE226:
 1709              	.LBE230:
 1710              		.loc 1 446 1 view .LVU450
ARM GAS  /tmp/ccY4KcjI.s 			page 31


 1711 004a 03B0     		add	sp, sp, #12
 1712              		@ sp needed
 1713              	.LVL122:
 1714              		.loc 1 446 1 view .LVU451
 1715 004c F0BD     		pop	{r4, r5, r6, r7, pc}
 1716              	.LVL123:
 1717              	.L85:
 1718              		.loc 1 431 8 is_stmt 1 view .LVU452
 1719              		.loc 1 431 22 is_stmt 0 view .LVU453
 1720 004e FA68     		ldr	r2, [r7, #12]
 1721              		.loc 1 431 36 view .LVU454
 1722 0050 5369     		ldr	r3, [r2, #20]
 1723 0052 1B68     		ldr	r3, [r3]
 1724              		.loc 1 431 11 view .LVU455
 1725 0054 002B     		cmp	r3, #0
 1726 0056 F7D0     		beq	.L86
 1727              		.loc 1 433 14 discriminator 1 view .LVU456
 1728 0058 128A     		ldrh	r2, [r2, #16]
 1729              		.loc 1 433 48 discriminator 1 view .LVU457
 1730 005a 013A     		subs	r2, r2, #1
 1731              		.loc 1 431 51 discriminator 1 view .LVU458
 1732 005c 1342     		tst	r3, r2
 1733 005e F3D1     		bne	.L86
 1734              		.loc 1 438 5 is_stmt 1 view .LVU459
 1735              		.loc 1 438 37 is_stmt 0 view .LVU460
 1736 0060 2A00     		movs	r2, r5
 1737              		.loc 1 438 5 view .LVU461
 1738 0062 0023     		movs	r3, #0
 1739              		.loc 1 438 37 view .LVU462
 1740 0064 7432     		adds	r2, r2, #116
 1741              		.loc 1 438 5 view .LVU463
 1742 0066 3100     		movs	r1, r6
 1743 0068 2800     		movs	r0, r5
 1744              	.LVL124:
 1745              		.loc 1 438 5 view .LVU464
 1746 006a FFF7FEFF 		bl	usbStartTransmitI
 1747              	.LVL125:
 1748 006e EBE7     		b	.L86
 1749              	.L93:
 1750              		.loc 1 420 5 is_stmt 1 view .LVU465
 1751 0070 2000     		movs	r0, r4
 1752 0072 FFF7FEFF 		bl	obqReleaseEmptyBufferI
 1753              	.LVL126:
 1754              		.loc 1 424 3 view .LVU466
 1755              		.loc 1 424 9 is_stmt 0 view .LVU467
 1756 0076 01A9     		add	r1, sp, #4
 1757 0078 2000     		movs	r0, r4
 1758 007a FFF7FEFF 		bl	obqGetFullBufferI
 1759              	.LVL127:
 1760              		.loc 1 426 3 is_stmt 1 view .LVU468
 1761              		.loc 1 426 6 is_stmt 0 view .LVU469
 1762 007e 0028     		cmp	r0, #0
 1763 0080 DCD1     		bne	.L94
 1764 0082 E4E7     		b	.L85
 1765              		.cfi_endproc
 1766              	.LFE169:
 1767              		.size	sduDataTransmitted, .-sduDataTransmitted
ARM GAS  /tmp/ccY4KcjI.s 			page 32


 1768              		.section	.text.sduDataReceived,"ax",%progbits
 1769              		.align	1
 1770              		.p2align 4,,15
 1771              		.global	sduDataReceived
 1772              		.syntax unified
 1773              		.code	16
 1774              		.thumb_func
 1775              		.fpu softvfp
 1776              		.type	sduDataReceived, %function
 1777              	sduDataReceived:
 1778              	.LVL128:
 1779              	.LFB170:
 1780              		.loc 1 456 51 is_stmt 1 view -0
 1781              		.cfi_startproc
 1782              		@ args = 0, pretend = 0, frame = 0
 1783              		@ frame_needed = 0, uses_anonymous_args = 0
 1784              		.loc 1 457 3 view .LVU471
 1785              		.loc 1 458 3 view .LVU472
 1786              		.loc 1 458 20 is_stmt 0 view .LVU473
 1787 0000 1131     		adds	r1, r1, #17
 1788              	.LVL129:
 1789              		.loc 1 458 20 view .LVU474
 1790 0002 8900     		lsls	r1, r1, #2
 1791              		.loc 1 456 51 view .LVU475
 1792 0004 70B5     		push	{r4, r5, r6, lr}
 1793              		.cfi_def_cfa_offset 16
 1794              		.cfi_offset 4, -16
 1795              		.cfi_offset 5, -12
 1796              		.cfi_offset 6, -8
 1797              		.cfi_offset 14, -4
 1798              		.loc 1 458 20 view .LVU476
 1799 0006 0C58     		ldr	r4, [r1, r0]
 1800              	.LVL130:
 1801              		.loc 1 460 3 is_stmt 1 view .LVU477
 1802              		.loc 1 460 6 is_stmt 0 view .LVU478
 1803 0008 002C     		cmp	r4, #0
 1804 000a 20D0     		beq	.L95
 1805              		.loc 1 464 3 is_stmt 1 view .LVU479
 1806              	.LBB231:
 1807              	.LBI231:
 1808              		.loc 2 513 20 view .LVU480
 1809              	.LBE231:
 1810              		.loc 2 515 3 view .LVU481
 1811              	.LBB243:
 1812              	.LBB232:
 1813              	.LBI232:
 1814              		.loc 4 414 20 view .LVU482
 1815              	.LBE232:
 1816              	.LBE243:
 1817              		.loc 4 416 3 view .LVU483
 1818              	.LBB244:
 1819              	.LBB240:
 1820              	.LBB233:
 1821              	.LBI233:
 1822              		.loc 5 390 20 view .LVU484
 1823              	.LBE233:
 1824              	.LBE240:
ARM GAS  /tmp/ccY4KcjI.s 			page 33


 1825              	.LBE244:
 1826              		.loc 5 392 3 view .LVU485
 1827              	.LBB245:
 1828              	.LBB241:
 1829              	.LBB238:
 1830              	.LBB234:
 1831              	.LBI234:
 1832              		.loc 5 371 20 view .LVU486
 1833              	.LBE234:
 1834              	.LBE238:
 1835              	.LBE241:
 1836              	.LBE245:
 1837              		.loc 5 373 3 view .LVU487
 1838              	.LBB246:
 1839              	.LBB242:
 1840              	.LBB239:
 1841              	.LBB237:
 1842              	.LBB235:
 1843              	.LBI235:
 1844              		.loc 6 342 57 view .LVU488
 1845              	.LBB236:
 1846              		.loc 6 344 3 view .LVU489
 1847              		.syntax divided
 1848              	@ 344 "ChibiOS/os/common/ext/CMSIS/include/core_cmFunc.h" 1
 1849 000c 72B6     		cpsid i
 1850              	@ 0 "" 2
 1851              		.thumb
 1852              		.syntax unified
 1853              	.LBE236:
 1854              	.LBE235:
 1855              	.LBE237:
 1856              	.LBE239:
 1857              	.LBE242:
 1858              	.LBE246:
 1859              		.loc 4 417 34 view .LVU490
 1860              		.loc 4 418 29 view .LVU491
 1861              		.loc 1 467 3 view .LVU492
 1862              	.LVL131:
 1863              	.LBB247:
 1864              	.LBI247:
 1865              		.loc 2 841 20 view .LVU493
 1866              	.LBB248:
 1867              		.loc 2 844 3 view .LVU494
 1868              	.LBE248:
 1869              	.LBE247:
 1870              		.loc 1 471 22 is_stmt 0 view .LVU495
 1871 000e BE26     		movs	r6, #190
 1872              		.loc 1 470 3 view .LVU496
 1873 0010 2500     		movs	r5, r4
 1874              		.loc 1 467 3 view .LVU497
 1875 0012 201D     		adds	r0, r4, #4
 1876              	.LVL132:
 1877              	.LBB251:
 1878              	.LBB249:
 1879              		.loc 2 844 3 view .LVU498
 1880 0014 0421     		movs	r1, #4
 1881              	.LBE249:
ARM GAS  /tmp/ccY4KcjI.s 			page 34


 1882              	.LBE251:
 1883              		.loc 1 471 22 view .LVU499
 1884 0016 7600     		lsls	r6, r6, #1
 1885              	.LBB252:
 1886              	.LBB250:
 1887              		.loc 2 844 3 view .LVU500
 1888 0018 FFF7FEFF 		bl	chEvtBroadcastFlagsI
 1889              	.LVL133:
 1890              		.loc 2 844 3 view .LVU501
 1891              	.LBE250:
 1892              	.LBE252:
 1893              		.loc 1 467 42 is_stmt 1 view .LVU502
 1894              		.loc 1 470 3 view .LVU503
 1895              		.loc 1 471 22 is_stmt 0 view .LVU504
 1896 001c A359     		ldr	r3, [r4, r6]
 1897              		.loc 1 470 3 view .LVU505
 1898 001e 0C35     		adds	r5, r5, #12
 1899              		.loc 1 471 22 view .LVU506
 1900 0020 1A68     		ldr	r2, [r3]
 1901 0022 5B79     		ldrb	r3, [r3, #5]
 1902              		.loc 1 470 3 view .LVU507
 1903 0024 2800     		movs	r0, r5
 1904              		.loc 1 471 22 view .LVU508
 1905 0026 0233     		adds	r3, r3, #2
 1906 0028 9B00     		lsls	r3, r3, #2
 1907 002a D318     		adds	r3, r2, r3
 1908 002c 5B68     		ldr	r3, [r3, #4]
 1909              		.loc 1 470 3 view .LVU509
 1910 002e 9B69     		ldr	r3, [r3, #24]
 1911 0030 5968     		ldr	r1, [r3, #4]
 1912 0032 FFF7FEFF 		bl	ibqPostFullBufferI
 1913              	.LVL134:
 1914              		.loc 1 477 3 is_stmt 1 view .LVU510
 1915              		.loc 1 477 9 is_stmt 0 view .LVU511
 1916 0036 2800     		movs	r0, r5
 1917 0038 FFF7FEFF 		bl	ibqGetEmptyBufferI
 1918              	.LVL135:
 1919 003c 021E     		subs	r2, r0, #0
 1920              	.LVL136:
 1921              		.loc 1 478 3 is_stmt 1 view .LVU512
 1922              		.loc 1 478 6 is_stmt 0 view .LVU513
 1923 003e 05D0     		beq	.L97
 1924              		.loc 1 480 5 is_stmt 1 view .LVU514
 1925              		.loc 1 480 26 is_stmt 0 view .LVU515
 1926 0040 A359     		ldr	r3, [r4, r6]
 1927              		.loc 1 480 5 view .LVU516
 1928 0042 5979     		ldrb	r1, [r3, #5]
 1929 0044 1868     		ldr	r0, [r3]
 1930              	.LVL137:
 1931              		.loc 1 480 5 view .LVU517
 1932 0046 8023     		movs	r3, #128
 1933 0048 FFF7FEFF 		bl	usbStartReceiveI
 1934              	.LVL138:
 1935              	.L97:
 1936              		.loc 1 483 3 is_stmt 1 view .LVU518
 1937              	.LBB253:
 1938              	.LBI253:
ARM GAS  /tmp/ccY4KcjI.s 			page 35


 1939              		.loc 2 524 20 view .LVU519
 1940              	.LBE253:
 1941              		.loc 2 526 3 view .LVU520
 1942              	.LBB265:
 1943              	.LBB254:
 1944              	.LBI254:
 1945              		.loc 4 434 20 view .LVU521
 1946              	.LBE254:
 1947              	.LBE265:
 1948              		.loc 4 436 31 view .LVU522
 1949              		.loc 4 437 33 view .LVU523
 1950              		.loc 4 438 3 view .LVU524
 1951              	.LBB266:
 1952              	.LBB262:
 1953              	.LBB255:
 1954              	.LBI255:
 1955              		.loc 5 400 20 view .LVU525
 1956              	.LBE255:
 1957              	.LBE262:
 1958              	.LBE266:
 1959              		.loc 5 402 3 view .LVU526
 1960              	.LBB267:
 1961              	.LBB263:
 1962              	.LBB260:
 1963              	.LBB256:
 1964              	.LBI256:
 1965              		.loc 5 380 20 view .LVU527
 1966              	.LBE256:
 1967              	.LBE260:
 1968              	.LBE263:
 1969              	.LBE267:
 1970              		.loc 5 382 3 view .LVU528
 1971              	.LBB268:
 1972              	.LBB264:
 1973              	.LBB261:
 1974              	.LBB259:
 1975              	.LBB257:
 1976              	.LBI257:
 1977              		.loc 6 331 57 view .LVU529
 1978              	.LBB258:
 1979              		.loc 6 333 3 view .LVU530
 1980              		.syntax divided
 1981              	@ 333 "ChibiOS/os/common/ext/CMSIS/include/core_cmFunc.h" 1
 1982 004c 62B6     		cpsie i
 1983              	@ 0 "" 2
 1984              		.thumb
 1985              		.syntax unified
 1986              	.L95:
 1987              		.loc 6 333 3 is_stmt 0 view .LVU531
 1988              	.LBE258:
 1989              	.LBE257:
 1990              	.LBE259:
 1991              	.LBE261:
 1992              	.LBE264:
 1993              	.LBE268:
 1994              		.loc 1 484 1 view .LVU532
 1995              		@ sp needed
ARM GAS  /tmp/ccY4KcjI.s 			page 36


 1996              	.LVL139:
 1997              		.loc 1 484 1 view .LVU533
 1998 004e 70BD     		pop	{r4, r5, r6, pc}
 1999              		.cfi_endproc
 2000              	.LFE170:
 2001              		.size	sduDataReceived, .-sduDataReceived
 2002              		.section	.text.sduInterruptTransmitted,"ax",%progbits
 2003              		.align	1
 2004              		.p2align 4,,15
 2005              		.global	sduInterruptTransmitted
 2006              		.syntax unified
 2007              		.code	16
 2008              		.thumb_func
 2009              		.fpu softvfp
 2010              		.type	sduInterruptTransmitted, %function
 2011              	sduInterruptTransmitted:
 2012              	.LVL140:
 2013              	.LFB171:
 2014              		.loc 1 494 59 is_stmt 1 view -0
 2015              		.cfi_startproc
 2016              		@ args = 0, pretend = 0, frame = 0
 2017              		@ frame_needed = 0, uses_anonymous_args = 0
 2018              		@ link register save eliminated.
 2019              		.loc 1 496 3 view .LVU535
 2020              		.loc 1 497 3 view .LVU536
 2021              		.loc 1 498 1 is_stmt 0 view .LVU537
 2022              		@ sp needed
 2023 0000 7047     		bx	lr
 2024              		.cfi_endproc
 2025              	.LFE171:
 2026              		.size	sduInterruptTransmitted, .-sduInterruptTransmitted
 2027 0002 C046     		.section	.data.linecoding,"aw"
 2028              		.align	2
 2029              		.set	.LANCHOR1,. + 0
 2030              		.type	linecoding, %object
 2031              		.size	linecoding, 7
 2032              	linecoding:
 2033 0000 00       		.byte	0
 2034 0001 96       		.byte	-106
 2035 0002 00       		.byte	0
 2036 0003 00       		.byte	0
 2037 0004 00       		.byte	0
 2038 0005 00       		.byte	0
 2039 0006 08       		.byte	8
 2040              		.section	.rodata.vmt,"a"
 2041              		.align	2
 2042              		.set	.LANCHOR0,. + 0
 2043              		.type	vmt, %object
 2044              		.size	vmt, 32
 2045              	vmt:
 2046 0000 00000000 		.word	write
 2047 0004 00000000 		.word	read
 2048 0008 00000000 		.word	put
 2049 000c 00000000 		.word	get
 2050 0010 00000000 		.word	putt
 2051 0014 00000000 		.word	gett
 2052 0018 00000000 		.word	writet
ARM GAS  /tmp/ccY4KcjI.s 			page 37


 2053 001c 00000000 		.word	readt
 2054              		.text
 2055              	.Letext0:
 2056              		.file 7 "/opt/nanovna/gcc-arm-none-eabi-8-2018-q4-major/lib/gcc/arm-none-eabi/8.2.1/include/stddef
 2057              		.file 8 "/opt/nanovna/gcc-arm-none-eabi-8-2018-q4-major/arm-none-eabi/include/machine/_default_typ
 2058              		.file 9 "/opt/nanovna/gcc-arm-none-eabi-8-2018-q4-major/arm-none-eabi/include/sys/_stdint.h"
 2059              		.file 10 "ChibiOS/os/common/ports/ARMCMx/compilers/GCC/chtypes.h"
 2060              		.file 11 "ChibiOS/os/rt/include/chsystypes.h"
 2061              		.file 12 "ChibiOS/os/rt/include/chschd.h"
 2062              		.file 13 "ChibiOS/os/common/ext/CMSIS/ST/STM32F0xx/stm32f072xb.h"
 2063              		.file 14 "ChibiOS/os/common/ports/ARMCMx/chcore.h"
 2064              		.file 15 "ChibiOS/os/hal/ports/STM32/LLD/TIMv1/stm32_tim.h"
 2065              		.file 16 "ChibiOS/os/rt/include/chmtx.h"
 2066              		.file 17 "ChibiOS/os/common/ext/CMSIS/ST/STM32F0xx/system_stm32f0xx.h"
 2067              		.file 18 "ChibiOS/os/rt/include/chregistry.h"
 2068              		.file 19 "ChibiOS/os/hal/ports/STM32/LLD/DMAv1/stm32_dma.h"
 2069              		.file 20 "ChibiOS/os/hal/include/hal_buffers.h"
 2070              		.file 21 "ChibiOS/os/hal/include/hal_queues.h"
 2071              		.file 22 "ChibiOS/os/hal/ports/STM32/LLD/GPIOv2/hal_pal_lld.h"
 2072              		.file 23 "ChibiOS/os/hal/include/hal_ext.h"
 2073              		.file 24 "ChibiOS/os/hal/ports/STM32/LLD/EXTIv1/hal_ext_lld.h"
 2074              		.file 25 "ChibiOS/os/hal/include/hal_gpt.h"
 2075              		.file 26 "ChibiOS/os/hal/ports/STM32/LLD/TIMv1/hal_gpt_lld.h"
 2076              		.file 27 "ChibiOS/os/hal/include/hal_i2c.h"
 2077              		.file 28 "ChibiOS/os/hal/ports/STM32/LLD/I2Cv2/hal_i2c_lld.h"
 2078              		.file 29 "ChibiOS/os/hal/include/hal_i2s.h"
 2079              		.file 30 "ChibiOS/os/hal/ports/STM32/LLD/SPIv2/hal_i2s_lld.h"
 2080              		.file 31 "/opt/nanovna/gcc-arm-none-eabi-8-2018-q4-major/arm-none-eabi/include/sys/lock.h"
 2081              		.file 32 "/opt/nanovna/gcc-arm-none-eabi-8-2018-q4-major/arm-none-eabi/include/sys/_types.h"
 2082              		.file 33 "/opt/nanovna/gcc-arm-none-eabi-8-2018-q4-major/arm-none-eabi/include/sys/reent.h"
 2083              		.file 34 "/opt/nanovna/gcc-arm-none-eabi-8-2018-q4-major/arm-none-eabi/include/time.h"
 2084              		.file 35 "ChibiOS/os/hal/include/hal_rtc.h"
 2085              		.file 36 "ChibiOS/os/hal/ports/STM32/LLD/RTCv2/hal_rtc_lld.h"
 2086              		.file 37 "ChibiOS/os/hal/include/hal_serial.h"
 2087              		.file 38 "ChibiOS/os/hal/ports/STM32/LLD/USARTv2/hal_serial_lld.h"
 2088              		.file 39 "ChibiOS/os/hal/include/hal_spi.h"
 2089              		.file 40 "ChibiOS/os/hal/ports/STM32/LLD/SPIv2/hal_spi_lld.h"
 2090              		.file 41 "ChibiOS/os/hal/include/hal_usb.h"
 2091              		.file 42 "ChibiOS/os/hal/ports/STM32/LLD/USBv1/hal_usb_lld.h"
 2092              		.file 43 "ChibiOS/os/hal/include/hal_usb_cdc.h"
 2093              		.file 44 "ChibiOS/os/hal/include/hal_serial_usb.h"