ARM GAS  /tmp/ccikjwH0.s 			page 1


   1              		.cpu cortex-m0
   2              		.eabi_attribute 20, 1
   3              		.eabi_attribute 21, 1
   4              		.eabi_attribute 23, 3
   5              		.eabi_attribute 24, 1
   6              		.eabi_attribute 25, 1
   7              		.eabi_attribute 26, 1
   8              		.eabi_attribute 30, 2
   9              		.eabi_attribute 34, 0
  10              		.eabi_attribute 18, 4
  11              		.file	"hal_pal.c"
  12              		.text
  13              	.Ltext0:
  14              		.cfi_sections	.debug_frame
  15              		.section	.text.palReadBus,"ax",%progbits
  16              		.align	1
  17              		.p2align 4,,15
  18              		.global	palReadBus
  19              		.arch armv6s-m
  20              		.syntax unified
  21              		.code	16
  22              		.thumb_func
  23              		.fpu softvfp
  24              		.type	palReadBus, %function
  25              	palReadBus:
  26              	.LVL0:
  27              	.LFB151:
  28              		.file 1 "ChibiOS/os/hal/src/hal_pal.c"
  29              		.loc 1 65 37 view -0
  30              		.cfi_startproc
  31              		@ args = 0, pretend = 0, frame = 0
  32              		@ frame_needed = 0, uses_anonymous_args = 0
  33              		@ link register save eliminated.
  34              		.loc 1 67 3 view .LVU1
  35              		.loc 1 67 3 view .LVU2
  36              		.loc 1 69 3 view .LVU3
  37              		.loc 1 69 10 is_stmt 0 view .LVU4
  38 0000 0368     		ldr	r3, [r0]
  39 0002 8268     		ldr	r2, [r0, #8]
  40 0004 1B69     		ldr	r3, [r3, #16]
  41 0006 4068     		ldr	r0, [r0, #4]
  42              	.LVL1:
  43              		.loc 1 69 10 view .LVU5
  44 0008 D340     		lsrs	r3, r3, r2
  45              		.loc 1 70 1 view .LVU6
  46              		@ sp needed
  47              		.loc 1 69 10 view .LVU7
  48 000a 1840     		ands	r0, r3
  49              		.loc 1 70 1 view .LVU8
  50 000c 7047     		bx	lr
  51              		.cfi_endproc
  52              	.LFE151:
  53              		.size	palReadBus, .-palReadBus
  54 000e C046     		.section	.text.palWriteBus,"ax",%progbits
  55              		.align	1
  56              		.p2align 4,,15
  57              		.global	palWriteBus
ARM GAS  /tmp/ccikjwH0.s 			page 2


  58              		.syntax unified
  59              		.code	16
  60              		.thumb_func
  61              		.fpu softvfp
  62              		.type	palWriteBus, %function
  63              	palWriteBus:
  64              	.LVL2:
  65              	.LFB152:
  66              		.loc 1 90 49 is_stmt 1 view -0
  67              		.cfi_startproc
  68              		@ args = 0, pretend = 0, frame = 0
  69              		@ frame_needed = 0, uses_anonymous_args = 0
  70              		.loc 1 92 3 view .LVU10
  71              		.loc 1 92 3 view .LVU11
  72              		.loc 1 94 3 view .LVU12
  73              		.loc 1 90 49 is_stmt 0 view .LVU13
  74 0000 30B5     		push	{r4, r5, lr}
  75              		.cfi_def_cfa_offset 12
  76              		.cfi_offset 4, -12
  77              		.cfi_offset 5, -8
  78              		.cfi_offset 14, -4
  79              		.loc 1 94 3 view .LVU14
  80 0002 4368     		ldr	r3, [r0, #4]
  81 0004 8468     		ldr	r4, [r0, #8]
  82 0006 1A00     		movs	r2, r3
  83 0008 2500     		movs	r5, r4
  84 000a 8A43     		bics	r2, r1
  85 000c 1035     		adds	r5, r5, #16
  86 000e 0B40     		ands	r3, r1
  87 0010 AA40     		lsls	r2, r2, r5
  88 0012 A340     		lsls	r3, r3, r4
  89 0014 0068     		ldr	r0, [r0]
  90              	.LVL3:
  91              		.loc 1 94 3 view .LVU15
  92 0016 1343     		orrs	r3, r2
  93 0018 8361     		str	r3, [r0, #24]
  94              		.loc 1 95 1 view .LVU16
  95              		@ sp needed
  96 001a 30BD     		pop	{r4, r5, pc}
  97              		.cfi_endproc
  98              	.LFE152:
  99              		.size	palWriteBus, .-palWriteBus
 100              		.section	.text.palSetBusMode,"ax",%progbits
 101              		.align	1
 102              		.p2align 4,,15
 103              		.global	palSetBusMode
 104              		.syntax unified
 105              		.code	16
 106              		.thumb_func
 107              		.fpu softvfp
 108              		.type	palSetBusMode, %function
 109              	palSetBusMode:
 110              	.LVL4:
 111              	.LFB153:
 112              		.loc 1 113 47 is_stmt 1 view -0
 113              		.cfi_startproc
 114              		@ args = 0, pretend = 0, frame = 0
ARM GAS  /tmp/ccikjwH0.s 			page 3


 115              		@ frame_needed = 0, uses_anonymous_args = 0
 116              		.loc 1 115 3 view .LVU18
 117              		.loc 1 115 3 view .LVU19
 118              		.loc 1 117 3 view .LVU20
 119              		.loc 1 113 47 is_stmt 0 view .LVU21
 120 0000 10B5     		push	{r4, lr}
 121              		.cfi_def_cfa_offset 8
 122              		.cfi_offset 4, -8
 123              		.cfi_offset 14, -4
 124              		.loc 1 117 3 view .LVU22
 125 0002 8368     		ldr	r3, [r0, #8]
 126              		.loc 1 113 47 view .LVU23
 127 0004 0A00     		movs	r2, r1
 128              		.loc 1 117 3 view .LVU24
 129 0006 4168     		ldr	r1, [r0, #4]
 130              	.LVL5:
 131              		.loc 1 117 3 view .LVU25
 132 0008 0068     		ldr	r0, [r0]
 133              	.LVL6:
 134              		.loc 1 117 3 view .LVU26
 135 000a 9940     		lsls	r1, r1, r3
 136 000c FFF7FEFF 		bl	_pal_lld_setgroupmode
 137              	.LVL7:
 138              		.loc 1 118 1 view .LVU27
 139              		@ sp needed
 140 0010 10BD     		pop	{r4, pc}
 141              		.cfi_endproc
 142              	.LFE153:
 143              		.size	palSetBusMode, .-palSetBusMode
 144 0012 C046     		.text
 145              	.Letext0:
 146              		.file 2 "/opt/nanovna/gcc-arm-none-eabi-8-2018-q4-major/lib/gcc/arm-none-eabi/8.2.1/include/stddef
 147              		.file 3 "/opt/nanovna/gcc-arm-none-eabi-8-2018-q4-major/arm-none-eabi/include/machine/_default_typ
 148              		.file 4 "/opt/nanovna/gcc-arm-none-eabi-8-2018-q4-major/arm-none-eabi/include/sys/_stdint.h"
 149              		.file 5 "/opt/nanovna/gcc-arm-none-eabi-8-2018-q4-major/arm-none-eabi/include/stdint.h"
 150              		.file 6 "ChibiOS/os/common/ports/ARMCMx/compilers/GCC/chtypes.h"
 151              		.file 7 "ChibiOS/os/rt/include/chsystypes.h"
 152              		.file 8 "ChibiOS/os/rt/include/chschd.h"
 153              		.file 9 "ChibiOS/os/common/ext/CMSIS/ST/STM32F0xx/stm32f072xb.h"
 154              		.file 10 "ChibiOS/os/common/ports/ARMCMx/chcore.h"
 155              		.file 11 "ChibiOS/os/common/ports/ARMCMx/chcore_v6m.h"
 156              		.file 12 "ChibiOS/os/hal/ports/STM32/LLD/TIMv1/stm32_tim.h"
 157              		.file 13 "ChibiOS/os/rt/include/chmtx.h"
 158              		.file 14 "ChibiOS/os/common/ext/CMSIS/ST/STM32F0xx/system_stm32f0xx.h"
 159              		.file 15 "ChibiOS/os/rt/include/chsys.h"
 160              		.file 16 "ChibiOS/os/rt/include/chregistry.h"
 161              		.file 17 "ChibiOS/os/rt/include/chevents.h"
 162              		.file 18 "ChibiOS/os/hal/ports/STM32/LLD/DMAv1/stm32_dma.h"
 163              		.file 19 "ChibiOS/os/hal/include/hal_queues.h"
 164              		.file 20 "ChibiOS/os/hal/ports/STM32/LLD/GPIOv2/hal_pal_lld.h"
 165              		.file 21 "ChibiOS/os/hal/include/hal_pal.h"
 166              		.file 22 "ChibiOS/os/hal/include/hal_ext.h"
 167              		.file 23 "ChibiOS/os/hal/ports/STM32/LLD/EXTIv1/hal_ext_lld.h"
 168              		.file 24 "ChibiOS/os/hal/include/hal_gpt.h"
 169              		.file 25 "ChibiOS/os/hal/ports/STM32/LLD/TIMv1/hal_gpt_lld.h"
 170              		.file 26 "ChibiOS/os/hal/include/hal_i2c.h"
 171              		.file 27 "ChibiOS/os/hal/ports/STM32/LLD/I2Cv2/hal_i2c_lld.h"
ARM GAS  /tmp/ccikjwH0.s 			page 4


 172              		.file 28 "ChibiOS/os/hal/include/hal_i2s.h"
 173              		.file 29 "ChibiOS/os/hal/ports/STM32/LLD/SPIv2/hal_i2s_lld.h"
 174              		.file 30 "/opt/nanovna/gcc-arm-none-eabi-8-2018-q4-major/arm-none-eabi/include/sys/lock.h"
 175              		.file 31 "/opt/nanovna/gcc-arm-none-eabi-8-2018-q4-major/arm-none-eabi/include/sys/_types.h"
 176              		.file 32 "/opt/nanovna/gcc-arm-none-eabi-8-2018-q4-major/arm-none-eabi/include/sys/reent.h"
 177              		.file 33 "/opt/nanovna/gcc-arm-none-eabi-8-2018-q4-major/arm-none-eabi/include/time.h"
 178              		.file 34 "ChibiOS/os/hal/include/hal_rtc.h"
 179              		.file 35 "ChibiOS/os/hal/ports/STM32/LLD/RTCv2/hal_rtc_lld.h"
 180              		.file 36 "ChibiOS/os/hal/include/hal_serial.h"
 181              		.file 37 "ChibiOS/os/hal/ports/STM32/LLD/USARTv2/hal_serial_lld.h"
 182              		.file 38 "ChibiOS/os/hal/include/hal_spi.h"
 183              		.file 39 "ChibiOS/os/hal/ports/STM32/LLD/SPIv2/hal_spi_lld.h"
 184              		.file 40 "ChibiOS/os/hal/include/hal_usb.h"
 185              		.file 41 "ChibiOS/os/hal/ports/STM32/LLD/USBv1/hal_usb_lld.h"