ARM GAS  /tmp/ccg55U4E.s 			page 1


   1              		.cpu cortex-m0
   2              		.eabi_attribute 20, 1
   3              		.eabi_attribute 21, 1
   4              		.eabi_attribute 23, 3
   5              		.eabi_attribute 24, 1
   6              		.eabi_attribute 25, 1
   7              		.eabi_attribute 26, 1
   8              		.eabi_attribute 30, 2
   9              		.eabi_attribute 34, 0
  10              		.eabi_attribute 18, 4
  11              		.file	"hal_st.c"
  12              		.text
  13              	.Ltext0:
  14              		.cfi_sections	.debug_frame
  15              		.section	.text.stInit,"ax",%progbits
  16              		.align	1
  17              		.p2align 4,,15
  18              		.global	stInit
  19              		.arch armv6s-m
  20              		.syntax unified
  21              		.code	16
  22              		.thumb_func
  23              		.fpu softvfp
  24              		.type	stInit, %function
  25              	stInit:
  26              	.LFB151:
  27              		.file 1 "ChibiOS/os/hal/src/hal_st.c"
  28              		.loc 1 60 19 view -0
  29              		.cfi_startproc
  30              		@ args = 0, pretend = 0, frame = 0
  31              		@ frame_needed = 0, uses_anonymous_args = 0
  32              		.loc 1 62 3 view .LVU1
  33              		.loc 1 60 19 is_stmt 0 view .LVU2
  34 0000 10B5     		push	{r4, lr}
  35              		.cfi_def_cfa_offset 8
  36              		.cfi_offset 4, -8
  37              		.cfi_offset 14, -4
  38              		.loc 1 62 3 view .LVU3
  39 0002 FFF7FEFF 		bl	st_lld_init
  40              	.LVL0:
  41              		.loc 1 63 1 view .LVU4
  42              		@ sp needed
  43 0006 10BD     		pop	{r4, pc}
  44              		.cfi_endproc
  45              	.LFE151:
  46              		.size	stInit, .-stInit
  47              		.section	.text.stStartAlarm,"ax",%progbits
  48              		.align	1
  49              		.p2align 4,,15
  50              		.global	stStartAlarm
  51              		.syntax unified
  52              		.code	16
  53              		.thumb_func
  54              		.fpu softvfp
  55              		.type	stStartAlarm, %function
  56              	stStartAlarm:
  57              	.LVL1:
ARM GAS  /tmp/ccg55U4E.s 			page 2


  58              	.LFB152:
  59              		.loc 1 77 38 is_stmt 1 view -0
  60              		.cfi_startproc
  61              		@ args = 0, pretend = 0, frame = 0
  62              		@ frame_needed = 0, uses_anonymous_args = 0
  63              		@ link register save eliminated.
  64              		.loc 1 79 3 view .LVU6
  65              		.loc 1 79 3 view .LVU7
  66              		.loc 1 81 3 view .LVU8
  67              	.LBB10:
  68              	.LBI10:
  69              		.file 2 "ChibiOS/os/hal/ports/STM32/LLD/TIMv1/hal_st_lld.h"
  70              		.loc 2 153 20 view .LVU9
  71              	.LBB11:
  72              		.loc 2 155 3 view .LVU10
  73              		.loc 2 155 24 is_stmt 0 view .LVU11
  74 0000 8023     		movs	r3, #128
  75              		.loc 2 156 24 view .LVU12
  76 0002 0022     		movs	r2, #0
  77              		.loc 2 155 24 view .LVU13
  78 0004 DB05     		lsls	r3, r3, #23
  79 0006 5863     		str	r0, [r3, #52]
  80              		.loc 2 156 3 is_stmt 1 view .LVU14
  81              		.loc 2 156 24 is_stmt 0 view .LVU15
  82 0008 1A61     		str	r2, [r3, #16]
  83              		.loc 2 157 3 is_stmt 1 view .LVU16
  84              		.loc 2 157 24 is_stmt 0 view .LVU17
  85 000a 0232     		adds	r2, r2, #2
  86 000c DA60     		str	r2, [r3, #12]
  87              	.LVL2:
  88              		.loc 2 157 24 view .LVU18
  89              	.LBE11:
  90              	.LBE10:
  91              		.loc 1 82 1 view .LVU19
  92              		@ sp needed
  93 000e 7047     		bx	lr
  94              		.cfi_endproc
  95              	.LFE152:
  96              		.size	stStartAlarm, .-stStartAlarm
  97              		.section	.text.stStopAlarm,"ax",%progbits
  98              		.align	1
  99              		.p2align 4,,15
 100              		.global	stStopAlarm
 101              		.syntax unified
 102              		.code	16
 103              		.thumb_func
 104              		.fpu softvfp
 105              		.type	stStopAlarm, %function
 106              	stStopAlarm:
 107              	.LFB153:
 108              		.loc 1 91 24 is_stmt 1 view -0
 109              		.cfi_startproc
 110              		@ args = 0, pretend = 0, frame = 0
 111              		@ frame_needed = 0, uses_anonymous_args = 0
 112              		@ link register save eliminated.
 113              		.loc 1 93 3 view .LVU21
 114              	.LBB12:
ARM GAS  /tmp/ccg55U4E.s 			page 3


 115              	.LBI12:
 116              		.loc 2 165 20 view .LVU22
 117              	.LBB13:
 118              		.loc 2 167 3 view .LVU23
 119              		.loc 2 167 22 is_stmt 0 view .LVU24
 120 0000 8023     		movs	r3, #128
 121 0002 0022     		movs	r2, #0
 122 0004 DB05     		lsls	r3, r3, #23
 123 0006 DA60     		str	r2, [r3, #12]
 124              	.LBE13:
 125              	.LBE12:
 126              		.loc 1 94 1 view .LVU25
 127              		@ sp needed
 128 0008 7047     		bx	lr
 129              		.cfi_endproc
 130              	.LFE153:
 131              		.size	stStopAlarm, .-stStopAlarm
 132 000a C046     		.section	.text.stSetAlarm,"ax",%progbits
 133              		.align	1
 134              		.p2align 4,,15
 135              		.global	stSetAlarm
 136              		.syntax unified
 137              		.code	16
 138              		.thumb_func
 139              		.fpu softvfp
 140              		.type	stSetAlarm, %function
 141              	stSetAlarm:
 142              	.LVL3:
 143              	.LFB154:
 144              		.loc 1 105 36 is_stmt 1 view -0
 145              		.cfi_startproc
 146              		@ args = 0, pretend = 0, frame = 0
 147              		@ frame_needed = 0, uses_anonymous_args = 0
 148              		@ link register save eliminated.
 149              		.loc 1 107 3 view .LVU27
 150              		.loc 1 107 3 view .LVU28
 151              		.loc 1 109 3 view .LVU29
 152              	.LBB14:
 153              	.LBI14:
 154              		.loc 2 177 20 view .LVU30
 155              	.LBB15:
 156              		.loc 2 179 3 view .LVU31
 157              		.loc 2 179 24 is_stmt 0 view .LVU32
 158 0000 8023     		movs	r3, #128
 159 0002 DB05     		lsls	r3, r3, #23
 160 0004 5863     		str	r0, [r3, #52]
 161              	.LVL4:
 162              		.loc 2 179 24 view .LVU33
 163              	.LBE15:
 164              	.LBE14:
 165              		.loc 1 110 1 view .LVU34
 166              		@ sp needed
 167 0006 7047     		bx	lr
 168              		.cfi_endproc
 169              	.LFE154:
 170              		.size	stSetAlarm, .-stSetAlarm
 171              		.section	.text.stGetAlarm,"ax",%progbits
ARM GAS  /tmp/ccg55U4E.s 			page 4


 172              		.align	1
 173              		.p2align 4,,15
 174              		.global	stGetAlarm
 175              		.syntax unified
 176              		.code	16
 177              		.thumb_func
 178              		.fpu softvfp
 179              		.type	stGetAlarm, %function
 180              	stGetAlarm:
 181              	.LFB155:
 182              		.loc 1 121 28 is_stmt 1 view -0
 183              		.cfi_startproc
 184              		@ args = 0, pretend = 0, frame = 0
 185              		@ frame_needed = 0, uses_anonymous_args = 0
 186              		@ link register save eliminated.
 187              		.loc 1 123 3 view .LVU36
 188              		.loc 1 123 3 view .LVU37
 189              		.loc 1 125 3 view .LVU38
 190              	.LBB16:
 191              	.LBI16:
 192              		.loc 2 189 25 view .LVU39
 193              	.LBB17:
 194              		.loc 2 191 3 view .LVU40
 195              		.loc 2 191 10 is_stmt 0 view .LVU41
 196 0000 8023     		movs	r3, #128
 197 0002 DB05     		lsls	r3, r3, #23
 198 0004 586B     		ldr	r0, [r3, #52]
 199              	.LBE17:
 200              	.LBE16:
 201              		.loc 1 126 1 view .LVU42
 202              		@ sp needed
 203 0006 7047     		bx	lr
 204              		.cfi_endproc
 205              	.LFE155:
 206              		.size	stGetAlarm, .-stGetAlarm
 207              		.text
 208              	.Letext0:
 209              		.file 3 "/opt/nanovna/gcc-arm-none-eabi-8-2018-q4-major/lib/gcc/arm-none-eabi/8.2.1/include/stddef
 210              		.file 4 "/opt/nanovna/gcc-arm-none-eabi-8-2018-q4-major/arm-none-eabi/include/machine/_default_typ
 211              		.file 5 "/opt/nanovna/gcc-arm-none-eabi-8-2018-q4-major/arm-none-eabi/include/sys/_stdint.h"
 212              		.file 6 "ChibiOS/os/common/ports/ARMCMx/compilers/GCC/chtypes.h"
 213              		.file 7 "ChibiOS/os/rt/include/chsystypes.h"
 214              		.file 8 "ChibiOS/os/rt/include/chschd.h"
 215              		.file 9 "ChibiOS/os/common/ext/CMSIS/ST/STM32F0xx/stm32f072xb.h"
 216              		.file 10 "ChibiOS/os/common/ports/ARMCMx/chcore.h"
 217              		.file 11 "ChibiOS/os/common/ports/ARMCMx/chcore_v6m.h"
 218              		.file 12 "ChibiOS/os/hal/ports/STM32/LLD/TIMv1/stm32_tim.h"
 219              		.file 13 "ChibiOS/os/rt/include/chmtx.h"
 220              		.file 14 "ChibiOS/os/common/ext/CMSIS/ST/STM32F0xx/system_stm32f0xx.h"
 221              		.file 15 "ChibiOS/os/rt/include/chsys.h"
 222              		.file 16 "ChibiOS/os/rt/include/chregistry.h"
 223              		.file 17 "ChibiOS/os/rt/include/chevents.h"
 224              		.file 18 "ChibiOS/os/hal/ports/STM32/LLD/DMAv1/stm32_dma.h"
 225              		.file 19 "ChibiOS/os/hal/include/hal_queues.h"
 226              		.file 20 "ChibiOS/os/hal/ports/STM32/LLD/GPIOv2/hal_pal_lld.h"
 227              		.file 21 "ChibiOS/os/hal/include/hal_ext.h"
 228              		.file 22 "ChibiOS/os/hal/ports/STM32/LLD/EXTIv1/hal_ext_lld.h"
ARM GAS  /tmp/ccg55U4E.s 			page 5


 229              		.file 23 "ChibiOS/os/hal/include/hal_gpt.h"
 230              		.file 24 "ChibiOS/os/hal/ports/STM32/LLD/TIMv1/hal_gpt_lld.h"
 231              		.file 25 "ChibiOS/os/hal/include/hal_i2c.h"
 232              		.file 26 "ChibiOS/os/hal/ports/STM32/LLD/I2Cv2/hal_i2c_lld.h"
 233              		.file 27 "ChibiOS/os/hal/include/hal_i2s.h"
 234              		.file 28 "ChibiOS/os/hal/ports/STM32/LLD/SPIv2/hal_i2s_lld.h"
 235              		.file 29 "/opt/nanovna/gcc-arm-none-eabi-8-2018-q4-major/arm-none-eabi/include/sys/lock.h"
 236              		.file 30 "/opt/nanovna/gcc-arm-none-eabi-8-2018-q4-major/arm-none-eabi/include/sys/_types.h"
 237              		.file 31 "/opt/nanovna/gcc-arm-none-eabi-8-2018-q4-major/arm-none-eabi/include/sys/reent.h"
 238              		.file 32 "/opt/nanovna/gcc-arm-none-eabi-8-2018-q4-major/arm-none-eabi/include/time.h"
 239              		.file 33 "ChibiOS/os/hal/include/hal_rtc.h"
 240              		.file 34 "ChibiOS/os/hal/ports/STM32/LLD/RTCv2/hal_rtc_lld.h"
 241              		.file 35 "ChibiOS/os/hal/include/hal_serial.h"
 242              		.file 36 "ChibiOS/os/hal/ports/STM32/LLD/USARTv2/hal_serial_lld.h"
 243              		.file 37 "ChibiOS/os/hal/include/hal_spi.h"
 244              		.file 38 "ChibiOS/os/hal/ports/STM32/LLD/SPIv2/hal_spi_lld.h"
 245              		.file 39 "ChibiOS/os/hal/include/hal_usb.h"
 246              		.file 40 "ChibiOS/os/hal/ports/STM32/LLD/USBv1/hal_usb_lld.h"