ARM GAS  /tmp/ccMOnaqg.s 			page 1


   1              		.cpu cortex-m0
   2              		.eabi_attribute 20, 1
   3              		.eabi_attribute 21, 1
   4              		.eabi_attribute 23, 3
   5              		.eabi_attribute 24, 1
   6              		.eabi_attribute 25, 1
   7              		.eabi_attribute 26, 1
   8              		.eabi_attribute 30, 2
   9              		.eabi_attribute 34, 0
  10              		.eabi_attribute 18, 4
  11              		.file	"hal_i2c_lld.c"
  12              		.text
  13              	.Ltext0:
  14              		.cfi_sections	.debug_frame
  15              		.section	.text.Vector9C,"ax",%progbits
  16              		.align	1
  17              		.p2align 4,,15
  18              		.global	Vector9C
  19              		.arch armv6s-m
  20              		.syntax unified
  21              		.code	16
  22              		.thumb_func
  23              		.fpu softvfp
  24              		.type	Vector9C, %function
  25              	Vector9C:
  26              	.LFB157:
  27              		.file 1 "ChibiOS/os/hal/ports/STM32/LLD/I2Cv2/hal_i2c_lld.c"
  28              		.loc 1 400 45 view -0
  29              		.cfi_startproc
  30              		@ args = 0, pretend = 0, frame = 0
  31              		@ frame_needed = 0, uses_anonymous_args = 0
  32              		.loc 1 401 3 view .LVU1
  33              		.loc 1 408 11 is_stmt 0 view .LVU2
  34 0000 FC21     		movs	r1, #252
  35              		.loc 1 401 23 view .LVU3
  36 0002 7948     		ldr	r0, .L68
  37              		.loc 1 400 45 view .LVU4
  38 0004 F8B5     		push	{r3, r4, r5, r6, r7, lr}
  39              		.cfi_def_cfa_offset 24
  40              		.cfi_offset 3, -24
  41              		.cfi_offset 4, -20
  42              		.cfi_offset 5, -16
  43              		.cfi_offset 6, -12
  44              		.cfi_offset 7, -8
  45              		.cfi_offset 14, -4
  46              		.loc 1 401 23 view .LVU5
  47 0006 426B     		ldr	r2, [r0, #52]
  48              		.loc 1 408 11 view .LVU6
  49 0008 8901     		lsls	r1, r1, #6
  50              		.loc 1 401 12 view .LVU7
  51 000a 9369     		ldr	r3, [r2, #24]
  52              	.LVL0:
  53              		.loc 1 403 3 is_stmt 1 view .LVU8
  54 000c 7446     		mov	r4, lr
  55              	.LVL1:
  56              		.loc 1 403 3 view .LVU9
  57              		.loc 1 403 3 view .LVU10
ARM GAS  /tmp/ccMOnaqg.s 			page 2


  58              		.loc 1 403 3 view .LVU11
  59              		.loc 1 403 3 view .LVU12
  60              		.loc 1 403 22 view .LVU13
  61              		.loc 1 406 3 view .LVU14
  62              		.loc 1 406 8 is_stmt 0 view .LVU15
  63 000e 1500     		movs	r5, r2
  64              		.loc 1 406 18 view .LVU16
  65 0010 D361     		str	r3, [r2, #28]
  66              		.loc 1 408 3 is_stmt 1 view .LVU17
  67              		.loc 1 408 6 is_stmt 0 view .LVU18
  68 0012 0B42     		tst	r3, r1
  69 0014 29D1     		bne	.L61
  70              		.loc 1 410 8 is_stmt 1 view .LVU19
  71              		.loc 1 410 16 is_stmt 0 view .LVU20
  72 0016 FE21     		movs	r1, #254
  73              		.loc 1 410 11 view .LVU21
  74 0018 1942     		tst	r1, r3
  75 001a 03D1     		bne	.L62
  76              	.LVL2:
  77              	.L10:
  78              		.loc 1 413 3 is_stmt 1 view .LVU22
  79              		.loc 1 413 3 view .LVU23
  80              		.loc 1 413 3 view .LVU24
  81              		.loc 1 413 3 view .LVU25
  82              		.loc 1 413 3 view .LVU26
  83 001c 2000     		movs	r0, r4
  84 001e FFF7FEFF 		bl	_port_irq_epilogue
  85              	.LVL3:
  86              		.loc 1 414 1 is_stmt 0 view .LVU27
  87              		@ sp needed
  88              	.LVL4:
  89              		.loc 1 414 1 view .LVU28
  90 0022 F8BD     		pop	{r3, r4, r5, r6, r7, pc}
  91              	.LVL5:
  92              	.L62:
  93              		.loc 1 411 5 is_stmt 1 view .LVU29
  94              	.LBB310:
  95              	.LBI310:
  96              		.loc 1 234 13 view .LVU30
  97              	.LBB311:
  98              		.loc 1 235 3 view .LVU31
  99              		.loc 1 238 3 view .LVU32
 100              		.loc 1 238 6 is_stmt 0 view .LVU33
 101 0024 D906     		lsls	r1, r3, #27
 102 0026 00D5     		bpl	.LCB74
 103 0028 86E0     		b	.L63	@long jump
 104              	.LCB74:
 105              	.LBB312:
 106              		.loc 1 263 5 is_stmt 1 view .LVU34
 107              		.loc 1 265 8 is_stmt 0 view .LVU35
 108 002a 0678     		ldrb	r6, [r0]
 109              		.loc 1 263 14 view .LVU36
 110 002c 1168     		ldr	r1, [r2]
 111              	.LVL6:
 112              		.loc 1 265 5 is_stmt 1 view .LVU37
 113              		.loc 1 265 8 is_stmt 0 view .LVU38
 114 002e 032E     		cmp	r6, #3
ARM GAS  /tmp/ccMOnaqg.s 			page 3


 115 0030 49D0     		beq	.L64
 116              		.loc 1 278 7 is_stmt 1 view .LVU39
 117              		.loc 1 278 17 is_stmt 0 view .LVU40
 118 0032 0426     		movs	r6, #4
 119              		.loc 1 278 10 view .LVU41
 120 0034 0E42     		tst	r6, r1
 121 0036 41D0     		beq	.L17
 122              		.loc 1 278 40 view .LVU42
 123 0038 1E42     		tst	r6, r3
 124 003a 3FD0     		beq	.L17
 125              		.loc 1 279 9 is_stmt 1 view .LVU43
 126              		.loc 1 279 35 is_stmt 0 view .LVU44
 127 003c 516A     		ldr	r1, [r2, #36]
 128              	.LVL7:
 129              		.loc 1 279 24 view .LVU45
 130 003e C56A     		ldr	r5, [r0, #44]
 131 0040 2970     		strb	r1, [r5]
 132              		.loc 1 280 9 is_stmt 1 view .LVU46
 133              		.loc 1 280 20 is_stmt 0 view .LVU47
 134 0042 C16A     		ldr	r1, [r0, #44]
 135 0044 0131     		adds	r1, r1, #1
 136 0046 C162     		str	r1, [r0, #44]
 137              		.loc 1 281 9 is_stmt 1 view .LVU48
 138              		.loc 1 281 22 is_stmt 0 view .LVU49
 139 0048 016B     		ldr	r1, [r0, #48]
 140 004a 0139     		subs	r1, r1, #1
 141 004c 0163     		str	r1, [r0, #48]
 142              		.loc 1 282 9 is_stmt 1 view .LVU50
 143              		.loc 1 282 12 is_stmt 0 view .LVU51
 144 004e 0029     		cmp	r1, #0
 145 0050 02D1     		bne	.L18
 146              		.loc 1 283 11 is_stmt 1 view .LVU52
 147              		.loc 1 283 19 is_stmt 0 view .LVU53
 148 0052 1568     		ldr	r5, [r2]
 149 0054 B543     		bics	r5, r6
 150 0056 1560     		str	r5, [r2]
 151              	.L18:
 152              		.loc 1 283 19 view .LVU54
 153              	.LBE312:
 154              		.loc 1 291 3 is_stmt 1 view .LVU55
 155              		.loc 1 291 6 is_stmt 0 view .LVU56
 156 0058 1D06     		lsls	r5, r3, #24
 157 005a 00D5     		bpl	.LCB123
 158 005c 80E0     		b	.L65	@long jump
 159              	.LCB123:
 160              		.loc 1 302 3 is_stmt 1 view .LVU57
 161              		.loc 1 302 6 is_stmt 0 view .LVU58
 162 005e 5B06     		lsls	r3, r3, #25
 163 0060 DCD5     		bpl	.L10
 164              	.LVL8:
 165              		.loc 1 303 5 is_stmt 1 view .LVU59
 166              		.loc 1 303 8 is_stmt 0 view .LVU60
 167 0062 0378     		ldrb	r3, [r0]
 168 0064 032B     		cmp	r3, #3
 169 0066 54D0     		beq	.L27
 170 0068 56E0     		b	.L23
 171              	.LVL9:
ARM GAS  /tmp/ccMOnaqg.s 			page 4


 172              	.L61:
 173              		.loc 1 303 8 view .LVU61
 174              	.LBE311:
 175              	.LBE310:
 176              		.loc 1 409 5 is_stmt 1 view .LVU62
 177              	.LBB413:
 178              	.LBI413:
 179              		.loc 1 361 13 view .LVU63
 180              	.LBB414:
 181              		.loc 1 369 3 view .LVU64
 182              		.loc 1 369 18 is_stmt 0 view .LVU65
 183 006a 0625     		movs	r5, #6
 184 006c 1168     		ldr	r1, [r2]
 185 006e A943     		bics	r1, r5
 186 0070 1160     		str	r1, [r2]
 187              		.loc 1 372 3 is_stmt 1 view .LVU66
 188 0072 8268     		ldr	r2, [r0, #8]
 189              		.loc 1 372 6 is_stmt 0 view .LVU67
 190 0074 D905     		lsls	r1, r3, #23
 191 0076 02D5     		bpl	.L3
 192              		.loc 1 373 5 is_stmt 1 view .LVU68
 193              		.loc 1 373 18 is_stmt 0 view .LVU69
 194 0078 0121     		movs	r1, #1
 195 007a 0A43     		orrs	r2, r1
 196 007c 8260     		str	r2, [r0, #8]
 197              	.L3:
 198              		.loc 1 375 3 is_stmt 1 view .LVU70
 199              		.loc 1 375 6 is_stmt 0 view .LVU71
 200 007e 9905     		lsls	r1, r3, #22
 201 0080 02D5     		bpl	.L4
 202              		.loc 1 376 5 is_stmt 1 view .LVU72
 203              		.loc 1 376 18 is_stmt 0 view .LVU73
 204 0082 0221     		movs	r1, #2
 205 0084 0A43     		orrs	r2, r1
 206 0086 8260     		str	r2, [r0, #8]
 207              	.L4:
 208              		.loc 1 378 3 is_stmt 1 view .LVU74
 209 0088 8021     		movs	r1, #128
 210 008a 4901     		lsls	r1, r1, #5
 211 008c 1940     		ands	r1, r3
 212              		.loc 1 378 6 is_stmt 0 view .LVU75
 213 008e 5B05     		lsls	r3, r3, #21
 214 0090 0FD5     		bpl	.L5
 215              	.LVL10:
 216              		.loc 1 379 5 is_stmt 1 view .LVU76
 217              		.loc 1 379 18 is_stmt 0 view .LVU77
 218 0092 0823     		movs	r3, #8
 219 0094 1A43     		orrs	r2, r3
 220 0096 8260     		str	r2, [r0, #8]
 221              		.loc 1 381 3 is_stmt 1 view .LVU78
 222              		.loc 1 381 6 is_stmt 0 view .LVU79
 223 0098 0029     		cmp	r1, #0
 224 009a 02D0     		beq	.L7
 225              	.L6:
 226              		.loc 1 382 5 is_stmt 1 view .LVU80
 227              		.loc 1 382 18 is_stmt 0 view .LVU81
 228 009c 2023     		movs	r3, #32
ARM GAS  /tmp/ccMOnaqg.s 			page 5


 229 009e 1A43     		orrs	r2, r3
 230 00a0 8260     		str	r2, [r0, #8]
 231              		.loc 1 385 3 is_stmt 1 view .LVU82
 232              	.L7:
 233              		.loc 1 386 5 view .LVU83
 234              		.loc 1 386 5 view .LVU84
 235              	.LBB415:
 236              	.LBI415:
 237              		.file 2 "ChibiOS/os/hal/osal/rt/osal.h"
 238              		.loc 2 513 20 view .LVU85
 239              	.LBE415:
 240              	.LBE414:
 241              	.LBE413:
 242              		.loc 2 515 3 view .LVU86
 243              	.LBB458:
 244              	.LBB449:
 245              	.LBB427:
 246              	.LBB416:
 247              	.LBI416:
 248              		.file 3 "ChibiOS/os/rt/include/chsys.h"
 249              		.loc 3 414 20 view .LVU87
 250              	.LBE416:
 251              	.LBE427:
 252              	.LBE449:
 253              	.LBE458:
 254              		.loc 3 416 3 view .LVU88
 255              	.LBB459:
 256              	.LBB450:
 257              	.LBB428:
 258              	.LBB424:
 259              	.LBB417:
 260              	.LBI417:
 261              		.file 4 "ChibiOS/os/common/ports/ARMCMx/chcore_v6m.h"
 262              		.loc 4 390 20 view .LVU89
 263              	.LBE417:
 264              	.LBE424:
 265              	.LBE428:
 266              	.LBE450:
 267              	.LBE459:
 268              		.loc 4 392 3 view .LVU90
 269              	.LBB460:
 270              	.LBB451:
 271              	.LBB429:
 272              	.LBB425:
 273              	.LBB422:
 274              	.LBB418:
 275              	.LBI418:
 276              		.loc 4 371 20 view .LVU91
 277              	.LBE418:
 278              	.LBE422:
 279              	.LBE425:
 280              	.LBE429:
 281              	.LBE451:
 282              	.LBE460:
 283              		.loc 4 373 3 view .LVU92
 284              	.LBB461:
 285              	.LBB452:
ARM GAS  /tmp/ccMOnaqg.s 			page 6


 286              	.LBB430:
 287              	.LBB426:
 288              	.LBB423:
 289              	.LBB421:
 290              	.LBB419:
 291              	.LBI419:
 292              		.file 5 "ChibiOS/os/common/ext/CMSIS/include/core_cmFunc.h"
 293              		.loc 5 342 57 view .LVU93
 294              	.LBB420:
 295              		.loc 5 344 3 view .LVU94
 296              		.syntax divided
 297              	@ 344 "ChibiOS/os/common/ext/CMSIS/include/core_cmFunc.h" 1
 298 00a2 72B6     		cpsid i
 299              	@ 0 "" 2
 300              		.thumb
 301              		.syntax unified
 302              	.LBE420:
 303              	.LBE419:
 304              	.LBE421:
 305              	.LBE423:
 306              	.LBE426:
 307              	.LBE430:
 308              	.LBE452:
 309              	.LBE461:
 310              		.loc 3 417 34 view .LVU95
 311              		.loc 3 418 29 view .LVU96
 312              	.LBB462:
 313              	.LBB453:
 314              		.loc 1 386 5 view .LVU97
 315              	.LVL11:
 316              	.LBB431:
 317              	.LBI431:
 318              		.loc 2 726 20 view .LVU98
 319              	.LBB432:
 320              		.loc 2 728 3 view .LVU99
 321 00a4 0221     		movs	r1, #2
 322 00a6 2030     		adds	r0, r0, #32
 323 00a8 4942     		rsbs	r1, r1, #0
 324 00aa FFF7FEFF 		bl	chThdResumeI
 325              	.LVL12:
 326              		.loc 2 728 3 is_stmt 0 view .LVU100
 327              	.LBE432:
 328              	.LBE431:
 329              		.loc 1 386 5 is_stmt 1 view .LVU101
 330              	.LBB433:
 331              	.LBI433:
 332              		.loc 2 524 20 view .LVU102
 333              	.LBE433:
 334              	.LBE453:
 335              	.LBE462:
 336              		.loc 2 526 3 view .LVU103
 337              	.LBB463:
 338              	.LBB454:
 339              	.LBB445:
 340              	.LBB434:
 341              	.LBI434:
 342              		.loc 3 434 20 view .LVU104
ARM GAS  /tmp/ccMOnaqg.s 			page 7


 343              	.LBE434:
 344              	.LBE445:
 345              	.LBE454:
 346              	.LBE463:
 347              		.loc 3 436 31 view .LVU105
 348              		.loc 3 437 33 view .LVU106
 349              		.loc 3 438 3 view .LVU107
 350              	.LBB464:
 351              	.LBB455:
 352              	.LBB446:
 353              	.LBB442:
 354              	.LBB435:
 355              	.LBI435:
 356              		.loc 4 400 20 view .LVU108
 357              	.LBE435:
 358              	.LBE442:
 359              	.LBE446:
 360              	.LBE455:
 361              	.LBE464:
 362              		.loc 4 402 3 view .LVU109
 363              	.LBB465:
 364              	.LBB456:
 365              	.LBB447:
 366              	.LBB443:
 367              	.LBB440:
 368              	.LBB436:
 369              	.LBI436:
 370              		.loc 4 380 20 view .LVU110
 371              	.LBE436:
 372              	.LBE440:
 373              	.LBE443:
 374              	.LBE447:
 375              	.LBE456:
 376              	.LBE465:
 377              		.loc 4 382 3 view .LVU111
 378              	.LBB466:
 379              	.LBB457:
 380              	.LBB448:
 381              	.LBB444:
 382              	.LBB441:
 383              	.LBB439:
 384              	.LBB437:
 385              	.LBI437:
 386              		.loc 5 331 57 view .LVU112
 387              	.LBB438:
 388              		.loc 5 333 3 view .LVU113
 389              		.syntax divided
 390              	@ 333 "ChibiOS/os/common/ext/CMSIS/include/core_cmFunc.h" 1
 391 00ae 62B6     		cpsie i
 392              	@ 0 "" 2
 393              		.thumb
 394              		.syntax unified
 395 00b0 B4E7     		b	.L10
 396              	.L5:
 397              		.loc 5 333 3 is_stmt 0 view .LVU114
 398              	.LBE438:
 399              	.LBE437:
ARM GAS  /tmp/ccMOnaqg.s 			page 8


 400              	.LBE439:
 401              	.LBE441:
 402              	.LBE444:
 403              	.LBE448:
 404              		.loc 1 381 3 is_stmt 1 view .LVU115
 405              		.loc 1 381 6 is_stmt 0 view .LVU116
 406 00b2 0029     		cmp	r1, #0
 407 00b4 F2D1     		bne	.L6
 408              		.loc 1 385 3 is_stmt 1 view .LVU117
 409              		.loc 1 385 6 is_stmt 0 view .LVU118
 410 00b6 002A     		cmp	r2, #0
 411 00b8 B0D0     		beq	.L10
 412 00ba F2E7     		b	.L7
 413              	.LVL13:
 414              	.L17:
 415              		.loc 1 385 6 view .LVU119
 416              	.LBE457:
 417              	.LBE466:
 418              	.LBB467:
 419              	.LBB394:
 420              		.loc 1 291 3 is_stmt 1 view .LVU120
 421              		.loc 1 291 6 is_stmt 0 view .LVU121
 422 00bc 1906     		lsls	r1, r3, #24
 423 00be 5BD4     		bmi	.L66
 424              	.LVL14:
 425              		.loc 1 302 3 is_stmt 1 view .LVU122
 426              		.loc 1 302 6 is_stmt 0 view .LVU123
 427 00c0 5B06     		lsls	r3, r3, #25
 428 00c2 ABD5     		bpl	.L10
 429              	.LVL15:
 430              		.loc 1 302 6 view .LVU124
 431 00c4 28E0     		b	.L23
 432              	.LVL16:
 433              	.L64:
 434              	.LBB313:
 435              		.loc 1 267 7 is_stmt 1 view .LVU125
 436              		.loc 1 267 17 is_stmt 0 view .LVU126
 437 00c6 013E     		subs	r6, r6, #1
 438              		.loc 1 267 10 view .LVU127
 439 00c8 0E42     		tst	r6, r1
 440 00ca 1DD0     		beq	.L14
 441              		.loc 1 267 39 view .LVU128
 442 00cc 1E42     		tst	r6, r3
 443 00ce 1BD0     		beq	.L14
 444              		.loc 1 268 9 is_stmt 1 view .LVU129
 445              		.loc 1 268 35 is_stmt 0 view .LVU130
 446 00d0 416A     		ldr	r1, [r0, #36]
 447              	.LVL17:
 448              		.loc 1 268 20 view .LVU131
 449 00d2 0F78     		ldrb	r7, [r1]
 450              		.loc 1 269 20 view .LVU132
 451 00d4 0131     		adds	r1, r1, #1
 452 00d6 4162     		str	r1, [r0, #36]
 453              		.loc 1 270 22 view .LVU133
 454 00d8 816A     		ldr	r1, [r0, #40]
 455              		.loc 1 268 18 view .LVU134
 456 00da 9762     		str	r7, [r2, #40]
ARM GAS  /tmp/ccMOnaqg.s 			page 9


 457              		.loc 1 269 9 is_stmt 1 view .LVU135
 458              		.loc 1 270 9 view .LVU136
 459              		.loc 1 270 22 is_stmt 0 view .LVU137
 460 00dc 0139     		subs	r1, r1, #1
 461 00de 8162     		str	r1, [r0, #40]
 462              		.loc 1 271 9 is_stmt 1 view .LVU138
 463              		.loc 1 271 12 is_stmt 0 view .LVU139
 464 00e0 0029     		cmp	r1, #0
 465 00e2 11D1     		bne	.L14
 466              		.loc 1 272 11 is_stmt 1 view .LVU140
 467              		.loc 1 272 19 is_stmt 0 view .LVU141
 468 00e4 1168     		ldr	r1, [r2]
 469 00e6 B143     		bics	r1, r6
 470 00e8 1160     		str	r1, [r2]
 471              	.LBE313:
 472              		.loc 1 291 3 is_stmt 1 view .LVU142
 473              		.loc 1 291 6 is_stmt 0 view .LVU143
 474 00ea 1906     		lsls	r1, r3, #24
 475 00ec 0ED5     		bpl	.L16
 476              		.loc 1 293 7 is_stmt 1 view .LVU144
 477              	.LVL18:
 478              	.LBB314:
 479              	.LBI314:
 480              		.loc 1 178 13 view .LVU145
 481              	.LBB315:
 482              		.loc 1 179 3 view .LVU146
 483              		.loc 1 180 3 view .LVU147
 484              		.loc 1 181 3 view .LVU148
 485              		.loc 1 184 3 view .LVU149
 486              		.loc 1 184 5 is_stmt 0 view .LVU150
 487 00ee 826A     		ldr	r2, [r0, #40]
 488              	.LVL19:
 489              		.loc 1 185 3 is_stmt 1 view .LVU151
 490              	.L28:
 491              		.loc 1 190 12 is_stmt 0 view .LVU152
 492 00f0 0021     		movs	r1, #0
 493 00f2 1204     		lsls	r2, r2, #16
 494              	.LVL20:
 495              	.L21:
 496              		.loc 1 195 3 is_stmt 1 view .LVU153
 497              		.loc 1 195 74 is_stmt 0 view .LVU154
 498 00f4 4068     		ldr	r0, [r0, #4]
 499              		.loc 1 195 16 view .LVU155
 500 00f6 6B68     		ldr	r3, [r5, #4]
 501              		.loc 1 195 22 view .LVU156
 502 00f8 3C4E     		ldr	r6, .L68+4
 503              		.loc 1 195 60 view .LVU157
 504 00fa 8068     		ldr	r0, [r0, #8]
 505              		.loc 1 195 22 view .LVU158
 506 00fc 3340     		ands	r3, r6
 507              		.loc 1 195 60 view .LVU159
 508 00fe 0343     		orrs	r3, r0
 509              		.loc 1 196 24 view .LVU160
 510 0100 0B43     		orrs	r3, r1
 511 0102 1343     		orrs	r3, r2
 512              		.loc 1 195 11 view .LVU161
 513 0104 6B60     		str	r3, [r5, #4]
ARM GAS  /tmp/ccMOnaqg.s 			page 10


 514 0106 89E7     		b	.L10
 515              	.LVL21:
 516              	.L14:
 517              		.loc 1 195 11 view .LVU162
 518              	.LBE315:
 519              	.LBE314:
 520              		.loc 1 291 3 is_stmt 1 view .LVU163
 521              		.loc 1 291 6 is_stmt 0 view .LVU164
 522 0108 1906     		lsls	r1, r3, #24
 523 010a 2DD4     		bmi	.L26
 524              	.L16:
 525              		.loc 1 302 3 is_stmt 1 view .LVU165
 526              		.loc 1 302 6 is_stmt 0 view .LVU166
 527 010c 5B06     		lsls	r3, r3, #25
 528 010e 00D4     		bmi	.LCB498
 529 0110 84E7     		b	.L10	@long jump
 530              	.LCB498:
 531              	.LVL22:
 532              	.L27:
 533              		.loc 1 312 7 is_stmt 1 view .LVU167
 534              		.loc 1 312 11 is_stmt 0 view .LVU168
 535 0112 036B     		ldr	r3, [r0, #48]
 536              		.loc 1 312 10 view .LVU169
 537 0114 002B     		cmp	r3, #0
 538 0116 46D1     		bne	.L67
 539              	.L23:
 540              		.loc 1 340 5 is_stmt 1 view .LVU170
 541              		.loc 1 343 5 view .LVU171
 542              		.loc 1 343 13 is_stmt 0 view .LVU172
 543 0118 8023     		movs	r3, #128
 544 011a 5168     		ldr	r1, [r2, #4]
 545 011c DB01     		lsls	r3, r3, #7
 546 011e 0B43     		orrs	r3, r1
 547              		.loc 1 346 13 view .LVU173
 548 0120 4021     		movs	r1, #64
 549              		.loc 1 343 13 view .LVU174
 550 0122 5360     		str	r3, [r2, #4]
 551              		.loc 1 346 5 is_stmt 1 view .LVU175
 552              		.loc 1 346 13 is_stmt 0 view .LVU176
 553 0124 1368     		ldr	r3, [r2]
 554 0126 8B43     		bics	r3, r1
 555 0128 1360     		str	r3, [r2]
 556              		.loc 1 349 5 is_stmt 1 view .LVU177
 557              		.loc 1 349 5 view .LVU178
 558              	.LBB317:
 559              	.LBI317:
 560              		.loc 2 513 20 view .LVU179
 561              	.LBE317:
 562              	.LBE394:
 563              	.LBE467:
 564              		.loc 2 515 3 view .LVU180
 565              	.LBB468:
 566              	.LBB395:
 567              	.LBB329:
 568              	.LBB318:
 569              	.LBI318:
 570              		.loc 3 414 20 view .LVU181
ARM GAS  /tmp/ccMOnaqg.s 			page 11


 571              	.LBE318:
 572              	.LBE329:
 573              	.LBE395:
 574              	.LBE468:
 575              		.loc 3 416 3 view .LVU182
 576              	.LBB469:
 577              	.LBB396:
 578              	.LBB330:
 579              	.LBB326:
 580              	.LBB319:
 581              	.LBI319:
 582              		.loc 4 390 20 view .LVU183
 583              	.LBE319:
 584              	.LBE326:
 585              	.LBE330:
 586              	.LBE396:
 587              	.LBE469:
 588              		.loc 4 392 3 view .LVU184
 589              	.LBB470:
 590              	.LBB397:
 591              	.LBB331:
 592              	.LBB327:
 593              	.LBB324:
 594              	.LBB320:
 595              	.LBI320:
 596              		.loc 4 371 20 view .LVU185
 597              	.LBE320:
 598              	.LBE324:
 599              	.LBE327:
 600              	.LBE331:
 601              	.LBE397:
 602              	.LBE470:
 603              		.loc 4 373 3 view .LVU186
 604              	.LBB471:
 605              	.LBB398:
 606              	.LBB332:
 607              	.LBB328:
 608              	.LBB325:
 609              	.LBB323:
 610              	.LBB321:
 611              	.LBI321:
 612              		.loc 5 342 57 view .LVU187
 613              	.LBB322:
 614              		.loc 5 344 3 view .LVU188
 615              		.syntax divided
 616              	@ 344 "ChibiOS/os/common/ext/CMSIS/include/core_cmFunc.h" 1
 617 012a 72B6     		cpsid i
 618              	@ 0 "" 2
 619              		.thumb
 620              		.syntax unified
 621              	.LBE322:
 622              	.LBE321:
 623              	.LBE323:
 624              	.LBE325:
 625              	.LBE328:
 626              	.LBE332:
 627              	.LBE398:
ARM GAS  /tmp/ccMOnaqg.s 			page 12


 628              	.LBE471:
 629              		.loc 3 417 34 view .LVU189
 630              		.loc 3 418 29 view .LVU190
 631              	.LBB472:
 632              	.LBB399:
 633              		.loc 1 349 5 view .LVU191
 634              	.LVL23:
 635              	.LBB333:
 636              	.LBI333:
 637              		.loc 2 726 20 view .LVU192
 638              	.LBB334:
 639              		.loc 2 728 3 view .LVU193
 640 012c 0021     		movs	r1, #0
 641 012e 2030     		adds	r0, r0, #32
 642 0130 FFF7FEFF 		bl	chThdResumeI
 643              	.LVL24:
 644              		.loc 2 728 3 is_stmt 0 view .LVU194
 645              	.LBE334:
 646              	.LBE333:
 647              		.loc 1 349 5 is_stmt 1 view .LVU195
 648              	.LBB335:
 649              	.LBI335:
 650              		.loc 2 524 20 view .LVU196
 651              	.LBE335:
 652              	.LBE399:
 653              	.LBE472:
 654              		.loc 2 526 3 view .LVU197
 655              	.LBB473:
 656              	.LBB400:
 657              	.LBB347:
 658              	.LBB336:
 659              	.LBI336:
 660              		.loc 3 434 20 view .LVU198
 661              	.LBE336:
 662              	.LBE347:
 663              	.LBE400:
 664              	.LBE473:
 665              		.loc 3 436 31 view .LVU199
 666              		.loc 3 437 33 view .LVU200
 667              		.loc 3 438 3 view .LVU201
 668              	.LBB474:
 669              	.LBB401:
 670              	.LBB348:
 671              	.LBB344:
 672              	.LBB337:
 673              	.LBI337:
 674              		.loc 4 400 20 view .LVU202
 675              	.LBE337:
 676              	.LBE344:
 677              	.LBE348:
 678              	.LBE401:
 679              	.LBE474:
 680              		.loc 4 402 3 view .LVU203
 681              	.LBB475:
 682              	.LBB402:
 683              	.LBB349:
 684              	.LBB345:
ARM GAS  /tmp/ccMOnaqg.s 			page 13


 685              	.LBB342:
 686              	.LBB338:
 687              	.LBI338:
 688              		.loc 4 380 20 view .LVU204
 689              	.LBE338:
 690              	.LBE342:
 691              	.LBE345:
 692              	.LBE349:
 693              	.LBE402:
 694              	.LBE475:
 695              		.loc 4 382 3 view .LVU205
 696              	.LBB476:
 697              	.LBB403:
 698              	.LBB350:
 699              	.LBB346:
 700              	.LBB343:
 701              	.LBB341:
 702              	.LBB339:
 703              	.LBI339:
 704              		.loc 5 331 57 view .LVU206
 705              	.LBB340:
 706              		.loc 5 333 3 view .LVU207
 707              		.syntax divided
 708              	@ 333 "ChibiOS/os/common/ext/CMSIS/include/core_cmFunc.h" 1
 709 0134 62B6     		cpsie i
 710              	@ 0 "" 2
 711              		.thumb
 712              		.syntax unified
 713 0136 71E7     		b	.L10
 714              	.LVL25:
 715              	.L63:
 716              		.loc 5 333 3 is_stmt 0 view .LVU208
 717              	.LBE340:
 718              	.LBE339:
 719              	.LBE341:
 720              	.LBE343:
 721              	.LBE346:
 722              	.LBE350:
 723              		.loc 1 246 5 is_stmt 1 view .LVU209
 724              		.loc 1 246 18 is_stmt 0 view .LVU210
 725 0138 0423     		movs	r3, #4
 726              	.LVL26:
 727              		.loc 1 246 18 view .LVU211
 728 013a 8168     		ldr	r1, [r0, #8]
 729 013c 0B43     		orrs	r3, r1
 730 013e 8360     		str	r3, [r0, #8]
 731              		.loc 1 249 5 is_stmt 1 view .LVU212
 732              		.loc 1 249 13 is_stmt 0 view .LVU213
 733 0140 8023     		movs	r3, #128
 734 0142 5168     		ldr	r1, [r2, #4]
 735 0144 DB01     		lsls	r3, r3, #7
 736 0146 0B43     		orrs	r3, r1
 737              		.loc 1 252 13 view .LVU214
 738 0148 4621     		movs	r1, #70
 739              		.loc 1 249 13 view .LVU215
 740 014a 5360     		str	r3, [r2, #4]
 741              	.LVL27:
ARM GAS  /tmp/ccMOnaqg.s 			page 14


 742              		.loc 1 252 5 is_stmt 1 view .LVU216
 743              		.loc 1 252 13 is_stmt 0 view .LVU217
 744 014c 1368     		ldr	r3, [r2]
 745 014e 8B43     		bics	r3, r1
 746 0150 1360     		str	r3, [r2]
 747              		.loc 1 255 5 is_stmt 1 view .LVU218
 748              		.loc 1 255 5 view .LVU219
 749              	.LBB351:
 750              	.LBI351:
 751              		.loc 2 513 20 view .LVU220
 752              	.LBE351:
 753              	.LBE403:
 754              	.LBE476:
 755              		.loc 2 515 3 view .LVU221
 756              	.LBB477:
 757              	.LBB404:
 758              	.LBB363:
 759              	.LBB352:
 760              	.LBI352:
 761              		.loc 3 414 20 view .LVU222
 762              	.LBE352:
 763              	.LBE363:
 764              	.LBE404:
 765              	.LBE477:
 766              		.loc 3 416 3 view .LVU223
 767              	.LBB478:
 768              	.LBB405:
 769              	.LBB364:
 770              	.LBB360:
 771              	.LBB353:
 772              	.LBI353:
 773              		.loc 4 390 20 view .LVU224
 774              	.LBE353:
 775              	.LBE360:
 776              	.LBE364:
 777              	.LBE405:
 778              	.LBE478:
 779              		.loc 4 392 3 view .LVU225
 780              	.LBB479:
 781              	.LBB406:
 782              	.LBB365:
 783              	.LBB361:
 784              	.LBB358:
 785              	.LBB354:
 786              	.LBI354:
 787              		.loc 4 371 20 view .LVU226
 788              	.LBE354:
 789              	.LBE358:
 790              	.LBE361:
 791              	.LBE365:
 792              	.LBE406:
 793              	.LBE479:
 794              		.loc 4 373 3 view .LVU227
 795              	.LBB480:
 796              	.LBB407:
 797              	.LBB366:
 798              	.LBB362:
ARM GAS  /tmp/ccMOnaqg.s 			page 15


 799              	.LBB359:
 800              	.LBB357:
 801              	.LBB355:
 802              	.LBI355:
 803              		.loc 5 342 57 view .LVU228
 804              	.LBB356:
 805              		.loc 5 344 3 view .LVU229
 806              		.syntax divided
 807              	@ 344 "ChibiOS/os/common/ext/CMSIS/include/core_cmFunc.h" 1
 808 0152 72B6     		cpsid i
 809              	@ 0 "" 2
 810              		.thumb
 811              		.syntax unified
 812              	.LBE356:
 813              	.LBE355:
 814              	.LBE357:
 815              	.LBE359:
 816              	.LBE362:
 817              	.LBE366:
 818              	.LBE407:
 819              	.LBE480:
 820              		.loc 3 417 34 view .LVU230
 821              		.loc 3 418 29 view .LVU231
 822              	.LBB481:
 823              	.LBB408:
 824              		.loc 1 255 5 view .LVU232
 825              	.LVL28:
 826              	.LBB367:
 827              	.LBI367:
 828              		.loc 2 726 20 view .LVU233
 829              	.LBB368:
 830              		.loc 2 728 3 view .LVU234
 831 0154 2030     		adds	r0, r0, #32
 832 0156 4839     		subs	r1, r1, #72
 833 0158 FFF7FEFF 		bl	chThdResumeI
 834              	.LVL29:
 835              		.loc 2 728 3 is_stmt 0 view .LVU235
 836              	.LBE368:
 837              	.LBE367:
 838              		.loc 1 255 5 is_stmt 1 view .LVU236
 839              	.LBB369:
 840              	.LBI369:
 841              		.loc 2 524 20 view .LVU237
 842              	.LBE369:
 843              	.LBE408:
 844              	.LBE481:
 845              		.loc 2 526 3 view .LVU238
 846              	.LBB482:
 847              	.LBB409:
 848              	.LBB381:
 849              	.LBB370:
 850              	.LBI370:
 851              		.loc 3 434 20 view .LVU239
 852              	.LBE370:
 853              	.LBE381:
 854              	.LBE409:
 855              	.LBE482:
ARM GAS  /tmp/ccMOnaqg.s 			page 16


 856              		.loc 3 436 31 view .LVU240
 857              		.loc 3 437 33 view .LVU241
 858              		.loc 3 438 3 view .LVU242
 859              	.LBB483:
 860              	.LBB410:
 861              	.LBB382:
 862              	.LBB378:
 863              	.LBB371:
 864              	.LBI371:
 865              		.loc 4 400 20 view .LVU243
 866              	.LBE371:
 867              	.LBE378:
 868              	.LBE382:
 869              	.LBE410:
 870              	.LBE483:
 871              		.loc 4 402 3 view .LVU244
 872              	.LBB484:
 873              	.LBB411:
 874              	.LBB383:
 875              	.LBB379:
 876              	.LBB376:
 877              	.LBB372:
 878              	.LBI372:
 879              		.loc 4 380 20 view .LVU245
 880              	.LBE372:
 881              	.LBE376:
 882              	.LBE379:
 883              	.LBE383:
 884              	.LBE411:
 885              	.LBE484:
 886              		.loc 4 382 3 view .LVU246
 887              	.LBB485:
 888              	.LBB412:
 889              	.LBB384:
 890              	.LBB380:
 891              	.LBB377:
 892              	.LBB375:
 893              	.LBB373:
 894              	.LBI373:
 895              		.loc 5 331 57 view .LVU247
 896              	.LBB374:
 897              		.loc 5 333 3 view .LVU248
 898              		.syntax divided
 899              	@ 333 "ChibiOS/os/common/ext/CMSIS/include/core_cmFunc.h" 1
 900 015c 62B6     		cpsie i
 901              	@ 0 "" 2
 902              		.thumb
 903              		.syntax unified
 904              	.LBE374:
 905              	.LBE373:
 906              	.LBE375:
 907              	.LBE377:
 908              	.LBE380:
 909              	.LBE384:
 910              		.loc 1 257 5 view .LVU249
 911 015e 5DE7     		b	.L10
 912              	.LVL30:
ARM GAS  /tmp/ccMOnaqg.s 			page 17


 913              	.L65:
 914              		.loc 1 292 5 view .LVU250
 915              		.loc 1 292 8 is_stmt 0 view .LVU251
 916 0160 0378     		ldrb	r3, [r0]
 917              	.LVL31:
 918              		.loc 1 292 8 view .LVU252
 919 0162 456B     		ldr	r5, [r0, #52]
 920 0164 032B     		cmp	r3, #3
 921 0166 08D1     		bne	.L20
 922              	.L26:
 923              		.loc 1 293 7 is_stmt 1 view .LVU253
 924              	.LVL32:
 925              	.LBB385:
 926              		.loc 1 178 13 view .LVU254
 927              	.LBB316:
 928              		.loc 1 179 3 view .LVU255
 929              		.loc 1 180 3 view .LVU256
 930              		.loc 1 181 3 view .LVU257
 931              		.loc 1 184 3 view .LVU258
 932              		.loc 1 184 5 is_stmt 0 view .LVU259
 933 0168 826A     		ldr	r2, [r0, #40]
 934              	.LVL33:
 935              		.loc 1 185 3 is_stmt 1 view .LVU260
 936              		.loc 1 185 6 is_stmt 0 view .LVU261
 937 016a FF2A     		cmp	r2, #255
 938 016c C0D9     		bls	.L28
 939 016e FF22     		movs	r2, #255
 940              	.LVL34:
 941              		.loc 1 187 12 view .LVU262
 942 0170 8021     		movs	r1, #128
 943              		.loc 1 185 6 view .LVU263
 944 0172 1204     		lsls	r2, r2, #16
 945              		.loc 1 187 12 view .LVU264
 946 0174 4904     		lsls	r1, r1, #17
 947 0176 BDE7     		b	.L21
 948              	.LVL35:
 949              	.L66:
 950              		.loc 1 187 12 view .LVU265
 951 0178 016B     		ldr	r1, [r0, #48]
 952              	.LVL36:
 953              	.L20:
 954              		.loc 1 187 12 view .LVU266
 955              	.LBE316:
 956              	.LBE385:
 957              		.loc 1 296 7 is_stmt 1 view .LVU267
 958              	.LBB386:
 959              	.LBI386:
 960              		.loc 1 150 13 view .LVU268
 961              	.LBB387:
 962              		.loc 1 151 3 view .LVU269
 963              		.loc 1 152 3 view .LVU270
 964              		.loc 1 153 3 view .LVU271
 965              		.loc 1 156 3 view .LVU272
 966              		.loc 1 157 3 view .LVU273
 967              		.loc 1 157 6 is_stmt 0 view .LVU274
 968 017a FF29     		cmp	r1, #255
 969 017c 0ED8     		bhi	.L30
ARM GAS  /tmp/ccMOnaqg.s 			page 18


 970              		.loc 1 162 12 view .LVU275
 971 017e 0026     		movs	r6, #0
 972 0180 0904     		lsls	r1, r1, #16
 973              	.L22:
 974              	.LVL37:
 975              		.loc 1 167 3 is_stmt 1 view .LVU276
 976              		.loc 1 167 74 is_stmt 0 view .LVU277
 977 0182 4268     		ldr	r2, [r0, #4]
 978              	.LVL38:
 979              		.loc 1 167 16 view .LVU278
 980 0184 6B68     		ldr	r3, [r5, #4]
 981              		.loc 1 168 28 view .LVU279
 982 0186 9268     		ldr	r2, [r2, #8]
 983 0188 1143     		orrs	r1, r2
 984              		.loc 1 167 22 view .LVU280
 985 018a 184A     		ldr	r2, .L68+4
 986 018c 1340     		ands	r3, r2
 987              		.loc 1 168 28 view .LVU281
 988 018e 1943     		orrs	r1, r3
 989              		.loc 1 168 41 view .LVU282
 990 0190 8023     		movs	r3, #128
 991 0192 3143     		orrs	r1, r6
 992 0194 DB00     		lsls	r3, r3, #3
 993 0196 1943     		orrs	r1, r3
 994              		.loc 1 167 11 view .LVU283
 995 0198 6960     		str	r1, [r5, #4]
 996 019a 3FE7     		b	.L10
 997              	.LVL39:
 998              	.L30:
 999              		.loc 1 157 6 view .LVU284
 1000 019c FF21     		movs	r1, #255
 1001              		.loc 1 159 12 view .LVU285
 1002 019e 8026     		movs	r6, #128
 1003              		.loc 1 157 6 view .LVU286
 1004 01a0 0904     		lsls	r1, r1, #16
 1005              		.loc 1 159 12 view .LVU287
 1006 01a2 7604     		lsls	r6, r6, #17
 1007 01a4 EDE7     		b	.L22
 1008              	.LVL40:
 1009              	.L67:
 1010              		.loc 1 159 12 view .LVU288
 1011              	.LBE387:
 1012              	.LBE386:
 1013              		.loc 1 314 9 is_stmt 1 view .LVU289
 1014              	.LBB388:
 1015              	.LBI388:
 1016              		.loc 1 150 13 view .LVU290
 1017              	.LBB389:
 1018              		.loc 1 151 3 view .LVU291
 1019              		.loc 1 151 16 is_stmt 0 view .LVU292
 1020 01a6 466B     		ldr	r6, [r0, #52]
 1021              	.LVL41:
 1022              		.loc 1 152 3 is_stmt 1 view .LVU293
 1023              		.loc 1 153 3 view .LVU294
 1024              		.loc 1 156 3 view .LVU295
 1025              		.loc 1 157 3 view .LVU296
 1026              		.loc 1 157 6 is_stmt 0 view .LVU297
ARM GAS  /tmp/ccMOnaqg.s 			page 19


 1027 01a8 FF2B     		cmp	r3, #255
 1028 01aa 18D8     		bhi	.L31
 1029              		.loc 1 162 12 view .LVU298
 1030 01ac 0021     		movs	r1, #0
 1031 01ae 1B04     		lsls	r3, r3, #16
 1032              	.LVL42:
 1033              	.L24:
 1034              		.loc 1 167 3 is_stmt 1 view .LVU299
 1035              		.loc 1 167 74 is_stmt 0 view .LVU300
 1036 01b0 4768     		ldr	r7, [r0, #4]
 1037              		.loc 1 167 16 view .LVU301
 1038 01b2 7568     		ldr	r5, [r6, #4]
 1039              		.loc 1 168 41 view .LVU302
 1040 01b4 BF68     		ldr	r7, [r7, #8]
 1041 01b6 3943     		orrs	r1, r7
 1042              	.LVL43:
 1043              		.loc 1 167 22 view .LVU303
 1044 01b8 0C4F     		ldr	r7, .L68+4
 1045 01ba 3D40     		ands	r5, r7
 1046              		.loc 1 168 41 view .LVU304
 1047 01bc 2943     		orrs	r1, r5
 1048 01be 0B43     		orrs	r3, r1
 1049 01c0 8021     		movs	r1, #128
 1050 01c2 C900     		lsls	r1, r1, #3
 1051 01c4 0B43     		orrs	r3, r1
 1052              	.LBE389:
 1053              	.LBE388:
 1054              		.loc 1 321 17 view .LVU305
 1055 01c6 0421     		movs	r1, #4
 1056              	.LBB392:
 1057              	.LBB390:
 1058              		.loc 1 167 11 view .LVU306
 1059 01c8 7360     		str	r3, [r6, #4]
 1060              	.LVL44:
 1061              		.loc 1 167 11 view .LVU307
 1062              	.LBE390:
 1063              	.LBE392:
 1064              		.loc 1 321 9 is_stmt 1 view .LVU308
 1065              		.loc 1 321 17 is_stmt 0 view .LVU309
 1066 01ca 1368     		ldr	r3, [r2]
 1067 01cc 0B43     		orrs	r3, r1
 1068 01ce 1360     		str	r3, [r2]
 1069              		.loc 1 325 9 is_stmt 1 view .LVU310
 1070              		.loc 1 325 17 is_stmt 0 view .LVU311
 1071 01d0 8023     		movs	r3, #128
 1072 01d2 5568     		ldr	r5, [r2, #4]
 1073 01d4 9B01     		lsls	r3, r3, #6
 1074 01d6 2B43     		orrs	r3, r5
 1075 01d8 5360     		str	r3, [r2, #4]
 1076              		.loc 1 328 9 is_stmt 1 view .LVU312
 1077              		.loc 1 328 21 is_stmt 0 view .LVU313
 1078 01da 0170     		strb	r1, [r0]
 1079              		.loc 1 331 9 is_stmt 1 view .LVU314
 1080 01dc 1EE7     		b	.L10
 1081              	.LVL45:
 1082              	.L31:
 1083              	.LBB393:
ARM GAS  /tmp/ccMOnaqg.s 			page 20


 1084              	.LBB391:
 1085              		.loc 1 157 6 is_stmt 0 view .LVU315
 1086 01de FF23     		movs	r3, #255
 1087              	.LVL46:
 1088              		.loc 1 159 12 view .LVU316
 1089 01e0 8021     		movs	r1, #128
 1090              		.loc 1 157 6 view .LVU317
 1091 01e2 1B04     		lsls	r3, r3, #16
 1092              		.loc 1 159 12 view .LVU318
 1093 01e4 4904     		lsls	r1, r1, #17
 1094 01e6 E3E7     		b	.L24
 1095              	.L69:
 1096              		.align	2
 1097              	.L68:
 1098 01e8 00000000 		.word	.LANCHOR0
 1099 01ec FFFF00FE 		.word	-33488897
 1100              	.LBE391:
 1101              	.LBE393:
 1102              	.LBE412:
 1103              	.LBE485:
 1104              		.cfi_endproc
 1105              	.LFE157:
 1106              		.size	Vector9C, .-Vector9C
 1107              		.section	.text.i2c_lld_init,"ax",%progbits
 1108              		.align	1
 1109              		.p2align 4,,15
 1110              		.global	i2c_lld_init
 1111              		.syntax unified
 1112              		.code	16
 1113              		.thumb_func
 1114              		.fpu softvfp
 1115              		.type	i2c_lld_init, %function
 1116              	i2c_lld_init:
 1117              	.LFB158:
 1118              		.loc 1 622 25 is_stmt 1 view -0
 1119              		.cfi_startproc
 1120              		@ args = 0, pretend = 0, frame = 0
 1121              		@ frame_needed = 0, uses_anonymous_args = 0
 1122              		.loc 1 625 3 view .LVU320
 1123              		.loc 1 622 25 is_stmt 0 view .LVU321
 1124 0000 10B5     		push	{r4, lr}
 1125              		.cfi_def_cfa_offset 8
 1126              		.cfi_offset 4, -8
 1127              		.cfi_offset 14, -4
 1128              		.loc 1 625 3 view .LVU322
 1129 0002 044C     		ldr	r4, .L71
 1130              		.loc 1 663 1 view .LVU323
 1131              		@ sp needed
 1132              		.loc 1 625 3 view .LVU324
 1133 0004 2000     		movs	r0, r4
 1134 0006 FFF7FEFF 		bl	i2cObjectInit
 1135              	.LVL47:
 1136              		.loc 1 626 3 is_stmt 1 view .LVU325
 1137              		.loc 1 626 16 is_stmt 0 view .LVU326
 1138 000a 0023     		movs	r3, #0
 1139 000c 2362     		str	r3, [r4, #32]
 1140              		.loc 1 627 3 is_stmt 1 view .LVU327
ARM GAS  /tmp/ccMOnaqg.s 			page 21


 1141              		.loc 1 627 16 is_stmt 0 view .LVU328
 1142 000e 024B     		ldr	r3, .L71+4
 1143 0010 6363     		str	r3, [r4, #52]
 1144              		.loc 1 663 1 view .LVU329
 1145 0012 10BD     		pop	{r4, pc}
 1146              	.L72:
 1147              		.align	2
 1148              	.L71:
 1149 0014 00000000 		.word	.LANCHOR0
 1150 0018 00540040 		.word	1073763328
 1151              		.cfi_endproc
 1152              	.LFE158:
 1153              		.size	i2c_lld_init, .-i2c_lld_init
 1154              		.section	.text.i2c_lld_start,"ax",%progbits
 1155              		.align	1
 1156              		.p2align 4,,15
 1157              		.global	i2c_lld_start
 1158              		.syntax unified
 1159              		.code	16
 1160              		.thumb_func
 1161              		.fpu softvfp
 1162              		.type	i2c_lld_start, %function
 1163              	i2c_lld_start:
 1164              	.LVL48:
 1165              	.LFB159:
 1166              		.loc 1 672 37 is_stmt 1 view -0
 1167              		.cfi_startproc
 1168              		@ args = 0, pretend = 0, frame = 0
 1169              		@ frame_needed = 0, uses_anonymous_args = 0
 1170              		.loc 1 673 3 view .LVU331
 1171              		.loc 1 682 11 is_stmt 0 view .LVU332
 1172 0000 0122     		movs	r2, #1
 1173              		.loc 1 672 37 view .LVU333
 1174 0002 70B5     		push	{r4, r5, r6, lr}
 1175              		.cfi_def_cfa_offset 16
 1176              		.cfi_offset 4, -16
 1177              		.cfi_offset 5, -12
 1178              		.cfi_offset 6, -8
 1179              		.cfi_offset 14, -4
 1180              		.loc 1 673 16 view .LVU334
 1181 0004 446B     		ldr	r4, [r0, #52]
 1182              	.LVL49:
 1183              		.loc 1 682 3 is_stmt 1 view .LVU335
 1184              		.loc 1 672 37 is_stmt 0 view .LVU336
 1185 0006 0500     		movs	r5, r0
 1186              		.loc 1 682 11 view .LVU337
 1187 0008 2368     		ldr	r3, [r4]
 1188 000a 9343     		bics	r3, r2
 1189 000c 2360     		str	r3, [r4]
 1190              		.loc 1 685 3 is_stmt 1 view .LVU338
 1191              		.loc 1 685 6 is_stmt 0 view .LVU339
 1192 000e 0378     		ldrb	r3, [r0]
 1193 0010 012B     		cmp	r3, #1
 1194 0012 0BD0     		beq	.L75
 1195              	.LVL50:
 1196              	.L74:
 1197              		.loc 1 847 3 is_stmt 1 view .LVU340
ARM GAS  /tmp/ccMOnaqg.s 			page 22


 1198              		.loc 1 851 27 is_stmt 0 view .LVU341
 1199 0014 9023     		movs	r3, #144
 1200              		.loc 1 847 17 view .LVU342
 1201 0016 6A68     		ldr	r2, [r5, #4]
 1202              		.loc 1 858 1 view .LVU343
 1203              		@ sp needed
 1204              		.loc 1 851 27 view .LVU344
 1205 0018 5168     		ldr	r1, [r2, #4]
 1206 001a 0B43     		orrs	r3, r1
 1207              		.loc 1 847 11 view .LVU345
 1208 001c 2360     		str	r3, [r4]
 1209              		.loc 1 854 3 is_stmt 1 view .LVU346
 1210              		.loc 1 854 29 is_stmt 0 view .LVU347
 1211 001e 1368     		ldr	r3, [r2]
 1212              		.loc 1 857 11 view .LVU348
 1213 0020 0122     		movs	r2, #1
 1214              		.loc 1 854 15 view .LVU349
 1215 0022 2361     		str	r3, [r4, #16]
 1216              		.loc 1 857 3 is_stmt 1 view .LVU350
 1217              		.loc 1 857 11 is_stmt 0 view .LVU351
 1218 0024 2368     		ldr	r3, [r4]
 1219 0026 1343     		orrs	r3, r2
 1220 0028 2360     		str	r3, [r4]
 1221              	.LVL51:
 1222              	.LVL52:
 1223              		.loc 1 858 1 view .LVU352
 1224 002a 70BD     		pop	{r4, r5, r6, pc}
 1225              	.LVL53:
 1226              	.L75:
 1227              		.loc 1 688 5 is_stmt 1 view .LVU353
 1228              		.loc 1 688 8 is_stmt 0 view .LVU354
 1229 002c 094B     		ldr	r3, .L76
 1230 002e 9842     		cmp	r0, r3
 1231 0030 F0D1     		bne	.L74
 1232              		.loc 1 690 7 is_stmt 1 view .LVU355
 1233 0032 8022     		movs	r2, #128
 1234 0034 084B     		ldr	r3, .L76+4
 1235 0036 9203     		lsls	r2, r2, #14
 1236 0038 1969     		ldr	r1, [r3, #16]
 1237              		.loc 1 715 7 is_stmt 0 view .LVU356
 1238 003a 1720     		movs	r0, #23
 1239              	.LVL54:
 1240              		.loc 1 690 7 view .LVU357
 1241 003c 1143     		orrs	r1, r2
 1242 003e 1961     		str	r1, [r3, #16]
 1243              		.loc 1 690 7 is_stmt 1 view .LVU358
 1244 0040 0021     		movs	r1, #0
 1245 0042 1961     		str	r1, [r3, #16]
 1246              		.loc 1 690 21 view .LVU359
 1247              		.loc 1 691 7 view .LVU360
 1248 0044 D969     		ldr	r1, [r3, #28]
 1249 0046 0A43     		orrs	r2, r1
 1250 0048 DA61     		str	r2, [r3, #28]
 1251              		.loc 1 691 27 view .LVU361
 1252              		.loc 1 715 7 view .LVU362
 1253 004a 0321     		movs	r1, #3
 1254 004c FFF7FEFF 		bl	nvicEnableVector
ARM GAS  /tmp/ccMOnaqg.s 			page 23


 1255              	.LVL55:
 1256 0050 E0E7     		b	.L74
 1257              	.L77:
 1258 0052 C046     		.align	2
 1259              	.L76:
 1260 0054 00000000 		.word	.LANCHOR0
 1261 0058 00100240 		.word	1073876992
 1262              		.cfi_endproc
 1263              	.LFE159:
 1264              		.size	i2c_lld_start, .-i2c_lld_start
 1265              		.section	.text.i2c_lld_stop,"ax",%progbits
 1266              		.align	1
 1267              		.p2align 4,,15
 1268              		.global	i2c_lld_stop
 1269              		.syntax unified
 1270              		.code	16
 1271              		.thumb_func
 1272              		.fpu softvfp
 1273              		.type	i2c_lld_stop, %function
 1274              	i2c_lld_stop:
 1275              	.LVL56:
 1276              	.LFB160:
 1277              		.loc 1 867 36 view -0
 1278              		.cfi_startproc
 1279              		@ args = 0, pretend = 0, frame = 0
 1280              		@ frame_needed = 0, uses_anonymous_args = 0
 1281              		.loc 1 870 3 view .LVU364
 1282              		.loc 1 870 6 is_stmt 0 view .LVU365
 1283 0000 0378     		ldrb	r3, [r0]
 1284              		.loc 1 867 36 view .LVU366
 1285 0002 10B5     		push	{r4, lr}
 1286              		.cfi_def_cfa_offset 8
 1287              		.cfi_offset 4, -8
 1288              		.cfi_offset 14, -4
 1289              		.loc 1 870 6 view .LVU367
 1290 0004 012B     		cmp	r3, #1
 1291 0006 1CD0     		beq	.L78
 1292              		.loc 1 873 5 is_stmt 1 view .LVU368
 1293              	.LBB486:
 1294              	.LBB487:
 1295              		.loc 1 209 15 is_stmt 0 view .LVU369
 1296 0008 0122     		movs	r2, #1
 1297              	.LBE487:
 1298              	.LBE486:
 1299              		.loc 1 873 5 view .LVU370
 1300 000a 436B     		ldr	r3, [r0, #52]
 1301              	.LBB489:
 1302              	.LBI486:
 1303              		.loc 1 206 13 is_stmt 1 view .LVU371
 1304              	.LVL57:
 1305              	.LBB488:
 1306              		.loc 1 207 3 view .LVU372
 1307              		.loc 1 209 3 view .LVU373
 1308              		.loc 1 209 9 is_stmt 0 view .LVU374
 1309 000c 1968     		ldr	r1, [r3]
 1310              		.loc 1 209 6 view .LVU375
 1311 000e 0A42     		tst	r2, r1
ARM GAS  /tmp/ccMOnaqg.s 			page 24


 1312 0010 10D0     		beq	.L81
 1313              		.loc 1 211 5 is_stmt 1 view .LVU376
 1314              		.loc 1 211 13 is_stmt 0 view .LVU377
 1315 0012 1968     		ldr	r1, [r3]
 1316 0014 9143     		bics	r1, r2
 1317 0016 1960     		str	r1, [r3]
 1318              		.loc 1 212 5 is_stmt 1 view .LVU378
 1319              		.loc 1 212 14 is_stmt 0 view .LVU379
 1320 0018 1968     		ldr	r1, [r3]
 1321              		.loc 1 212 11 view .LVU380
 1322 001a 0A42     		tst	r2, r1
 1323 001c 06D0     		beq	.L82
 1324              		.loc 1 213 15 view .LVU381
 1325 001e 0121     		movs	r1, #1
 1326              	.L83:
 1327              		.loc 1 213 7 is_stmt 1 view .LVU382
 1328              		.loc 1 213 15 is_stmt 0 view .LVU383
 1329 0020 1A68     		ldr	r2, [r3]
 1330 0022 8A43     		bics	r2, r1
 1331 0024 1A60     		str	r2, [r3]
 1332              		.loc 1 212 14 view .LVU384
 1333 0026 1A68     		ldr	r2, [r3]
 1334              		.loc 1 212 11 view .LVU385
 1335 0028 1142     		tst	r1, r2
 1336 002a F9D1     		bne	.L83
 1337              	.L82:
 1338              		.loc 1 214 5 is_stmt 1 view .LVU386
 1339              		.loc 1 214 13 is_stmt 0 view .LVU387
 1340 002c 0121     		movs	r1, #1
 1341 002e 1A68     		ldr	r2, [r3]
 1342 0030 0A43     		orrs	r2, r1
 1343 0032 1A60     		str	r2, [r3]
 1344              	.L81:
 1345              		.loc 1 222 3 is_stmt 1 view .LVU388
 1346              		.loc 1 222 11 is_stmt 0 view .LVU389
 1347 0034 0621     		movs	r1, #6
 1348 0036 1A68     		ldr	r2, [r3]
 1349 0038 8A43     		bics	r2, r1
 1350 003a 1A60     		str	r2, [r3]
 1351              	.LVL58:
 1352              		.loc 1 222 11 view .LVU390
 1353              	.LBE488:
 1354              	.LBE489:
 1355              		.loc 1 880 5 is_stmt 1 view .LVU391
 1356              		.loc 1 880 8 is_stmt 0 view .LVU392
 1357 003c 064B     		ldr	r3, .L93
 1358 003e 9842     		cmp	r0, r3
 1359 0040 00D0     		beq	.L92
 1360              	.LVL59:
 1361              	.L78:
 1362              		.loc 1 939 1 view .LVU393
 1363              		@ sp needed
 1364 0042 10BD     		pop	{r4, pc}
 1365              	.LVL60:
 1366              	.L92:
 1367              		.loc 1 882 7 is_stmt 1 view .LVU394
 1368 0044 1720     		movs	r0, #23
ARM GAS  /tmp/ccMOnaqg.s 			page 25


 1369              	.LVL61:
 1370              		.loc 1 882 7 is_stmt 0 view .LVU395
 1371 0046 FFF7FEFF 		bl	nvicDisableVector
 1372              	.LVL62:
 1373              		.loc 1 890 7 is_stmt 1 view .LVU396
 1374 004a 044A     		ldr	r2, .L93+4
 1375 004c 0449     		ldr	r1, .L93+8
 1376 004e D369     		ldr	r3, [r2, #28]
 1377 0050 0B40     		ands	r3, r1
 1378 0052 D361     		str	r3, [r2, #28]
 1379              		.loc 1 890 28 view .LVU397
 1380              		.loc 1 939 1 is_stmt 0 view .LVU398
 1381 0054 F5E7     		b	.L78
 1382              	.L94:
 1383 0056 C046     		.align	2
 1384              	.L93:
 1385 0058 00000000 		.word	.LANCHOR0
 1386 005c 00100240 		.word	1073876992
 1387 0060 FFFFDFFF 		.word	-2097153
 1388              		.cfi_endproc
 1389              	.LFE160:
 1390              		.size	i2c_lld_stop, .-i2c_lld_stop
 1391              		.section	.text.i2c_lld_master_receive_timeout,"ax",%progbits
 1392              		.align	1
 1393              		.p2align 4,,15
 1394              		.global	i2c_lld_master_receive_timeout
 1395              		.syntax unified
 1396              		.code	16
 1397              		.thumb_func
 1398              		.fpu softvfp
 1399              		.type	i2c_lld_master_receive_timeout, %function
 1400              	i2c_lld_master_receive_timeout:
 1401              	.LVL63:
 1402              	.LFB161:
 1403              		.loc 1 966 57 is_stmt 1 view -0
 1404              		.cfi_startproc
 1405              		@ args = 4, pretend = 0, frame = 0
 1406              		@ frame_needed = 0, uses_anonymous_args = 0
 1407              		.loc 1 967 3 view .LVU400
 1408              		.loc 1 968 3 view .LVU401
 1409              		.loc 1 966 57 is_stmt 0 view .LVU402
 1410 0000 F8B5     		push	{r3, r4, r5, r6, r7, lr}
 1411              		.cfi_def_cfa_offset 24
 1412              		.cfi_offset 3, -24
 1413              		.cfi_offset 4, -20
 1414              		.cfi_offset 5, -16
 1415              		.cfi_offset 6, -12
 1416              		.cfi_offset 7, -8
 1417              		.cfi_offset 14, -4
 1418              		.loc 1 972 16 view .LVU403
 1419 0002 0025     		movs	r5, #0
 1420              		.loc 1 968 16 view .LVU404
 1421 0004 446B     		ldr	r4, [r0, #52]
 1422              	.LVL64:
 1423              		.loc 1 969 3 is_stmt 1 view .LVU405
 1424              		.loc 1 972 3 view .LVU406
 1425              		.loc 1 972 16 is_stmt 0 view .LVU407
ARM GAS  /tmp/ccMOnaqg.s 			page 26


 1426 0006 8560     		str	r5, [r0, #8]
 1427              		.loc 1 975 3 is_stmt 1 view .LVU408
 1428              	.LBB490:
 1429              	.LBI490:
 1430              		.loc 2 502 20 view .LVU409
 1431              	.LBE490:
 1432              		.loc 2 504 3 view .LVU410
 1433              	.LBB499:
 1434              	.LBB491:
 1435              	.LBI491:
 1436              		.loc 3 386 20 view .LVU411
 1437              	.LBB492:
 1438              		.loc 3 388 22 view .LVU412
 1439              		.loc 3 389 33 view .LVU413
 1440              		.loc 3 395 3 view .LVU414
 1441              		.loc 3 395 3 view .LVU415
 1442              		.loc 3 399 3 view .LVU416
 1443              	.LBB493:
 1444              	.LBI493:
 1445              		.loc 4 380 20 view .LVU417
 1446              	.LBE493:
 1447              	.LBE492:
 1448              	.LBE491:
 1449              	.LBE499:
 1450              		.loc 4 382 3 view .LVU418
 1451              	.LBB500:
 1452              	.LBB498:
 1453              	.LBB497:
 1454              	.LBB496:
 1455              	.LBB494:
 1456              	.LBI494:
 1457              		.loc 5 331 57 view .LVU419
 1458              	.LBB495:
 1459              		.loc 5 333 3 view .LVU420
 1460              		.syntax divided
 1461              	@ 333 "ChibiOS/os/common/ext/CMSIS/include/core_cmFunc.h" 1
 1462 0008 62B6     		cpsie i
 1463              	@ 0 "" 2
 1464              		.thumb
 1465              		.syntax unified
 1466              	.LBE495:
 1467              	.LBE494:
 1468              	.LBE496:
 1469              	.LBE497:
 1470              	.LBE498:
 1471              	.LBE500:
 1472              		.loc 1 983 3 view .LVU421
 1473              		.loc 1 983 17 is_stmt 0 view .LVU422
 1474 000a C262     		str	r2, [r0, #44]
 1475              		.loc 1 984 3 is_stmt 1 view .LVU423
 1476              	.LBB501:
 1477              	.LBB502:
 1478              	.LBB503:
 1479              	.LBB504:
 1480              	.LBB505:
 1481              		.file 6 "ChibiOS/os/hal/ports/STM32/LLD/TIMv1/hal_st_lld.h"
 1482              		.loc 6 141 10 is_stmt 0 view .LVU424
ARM GAS  /tmp/ccMOnaqg.s 			page 27


 1483 000c 8022     		movs	r2, #128
 1484              	.LVL65:
 1485              		.loc 6 141 10 view .LVU425
 1486 000e D205     		lsls	r2, r2, #23
 1487              	.LBE505:
 1488              	.LBE504:
 1489              	.LBE503:
 1490              	.LBE502:
 1491              	.LBE501:
 1492              		.loc 1 984 17 view .LVU426
 1493 0010 0363     		str	r3, [r0, #48]
 1494              		.loc 1 988 3 is_stmt 1 view .LVU427
 1495              	.LBB513:
 1496              	.LBI501:
 1497              		.loc 2 616 25 view .LVU428
 1498              	.LBE513:
 1499              		.loc 2 618 3 view .LVU429
 1500              	.LBB514:
 1501              	.LBB510:
 1502              	.LBI502:
 1503              		.file 7 "ChibiOS/os/rt/include/chvt.h"
 1504              		.loc 7 228 25 view .LVU430
 1505              	.LBE510:
 1506              	.LBE514:
 1507              		.loc 7 233 3 view .LVU431
 1508              	.LBB515:
 1509              	.LBB511:
 1510              	.LBB508:
 1511              	.LBI503:
 1512              		.file 8 "ChibiOS/os/common/ports/ARMCMx/chcore_timer.h"
 1513              		.loc 8 105 25 view .LVU432
 1514              	.LBE508:
 1515              	.LBE511:
 1516              	.LBE515:
 1517              		.loc 8 107 3 view .LVU433
 1518              	.LBB516:
 1519              	.LBB512:
 1520              	.LBB509:
 1521              	.LBB507:
 1522              	.LBI504:
 1523              		.loc 6 139 25 view .LVU434
 1524              	.LBB506:
 1525              		.loc 6 141 3 view .LVU435
 1526              		.loc 6 141 10 is_stmt 0 view .LVU436
 1527 0012 576A     		ldr	r7, [r2, #36]
 1528              	.LVL66:
 1529              		.loc 6 141 10 view .LVU437
 1530              	.LBE506:
 1531              	.LBE507:
 1532              	.LBE509:
 1533              	.LBE512:
 1534              	.LBE516:
 1535              		.loc 1 989 3 is_stmt 1 view .LVU438
 1536              		.loc 1 993 3 view .LVU439
 1537              		.loc 1 994 5 view .LVU440
 1538              	.LBB517:
 1539              	.LBI517:
ARM GAS  /tmp/ccMOnaqg.s 			page 28


 1540              		.loc 2 491 20 view .LVU441
 1541              	.LBE517:
 1542              		.loc 2 493 3 view .LVU442
 1543              	.LBB532:
 1544              	.LBB518:
 1545              	.LBI518:
 1546              		.loc 3 374 20 view .LVU443
 1547              	.LBE518:
 1548              	.LBE532:
 1549              		.loc 3 376 3 view .LVU444
 1550              	.LBB533:
 1551              	.LBB527:
 1552              	.LBB519:
 1553              	.LBI519:
 1554              		.loc 4 371 20 view .LVU445
 1555              	.LBE519:
 1556              	.LBE527:
 1557              	.LBE533:
 1558              		.loc 4 373 3 view .LVU446
 1559              	.LBB534:
 1560              	.LBB528:
 1561              	.LBB524:
 1562              	.LBB520:
 1563              	.LBI520:
 1564              		.loc 5 342 57 view .LVU447
 1565              	.LBB521:
 1566              		.loc 5 344 3 view .LVU448
 1567              		.syntax divided
 1568              	@ 344 "ChibiOS/os/common/ext/CMSIS/include/core_cmFunc.h" 1
 1569 0014 72B6     		cpsid i
 1570              	@ 0 "" 2
 1571              		.thumb
 1572              		.syntax unified
 1573              	.LBE521:
 1574              	.LBE520:
 1575              	.LBE524:
 1576              	.LBE528:
 1577              	.LBE534:
 1578              		.loc 3 377 34 view .LVU449
 1579              		.loc 3 378 20 view .LVU450
 1580              		.loc 1 998 5 view .LVU451
 1581              		.loc 1 998 18 is_stmt 0 view .LVU452
 1582 0016 8025     		movs	r5, #128
 1583              		.loc 1 998 12 view .LVU453
 1584 0018 A369     		ldr	r3, [r4, #24]
 1585              	.LVL67:
 1586              		.loc 1 998 18 view .LVU454
 1587 001a 2D02     		lsls	r5, r5, #8
 1588              		.loc 1 998 8 view .LVU455
 1589 001c 2B42     		tst	r3, r5
 1590 001e 0FD0     		beq	.L102
 1591              		.loc 1 1003 5 is_stmt 1 view .LVU456
 1592              	.LBB535:
 1593              	.LBI535:
 1594              		.loc 2 616 25 view .LVU457
 1595              	.LBE535:
 1596              		.loc 2 618 3 view .LVU458
ARM GAS  /tmp/ccMOnaqg.s 			page 29


 1597              	.LBB554:
 1598              	.LBB536:
 1599              	.LBI536:
 1600              		.loc 7 228 25 view .LVU459
 1601              	.LBE536:
 1602              	.LBE554:
 1603              		.loc 7 233 3 view .LVU460
 1604              	.LBB555:
 1605              	.LBB548:
 1606              	.LBB537:
 1607              	.LBI537:
 1608              		.loc 8 105 25 view .LVU461
 1609              	.LBE537:
 1610              	.LBE548:
 1611              	.LBE555:
 1612              		.loc 8 107 3 view .LVU462
 1613              	.LBB556:
 1614              	.LBB549:
 1615              	.LBB544:
 1616              	.LBB538:
 1617              	.LBI538:
 1618              		.loc 6 139 25 view .LVU463
 1619              	.LBB539:
 1620              		.loc 6 141 3 view .LVU464
 1621              	.LBE539:
 1622              	.LBE538:
 1623              	.LBE544:
 1624              	.LBE549:
 1625              	.LBE556:
 1626              		.loc 1 1003 8 is_stmt 0 view .LVU465
 1627 0020 F426     		movs	r6, #244
 1628              	.LBB557:
 1629              	.LBB550:
 1630              	.LBB545:
 1631              	.LBB542:
 1632              	.LBB540:
 1633              		.loc 6 141 10 view .LVU466
 1634 0022 536A     		ldr	r3, [r2, #36]
 1635              	.LVL68:
 1636              		.loc 6 141 10 view .LVU467
 1637              	.LBE540:
 1638              	.LBE542:
 1639              	.LBE545:
 1640              	.LBE550:
 1641              	.LBE557:
 1642              	.LBB558:
 1643              	.LBI558:
 1644              		.loc 2 635 20 is_stmt 1 view .LVU468
 1645              	.LBE558:
 1646              		.loc 2 639 3 view .LVU469
 1647              	.LBB565:
 1648              	.LBB559:
 1649              	.LBI559:
 1650              		.loc 7 284 20 view .LVU470
 1651              	.LBB560:
 1652              		.loc 7 288 3 view .LVU471
 1653              		.loc 7 288 3 is_stmt 0 view .LVU472
ARM GAS  /tmp/ccMOnaqg.s 			page 30


 1654              	.LBE560:
 1655              	.LBE559:
 1656              	.LBE565:
 1657              		.loc 1 1003 8 view .LVU473
 1658 0024 FF36     		adds	r6, r6, #255
 1659              	.LBB566:
 1660              	.LBB563:
 1661              	.LBB561:
 1662              		.loc 7 288 34 view .LVU474
 1663 0026 DB1B     		subs	r3, r3, r7
 1664              	.LBE561:
 1665              	.LBE563:
 1666              	.LBE566:
 1667              		.loc 1 1003 8 view .LVU475
 1668 0028 B342     		cmp	r3, r6
 1669 002a 04D9     		bls	.L99
 1670 002c 3CE0     		b	.L101
 1671              	.L112:
 1672              		.loc 1 1003 5 is_stmt 1 view .LVU476
 1673              	.LBB567:
 1674              		.loc 2 616 25 view .LVU477
 1675              	.LBE567:
 1676              		.loc 2 618 3 view .LVU478
 1677              	.LBB568:
 1678              	.LBB551:
 1679              		.loc 7 228 25 view .LVU479
 1680              	.LBE551:
 1681              	.LBE568:
 1682              		.loc 7 233 3 view .LVU480
 1683              	.LBB569:
 1684              	.LBB552:
 1685              	.LBB546:
 1686              		.loc 8 105 25 view .LVU481
 1687              	.LBE546:
 1688              	.LBE552:
 1689              	.LBE569:
 1690              		.loc 8 107 3 view .LVU482
 1691              	.LBB570:
 1692              	.LBB553:
 1693              	.LBB547:
 1694              	.LBB543:
 1695              		.loc 6 139 25 view .LVU483
 1696              	.LBB541:
 1697              		.loc 6 141 3 view .LVU484
 1698              		.loc 6 141 10 is_stmt 0 view .LVU485
 1699 002e 536A     		ldr	r3, [r2, #36]
 1700              	.LVL69:
 1701              		.loc 6 141 10 view .LVU486
 1702              	.LBE541:
 1703              	.LBE543:
 1704              	.LBE547:
 1705              	.LBE553:
 1706              	.LBE570:
 1707              	.LBB571:
 1708              		.loc 2 635 20 is_stmt 1 view .LVU487
 1709              	.LBE571:
 1710              		.loc 2 639 3 view .LVU488
ARM GAS  /tmp/ccMOnaqg.s 			page 31


 1711              	.LBB572:
 1712              	.LBB564:
 1713              		.loc 7 284 20 view .LVU489
 1714              	.LBB562:
 1715              		.loc 7 288 3 view .LVU490
 1716              		.loc 7 288 34 is_stmt 0 view .LVU491
 1717 0030 DB1B     		subs	r3, r3, r7
 1718              	.LBE562:
 1719              	.LBE564:
 1720              	.LBE572:
 1721              		.loc 1 1003 8 view .LVU492
 1722 0032 B342     		cmp	r3, r6
 1723 0034 38D8     		bhi	.L101
 1724              	.L99:
 1725              		.loc 1 1007 5 is_stmt 1 view .LVU493
 1726              	.LBB573:
 1727              	.LBI573:
 1728              		.loc 2 502 20 view .LVU494
 1729              	.LBE573:
 1730              		.loc 2 504 3 view .LVU495
 1731              	.LBB582:
 1732              	.LBB574:
 1733              	.LBI574:
 1734              		.loc 3 386 20 view .LVU496
 1735              	.LBB575:
 1736              		.loc 3 388 22 view .LVU497
 1737              		.loc 3 389 33 view .LVU498
 1738              		.loc 3 395 3 view .LVU499
 1739              		.loc 3 395 3 view .LVU500
 1740              		.loc 3 399 3 view .LVU501
 1741              	.LBB576:
 1742              	.LBI576:
 1743              		.loc 4 380 20 view .LVU502
 1744              	.LBE576:
 1745              	.LBE575:
 1746              	.LBE574:
 1747              	.LBE582:
 1748              		.loc 4 382 3 view .LVU503
 1749              	.LBB583:
 1750              	.LBB581:
 1751              	.LBB580:
 1752              	.LBB579:
 1753              	.LBB577:
 1754              	.LBI577:
 1755              		.loc 5 331 57 view .LVU504
 1756              	.LBB578:
 1757              		.loc 5 333 3 view .LVU505
 1758              		.syntax divided
 1759              	@ 333 "ChibiOS/os/common/ext/CMSIS/include/core_cmFunc.h" 1
 1760 0036 62B6     		cpsie i
 1761              	@ 0 "" 2
 1762              		.thumb
 1763              		.syntax unified
 1764              	.LBE578:
 1765              	.LBE577:
 1766              	.LBE579:
 1767              	.LBE580:
ARM GAS  /tmp/ccMOnaqg.s 			page 32


 1768              	.LBE581:
 1769              	.LBE583:
 1770              		.loc 1 993 3 view .LVU506
 1771              		.loc 1 994 5 view .LVU507
 1772              	.LBB584:
 1773              		.loc 2 491 20 view .LVU508
 1774              	.LBE584:
 1775              		.loc 2 493 3 view .LVU509
 1776              	.LBB585:
 1777              	.LBB529:
 1778              		.loc 3 374 20 view .LVU510
 1779              	.LBE529:
 1780              	.LBE585:
 1781              		.loc 3 376 3 view .LVU511
 1782              	.LBB586:
 1783              	.LBB530:
 1784              	.LBB525:
 1785              		.loc 4 371 20 view .LVU512
 1786              	.LBE525:
 1787              	.LBE530:
 1788              	.LBE586:
 1789              		.loc 4 373 3 view .LVU513
 1790              	.LBB587:
 1791              	.LBB531:
 1792              	.LBB526:
 1793              	.LBB523:
 1794              		.loc 5 342 57 view .LVU514
 1795              	.LBB522:
 1796              		.loc 5 344 3 view .LVU515
 1797              		.syntax divided
 1798              	@ 344 "ChibiOS/os/common/ext/CMSIS/include/core_cmFunc.h" 1
 1799 0038 72B6     		cpsid i
 1800              	@ 0 "" 2
 1801              		.thumb
 1802              		.syntax unified
 1803              	.LBE522:
 1804              	.LBE523:
 1805              	.LBE526:
 1806              	.LBE531:
 1807              	.LBE587:
 1808              		.loc 3 377 34 view .LVU516
 1809              		.loc 3 378 20 view .LVU517
 1810              		.loc 1 998 5 view .LVU518
 1811              		.loc 1 998 12 is_stmt 0 view .LVU519
 1812 003a A369     		ldr	r3, [r4, #24]
 1813              		.loc 1 998 8 view .LVU520
 1814 003c 2B42     		tst	r3, r5
 1815 003e F6D1     		bne	.L112
 1816              	.L102:
 1817              		.loc 1 1011 3 is_stmt 1 view .LVU521
 1818              	.LBB588:
 1819              	.LBB589:
 1820              		.loc 1 137 20 is_stmt 0 view .LVU522
 1821 0040 4368     		ldr	r3, [r0, #4]
 1822              	.LBE589:
 1823              	.LBE588:
 1824              		.loc 1 1011 3 view .LVU523
ARM GAS  /tmp/ccMOnaqg.s 			page 33


 1825 0042 456B     		ldr	r5, [r0, #52]
 1826              	.LVL70:
 1827              	.LBB594:
 1828              	.LBI588:
 1829              		.loc 1 133 13 is_stmt 1 view .LVU524
 1830              	.LBB590:
 1831              		.loc 1 134 3 view .LVU525
 1832              		.loc 1 137 3 view .LVU526
 1833              		.loc 1 137 20 is_stmt 0 view .LVU527
 1834 0044 9B68     		ldr	r3, [r3, #8]
 1835              		.loc 1 137 6 view .LVU528
 1836 0046 1A05     		lsls	r2, r3, #20
 1837 0048 24D5     		bpl	.L97
 1838              		.loc 1 140 5 is_stmt 1 view .LVU529
 1839              	.LBE590:
 1840              	.LBE594:
 1841              	.LBB595:
 1842              	.LBB596:
 1843              		.loc 1 156 5 is_stmt 0 view .LVU530
 1844 004a 026B     		ldr	r2, [r0, #48]
 1845              	.LBE596:
 1846              	.LBE595:
 1847              	.LBB602:
 1848              	.LBB591:
 1849              		.loc 1 140 13 view .LVU531
 1850 004c 6960     		str	r1, [r5, #4]
 1851              	.LVL71:
 1852              		.loc 1 140 13 view .LVU532
 1853              	.LBE591:
 1854              	.LBE602:
 1855              		.loc 1 1014 3 is_stmt 1 view .LVU533
 1856              	.LBB603:
 1857              	.LBI595:
 1858              		.loc 1 150 13 view .LVU534
 1859              	.LBB597:
 1860              		.loc 1 151 3 view .LVU535
 1861              		.loc 1 152 3 view .LVU536
 1862              		.loc 1 153 3 view .LVU537
 1863              		.loc 1 156 3 view .LVU538
 1864              		.loc 1 157 3 view .LVU539
 1865              		.loc 1 157 6 is_stmt 0 view .LVU540
 1866 004e FF2A     		cmp	r2, #255
 1867 0050 25D8     		bhi	.L106
 1868              	.LVL72:
 1869              	.L113:
 1870              		.loc 1 162 12 view .LVU541
 1871 0052 0026     		movs	r6, #0
 1872 0054 1204     		lsls	r2, r2, #16
 1873              	.LVL73:
 1874              	.L105:
 1875              		.loc 1 167 3 is_stmt 1 view .LVU542
 1876              		.loc 1 167 16 is_stmt 0 view .LVU543
 1877 0056 6968     		ldr	r1, [r5, #4]
 1878              		.loc 1 168 28 view .LVU544
 1879 0058 1343     		orrs	r3, r2
 1880              		.loc 1 167 22 view .LVU545
 1881 005a 154A     		ldr	r2, .L114
ARM GAS  /tmp/ccMOnaqg.s 			page 34


 1882              	.LBE597:
 1883              	.LBE603:
 1884              		.loc 1 1032 9 view .LVU546
 1885 005c 2030     		adds	r0, r0, #32
 1886              	.LVL74:
 1887              	.LBB604:
 1888              	.LBB598:
 1889              		.loc 1 167 22 view .LVU547
 1890 005e 0A40     		ands	r2, r1
 1891              		.loc 1 168 28 view .LVU548
 1892 0060 1343     		orrs	r3, r2
 1893              		.loc 1 168 41 view .LVU549
 1894 0062 8022     		movs	r2, #128
 1895 0064 3343     		orrs	r3, r6
 1896 0066 D200     		lsls	r2, r2, #3
 1897 0068 1343     		orrs	r3, r2
 1898              	.LBE598:
 1899              	.LBE604:
 1900              		.loc 1 1025 11 view .LVU550
 1901 006a 4422     		movs	r2, #68
 1902              	.LBB605:
 1903              	.LBB599:
 1904              		.loc 1 167 11 view .LVU551
 1905 006c 6B60     		str	r3, [r5, #4]
 1906              	.LVL75:
 1907              		.loc 1 167 11 view .LVU552
 1908              	.LBE599:
 1909              	.LBE605:
 1910              		.loc 1 1025 3 is_stmt 1 view .LVU553
 1911              		.loc 1 1025 11 is_stmt 0 view .LVU554
 1912 006e 2368     		ldr	r3, [r4]
 1913              	.LBB606:
 1914              	.LBB607:
 1915              		.loc 2 713 10 view .LVU555
 1916 0070 0699     		ldr	r1, [sp, #24]
 1917              	.LBE607:
 1918              	.LBE606:
 1919              		.loc 1 1025 11 view .LVU556
 1920 0072 1343     		orrs	r3, r2
 1921 0074 2360     		str	r3, [r4]
 1922              		.loc 1 1029 3 is_stmt 1 view .LVU557
 1923              		.loc 1 1029 11 is_stmt 0 view .LVU558
 1924 0076 8023     		movs	r3, #128
 1925 0078 6268     		ldr	r2, [r4, #4]
 1926 007a 9B01     		lsls	r3, r3, #6
 1927 007c 1343     		orrs	r3, r2
 1928 007e 6360     		str	r3, [r4, #4]
 1929              		.loc 1 1032 3 is_stmt 1 view .LVU559
 1930              	.LVL76:
 1931              	.LBB609:
 1932              	.LBI606:
 1933              		.loc 2 710 21 view .LVU560
 1934              	.LBB608:
 1935              		.loc 2 713 3 view .LVU561
 1936              		.loc 2 713 10 is_stmt 0 view .LVU562
 1937 0080 FFF7FEFF 		bl	chThdSuspendTimeoutS
 1938              	.LVL77:
ARM GAS  /tmp/ccMOnaqg.s 			page 35


 1939              		.loc 2 713 10 view .LVU563
 1940              	.LBE608:
 1941              	.LBE609:
 1942              		.loc 1 1036 3 is_stmt 1 view .LVU564
 1943              		.loc 1 1036 6 is_stmt 0 view .LVU565
 1944 0084 431C     		adds	r3, r0, #1
 1945 0086 04D1     		bne	.L95
 1946              		.loc 1 1037 5 is_stmt 1 view .LVU566
 1947              		.loc 1 1037 13 is_stmt 0 view .LVU567
 1948 0088 8023     		movs	r3, #128
 1949 008a 6268     		ldr	r2, [r4, #4]
 1950 008c DB01     		lsls	r3, r3, #7
 1951 008e 1343     		orrs	r3, r2
 1952 0090 6360     		str	r3, [r4, #4]
 1953              	.LVL78:
 1954              	.L95:
 1955              		.loc 1 1041 1 view .LVU568
 1956              		@ sp needed
 1957              	.LVL79:
 1958              	.LVL80:
 1959              		.loc 1 1041 1 view .LVU569
 1960 0092 F8BD     		pop	{r3, r4, r5, r6, r7, pc}
 1961              	.LVL81:
 1962              	.L97:
 1963              	.LBB610:
 1964              	.LBB592:
 1965              		.loc 1 138 5 is_stmt 1 view .LVU570
 1966              	.LBE592:
 1967              	.LBE610:
 1968              	.LBB611:
 1969              	.LBB600:
 1970              		.loc 1 156 5 is_stmt 0 view .LVU571
 1971 0094 026B     		ldr	r2, [r0, #48]
 1972              	.LBE600:
 1973              	.LBE611:
 1974              	.LBB612:
 1975              	.LBB593:
 1976              		.loc 1 138 30 view .LVU572
 1977 0096 4900     		lsls	r1, r1, #1
 1978              	.LVL82:
 1979              		.loc 1 138 13 view .LVU573
 1980 0098 6960     		str	r1, [r5, #4]
 1981              	.LVL83:
 1982              		.loc 1 138 13 view .LVU574
 1983              	.LBE593:
 1984              	.LBE612:
 1985              		.loc 1 1014 3 is_stmt 1 view .LVU575
 1986              	.LBB613:
 1987              		.loc 1 150 13 view .LVU576
 1988              	.LBB601:
 1989              		.loc 1 151 3 view .LVU577
 1990              		.loc 1 152 3 view .LVU578
 1991              		.loc 1 153 3 view .LVU579
 1992              		.loc 1 156 3 view .LVU580
 1993              		.loc 1 157 3 view .LVU581
 1994              		.loc 1 157 6 is_stmt 0 view .LVU582
 1995 009a FF2A     		cmp	r2, #255
ARM GAS  /tmp/ccMOnaqg.s 			page 36


 1996 009c D9D9     		bls	.L113
 1997              	.L106:
 1998              		.loc 1 157 6 view .LVU583
 1999 009e FF22     		movs	r2, #255
 2000              	.LVL84:
 2001              		.loc 1 159 12 view .LVU584
 2002 00a0 8026     		movs	r6, #128
 2003              		.loc 1 157 6 view .LVU585
 2004 00a2 1204     		lsls	r2, r2, #16
 2005              		.loc 1 159 12 view .LVU586
 2006 00a4 7604     		lsls	r6, r6, #17
 2007 00a6 D6E7     		b	.L105
 2008              	.LVL85:
 2009              	.L101:
 2010              		.loc 1 159 12 view .LVU587
 2011              	.LBE601:
 2012              	.LBE613:
 2013              		.loc 1 1004 14 view .LVU588
 2014 00a8 0120     		movs	r0, #1
 2015              	.LVL86:
 2016              		.loc 1 1004 14 view .LVU589
 2017 00aa 4042     		rsbs	r0, r0, #0
 2018 00ac F1E7     		b	.L95
 2019              	.L115:
 2020 00ae C046     		.align	2
 2021              	.L114:
 2022 00b0 FFFF00FE 		.word	-33488897
 2023              		.cfi_endproc
 2024              	.LFE161:
 2025              		.size	i2c_lld_master_receive_timeout, .-i2c_lld_master_receive_timeout
 2026              		.section	.text.i2c_lld_master_transmit_timeout,"ax",%progbits
 2027              		.align	1
 2028              		.p2align 4,,15
 2029              		.global	i2c_lld_master_transmit_timeout
 2030              		.syntax unified
 2031              		.code	16
 2032              		.thumb_func
 2033              		.fpu softvfp
 2034              		.type	i2c_lld_master_transmit_timeout, %function
 2035              	i2c_lld_master_transmit_timeout:
 2036              	.LVL87:
 2037              	.LFB162:
 2038              		.loc 1 1071 58 is_stmt 1 view -0
 2039              		.cfi_startproc
 2040              		@ args = 12, pretend = 0, frame = 0
 2041              		@ frame_needed = 0, uses_anonymous_args = 0
 2042              		.loc 1 1072 3 view .LVU591
 2043              		.loc 1 1073 3 view .LVU592
 2044              		.loc 1 1071 58 is_stmt 0 view .LVU593
 2045 0000 F8B5     		push	{r3, r4, r5, r6, r7, lr}
 2046              		.cfi_def_cfa_offset 24
 2047              		.cfi_offset 3, -24
 2048              		.cfi_offset 4, -20
 2049              		.cfi_offset 5, -16
 2050              		.cfi_offset 6, -12
 2051              		.cfi_offset 7, -8
 2052              		.cfi_offset 14, -4
ARM GAS  /tmp/ccMOnaqg.s 			page 37


 2053              		.loc 1 1077 16 view .LVU594
 2054 0002 0025     		movs	r5, #0
 2055              		.loc 1 1073 16 view .LVU595
 2056 0004 446B     		ldr	r4, [r0, #52]
 2057              	.LVL88:
 2058              		.loc 1 1074 3 is_stmt 1 view .LVU596
 2059              		.loc 1 1077 3 view .LVU597
 2060              		.loc 1 1077 16 is_stmt 0 view .LVU598
 2061 0006 8560     		str	r5, [r0, #8]
 2062              		.loc 1 1080 3 is_stmt 1 view .LVU599
 2063              	.LBB614:
 2064              	.LBI614:
 2065              		.loc 2 502 20 view .LVU600
 2066              	.LBE614:
 2067              		.loc 2 504 3 view .LVU601
 2068              	.LBB623:
 2069              	.LBB615:
 2070              	.LBI615:
 2071              		.loc 3 386 20 view .LVU602
 2072              	.LBB616:
 2073              		.loc 3 388 22 view .LVU603
 2074              		.loc 3 389 33 view .LVU604
 2075              		.loc 3 395 3 view .LVU605
 2076              		.loc 3 395 3 view .LVU606
 2077              		.loc 3 399 3 view .LVU607
 2078              	.LBB617:
 2079              	.LBI617:
 2080              		.loc 4 380 20 view .LVU608
 2081              	.LBE617:
 2082              	.LBE616:
 2083              	.LBE615:
 2084              	.LBE623:
 2085              		.loc 4 382 3 view .LVU609
 2086              	.LBB624:
 2087              	.LBB622:
 2088              	.LBB621:
 2089              	.LBB620:
 2090              	.LBB618:
 2091              	.LBI618:
 2092              		.loc 5 331 57 view .LVU610
 2093              	.LBB619:
 2094              		.loc 5 333 3 view .LVU611
 2095              		.syntax divided
 2096              	@ 333 "ChibiOS/os/common/ext/CMSIS/include/core_cmFunc.h" 1
 2097 0008 62B6     		cpsie i
 2098              	@ 0 "" 2
 2099              		.thumb
 2100              		.syntax unified
 2101              	.LBE619:
 2102              	.LBE618:
 2103              	.LBE620:
 2104              	.LBE621:
 2105              	.LBE622:
 2106              	.LBE624:
 2107              		.loc 1 1093 3 view .LVU612
 2108              		.loc 1 1093 17 is_stmt 0 view .LVU613
 2109 000a 4262     		str	r2, [r0, #36]
ARM GAS  /tmp/ccMOnaqg.s 			page 38


 2110              		.loc 1 1094 3 is_stmt 1 view .LVU614
 2111              	.LBB625:
 2112              	.LBB626:
 2113              	.LBB627:
 2114              	.LBB628:
 2115              	.LBB629:
 2116              		.loc 6 141 10 is_stmt 0 view .LVU615
 2117 000c 8022     		movs	r2, #128
 2118              	.LVL89:
 2119              		.loc 6 141 10 view .LVU616
 2120              	.LBE629:
 2121              	.LBE628:
 2122              	.LBE627:
 2123              	.LBE626:
 2124              	.LBE625:
 2125              		.loc 1 1094 17 view .LVU617
 2126 000e 8362     		str	r3, [r0, #40]
 2127              		.loc 1 1095 3 is_stmt 1 view .LVU618
 2128              		.loc 1 1095 17 is_stmt 0 view .LVU619
 2129 0010 069B     		ldr	r3, [sp, #24]
 2130              	.LVL90:
 2131              	.LBB645:
 2132              	.LBB640:
 2133              	.LBB636:
 2134              	.LBB633:
 2135              	.LBB630:
 2136              		.loc 6 141 10 view .LVU620
 2137 0012 D205     		lsls	r2, r2, #23
 2138              	.LBE630:
 2139              	.LBE633:
 2140              	.LBE636:
 2141              	.LBE640:
 2142              	.LBE645:
 2143              		.loc 1 1095 17 view .LVU621
 2144 0014 C362     		str	r3, [r0, #44]
 2145              		.loc 1 1096 3 is_stmt 1 view .LVU622
 2146              		.loc 1 1096 17 is_stmt 0 view .LVU623
 2147 0016 079B     		ldr	r3, [sp, #28]
 2148              	.LBB646:
 2149              	.LBB641:
 2150              	.LBB637:
 2151              	.LBB634:
 2152              	.LBB631:
 2153              		.loc 6 141 10 view .LVU624
 2154 0018 576A     		ldr	r7, [r2, #36]
 2155              	.LBE631:
 2156              	.LBE634:
 2157              	.LBE637:
 2158              	.LBE641:
 2159              	.LBE646:
 2160              		.loc 1 1096 17 view .LVU625
 2161 001a 0363     		str	r3, [r0, #48]
 2162              		.loc 1 1100 3 is_stmt 1 view .LVU626
 2163              	.LBB647:
 2164              	.LBI625:
 2165              		.loc 2 616 25 view .LVU627
 2166              	.LBE647:
ARM GAS  /tmp/ccMOnaqg.s 			page 39


 2167              		.loc 2 618 3 view .LVU628
 2168              	.LBB648:
 2169              	.LBB642:
 2170              	.LBI626:
 2171              		.loc 7 228 25 view .LVU629
 2172              	.LBE642:
 2173              	.LBE648:
 2174              		.loc 7 233 3 view .LVU630
 2175              	.LBB649:
 2176              	.LBB643:
 2177              	.LBB638:
 2178              	.LBI627:
 2179              		.loc 8 105 25 view .LVU631
 2180              	.LBE638:
 2181              	.LBE643:
 2182              	.LBE649:
 2183              		.loc 8 107 3 view .LVU632
 2184              	.LBB650:
 2185              	.LBB644:
 2186              	.LBB639:
 2187              	.LBB635:
 2188              	.LBI628:
 2189              		.loc 6 139 25 view .LVU633
 2190              	.LBB632:
 2191              		.loc 6 141 3 view .LVU634
 2192              	.LVL91:
 2193              		.loc 6 141 3 is_stmt 0 view .LVU635
 2194              	.LBE632:
 2195              	.LBE635:
 2196              	.LBE639:
 2197              	.LBE644:
 2198              	.LBE650:
 2199              		.loc 1 1101 3 is_stmt 1 view .LVU636
 2200              		.loc 1 1105 3 view .LVU637
 2201              		.loc 1 1106 5 view .LVU638
 2202              	.LBB651:
 2203              	.LBI651:
 2204              		.loc 2 491 20 view .LVU639
 2205              	.LBE651:
 2206              		.loc 2 493 3 view .LVU640
 2207              	.LBB666:
 2208              	.LBB652:
 2209              	.LBI652:
 2210              		.loc 3 374 20 view .LVU641
 2211              	.LBE652:
 2212              	.LBE666:
 2213              		.loc 3 376 3 view .LVU642
 2214              	.LBB667:
 2215              	.LBB661:
 2216              	.LBB653:
 2217              	.LBI653:
 2218              		.loc 4 371 20 view .LVU643
 2219              	.LBE653:
 2220              	.LBE661:
 2221              	.LBE667:
 2222              		.loc 4 373 3 view .LVU644
 2223              	.LBB668:
ARM GAS  /tmp/ccMOnaqg.s 			page 40


 2224              	.LBB662:
 2225              	.LBB658:
 2226              	.LBB654:
 2227              	.LBI654:
 2228              		.loc 5 342 57 view .LVU645
 2229              	.LBB655:
 2230              		.loc 5 344 3 view .LVU646
 2231              		.syntax divided
 2232              	@ 344 "ChibiOS/os/common/ext/CMSIS/include/core_cmFunc.h" 1
 2233 001c 72B6     		cpsid i
 2234              	@ 0 "" 2
 2235              		.thumb
 2236              		.syntax unified
 2237              	.LBE655:
 2238              	.LBE654:
 2239              	.LBE658:
 2240              	.LBE662:
 2241              	.LBE668:
 2242              		.loc 3 377 34 view .LVU647
 2243              		.loc 3 378 20 view .LVU648
 2244              		.loc 1 1110 5 view .LVU649
 2245              		.loc 1 1110 18 is_stmt 0 view .LVU650
 2246 001e 8025     		movs	r5, #128
 2247              		.loc 1 1110 12 view .LVU651
 2248 0020 A369     		ldr	r3, [r4, #24]
 2249              		.loc 1 1110 18 view .LVU652
 2250 0022 2D02     		lsls	r5, r5, #8
 2251              		.loc 1 1110 8 view .LVU653
 2252 0024 2B42     		tst	r3, r5
 2253 0026 0FD0     		beq	.L123
 2254              		.loc 1 1115 5 is_stmt 1 view .LVU654
 2255              	.LBB669:
 2256              	.LBI669:
 2257              		.loc 2 616 25 view .LVU655
 2258              	.LBE669:
 2259              		.loc 2 618 3 view .LVU656
 2260              	.LBB688:
 2261              	.LBB670:
 2262              	.LBI670:
 2263              		.loc 7 228 25 view .LVU657
 2264              	.LBE670:
 2265              	.LBE688:
 2266              		.loc 7 233 3 view .LVU658
 2267              	.LBB689:
 2268              	.LBB682:
 2269              	.LBB671:
 2270              	.LBI671:
 2271              		.loc 8 105 25 view .LVU659
 2272              	.LBE671:
 2273              	.LBE682:
 2274              	.LBE689:
 2275              		.loc 8 107 3 view .LVU660
 2276              	.LBB690:
 2277              	.LBB683:
 2278              	.LBB678:
 2279              	.LBB672:
 2280              	.LBI672:
ARM GAS  /tmp/ccMOnaqg.s 			page 41


 2281              		.loc 6 139 25 view .LVU661
 2282              	.LBB673:
 2283              		.loc 6 141 3 view .LVU662
 2284              	.LBE673:
 2285              	.LBE672:
 2286              	.LBE678:
 2287              	.LBE683:
 2288              	.LBE690:
 2289              		.loc 1 1115 8 is_stmt 0 view .LVU663
 2290 0028 F426     		movs	r6, #244
 2291              	.LBB691:
 2292              	.LBB684:
 2293              	.LBB679:
 2294              	.LBB676:
 2295              	.LBB674:
 2296              		.loc 6 141 10 view .LVU664
 2297 002a 536A     		ldr	r3, [r2, #36]
 2298              	.LVL92:
 2299              		.loc 6 141 10 view .LVU665
 2300              	.LBE674:
 2301              	.LBE676:
 2302              	.LBE679:
 2303              	.LBE684:
 2304              	.LBE691:
 2305              	.LBB692:
 2306              	.LBI692:
 2307              		.loc 2 635 20 is_stmt 1 view .LVU666
 2308              	.LBE692:
 2309              		.loc 2 639 3 view .LVU667
 2310              	.LBB699:
 2311              	.LBB693:
 2312              	.LBI693:
 2313              		.loc 7 284 20 view .LVU668
 2314              	.LBB694:
 2315              		.loc 7 288 3 view .LVU669
 2316              		.loc 7 288 3 is_stmt 0 view .LVU670
 2317              	.LBE694:
 2318              	.LBE693:
 2319              	.LBE699:
 2320              		.loc 1 1115 8 view .LVU671
 2321 002c FF36     		adds	r6, r6, #255
 2322              	.LBB700:
 2323              	.LBB697:
 2324              	.LBB695:
 2325              		.loc 7 288 34 view .LVU672
 2326 002e DB1B     		subs	r3, r3, r7
 2327              	.LBE695:
 2328              	.LBE697:
 2329              	.LBE700:
 2330              		.loc 1 1115 8 view .LVU673
 2331 0030 B342     		cmp	r3, r6
 2332 0032 04D9     		bls	.L120
 2333 0034 39E0     		b	.L122
 2334              	.L133:
 2335              		.loc 1 1115 5 is_stmt 1 view .LVU674
 2336              	.LBB701:
 2337              		.loc 2 616 25 view .LVU675
ARM GAS  /tmp/ccMOnaqg.s 			page 42


 2338              	.LBE701:
 2339              		.loc 2 618 3 view .LVU676
 2340              	.LBB702:
 2341              	.LBB685:
 2342              		.loc 7 228 25 view .LVU677
 2343              	.LBE685:
 2344              	.LBE702:
 2345              		.loc 7 233 3 view .LVU678
 2346              	.LBB703:
 2347              	.LBB686:
 2348              	.LBB680:
 2349              		.loc 8 105 25 view .LVU679
 2350              	.LBE680:
 2351              	.LBE686:
 2352              	.LBE703:
 2353              		.loc 8 107 3 view .LVU680
 2354              	.LBB704:
 2355              	.LBB687:
 2356              	.LBB681:
 2357              	.LBB677:
 2358              		.loc 6 139 25 view .LVU681
 2359              	.LBB675:
 2360              		.loc 6 141 3 view .LVU682
 2361              		.loc 6 141 10 is_stmt 0 view .LVU683
 2362 0036 536A     		ldr	r3, [r2, #36]
 2363              	.LVL93:
 2364              		.loc 6 141 10 view .LVU684
 2365              	.LBE675:
 2366              	.LBE677:
 2367              	.LBE681:
 2368              	.LBE687:
 2369              	.LBE704:
 2370              	.LBB705:
 2371              		.loc 2 635 20 is_stmt 1 view .LVU685
 2372              	.LBE705:
 2373              		.loc 2 639 3 view .LVU686
 2374              	.LBB706:
 2375              	.LBB698:
 2376              		.loc 7 284 20 view .LVU687
 2377              	.LBB696:
 2378              		.loc 7 288 3 view .LVU688
 2379              		.loc 7 288 34 is_stmt 0 view .LVU689
 2380 0038 DB1B     		subs	r3, r3, r7
 2381              	.LBE696:
 2382              	.LBE698:
 2383              	.LBE706:
 2384              		.loc 1 1115 8 view .LVU690
 2385 003a B342     		cmp	r3, r6
 2386 003c 35D8     		bhi	.L122
 2387              	.L120:
 2388              		.loc 1 1119 5 is_stmt 1 view .LVU691
 2389              	.LBB707:
 2390              	.LBI707:
 2391              		.loc 2 502 20 view .LVU692
 2392              	.LBE707:
 2393              		.loc 2 504 3 view .LVU693
 2394              	.LBB716:
ARM GAS  /tmp/ccMOnaqg.s 			page 43


 2395              	.LBB708:
 2396              	.LBI708:
 2397              		.loc 3 386 20 view .LVU694
 2398              	.LBB709:
 2399              		.loc 3 388 22 view .LVU695
 2400              		.loc 3 389 33 view .LVU696
 2401              		.loc 3 395 3 view .LVU697
 2402              		.loc 3 395 3 view .LVU698
 2403              		.loc 3 399 3 view .LVU699
 2404              	.LBB710:
 2405              	.LBI710:
 2406              		.loc 4 380 20 view .LVU700
 2407              	.LBE710:
 2408              	.LBE709:
 2409              	.LBE708:
 2410              	.LBE716:
 2411              		.loc 4 382 3 view .LVU701
 2412              	.LBB717:
 2413              	.LBB715:
 2414              	.LBB714:
 2415              	.LBB713:
 2416              	.LBB711:
 2417              	.LBI711:
 2418              		.loc 5 331 57 view .LVU702
 2419              	.LBB712:
 2420              		.loc 5 333 3 view .LVU703
 2421              		.syntax divided
 2422              	@ 333 "ChibiOS/os/common/ext/CMSIS/include/core_cmFunc.h" 1
 2423 003e 62B6     		cpsie i
 2424              	@ 0 "" 2
 2425              		.thumb
 2426              		.syntax unified
 2427              	.LBE712:
 2428              	.LBE711:
 2429              	.LBE713:
 2430              	.LBE714:
 2431              	.LBE715:
 2432              	.LBE717:
 2433              		.loc 1 1105 3 view .LVU704
 2434              		.loc 1 1106 5 view .LVU705
 2435              	.LBB718:
 2436              		.loc 2 491 20 view .LVU706
 2437              	.LBE718:
 2438              		.loc 2 493 3 view .LVU707
 2439              	.LBB719:
 2440              	.LBB663:
 2441              		.loc 3 374 20 view .LVU708
 2442              	.LBE663:
 2443              	.LBE719:
 2444              		.loc 3 376 3 view .LVU709
 2445              	.LBB720:
 2446              	.LBB664:
 2447              	.LBB659:
 2448              		.loc 4 371 20 view .LVU710
 2449              	.LBE659:
 2450              	.LBE664:
 2451              	.LBE720:
ARM GAS  /tmp/ccMOnaqg.s 			page 44


 2452              		.loc 4 373 3 view .LVU711
 2453              	.LBB721:
 2454              	.LBB665:
 2455              	.LBB660:
 2456              	.LBB657:
 2457              		.loc 5 342 57 view .LVU712
 2458              	.LBB656:
 2459              		.loc 5 344 3 view .LVU713
 2460              		.syntax divided
 2461              	@ 344 "ChibiOS/os/common/ext/CMSIS/include/core_cmFunc.h" 1
 2462 0040 72B6     		cpsid i
 2463              	@ 0 "" 2
 2464              		.thumb
 2465              		.syntax unified
 2466              	.LBE656:
 2467              	.LBE657:
 2468              	.LBE660:
 2469              	.LBE665:
 2470              	.LBE721:
 2471              		.loc 3 377 34 view .LVU714
 2472              		.loc 3 378 20 view .LVU715
 2473              		.loc 1 1110 5 view .LVU716
 2474              		.loc 1 1110 12 is_stmt 0 view .LVU717
 2475 0042 A369     		ldr	r3, [r4, #24]
 2476              		.loc 1 1110 8 view .LVU718
 2477 0044 2B42     		tst	r3, r5
 2478 0046 F6D1     		bne	.L133
 2479              	.L123:
 2480              		.loc 1 1123 3 is_stmt 1 view .LVU719
 2481              	.LBB722:
 2482              	.LBB723:
 2483              		.loc 1 137 20 is_stmt 0 view .LVU720
 2484 0048 4368     		ldr	r3, [r0, #4]
 2485              	.LBE723:
 2486              	.LBE722:
 2487              		.loc 1 1123 3 view .LVU721
 2488 004a 456B     		ldr	r5, [r0, #52]
 2489              	.LVL94:
 2490              	.LBB728:
 2491              	.LBI722:
 2492              		.loc 1 133 13 is_stmt 1 view .LVU722
 2493              	.LBB724:
 2494              		.loc 1 134 3 view .LVU723
 2495              		.loc 1 137 3 view .LVU724
 2496              		.loc 1 137 20 is_stmt 0 view .LVU725
 2497 004c 9E68     		ldr	r6, [r3, #8]
 2498              		.loc 1 137 6 view .LVU726
 2499 004e 3305     		lsls	r3, r6, #20
 2500 0050 21D5     		bpl	.L118
 2501              		.loc 1 140 5 is_stmt 1 view .LVU727
 2502              	.LBE724:
 2503              	.LBE728:
 2504              	.LBB729:
 2505              	.LBB730:
 2506              		.loc 1 184 5 is_stmt 0 view .LVU728
 2507 0052 826A     		ldr	r2, [r0, #40]
 2508              	.LBE730:
ARM GAS  /tmp/ccMOnaqg.s 			page 45


 2509              	.LBE729:
 2510              	.LBB736:
 2511              	.LBB725:
 2512              		.loc 1 140 13 view .LVU729
 2513 0054 6960     		str	r1, [r5, #4]
 2514              	.LVL95:
 2515              		.loc 1 140 13 view .LVU730
 2516              	.LBE725:
 2517              	.LBE736:
 2518              		.loc 1 1126 3 is_stmt 1 view .LVU731
 2519              	.LBB737:
 2520              	.LBI729:
 2521              		.loc 1 178 13 view .LVU732
 2522              	.LBB731:
 2523              		.loc 1 179 3 view .LVU733
 2524              		.loc 1 180 3 view .LVU734
 2525              		.loc 1 181 3 view .LVU735
 2526              		.loc 1 184 3 view .LVU736
 2527              		.loc 1 185 3 view .LVU737
 2528              		.loc 1 185 6 is_stmt 0 view .LVU738
 2529 0056 FF2A     		cmp	r2, #255
 2530 0058 22D8     		bhi	.L127
 2531              	.LVL96:
 2532              	.L134:
 2533              		.loc 1 190 12 view .LVU739
 2534 005a 0027     		movs	r7, #0
 2535              	.LVL97:
 2536              		.loc 1 190 12 view .LVU740
 2537 005c 1204     		lsls	r2, r2, #16
 2538              	.LVL98:
 2539              	.L126:
 2540              		.loc 1 195 3 is_stmt 1 view .LVU741
 2541              		.loc 1 195 16 is_stmt 0 view .LVU742
 2542 005e 6B68     		ldr	r3, [r5, #4]
 2543              		.loc 1 195 22 view .LVU743
 2544 0060 1349     		ldr	r1, .L135
 2545              	.LBE731:
 2546              	.LBE737:
 2547              		.loc 1 1143 9 view .LVU744
 2548 0062 2030     		adds	r0, r0, #32
 2549              	.LVL99:
 2550              	.LBB738:
 2551              	.LBB732:
 2552              		.loc 1 195 22 view .LVU745
 2553 0064 0B40     		ands	r3, r1
 2554              		.loc 1 195 60 view .LVU746
 2555 0066 3343     		orrs	r3, r6
 2556              		.loc 1 196 24 view .LVU747
 2557 0068 3B43     		orrs	r3, r7
 2558 006a 1343     		orrs	r3, r2
 2559              	.LBE732:
 2560              	.LBE738:
 2561              		.loc 1 1136 11 view .LVU748
 2562 006c 4222     		movs	r2, #66
 2563              	.LBB739:
 2564              	.LBB733:
 2565              		.loc 1 195 11 view .LVU749
ARM GAS  /tmp/ccMOnaqg.s 			page 46


 2566 006e 6B60     		str	r3, [r5, #4]
 2567              	.LVL100:
 2568              		.loc 1 195 11 view .LVU750
 2569              	.LBE733:
 2570              	.LBE739:
 2571              		.loc 1 1136 3 is_stmt 1 view .LVU751
 2572              		.loc 1 1136 11 is_stmt 0 view .LVU752
 2573 0070 2368     		ldr	r3, [r4]
 2574              	.LBB740:
 2575              	.LBB741:
 2576              		.loc 2 713 10 view .LVU753
 2577 0072 0899     		ldr	r1, [sp, #32]
 2578              	.LBE741:
 2579              	.LBE740:
 2580              		.loc 1 1136 11 view .LVU754
 2581 0074 1343     		orrs	r3, r2
 2582 0076 2360     		str	r3, [r4]
 2583              		.loc 1 1140 3 is_stmt 1 view .LVU755
 2584              		.loc 1 1140 11 is_stmt 0 view .LVU756
 2585 0078 8023     		movs	r3, #128
 2586 007a 6268     		ldr	r2, [r4, #4]
 2587 007c 9B01     		lsls	r3, r3, #6
 2588 007e 1343     		orrs	r3, r2
 2589 0080 6360     		str	r3, [r4, #4]
 2590              		.loc 1 1143 3 is_stmt 1 view .LVU757
 2591              	.LVL101:
 2592              	.LBB743:
 2593              	.LBI740:
 2594              		.loc 2 710 21 view .LVU758
 2595              	.LBB742:
 2596              		.loc 2 713 3 view .LVU759
 2597              		.loc 2 713 10 is_stmt 0 view .LVU760
 2598 0082 FFF7FEFF 		bl	chThdSuspendTimeoutS
 2599              	.LVL102:
 2600              		.loc 2 713 10 view .LVU761
 2601              	.LBE742:
 2602              	.LBE743:
 2603              		.loc 1 1147 3 is_stmt 1 view .LVU762
 2604              		.loc 1 1147 6 is_stmt 0 view .LVU763
 2605 0086 431C     		adds	r3, r0, #1
 2606 0088 04D1     		bne	.L116
 2607              		.loc 1 1148 5 is_stmt 1 view .LVU764
 2608              		.loc 1 1148 13 is_stmt 0 view .LVU765
 2609 008a 8023     		movs	r3, #128
 2610 008c 6268     		ldr	r2, [r4, #4]
 2611 008e DB01     		lsls	r3, r3, #7
 2612 0090 1343     		orrs	r3, r2
 2613 0092 6360     		str	r3, [r4, #4]
 2614              	.LVL103:
 2615              	.L116:
 2616              		.loc 1 1152 1 view .LVU766
 2617              		@ sp needed
 2618              	.LVL104:
 2619              		.loc 1 1152 1 view .LVU767
 2620 0094 F8BD     		pop	{r3, r4, r5, r6, r7, pc}
 2621              	.LVL105:
 2622              	.L118:
ARM GAS  /tmp/ccMOnaqg.s 			page 47


 2623              	.LBB744:
 2624              	.LBB726:
 2625              		.loc 1 138 5 is_stmt 1 view .LVU768
 2626              	.LBE726:
 2627              	.LBE744:
 2628              	.LBB745:
 2629              	.LBB734:
 2630              		.loc 1 184 5 is_stmt 0 view .LVU769
 2631 0096 826A     		ldr	r2, [r0, #40]
 2632              	.LBE734:
 2633              	.LBE745:
 2634              	.LBB746:
 2635              	.LBB727:
 2636              		.loc 1 138 30 view .LVU770
 2637 0098 4900     		lsls	r1, r1, #1
 2638              	.LVL106:
 2639              		.loc 1 138 13 view .LVU771
 2640 009a 6960     		str	r1, [r5, #4]
 2641              	.LVL107:
 2642              		.loc 1 138 13 view .LVU772
 2643              	.LBE727:
 2644              	.LBE746:
 2645              		.loc 1 1126 3 is_stmt 1 view .LVU773
 2646              	.LBB747:
 2647              		.loc 1 178 13 view .LVU774
 2648              	.LBB735:
 2649              		.loc 1 179 3 view .LVU775
 2650              		.loc 1 180 3 view .LVU776
 2651              		.loc 1 181 3 view .LVU777
 2652              		.loc 1 184 3 view .LVU778
 2653              		.loc 1 185 3 view .LVU779
 2654              		.loc 1 185 6 is_stmt 0 view .LVU780
 2655 009c FF2A     		cmp	r2, #255
 2656 009e DCD9     		bls	.L134
 2657              	.L127:
 2658              		.loc 1 185 6 view .LVU781
 2659 00a0 FF22     		movs	r2, #255
 2660              	.LVL108:
 2661              		.loc 1 187 12 view .LVU782
 2662 00a2 8027     		movs	r7, #128
 2663              	.LVL109:
 2664              		.loc 1 185 6 view .LVU783
 2665 00a4 1204     		lsls	r2, r2, #16
 2666              		.loc 1 187 12 view .LVU784
 2667 00a6 7F04     		lsls	r7, r7, #17
 2668 00a8 D9E7     		b	.L126
 2669              	.LVL110:
 2670              	.L122:
 2671              		.loc 1 187 12 view .LVU785
 2672              	.LBE735:
 2673              	.LBE747:
 2674              		.loc 1 1116 14 view .LVU786
 2675 00aa 0120     		movs	r0, #1
 2676              	.LVL111:
 2677              		.loc 1 1116 14 view .LVU787
 2678 00ac 4042     		rsbs	r0, r0, #0
 2679 00ae F1E7     		b	.L116
ARM GAS  /tmp/ccMOnaqg.s 			page 48


 2680              	.L136:
 2681              		.align	2
 2682              	.L135:
 2683 00b0 FFFF00FE 		.word	-33488897
 2684              		.cfi_endproc
 2685              	.LFE162:
 2686              		.size	i2c_lld_master_transmit_timeout, .-i2c_lld_master_transmit_timeout
 2687              		.global	I2CD1
 2688              		.section	.bss.I2CD1,"aw",%nobits
 2689              		.align	2
 2690              		.set	.LANCHOR0,. + 0
 2691              		.type	I2CD1, %object
 2692              		.size	I2CD1, 56
 2693              	I2CD1:
 2694 0000 00000000 		.space	56
 2694      00000000 
 2694      00000000 
 2694      00000000 
 2694      00000000 
 2695              		.text
 2696              	.Letext0:
 2697              		.file 9 "/opt/nanovna/gcc-arm-none-eabi-8-2018-q4-major/lib/gcc/arm-none-eabi/8.2.1/include/stddef
 2698              		.file 10 "/opt/nanovna/gcc-arm-none-eabi-8-2018-q4-major/arm-none-eabi/include/machine/_default_ty
 2699              		.file 11 "/opt/nanovna/gcc-arm-none-eabi-8-2018-q4-major/arm-none-eabi/include/sys/_stdint.h"
 2700              		.file 12 "ChibiOS/os/common/ports/ARMCMx/compilers/GCC/chtypes.h"
 2701              		.file 13 "ChibiOS/os/rt/include/chsystypes.h"
 2702              		.file 14 "ChibiOS/os/rt/include/chschd.h"
 2703              		.file 15 "ChibiOS/os/common/ext/CMSIS/ST/STM32F0xx/stm32f072xb.h"
 2704              		.file 16 "ChibiOS/os/common/ports/ARMCMx/chcore.h"
 2705              		.file 17 "ChibiOS/os/hal/ports/STM32/LLD/TIMv1/stm32_tim.h"
 2706              		.file 18 "ChibiOS/os/rt/include/chmtx.h"
 2707              		.file 19 "ChibiOS/os/common/ext/CMSIS/ST/STM32F0xx/system_stm32f0xx.h"
 2708              		.file 20 "ChibiOS/os/rt/include/chregistry.h"
 2709              		.file 21 "ChibiOS/os/rt/include/chevents.h"
 2710              		.file 22 "ChibiOS/os/hal/ports/STM32/LLD/DMAv1/stm32_dma.h"
 2711              		.file 23 "ChibiOS/os/hal/include/hal_queues.h"
 2712              		.file 24 "ChibiOS/os/hal/ports/STM32/LLD/GPIOv2/hal_pal_lld.h"
 2713              		.file 25 "ChibiOS/os/hal/include/hal_ext.h"
 2714              		.file 26 "ChibiOS/os/hal/ports/STM32/LLD/EXTIv1/hal_ext_lld.h"
 2715              		.file 27 "ChibiOS/os/hal/include/hal_gpt.h"
 2716              		.file 28 "ChibiOS/os/hal/ports/STM32/LLD/TIMv1/hal_gpt_lld.h"
 2717              		.file 29 "ChibiOS/os/hal/include/hal_i2c.h"
 2718              		.file 30 "ChibiOS/os/hal/ports/STM32/LLD/I2Cv2/hal_i2c_lld.h"
 2719              		.file 31 "ChibiOS/os/hal/include/hal_i2s.h"
 2720              		.file 32 "ChibiOS/os/hal/ports/STM32/LLD/SPIv2/hal_i2s_lld.h"
 2721              		.file 33 "/opt/nanovna/gcc-arm-none-eabi-8-2018-q4-major/arm-none-eabi/include/sys/lock.h"
 2722              		.file 34 "/opt/nanovna/gcc-arm-none-eabi-8-2018-q4-major/arm-none-eabi/include/sys/_types.h"
 2723              		.file 35 "/opt/nanovna/gcc-arm-none-eabi-8-2018-q4-major/arm-none-eabi/include/sys/reent.h"
 2724              		.file 36 "/opt/nanovna/gcc-arm-none-eabi-8-2018-q4-major/arm-none-eabi/include/time.h"
 2725              		.file 37 "ChibiOS/os/hal/include/hal_rtc.h"
 2726              		.file 38 "ChibiOS/os/hal/ports/STM32/LLD/RTCv2/hal_rtc_lld.h"
 2727              		.file 39 "ChibiOS/os/hal/include/hal_serial.h"
 2728              		.file 40 "ChibiOS/os/hal/ports/STM32/LLD/USARTv2/hal_serial_lld.h"
 2729              		.file 41 "ChibiOS/os/hal/include/hal_spi.h"
 2730              		.file 42 "ChibiOS/os/hal/ports/STM32/LLD/SPIv2/hal_spi_lld.h"
 2731              		.file 43 "ChibiOS/os/hal/include/hal_usb.h"
 2732              		.file 44 "ChibiOS/os/hal/ports/STM32/LLD/USBv1/hal_usb_lld.h"
ARM GAS  /tmp/ccMOnaqg.s 			page 49


 2733              		.file 45 "ChibiOS/os/rt/include/chthreads.h"
 2734              		.file 46 "ChibiOS/os/hal/ports/common/ARMCMx/nvic.h"