ARM GAS  /tmp/ccASf3XT.s 			page 1


   1              		.cpu cortex-m0
   2              		.eabi_attribute 20, 1
   3              		.eabi_attribute 21, 1
   4              		.eabi_attribute 23, 3
   5              		.eabi_attribute 24, 1
   6              		.eabi_attribute 25, 1
   7              		.eabi_attribute 26, 1
   8              		.eabi_attribute 30, 2
   9              		.eabi_attribute 34, 0
  10              		.eabi_attribute 18, 4
  11              		.file	"hal_st_lld.c"
  12              		.text
  13              	.Ltext0:
  14              		.cfi_sections	.debug_frame
  15              		.section	.text.Vector7C,"ax",%progbits
  16              		.align	1
  17              		.p2align 4,,15
  18              		.global	Vector7C
  19              		.arch armv6s-m
  20              		.syntax unified
  21              		.code	16
  22              		.thumb_func
  23              		.fpu softvfp
  24              		.type	Vector7C, %function
  25              	Vector7C:
  26              	.LFB151:
  27              		.file 1 "ChibiOS/os/hal/ports/STM32/LLD/TIMv1/hal_st_lld.c"
  28              		.loc 1 239 30 view -0
  29              		.cfi_startproc
  30              		@ args = 0, pretend = 0, frame = 0
  31              		@ frame_needed = 0, uses_anonymous_args = 0
  32              		.loc 1 241 3 view .LVU1
  33              		.loc 1 246 20 is_stmt 0 view .LVU2
  34 0000 8023     		movs	r3, #128
  35 0002 DB05     		lsls	r3, r3, #23
  36 0004 1A69     		ldr	r2, [r3, #16]
  37              		.loc 1 239 30 view .LVU3
  38 0006 10B5     		push	{r4, lr}
  39              		.cfi_def_cfa_offset 8
  40              		.cfi_offset 4, -8
  41              		.cfi_offset 14, -4
  42              		.loc 1 241 3 view .LVU4
  43 0008 7446     		mov	r4, lr
  44              	.LVL0:
  45              		.loc 1 241 3 is_stmt 1 view .LVU5
  46              		.loc 1 241 3 view .LVU6
  47              		.loc 1 241 3 view .LVU7
  48              		.loc 1 241 3 view .LVU8
  49              		.loc 1 241 22 view .LVU9
  50              		.loc 1 246 3 view .LVU10
  51              		.loc 1 246 6 is_stmt 0 view .LVU11
  52 000a 9207     		lsls	r2, r2, #30
  53 000c 03D4     		bmi	.L7
  54              	.L2:
  55              		.loc 1 254 3 is_stmt 1 view .LVU12
  56              		.loc 1 254 3 view .LVU13
  57              		.loc 1 254 3 view .LVU14
ARM GAS  /tmp/ccASf3XT.s 			page 2


  58              		.loc 1 254 3 view .LVU15
  59              		.loc 1 254 3 view .LVU16
  60 000e 2000     		movs	r0, r4
  61 0010 FFF7FEFF 		bl	_port_irq_epilogue
  62              	.LVL1:
  63              		.loc 1 255 1 is_stmt 0 view .LVU17
  64              		@ sp needed
  65              	.LVL2:
  66              		.loc 1 255 1 view .LVU18
  67 0014 10BD     		pop	{r4, pc}
  68              	.LVL3:
  69              	.L7:
  70              		.loc 1 247 5 is_stmt 1 view .LVU19
  71              		.loc 1 247 22 is_stmt 0 view .LVU20
  72 0016 0022     		movs	r2, #0
  73 0018 1A61     		str	r2, [r3, #16]
  74              		.loc 1 249 5 is_stmt 1 view .LVU21
  75              	.LBB52:
  76              	.LBI52:
  77              		.file 2 "ChibiOS/os/hal/osal/rt/osal.h"
  78              		.loc 2 513 20 view .LVU22
  79              	.LBE52:
  80              		.loc 2 515 3 view .LVU23
  81              	.LBB64:
  82              	.LBB53:
  83              	.LBI53:
  84              		.file 3 "ChibiOS/os/rt/include/chsys.h"
  85              		.loc 3 414 20 view .LVU24
  86              	.LBE53:
  87              	.LBE64:
  88              		.loc 3 416 3 view .LVU25
  89              	.LBB65:
  90              	.LBB61:
  91              	.LBB54:
  92              	.LBI54:
  93              		.file 4 "ChibiOS/os/common/ports/ARMCMx/chcore_v6m.h"
  94              		.loc 4 390 20 view .LVU26
  95              	.LBE54:
  96              	.LBE61:
  97              	.LBE65:
  98              		.loc 4 392 3 view .LVU27
  99              	.LBB66:
 100              	.LBB62:
 101              	.LBB59:
 102              	.LBB55:
 103              	.LBI55:
 104              		.loc 4 371 20 view .LVU28
 105              	.LBE55:
 106              	.LBE59:
 107              	.LBE62:
 108              	.LBE66:
 109              		.loc 4 373 3 view .LVU29
 110              	.LBB67:
 111              	.LBB63:
 112              	.LBB60:
 113              	.LBB58:
 114              	.LBB56:
ARM GAS  /tmp/ccASf3XT.s 			page 3


 115              	.LBI56:
 116              		.file 5 "ChibiOS/os/common/ext/CMSIS/include/core_cmFunc.h"
 117              		.loc 5 342 57 view .LVU30
 118              	.LBB57:
 119              		.loc 5 344 3 view .LVU31
 120              		.syntax divided
 121              	@ 344 "ChibiOS/os/common/ext/CMSIS/include/core_cmFunc.h" 1
 122 001a 72B6     		cpsid i
 123              	@ 0 "" 2
 124              		.thumb
 125              		.syntax unified
 126              	.LBE57:
 127              	.LBE56:
 128              	.LBE58:
 129              	.LBE60:
 130              	.LBE63:
 131              	.LBE67:
 132              		.loc 3 417 34 view .LVU32
 133              		.loc 3 418 29 view .LVU33
 134              		.loc 1 250 5 view .LVU34
 135              	.LBB68:
 136              	.LBI68:
 137              		.loc 2 583 20 view .LVU35
 138              	.LBB69:
 139              		.loc 2 585 3 view .LVU36
 140 001c FFF7FEFF 		bl	chSysTimerHandlerI
 141              	.LVL4:
 142              	.LBE69:
 143              	.LBE68:
 144              		.loc 1 251 5 view .LVU37
 145              	.LBB70:
 146              	.LBI70:
 147              		.loc 2 524 20 view .LVU38
 148              	.LBE70:
 149              		.loc 2 526 3 view .LVU39
 150              	.LBB82:
 151              	.LBB71:
 152              	.LBI71:
 153              		.loc 3 434 20 view .LVU40
 154              	.LBE71:
 155              	.LBE82:
 156              		.loc 3 436 31 view .LVU41
 157              		.loc 3 437 33 view .LVU42
 158              		.loc 3 438 3 view .LVU43
 159              	.LBB83:
 160              	.LBB79:
 161              	.LBB72:
 162              	.LBI72:
 163              		.loc 4 400 20 view .LVU44
 164              	.LBE72:
 165              	.LBE79:
 166              	.LBE83:
 167              		.loc 4 402 3 view .LVU45
 168              	.LBB84:
 169              	.LBB80:
 170              	.LBB77:
 171              	.LBB73:
ARM GAS  /tmp/ccASf3XT.s 			page 4


 172              	.LBI73:
 173              		.loc 4 380 20 view .LVU46
 174              	.LBE73:
 175              	.LBE77:
 176              	.LBE80:
 177              	.LBE84:
 178              		.loc 4 382 3 view .LVU47
 179              	.LBB85:
 180              	.LBB81:
 181              	.LBB78:
 182              	.LBB76:
 183              	.LBB74:
 184              	.LBI74:
 185              		.loc 5 331 57 view .LVU48
 186              	.LBB75:
 187              		.loc 5 333 3 view .LVU49
 188              		.syntax divided
 189              	@ 333 "ChibiOS/os/common/ext/CMSIS/include/core_cmFunc.h" 1
 190 0020 62B6     		cpsie i
 191              	@ 0 "" 2
 192              		.thumb
 193              		.syntax unified
 194 0022 F4E7     		b	.L2
 195              	.LBE75:
 196              	.LBE74:
 197              	.LBE76:
 198              	.LBE78:
 199              	.LBE81:
 200              	.LBE85:
 201              		.cfi_endproc
 202              	.LFE151:
 203              		.size	Vector7C, .-Vector7C
 204              		.section	.text.st_lld_init,"ax",%progbits
 205              		.align	1
 206              		.p2align 4,,15
 207              		.global	st_lld_init
 208              		.syntax unified
 209              		.code	16
 210              		.thumb_func
 211              		.fpu softvfp
 212              		.type	st_lld_init, %function
 213              	st_lld_init:
 214              	.LFB152:
 215              		.loc 1 267 24 view -0
 216              		.cfi_startproc
 217              		@ args = 0, pretend = 0, frame = 0
 218              		@ frame_needed = 0, uses_anonymous_args = 0
 219              		.loc 1 273 3 view .LVU51
 220 0000 0122     		movs	r2, #1
 221 0002 0E49     		ldr	r1, .L9
 222              		.loc 1 267 24 is_stmt 0 view .LVU52
 223 0004 10B5     		push	{r4, lr}
 224              		.cfi_def_cfa_offset 8
 225              		.cfi_offset 4, -8
 226              		.cfi_offset 14, -4
 227              		.loc 1 273 3 view .LVU53
 228 0006 CB69     		ldr	r3, [r1, #28]
ARM GAS  /tmp/ccASf3XT.s 			page 5


 229              		.loc 1 289 3 view .LVU54
 230 0008 0F20     		movs	r0, #15
 231              		.loc 1 273 3 view .LVU55
 232 000a 1343     		orrs	r3, r2
 233 000c CB61     		str	r3, [r1, #28]
 234              		.loc 1 273 20 is_stmt 1 view .LVU56
 235              		.loc 1 276 3 view .LVU57
 236 000e 0C49     		ldr	r1, .L9+4
 237              		.loc 1 304 1 is_stmt 0 view .LVU58
 238              		@ sp needed
 239              		.loc 1 276 3 view .LVU59
 240 0010 8B68     		ldr	r3, [r1, #8]
 241 0012 1343     		orrs	r3, r2
 242 0014 8B60     		str	r3, [r1, #8]
 243              		.loc 1 279 3 is_stmt 1 view .LVU60
 244              		.loc 1 279 24 is_stmt 0 view .LVU61
 245 0016 8023     		movs	r3, #128
 246 0018 0A49     		ldr	r1, .L9+8
 247 001a DB05     		lsls	r3, r3, #23
 248 001c 9962     		str	r1, [r3, #40]
 249              		.loc 1 280 3 is_stmt 1 view .LVU62
 250              		.loc 1 280 24 is_stmt 0 view .LVU63
 251 001e 0121     		movs	r1, #1
 252 0020 4942     		rsbs	r1, r1, #0
 253 0022 D962     		str	r1, [r3, #44]
 254              		.loc 1 281 3 is_stmt 1 view .LVU64
 255              		.loc 1 281 24 is_stmt 0 view .LVU65
 256 0024 0021     		movs	r1, #0
 257 0026 9961     		str	r1, [r3, #24]
 258              		.loc 1 282 3 is_stmt 1 view .LVU66
 259              		.loc 1 282 24 is_stmt 0 view .LVU67
 260 0028 5963     		str	r1, [r3, #52]
 261              		.loc 1 283 3 is_stmt 1 view .LVU68
 262              		.loc 1 283 24 is_stmt 0 view .LVU69
 263 002a D960     		str	r1, [r3, #12]
 264              		.loc 1 284 3 is_stmt 1 view .LVU70
 265              		.loc 1 284 24 is_stmt 0 view .LVU71
 266 002c 5960     		str	r1, [r3, #4]
 267              		.loc 1 285 3 is_stmt 1 view .LVU72
 268              		.loc 1 285 24 is_stmt 0 view .LVU73
 269 002e 5A61     		str	r2, [r3, #20]
 270              		.loc 1 286 3 is_stmt 1 view .LVU74
 271              		.loc 1 289 3 is_stmt 0 view .LVU75
 272 0030 0231     		adds	r1, r1, #2
 273              		.loc 1 286 24 view .LVU76
 274 0032 1A60     		str	r2, [r3]
 275              		.loc 1 289 3 is_stmt 1 view .LVU77
 276 0034 FFF7FEFF 		bl	nvicEnableVector
 277              	.LVL5:
 278              		.loc 1 304 1 is_stmt 0 view .LVU78
 279 0038 10BD     		pop	{r4, pc}
 280              	.L10:
 281 003a C046     		.align	2
 282              	.L9:
 283 003c 00100240 		.word	1073876992
 284 0040 00580140 		.word	1073829888
 285 0044 BF120000 		.word	4799
ARM GAS  /tmp/ccASf3XT.s 			page 6


 286              		.cfi_endproc
 287              	.LFE152:
 288              		.size	st_lld_init, .-st_lld_init
 289              		.text
 290              	.Letext0:
 291              		.file 6 "/opt/nanovna/gcc-arm-none-eabi-8-2018-q4-major/lib/gcc/arm-none-eabi/8.2.1/include/stddef
 292              		.file 7 "/opt/nanovna/gcc-arm-none-eabi-8-2018-q4-major/arm-none-eabi/include/machine/_default_typ
 293              		.file 8 "/opt/nanovna/gcc-arm-none-eabi-8-2018-q4-major/arm-none-eabi/include/sys/_stdint.h"
 294              		.file 9 "ChibiOS/os/common/ports/ARMCMx/compilers/GCC/chtypes.h"
 295              		.file 10 "ChibiOS/os/rt/include/chsystypes.h"
 296              		.file 11 "ChibiOS/os/rt/include/chschd.h"
 297              		.file 12 "ChibiOS/os/common/ext/CMSIS/ST/STM32F0xx/stm32f072xb.h"
 298              		.file 13 "ChibiOS/os/common/ports/ARMCMx/chcore.h"
 299              		.file 14 "ChibiOS/os/hal/ports/STM32/LLD/TIMv1/stm32_tim.h"
 300              		.file 15 "ChibiOS/os/rt/include/chmtx.h"
 301              		.file 16 "ChibiOS/os/common/ext/CMSIS/ST/STM32F0xx/system_stm32f0xx.h"
 302              		.file 17 "ChibiOS/os/rt/include/chregistry.h"
 303              		.file 18 "ChibiOS/os/rt/include/chevents.h"
 304              		.file 19 "ChibiOS/os/hal/ports/STM32/LLD/DMAv1/stm32_dma.h"
 305              		.file 20 "ChibiOS/os/hal/include/hal_queues.h"
 306              		.file 21 "ChibiOS/os/hal/ports/STM32/LLD/GPIOv2/hal_pal_lld.h"
 307              		.file 22 "ChibiOS/os/hal/include/hal_ext.h"
 308              		.file 23 "ChibiOS/os/hal/ports/STM32/LLD/EXTIv1/hal_ext_lld.h"
 309              		.file 24 "ChibiOS/os/hal/include/hal_gpt.h"
 310              		.file 25 "ChibiOS/os/hal/ports/STM32/LLD/TIMv1/hal_gpt_lld.h"
 311              		.file 26 "ChibiOS/os/hal/include/hal_i2c.h"
 312              		.file 27 "ChibiOS/os/hal/ports/STM32/LLD/I2Cv2/hal_i2c_lld.h"
 313              		.file 28 "ChibiOS/os/hal/include/hal_i2s.h"
 314              		.file 29 "ChibiOS/os/hal/ports/STM32/LLD/SPIv2/hal_i2s_lld.h"
 315              		.file 30 "/opt/nanovna/gcc-arm-none-eabi-8-2018-q4-major/arm-none-eabi/include/sys/lock.h"
 316              		.file 31 "/opt/nanovna/gcc-arm-none-eabi-8-2018-q4-major/arm-none-eabi/include/sys/_types.h"
 317              		.file 32 "/opt/nanovna/gcc-arm-none-eabi-8-2018-q4-major/arm-none-eabi/include/sys/reent.h"
 318              		.file 33 "/opt/nanovna/gcc-arm-none-eabi-8-2018-q4-major/arm-none-eabi/include/time.h"
 319              		.file 34 "ChibiOS/os/hal/include/hal_rtc.h"
 320              		.file 35 "ChibiOS/os/hal/ports/STM32/LLD/RTCv2/hal_rtc_lld.h"
 321              		.file 36 "ChibiOS/os/hal/include/hal_serial.h"
 322              		.file 37 "ChibiOS/os/hal/ports/STM32/LLD/USARTv2/hal_serial_lld.h"
 323              		.file 38 "ChibiOS/os/hal/include/hal_spi.h"
 324              		.file 39 "ChibiOS/os/hal/ports/STM32/LLD/SPIv2/hal_spi_lld.h"
 325              		.file 40 "ChibiOS/os/hal/include/hal_usb.h"
 326              		.file 41 "ChibiOS/os/hal/ports/STM32/LLD/USBv1/hal_usb_lld.h"
 327              		.file 42 "ChibiOS/os/hal/ports/common/ARMCMx/nvic.h"