ARM GAS  /tmp/ccjeNgEm.s 			page 1


   1              		.cpu cortex-m0
   2              		.eabi_attribute 20, 1
   3              		.eabi_attribute 21, 1
   4              		.eabi_attribute 23, 3
   5              		.eabi_attribute 24, 1
   6              		.eabi_attribute 25, 1
   7              		.eabi_attribute 26, 1
   8              		.eabi_attribute 30, 2
   9              		.eabi_attribute 34, 0
  10              		.eabi_attribute 18, 4
  11              		.file	"hal_queues.c"
  12              		.text
  13              	.Ltext0:
  14              		.cfi_sections	.debug_frame
  15              		.section	.text.iqObjectInit,"ax",%progbits
  16              		.align	1
  17              		.p2align 4,,15
  18              		.global	iqObjectInit
  19              		.arch armv6s-m
  20              		.syntax unified
  21              		.code	16
  22              		.thumb_func
  23              		.fpu softvfp
  24              		.type	iqObjectInit, %function
  25              	iqObjectInit:
  26              	.LVL0:
  27              	.LFB151:
  28              		.file 1 "ChibiOS/os/hal/src/hal_queues.c"
  29              		.loc 1 56 47 view -0
  30              		.cfi_startproc
  31              		@ args = 4, pretend = 0, frame = 0
  32              		@ frame_needed = 0, uses_anonymous_args = 0
  33              		.loc 1 58 3 view .LVU1
  34              	.LBB207:
  35              	.LBI207:
  36              		.file 2 "ChibiOS/os/hal/osal/rt/osal.h"
  37              		.loc 2 753 20 view .LVU2
  38              	.LBE207:
  39              		.loc 2 755 3 view .LVU3
  40              	.LBB215:
  41              	.LBB208:
  42              	.LBI208:
  43              		.file 3 "ChibiOS/os/rt/include/chthreads.h"
  44              		.loc 3 395 20 view .LVU4
  45              	.LBE208:
  46              	.LBE215:
  47              		.loc 3 397 3 view .LVU5
  48              	.LBB216:
  49              	.LBB213:
  50              	.LBB209:
  51              	.LBI209:
  52              		.file 4 "ChibiOS/os/rt/include/chschd.h"
  53              		.loc 4 548 20 view .LVU6
  54              	.LBB210:
  55              		.loc 4 550 3 view .LVU7
  56              	.LBE210:
  57              	.LBE209:
ARM GAS  /tmp/ccjeNgEm.s 			page 2


  58              	.LBE213:
  59              	.LBE216:
  60              		.loc 1 56 47 is_stmt 0 view .LVU8
  61 0000 10B5     		push	{r4, lr}
  62              		.cfi_def_cfa_offset 8
  63              		.cfi_offset 4, -8
  64              		.cfi_offset 14, -4
  65              		.loc 1 59 18 view .LVU9
  66 0002 0024     		movs	r4, #0
  67              		.loc 1 64 18 view .LVU10
  68 0004 C361     		str	r3, [r0, #28]
  69              		.loc 1 65 18 view .LVU11
  70 0006 029B     		ldr	r3, [sp, #8]
  71              	.LVL1:
  72              		.loc 1 60 18 view .LVU12
  73 0008 C160     		str	r1, [r0, #12]
  74              		.loc 1 61 18 view .LVU13
  75 000a 8161     		str	r1, [r0, #24]
  76              		.loc 1 62 18 view .LVU14
  77 000c 4161     		str	r1, [r0, #20]
  78              		.loc 1 63 23 view .LVU15
  79 000e 8918     		adds	r1, r1, r2
  80              	.LVL2:
  81              	.LBB217:
  82              	.LBB214:
  83              	.LBB212:
  84              	.LBB211:
  85              		.loc 4 550 13 view .LVU16
  86 0010 0060     		str	r0, [r0]
  87              		.loc 4 551 3 is_stmt 1 view .LVU17
  88              		.loc 4 551 13 is_stmt 0 view .LVU18
  89 0012 4060     		str	r0, [r0, #4]
  90              	.LVL3:
  91              		.loc 4 551 13 view .LVU19
  92              	.LBE211:
  93              	.LBE212:
  94              	.LBE214:
  95              	.LBE217:
  96              		.loc 1 59 3 is_stmt 1 view .LVU20
  97              		.loc 1 59 18 is_stmt 0 view .LVU21
  98 0014 8460     		str	r4, [r0, #8]
  99              		.loc 1 60 3 is_stmt 1 view .LVU22
 100              		.loc 1 61 3 view .LVU23
 101              		.loc 1 62 3 view .LVU24
 102              		.loc 1 63 3 view .LVU25
 103              		.loc 1 63 18 is_stmt 0 view .LVU26
 104 0016 0161     		str	r1, [r0, #16]
 105              		.loc 1 64 3 is_stmt 1 view .LVU27
 106              		.loc 1 65 3 view .LVU28
 107              		.loc 1 65 18 is_stmt 0 view .LVU29
 108 0018 0362     		str	r3, [r0, #32]
 109              		.loc 1 66 1 view .LVU30
 110              		@ sp needed
 111 001a 10BD     		pop	{r4, pc}
 112              		.cfi_endproc
 113              	.LFE151:
 114              		.size	iqObjectInit, .-iqObjectInit
ARM GAS  /tmp/ccjeNgEm.s 			page 3


 115              		.section	.text.iqResetI,"ax",%progbits
 116              		.align	1
 117              		.p2align 4,,15
 118              		.global	iqResetI
 119              		.syntax unified
 120              		.code	16
 121              		.thumb_func
 122              		.fpu softvfp
 123              		.type	iqResetI, %function
 124              	iqResetI:
 125              	.LVL4:
 126              	.LFB152:
 127              		.loc 1 79 35 is_stmt 1 view -0
 128              		.cfi_startproc
 129              		@ args = 0, pretend = 0, frame = 0
 130              		@ frame_needed = 0, uses_anonymous_args = 0
 131              		.loc 1 81 23 view .LVU32
 132              		.loc 1 83 3 view .LVU33
 133              		.loc 1 83 21 is_stmt 0 view .LVU34
 134 0000 C368     		ldr	r3, [r0, #12]
 135              	.LBB218:
 136              	.LBB219:
 137              		.loc 2 810 3 view .LVU35
 138 0002 0221     		movs	r1, #2
 139              	.LBE219:
 140              	.LBE218:
 141              		.loc 1 83 16 view .LVU36
 142 0004 8361     		str	r3, [r0, #24]
 143              		.loc 1 84 3 is_stmt 1 view .LVU37
 144              		.loc 1 84 16 is_stmt 0 view .LVU38
 145 0006 4361     		str	r3, [r0, #20]
 146              		.loc 1 85 3 is_stmt 1 view .LVU39
 147              		.loc 1 85 18 is_stmt 0 view .LVU40
 148 0008 0023     		movs	r3, #0
 149              		.loc 1 79 35 view .LVU41
 150 000a 10B5     		push	{r4, lr}
 151              		.cfi_def_cfa_offset 8
 152              		.cfi_offset 4, -8
 153              		.cfi_offset 14, -4
 154              		.loc 1 85 18 view .LVU42
 155 000c 8360     		str	r3, [r0, #8]
 156              		.loc 1 86 3 is_stmt 1 view .LVU43
 157              	.LVL5:
 158              	.LBB221:
 159              	.LBI218:
 160              		.loc 2 808 20 view .LVU44
 161              	.LBB220:
 162              		.loc 2 810 3 view .LVU45
 163 000e 4942     		rsbs	r1, r1, #0
 164 0010 FFF7FEFF 		bl	chThdDequeueAllI
 165              	.LVL6:
 166              		.loc 2 810 3 is_stmt 0 view .LVU46
 167              	.LBE220:
 168              	.LBE221:
 169              		.loc 1 87 1 view .LVU47
 170              		@ sp needed
 171 0014 10BD     		pop	{r4, pc}
ARM GAS  /tmp/ccjeNgEm.s 			page 4


 172              		.cfi_endproc
 173              	.LFE152:
 174              		.size	iqResetI, .-iqResetI
 175 0016 C046     		.section	.text.iqPutI,"ax",%progbits
 176              		.align	1
 177              		.p2align 4,,15
 178              		.global	iqPutI
 179              		.syntax unified
 180              		.code	16
 181              		.thumb_func
 182              		.fpu softvfp
 183              		.type	iqPutI, %function
 184              	iqPutI:
 185              	.LVL7:
 186              	.LFB153:
 187              		.loc 1 102 45 is_stmt 1 view -0
 188              		.cfi_startproc
 189              		@ args = 0, pretend = 0, frame = 0
 190              		@ frame_needed = 0, uses_anonymous_args = 0
 191              		.loc 1 104 23 view .LVU49
 192              		.loc 1 106 3 view .LVU50
 193              		.loc 1 106 7 is_stmt 0 view .LVU51
 194 0000 4369     		ldr	r3, [r0, #20]
 195 0002 8269     		ldr	r2, [r0, #24]
 196              		.loc 1 102 45 view .LVU52
 197 0004 10B5     		push	{r4, lr}
 198              		.cfi_def_cfa_offset 8
 199              		.cfi_offset 4, -8
 200              		.cfi_offset 14, -4
 201              		.loc 1 106 7 view .LVU53
 202 0006 9342     		cmp	r3, r2
 203 0008 11D0     		beq	.L10
 204              	.L5:
 205              		.loc 1 110 3 is_stmt 1 view .LVU54
 206              		.loc 1 110 6 is_stmt 0 view .LVU55
 207 000a 8268     		ldr	r2, [r0, #8]
 208              		.loc 1 110 17 view .LVU56
 209 000c 0132     		adds	r2, r2, #1
 210 000e 8260     		str	r2, [r0, #8]
 211              		.loc 1 111 3 is_stmt 1 view .LVU57
 212              		.loc 1 111 16 is_stmt 0 view .LVU58
 213 0010 5A1C     		adds	r2, r3, #1
 214 0012 4261     		str	r2, [r0, #20]
 215              		.loc 1 111 19 view .LVU59
 216 0014 1970     		strb	r1, [r3]
 217              		.loc 1 112 3 is_stmt 1 view .LVU60
 218              		.loc 1 112 6 is_stmt 0 view .LVU61
 219 0016 4369     		ldr	r3, [r0, #20]
 220 0018 0269     		ldr	r2, [r0, #16]
 221 001a 9342     		cmp	r3, r2
 222 001c 04D2     		bcs	.L7
 223              	.L8:
 224              		.loc 1 116 3 is_stmt 1 view .LVU62
 225              	.LVL8:
 226              	.LBB222:
 227              	.LBI222:
 228              		.loc 2 795 20 view .LVU63
ARM GAS  /tmp/ccjeNgEm.s 			page 5


 229              	.LBB223:
 230              		.loc 2 797 3 view .LVU64
 231 001e 0021     		movs	r1, #0
 232              	.LVL9:
 233              		.loc 2 797 3 is_stmt 0 view .LVU65
 234 0020 FFF7FEFF 		bl	chThdDequeueNextI
 235              	.LVL10:
 236              		.loc 2 797 3 view .LVU66
 237              	.LBE223:
 238              	.LBE222:
 239              		.loc 1 118 3 is_stmt 1 view .LVU67
 240              		.loc 1 118 10 is_stmt 0 view .LVU68
 241 0024 0020     		movs	r0, #0
 242              	.L4:
 243              		.loc 1 119 1 view .LVU69
 244              		@ sp needed
 245 0026 10BD     		pop	{r4, pc}
 246              	.LVL11:
 247              	.L7:
 248              		.loc 1 113 5 is_stmt 1 view .LVU70
 249              		.loc 1 113 18 is_stmt 0 view .LVU71
 250 0028 C368     		ldr	r3, [r0, #12]
 251 002a 4361     		str	r3, [r0, #20]
 252 002c F7E7     		b	.L8
 253              	.L10:
 254              		.loc 1 106 7 discriminator 1 view .LVU72
 255 002e 8268     		ldr	r2, [r0, #8]
 256 0030 002A     		cmp	r2, #0
 257 0032 EAD0     		beq	.L5
 258              		.loc 1 107 12 view .LVU73
 259 0034 0120     		movs	r0, #1
 260              	.LVL12:
 261              		.loc 1 107 12 view .LVU74
 262 0036 4042     		rsbs	r0, r0, #0
 263 0038 F5E7     		b	.L4
 264              		.cfi_endproc
 265              	.LFE153:
 266              		.size	iqPutI, .-iqPutI
 267 003a C046     		.section	.text.iqGetTimeout,"ax",%progbits
 268              		.align	1
 269              		.p2align 4,,15
 270              		.global	iqGetTimeout
 271              		.syntax unified
 272              		.code	16
 273              		.thumb_func
 274              		.fpu softvfp
 275              		.type	iqGetTimeout, %function
 276              	iqGetTimeout:
 277              	.LVL13:
 278              	.LFB154:
 279              		.loc 1 141 59 is_stmt 1 view -0
 280              		.cfi_startproc
 281              		@ args = 0, pretend = 0, frame = 0
 282              		@ frame_needed = 0, uses_anonymous_args = 0
 283              		.loc 1 142 3 view .LVU76
 284              		.loc 1 144 3 view .LVU77
 285              	.LBB224:
ARM GAS  /tmp/ccjeNgEm.s 			page 6


 286              	.LBI224:
 287              		.loc 2 491 20 view .LVU78
 288              	.LBE224:
 289              		.loc 2 493 3 view .LVU79
 290              	.LBB236:
 291              	.LBB225:
 292              	.LBI225:
 293              		.file 5 "ChibiOS/os/rt/include/chsys.h"
 294              		.loc 5 374 20 view .LVU80
 295              	.LBE225:
 296              	.LBE236:
 297              		.loc 5 376 3 view .LVU81
 298              	.LBB237:
 299              	.LBB233:
 300              	.LBB226:
 301              	.LBI226:
 302              		.file 6 "ChibiOS/os/common/ports/ARMCMx/chcore_v6m.h"
 303              		.loc 6 371 20 view .LVU82
 304              	.LBE226:
 305              	.LBE233:
 306              	.LBE237:
 307              		.loc 6 373 3 view .LVU83
 308              	.LBB238:
 309              	.LBB234:
 310              	.LBB231:
 311              	.LBB227:
 312              	.LBI227:
 313              		.file 7 "ChibiOS/os/common/ext/CMSIS/include/core_cmFunc.h"
 314              		.loc 7 342 57 view .LVU84
 315              	.LBB228:
 316              		.loc 7 344 3 view .LVU85
 317              	.LBE228:
 318              	.LBE227:
 319              	.LBE231:
 320              	.LBE234:
 321              	.LBE238:
 322              		.loc 1 141 59 is_stmt 0 view .LVU86
 323 0000 70B5     		push	{r4, r5, r6, lr}
 324              		.cfi_def_cfa_offset 16
 325              		.cfi_offset 4, -16
 326              		.cfi_offset 5, -12
 327              		.cfi_offset 6, -8
 328              		.cfi_offset 14, -4
 329              		.loc 1 141 59 view .LVU87
 330 0002 0400     		movs	r4, r0
 331 0004 0D00     		movs	r5, r1
 332              	.LBB239:
 333              	.LBB235:
 334              	.LBB232:
 335              	.LBB230:
 336              	.LBB229:
 337              		.loc 7 344 3 view .LVU88
 338              		.syntax divided
 339              	@ 344 "ChibiOS/os/common/ext/CMSIS/include/core_cmFunc.h" 1
 340 0006 72B6     		cpsid i
 341              	@ 0 "" 2
 342              		.thumb
ARM GAS  /tmp/ccjeNgEm.s 			page 7


 343              		.syntax unified
 344              	.LBE229:
 345              	.LBE230:
 346              	.LBE232:
 347              	.LBE235:
 348              	.LBE239:
 349              		.loc 5 377 34 is_stmt 1 view .LVU89
 350              		.loc 5 378 20 view .LVU90
 351 0008 05E0     		b	.L12
 352              	.LVL14:
 353              	.L14:
 354              	.LBB240:
 355              		.loc 1 148 5 view .LVU91
 356              	.LBB241:
 357              	.LBI241:
 358              		.loc 2 781 21 view .LVU92
 359              	.LBB242:
 360              		.loc 2 784 3 view .LVU93
 361              		.loc 2 784 10 is_stmt 0 view .LVU94
 362 000a 2900     		movs	r1, r5
 363 000c 2000     		movs	r0, r4
 364 000e FFF7FEFF 		bl	chThdEnqueueTimeoutS
 365              	.LVL15:
 366              		.loc 2 784 10 view .LVU95
 367              	.LBE242:
 368              	.LBE241:
 369              		.loc 1 149 5 is_stmt 1 view .LVU96
 370              		.loc 1 149 8 is_stmt 0 view .LVU97
 371 0012 0028     		cmp	r0, #0
 372 0014 16DB     		blt	.L21
 373              	.LVL16:
 374              	.L12:
 375              		.loc 1 149 8 view .LVU98
 376              	.LBE240:
 377              		.loc 1 147 10 view .LVU99
 378 0016 A368     		ldr	r3, [r4, #8]
 379              		.loc 1 147 9 view .LVU100
 380 0018 002B     		cmp	r3, #0
 381 001a F6D0     		beq	.L14
 382              		.loc 1 156 3 is_stmt 1 view .LVU101
 383              		.loc 1 156 6 is_stmt 0 view .LVU102
 384 001c A368     		ldr	r3, [r4, #8]
 385              		.loc 1 157 11 view .LVU103
 386 001e A269     		ldr	r2, [r4, #24]
 387              		.loc 1 156 17 view .LVU104
 388 0020 013B     		subs	r3, r3, #1
 389 0022 A360     		str	r3, [r4, #8]
 390              		.loc 1 157 3 is_stmt 1 view .LVU105
 391              		.loc 1 157 20 is_stmt 0 view .LVU106
 392 0024 531C     		adds	r3, r2, #1
 393 0026 A361     		str	r3, [r4, #24]
 394              		.loc 1 157 5 view .LVU107
 395 0028 1578     		ldrb	r5, [r2]
 396              	.LVL17:
 397              		.loc 1 158 3 is_stmt 1 view .LVU108
 398              		.loc 1 158 6 is_stmt 0 view .LVU109
 399 002a 2269     		ldr	r2, [r4, #16]
ARM GAS  /tmp/ccjeNgEm.s 			page 8


 400 002c 9342     		cmp	r3, r2
 401 002e 01D3     		bcc	.L15
 402              		.loc 1 159 5 is_stmt 1 view .LVU110
 403              		.loc 1 159 18 is_stmt 0 view .LVU111
 404 0030 E368     		ldr	r3, [r4, #12]
 405 0032 A361     		str	r3, [r4, #24]
 406              	.L15:
 407              		.loc 1 163 3 is_stmt 1 view .LVU112
 408              		.loc 1 163 10 is_stmt 0 view .LVU113
 409 0034 E369     		ldr	r3, [r4, #28]
 410              		.loc 1 163 6 view .LVU114
 411 0036 002B     		cmp	r3, #0
 412 0038 01D0     		beq	.L16
 413              		.loc 1 164 5 is_stmt 1 view .LVU115
 414 003a 2000     		movs	r0, r4
 415 003c 9847     		blx	r3
 416              	.LVL18:
 417              	.L16:
 418              		.loc 1 167 3 view .LVU116
 419              	.LBB254:
 420              	.LBI254:
 421              		.loc 2 502 20 view .LVU117
 422              	.LBE254:
 423              		.loc 2 504 3 view .LVU118
 424              	.LBB263:
 425              	.LBB255:
 426              	.LBI255:
 427              		.loc 5 386 20 view .LVU119
 428              	.LBB256:
 429              		.loc 5 388 22 view .LVU120
 430              		.loc 5 389 33 view .LVU121
 431              		.loc 5 395 3 view .LVU122
 432              		.loc 5 395 3 view .LVU123
 433              		.loc 5 399 3 view .LVU124
 434              	.LBB257:
 435              	.LBI257:
 436              		.loc 6 380 20 view .LVU125
 437              	.LBE257:
 438              	.LBE256:
 439              	.LBE255:
 440              	.LBE263:
 441              		.loc 6 382 3 view .LVU126
 442              	.LBB264:
 443              	.LBB262:
 444              	.LBB261:
 445              	.LBB260:
 446              	.LBB258:
 447              	.LBI258:
 448              		.loc 7 331 57 view .LVU127
 449              	.LBB259:
 450              		.loc 7 333 3 view .LVU128
 451              		.syntax divided
 452              	@ 333 "ChibiOS/os/common/ext/CMSIS/include/core_cmFunc.h" 1
 453 003e 62B6     		cpsie i
 454              	@ 0 "" 2
 455              		.thumb
 456              		.syntax unified
ARM GAS  /tmp/ccjeNgEm.s 			page 9


 457              	.LBE259:
 458              	.LBE258:
 459              	.LBE260:
 460              	.LBE261:
 461              	.LBE262:
 462              	.LBE264:
 463              		.loc 1 169 3 view .LVU129
 464              		.loc 1 169 10 is_stmt 0 view .LVU130
 465 0040 2800     		movs	r0, r5
 466              	.LVL19:
 467              	.L11:
 468              		.loc 1 170 1 view .LVU131
 469              		@ sp needed
 470              	.LVL20:
 471              		.loc 1 170 1 view .LVU132
 472 0042 70BD     		pop	{r4, r5, r6, pc}
 473              	.LVL21:
 474              	.L21:
 475              	.LBB265:
 476              		.loc 1 150 7 is_stmt 1 view .LVU133
 477              	.LBB243:
 478              	.LBI243:
 479              		.loc 2 502 20 view .LVU134
 480              	.LBE243:
 481              	.LBE265:
 482              		.loc 2 504 3 view .LVU135
 483              	.LBB266:
 484              	.LBB252:
 485              	.LBB244:
 486              	.LBI244:
 487              		.loc 5 386 20 view .LVU136
 488              	.LBB245:
 489              		.loc 5 388 22 view .LVU137
 490              		.loc 5 389 33 view .LVU138
 491              		.loc 5 395 3 view .LVU139
 492              		.loc 5 395 3 view .LVU140
 493              		.loc 5 399 3 view .LVU141
 494              	.LBB246:
 495              	.LBI246:
 496              		.loc 6 380 20 view .LVU142
 497              	.LBE246:
 498              	.LBE245:
 499              	.LBE244:
 500              	.LBE252:
 501              	.LBE266:
 502              		.loc 6 382 3 view .LVU143
 503              	.LBB267:
 504              	.LBB253:
 505              	.LBB251:
 506              	.LBB250:
 507              	.LBB249:
 508              	.LBB247:
 509              	.LBI247:
 510              		.loc 7 331 57 view .LVU144
 511              	.LBB248:
 512              		.loc 7 333 3 view .LVU145
 513              		.syntax divided
ARM GAS  /tmp/ccjeNgEm.s 			page 10


 514              	@ 333 "ChibiOS/os/common/ext/CMSIS/include/core_cmFunc.h" 1
 515 0044 62B6     		cpsie i
 516              	@ 0 "" 2
 517              		.thumb
 518              		.syntax unified
 519              	.LBE248:
 520              	.LBE247:
 521              	.LBE249:
 522              	.LBE250:
 523              	.LBE251:
 524              	.LBE253:
 525              		.loc 1 151 7 view .LVU146
 526              		.loc 1 151 14 is_stmt 0 view .LVU147
 527 0046 FCE7     		b	.L11
 528              	.LBE267:
 529              		.cfi_endproc
 530              	.LFE154:
 531              		.size	iqGetTimeout, .-iqGetTimeout
 532              		.section	.text.iqReadTimeout,"ax",%progbits
 533              		.align	1
 534              		.p2align 4,,15
 535              		.global	iqReadTimeout
 536              		.syntax unified
 537              		.code	16
 538              		.thumb_func
 539              		.fpu softvfp
 540              		.type	iqReadTimeout, %function
 541              	iqReadTimeout:
 542              	.LVL22:
 543              	.LFB155:
 544              		.loc 1 197 51 is_stmt 1 view -0
 545              		.cfi_startproc
 546              		@ args = 0, pretend = 0, frame = 8
 547              		@ frame_needed = 0, uses_anonymous_args = 0
 548              		.loc 1 198 3 view .LVU149
 549              		.loc 1 199 3 view .LVU150
 550              		.loc 1 197 51 is_stmt 0 view .LVU151
 551 0000 F0B5     		push	{r4, r5, r6, r7, lr}
 552              		.cfi_def_cfa_offset 20
 553              		.cfi_offset 4, -20
 554              		.cfi_offset 5, -16
 555              		.cfi_offset 6, -12
 556              		.cfi_offset 7, -8
 557              		.cfi_offset 14, -4
 558 0002 5746     		mov	r7, r10
 559 0004 4E46     		mov	r6, r9
 560 0006 4546     		mov	r5, r8
 561 0008 DE46     		mov	lr, fp
 562 000a E0B5     		push	{r5, r6, r7, lr}
 563              		.cfi_def_cfa_offset 36
 564              		.cfi_offset 8, -36
 565              		.cfi_offset 9, -32
 566              		.cfi_offset 10, -28
 567              		.cfi_offset 11, -24
 568 000c 9A46     		mov	r10, r3
 569              		.loc 1 199 13 view .LVU152
 570 000e C369     		ldr	r3, [r0, #28]
ARM GAS  /tmp/ccjeNgEm.s 			page 11


 571              	.LVL23:
 572              		.loc 1 197 51 view .LVU153
 573 0010 83B0     		sub	sp, sp, #12
 574              		.cfi_def_cfa_offset 48
 575              		.loc 1 197 51 view .LVU154
 576 0012 0400     		movs	r4, r0
 577 0014 0E00     		movs	r6, r1
 578 0016 1500     		movs	r5, r2
 579              		.loc 1 199 13 view .LVU155
 580 0018 9946     		mov	r9, r3
 581              	.LVL24:
 582              		.loc 1 200 3 is_stmt 1 view .LVU156
 583              		.loc 1 202 3 view .LVU157
 584              		.loc 1 202 3 view .LVU158
 585              		.loc 1 204 3 view .LVU159
 586              	.LBB268:
 587              	.LBI268:
 588              		.loc 2 491 20 view .LVU160
 589              	.LBE268:
 590              		.loc 2 493 3 view .LVU161
 591              	.LBB276:
 592              	.LBB269:
 593              	.LBI269:
 594              		.loc 5 374 20 view .LVU162
 595              	.LBE269:
 596              	.LBE276:
 597              		.loc 5 376 3 view .LVU163
 598              	.LBB277:
 599              	.LBB274:
 600              	.LBB270:
 601              	.LBI270:
 602              		.loc 6 371 20 view .LVU164
 603              	.LBE270:
 604              	.LBE274:
 605              	.LBE277:
 606              		.loc 6 373 3 view .LVU165
 607              	.LBB278:
 608              	.LBB275:
 609              	.LBB273:
 610              	.LBB271:
 611              	.LBI271:
 612              		.loc 7 342 57 view .LVU166
 613              	.LBB272:
 614              		.loc 7 344 3 view .LVU167
 615              		.syntax divided
 616              	@ 344 "ChibiOS/os/common/ext/CMSIS/include/core_cmFunc.h" 1
 617 001a 72B6     		cpsid i
 618              	@ 0 "" 2
 619              		.thumb
 620              		.syntax unified
 621              	.LBE272:
 622              	.LBE271:
 623              	.LBE273:
 624              	.LBE275:
 625              	.LBE278:
 626              		.loc 5 377 34 view .LVU168
 627              		.loc 5 378 20 view .LVU169
ARM GAS  /tmp/ccjeNgEm.s 			page 12


 628              		.loc 1 209 3 view .LVU170
 629              	.LBB279:
 630              	.LBI279:
 631              		.loc 2 616 25 view .LVU171
 632              	.LBE279:
 633              		.loc 2 618 3 view .LVU172
 634              	.LBB287:
 635              	.LBB280:
 636              	.LBI280:
 637              		.file 8 "ChibiOS/os/rt/include/chvt.h"
 638              		.loc 8 228 25 view .LVU173
 639              	.LBE280:
 640              	.LBE287:
 641              		.loc 8 233 3 view .LVU174
 642              	.LBB288:
 643              	.LBB285:
 644              	.LBB281:
 645              	.LBI281:
 646              		.file 9 "ChibiOS/os/common/ports/ARMCMx/chcore_timer.h"
 647              		.loc 9 105 25 view .LVU175
 648              	.LBE281:
 649              	.LBE285:
 650              	.LBE288:
 651              		.loc 9 107 3 view .LVU176
 652              	.LBB289:
 653              	.LBB286:
 654              	.LBB284:
 655              	.LBB282:
 656              	.LBI282:
 657              		.file 10 "ChibiOS/os/hal/ports/STM32/LLD/TIMv1/hal_st_lld.h"
 658              		.loc 10 139 25 view .LVU177
 659              	.LBB283:
 660              		.loc 10 141 3 view .LVU178
 661              		.loc 10 141 10 is_stmt 0 view .LVU179
 662 001c 8023     		movs	r3, #128
 663              	.LVL25:
 664              		.loc 10 141 10 view .LVU180
 665 001e DB05     		lsls	r3, r3, #23
 666 0020 5A6A     		ldr	r2, [r3, #36]
 667              	.LVL26:
 668              		.loc 10 141 10 view .LVU181
 669              	.LBE283:
 670              	.LBE282:
 671              	.LBE284:
 672              	.LBE286:
 673              	.LBE289:
 674              		.loc 1 200 10 view .LVU182
 675 0022 0027     		movs	r7, #0
 676              		.loc 1 209 12 view .LVU183
 677 0024 5244     		add	r2, r2, r10
 678 0026 0192     		str	r2, [sp, #4]
 679              	.LVL27:
 680              	.LBB290:
 681              		.loc 1 218 38 view .LVU184
 682 0028 5246     		mov	r2, r10
 683              	.LVL28:
 684              	.LBB291:
ARM GAS  /tmp/ccjeNgEm.s 			page 13


 685              	.LBB292:
 686              	.LBB293:
 687              	.LBB294:
 688              	.LBB295:
 689              	.LBB296:
 690              		.loc 10 141 10 view .LVU185
 691 002a 9B46     		mov	fp, r3
 692              	.LBE296:
 693              	.LBE295:
 694              	.LBE294:
 695              	.LBE293:
 696              	.LBE292:
 697              	.LBE291:
 698              		.loc 1 218 38 view .LVU186
 699 002c 013A     		subs	r2, r2, #1
 700 002e 0092     		str	r2, [sp]
 701              	.LVL29:
 702              	.L23:
 703              		.loc 1 218 38 view .LVU187
 704              	.LBE290:
 705              		.loc 1 213 12 view .LVU188
 706 0030 A368     		ldr	r3, [r4, #8]
 707              		.loc 1 213 11 view .LVU189
 708 0032 002B     		cmp	r3, #0
 709 0034 1ED0     		beq	.L29
 710              	.L42:
 711              		.loc 1 243 5 is_stmt 1 view .LVU190
 712              		.loc 1 243 8 is_stmt 0 view .LVU191
 713 0036 A368     		ldr	r3, [r4, #8]
 714              		.loc 1 243 19 view .LVU192
 715 0038 013B     		subs	r3, r3, #1
 716 003a A360     		str	r3, [r4, #8]
 717              		.loc 1 244 5 is_stmt 1 view .LVU193
 718              		.loc 1 244 17 is_stmt 0 view .LVU194
 719 003c A369     		ldr	r3, [r4, #24]
 720              		.loc 1 244 26 view .LVU195
 721 003e 5A1C     		adds	r2, r3, #1
 722 0040 A261     		str	r2, [r4, #24]
 723              		.loc 1 244 13 view .LVU196
 724 0042 1B78     		ldrb	r3, [r3]
 725              		.loc 1 244 8 view .LVU197
 726 0044 721C     		adds	r2, r6, #1
 727              		.loc 1 244 11 view .LVU198
 728 0046 3370     		strb	r3, [r6]
 729              		.loc 1 244 8 view .LVU199
 730 0048 9046     		mov	r8, r2
 731              	.LVL30:
 732              		.loc 1 245 5 is_stmt 1 view .LVU200
 733              		.loc 1 245 8 is_stmt 0 view .LVU201
 734 004a A369     		ldr	r3, [r4, #24]
 735 004c 2269     		ldr	r2, [r4, #16]
 736              	.LVL31:
 737              		.loc 1 245 8 view .LVU202
 738 004e 9342     		cmp	r3, r2
 739 0050 01D3     		bcc	.L30
 740              		.loc 1 246 7 is_stmt 1 view .LVU203
 741              		.loc 1 246 20 is_stmt 0 view .LVU204
ARM GAS  /tmp/ccjeNgEm.s 			page 14


 742 0052 E368     		ldr	r3, [r4, #12]
 743 0054 A361     		str	r3, [r4, #24]
 744              	.L30:
 745              		.loc 1 250 5 is_stmt 1 view .LVU205
 746              		.loc 1 250 8 is_stmt 0 view .LVU206
 747 0056 4B46     		mov	r3, r9
 748 0058 002B     		cmp	r3, #0
 749 005a 01D0     		beq	.L31
 750              	.LVL32:
 751              		.loc 1 251 7 is_stmt 1 view .LVU207
 752 005c 2000     		movs	r0, r4
 753 005e C847     		blx	r9
 754              	.LVL33:
 755              	.L31:
 756              		.loc 1 255 5 view .LVU208
 757              	.LBB327:
 758              	.LBI327:
 759              		.loc 2 502 20 view .LVU209
 760              	.LBE327:
 761              		.loc 2 504 3 view .LVU210
 762              	.LBB336:
 763              	.LBB328:
 764              	.LBI328:
 765              		.loc 5 386 20 view .LVU211
 766              	.LBB329:
 767              		.loc 5 388 22 view .LVU212
 768              		.loc 5 389 33 view .LVU213
 769              		.loc 5 395 3 view .LVU214
 770              		.loc 5 395 3 view .LVU215
 771              		.loc 5 399 3 view .LVU216
 772              	.LBB330:
 773              	.LBI330:
 774              		.loc 6 380 20 view .LVU217
 775              	.LBE330:
 776              	.LBE329:
 777              	.LBE328:
 778              	.LBE336:
 779              		.loc 6 382 3 view .LVU218
 780              	.LBB337:
 781              	.LBB335:
 782              	.LBB334:
 783              	.LBB333:
 784              	.LBB331:
 785              	.LBI331:
 786              		.loc 7 331 57 view .LVU219
 787              	.LBB332:
 788              		.loc 7 333 3 view .LVU220
 789              		.syntax divided
 790              	@ 333 "ChibiOS/os/common/ext/CMSIS/include/core_cmFunc.h" 1
 791 0060 62B6     		cpsie i
 792              	@ 0 "" 2
 793              		.thumb
 794              		.syntax unified
 795              	.LBE332:
 796              	.LBE331:
 797              	.LBE333:
 798              	.LBE334:
ARM GAS  /tmp/ccjeNgEm.s 			page 15


 799              	.LBE335:
 800              	.LBE337:
 801              		.loc 1 257 5 view .LVU221
 802              		.loc 1 258 8 is_stmt 0 view .LVU222
 803 0062 013D     		subs	r5, r5, #1
 804              	.LVL34:
 805              		.loc 1 257 6 view .LVU223
 806 0064 0137     		adds	r7, r7, #1
 807              	.LVL35:
 808              		.loc 1 258 5 is_stmt 1 view .LVU224
 809              		.loc 1 258 8 is_stmt 0 view .LVU225
 810 0066 002D     		cmp	r5, #0
 811 0068 13D0     		beq	.L22
 812              		.loc 1 262 5 is_stmt 1 view .LVU226
 813              	.LBB338:
 814              	.LBI338:
 815              		.loc 2 491 20 view .LVU227
 816              	.LBE338:
 817              		.loc 2 493 3 view .LVU228
 818              	.LBB346:
 819              	.LBB339:
 820              	.LBI339:
 821              		.loc 5 374 20 view .LVU229
 822              	.LBE339:
 823              	.LBE346:
 824              		.loc 5 376 3 view .LVU230
 825              	.LBB347:
 826              	.LBB344:
 827              	.LBB340:
 828              	.LBI340:
 829              		.loc 6 371 20 view .LVU231
 830              	.LBE340:
 831              	.LBE344:
 832              	.LBE347:
 833              		.loc 6 373 3 view .LVU232
 834              	.LBB348:
 835              	.LBB345:
 836              	.LBB343:
 837              	.LBB341:
 838              	.LBI341:
 839              		.loc 7 342 57 view .LVU233
 840              	.LBB342:
 841              		.loc 7 344 3 view .LVU234
 842              		.syntax divided
 843              	@ 344 "ChibiOS/os/common/ext/CMSIS/include/core_cmFunc.h" 1
 844 006a 72B6     		cpsid i
 845              	@ 0 "" 2
 846              		.thumb
 847              		.syntax unified
 848              	.LBE342:
 849              	.LBE341:
 850              	.LBE343:
 851              	.LBE345:
 852              	.LBE348:
 853              		.loc 5 377 34 view .LVU235
 854              		.loc 5 378 20 view .LVU236
 855              		.loc 1 213 12 is_stmt 0 view .LVU237
ARM GAS  /tmp/ccjeNgEm.s 			page 16


 856 006c A368     		ldr	r3, [r4, #8]
 857              		.loc 1 244 8 view .LVU238
 858 006e 4646     		mov	r6, r8
 859              	.LVL36:
 860              		.loc 1 213 11 view .LVU239
 861 0070 002B     		cmp	r3, #0
 862 0072 E0D1     		bne	.L42
 863              	.L29:
 864              	.LBB349:
 865              		.loc 1 214 7 is_stmt 1 view .LVU240
 866              		.loc 1 218 7 view .LVU241
 867              		.loc 1 218 10 is_stmt 0 view .LVU242
 868 0074 009B     		ldr	r3, [sp]
 869 0076 0333     		adds	r3, r3, #3
 870 0078 13D8     		bhi	.L43
 871              	.LBB310:
 872              		.loc 1 222 9 is_stmt 1 view .LVU243
 873              	.LBB304:
 874              	.LBI292:
 875              		.loc 2 616 25 view .LVU244
 876              	.LBE304:
 877              	.LBE310:
 878              	.LBE349:
 879              		.loc 2 618 3 view .LVU245
 880              	.LBB350:
 881              	.LBB311:
 882              	.LBB305:
 883              	.LBB301:
 884              	.LBI293:
 885              		.loc 8 228 25 view .LVU246
 886              	.LBE301:
 887              	.LBE305:
 888              	.LBE311:
 889              	.LBE350:
 890              		.loc 8 233 3 view .LVU247
 891              	.LBB351:
 892              	.LBB312:
 893              	.LBB306:
 894              	.LBB302:
 895              	.LBB299:
 896              	.LBI294:
 897              		.loc 9 105 25 view .LVU248
 898              	.LBE299:
 899              	.LBE302:
 900              	.LBE306:
 901              	.LBE312:
 902              	.LBE351:
 903              		.loc 9 107 3 view .LVU249
 904              	.LBB352:
 905              	.LBB313:
 906              	.LBB307:
 907              	.LBB303:
 908              	.LBB300:
 909              	.LBB298:
 910              	.LBI295:
 911              		.loc 10 139 25 view .LVU250
 912              	.LBB297:
ARM GAS  /tmp/ccjeNgEm.s 			page 17


 913              		.loc 10 141 3 view .LVU251
 914              		.loc 10 141 10 is_stmt 0 view .LVU252
 915 007a 5B46     		mov	r3, fp
 916 007c 596A     		ldr	r1, [r3, #36]
 917              	.LBE297:
 918              	.LBE298:
 919              	.LBE300:
 920              	.LBE303:
 921              	.LBE307:
 922              		.loc 1 222 19 view .LVU253
 923 007e 019B     		ldr	r3, [sp, #4]
 924 0080 591A     		subs	r1, r3, r1
 925              	.LVL37:
 926              		.loc 1 227 9 is_stmt 1 view .LVU254
 927              		.loc 1 227 12 is_stmt 0 view .LVU255
 928 0082 8A45     		cmp	r10, r1
 929 0084 04D3     		bcc	.L41
 930              		.loc 1 232 9 is_stmt 1 view .LVU256
 931              	.LVL38:
 932              	.LBB308:
 933              	.LBI308:
 934              		.loc 2 781 21 view .LVU257
 935              	.LBB309:
 936              		.loc 2 784 3 view .LVU258
 937              		.loc 2 784 10 is_stmt 0 view .LVU259
 938 0086 2000     		movs	r0, r4
 939 0088 FFF7FEFF 		bl	chThdEnqueueTimeoutS
 940              	.LVL39:
 941              	.L25:
 942              		.loc 2 784 10 view .LVU260
 943              	.LBE309:
 944              	.LBE308:
 945              	.LBE313:
 946              		.loc 1 236 7 is_stmt 1 view .LVU261
 947              		.loc 1 236 10 is_stmt 0 view .LVU262
 948 008c 0028     		cmp	r0, #0
 949 008e CFD0     		beq	.L23
 950              	.LVL40:
 951              	.L41:
 952              		.loc 1 237 9 is_stmt 1 view .LVU263
 953              	.LBB314:
 954              	.LBI314:
 955              		.loc 2 502 20 view .LVU264
 956              	.LBE314:
 957              	.LBE352:
 958              		.loc 2 504 3 view .LVU265
 959              	.LBB353:
 960              	.LBB323:
 961              	.LBB315:
 962              	.LBI315:
 963              		.loc 5 386 20 view .LVU266
 964              	.LBB316:
 965              		.loc 5 388 22 view .LVU267
 966              		.loc 5 389 33 view .LVU268
 967              		.loc 5 395 3 view .LVU269
 968              		.loc 5 395 3 view .LVU270
 969              		.loc 5 399 3 view .LVU271
ARM GAS  /tmp/ccjeNgEm.s 			page 18


 970              	.LBB317:
 971              	.LBI317:
 972              		.loc 6 380 20 view .LVU272
 973              	.LBE317:
 974              	.LBE316:
 975              	.LBE315:
 976              	.LBE323:
 977              	.LBE353:
 978              		.loc 6 382 3 view .LVU273
 979              	.LBB354:
 980              	.LBB324:
 981              	.LBB322:
 982              	.LBB321:
 983              	.LBB320:
 984              	.LBB318:
 985              	.LBI318:
 986              		.loc 7 331 57 view .LVU274
 987              	.LBB319:
 988              		.loc 7 333 3 view .LVU275
 989              		.syntax divided
 990              	@ 333 "ChibiOS/os/common/ext/CMSIS/include/core_cmFunc.h" 1
 991 0090 62B6     		cpsie i
 992              	@ 0 "" 2
 993              		.thumb
 994              		.syntax unified
 995              	.LBE319:
 996              	.LBE318:
 997              	.LBE320:
 998              	.LBE321:
 999              	.LBE322:
 1000              	.LBE324:
 1001              		.loc 1 238 9 view .LVU276
 1002              	.LVL41:
 1003              	.L22:
 1004              		.loc 1 238 9 is_stmt 0 view .LVU277
 1005              	.LBE354:
 1006              		.loc 1 264 1 view .LVU278
 1007 0092 3800     		movs	r0, r7
 1008 0094 03B0     		add	sp, sp, #12
 1009              		@ sp needed
 1010              	.LVL42:
 1011              	.LVL43:
 1012              	.LVL44:
 1013              	.LVL45:
 1014              	.LVL46:
 1015              		.loc 1 264 1 view .LVU279
 1016 0096 3CBC     		pop	{r2, r3, r4, r5}
 1017 0098 9046     		mov	r8, r2
 1018 009a 9946     		mov	r9, r3
 1019 009c A246     		mov	r10, r4
 1020 009e AB46     		mov	fp, r5
 1021 00a0 F0BD     		pop	{r4, r5, r6, r7, pc}
 1022              	.LVL47:
 1023              	.L43:
 1024              	.LBB355:
 1025              		.loc 1 219 9 is_stmt 1 view .LVU280
 1026              	.LBB325:
ARM GAS  /tmp/ccjeNgEm.s 			page 19


 1027              	.LBI325:
 1028              		.loc 2 781 21 view .LVU281
 1029              	.LBB326:
 1030              		.loc 2 784 3 view .LVU282
 1031              		.loc 2 784 10 is_stmt 0 view .LVU283
 1032 00a2 5146     		mov	r1, r10
 1033 00a4 2000     		movs	r0, r4
 1034 00a6 FFF7FEFF 		bl	chThdEnqueueTimeoutS
 1035              	.LVL48:
 1036              		.loc 2 784 10 view .LVU284
 1037              	.LBE326:
 1038              	.LBE325:
 1039 00aa EFE7     		b	.L25
 1040              	.LBE355:
 1041              		.cfi_endproc
 1042              	.LFE155:
 1043              		.size	iqReadTimeout, .-iqReadTimeout
 1044              		.section	.text.oqObjectInit,"ax",%progbits
 1045              		.align	1
 1046              		.p2align 4,,15
 1047              		.global	oqObjectInit
 1048              		.syntax unified
 1049              		.code	16
 1050              		.thumb_func
 1051              		.fpu softvfp
 1052              		.type	oqObjectInit, %function
 1053              	oqObjectInit:
 1054              	.LVL49:
 1055              	.LFB156:
 1056              		.loc 1 282 47 is_stmt 1 view -0
 1057              		.cfi_startproc
 1058              		@ args = 4, pretend = 0, frame = 0
 1059              		@ frame_needed = 0, uses_anonymous_args = 0
 1060              		@ link register save eliminated.
 1061              		.loc 1 284 3 view .LVU286
 1062              	.LBB356:
 1063              	.LBI356:
 1064              		.loc 2 753 20 view .LVU287
 1065              	.LBE356:
 1066              		.loc 2 755 3 view .LVU288
 1067              	.LBB364:
 1068              	.LBB357:
 1069              	.LBI357:
 1070              		.loc 3 395 20 view .LVU289
 1071              	.LBE357:
 1072              	.LBE364:
 1073              		.loc 3 397 3 view .LVU290
 1074              	.LBB365:
 1075              	.LBB362:
 1076              	.LBB358:
 1077              	.LBI358:
 1078              		.loc 4 548 20 view .LVU291
 1079              	.LBB359:
 1080              		.loc 4 550 3 view .LVU292
 1081              	.LBE359:
 1082              	.LBE358:
 1083              	.LBE362:
ARM GAS  /tmp/ccjeNgEm.s 			page 20


 1084              	.LBE365:
 1085              		.loc 1 290 18 is_stmt 0 view .LVU293
 1086 0000 C361     		str	r3, [r0, #28]
 1087              		.loc 1 291 18 view .LVU294
 1088 0002 009B     		ldr	r3, [sp]
 1089              	.LVL50:
 1090              		.loc 1 286 18 view .LVU295
 1091 0004 C160     		str	r1, [r0, #12]
 1092              		.loc 1 287 18 view .LVU296
 1093 0006 8161     		str	r1, [r0, #24]
 1094              		.loc 1 288 18 view .LVU297
 1095 0008 4161     		str	r1, [r0, #20]
 1096              		.loc 1 289 23 view .LVU298
 1097 000a 8918     		adds	r1, r1, r2
 1098              	.LVL51:
 1099              	.LBB366:
 1100              	.LBB363:
 1101              	.LBB361:
 1102              	.LBB360:
 1103              		.loc 4 550 13 view .LVU299
 1104 000c 0060     		str	r0, [r0]
 1105              		.loc 4 551 3 is_stmt 1 view .LVU300
 1106              		.loc 4 551 13 is_stmt 0 view .LVU301
 1107 000e 4060     		str	r0, [r0, #4]
 1108              	.LVL52:
 1109              		.loc 4 551 13 view .LVU302
 1110              	.LBE360:
 1111              	.LBE361:
 1112              	.LBE363:
 1113              	.LBE366:
 1114              		.loc 1 285 3 is_stmt 1 view .LVU303
 1115              		.loc 1 285 18 is_stmt 0 view .LVU304
 1116 0010 8260     		str	r2, [r0, #8]
 1117              		.loc 1 286 3 is_stmt 1 view .LVU305
 1118              		.loc 1 287 3 view .LVU306
 1119              		.loc 1 288 3 view .LVU307
 1120              		.loc 1 289 3 view .LVU308
 1121              		.loc 1 289 18 is_stmt 0 view .LVU309
 1122 0012 0161     		str	r1, [r0, #16]
 1123              		.loc 1 290 3 is_stmt 1 view .LVU310
 1124              		.loc 1 291 3 view .LVU311
 1125              		.loc 1 291 18 is_stmt 0 view .LVU312
 1126 0014 0362     		str	r3, [r0, #32]
 1127              		.loc 1 292 1 view .LVU313
 1128              		@ sp needed
 1129 0016 7047     		bx	lr
 1130              		.cfi_endproc
 1131              	.LFE156:
 1132              		.size	oqObjectInit, .-oqObjectInit
 1133              		.section	.text.oqResetI,"ax",%progbits
 1134              		.align	1
 1135              		.p2align 4,,15
 1136              		.global	oqResetI
 1137              		.syntax unified
 1138              		.code	16
 1139              		.thumb_func
 1140              		.fpu softvfp
ARM GAS  /tmp/ccjeNgEm.s 			page 21


 1141              		.type	oqResetI, %function
 1142              	oqResetI:
 1143              	.LVL53:
 1144              	.LFB157:
 1145              		.loc 1 305 36 is_stmt 1 view -0
 1146              		.cfi_startproc
 1147              		@ args = 0, pretend = 0, frame = 0
 1148              		@ frame_needed = 0, uses_anonymous_args = 0
 1149              		.loc 1 307 23 view .LVU315
 1150              		.loc 1 309 3 view .LVU316
 1151              	.LBB367:
 1152              	.LBB368:
 1153              		.loc 2 810 3 is_stmt 0 view .LVU317
 1154 0000 0221     		movs	r1, #2
 1155              	.LBE368:
 1156              	.LBE367:
 1157              		.loc 1 305 36 view .LVU318
 1158 0002 10B5     		push	{r4, lr}
 1159              		.cfi_def_cfa_offset 8
 1160              		.cfi_offset 4, -8
 1161              		.cfi_offset 14, -4
 1162              		.loc 1 309 21 view .LVU319
 1163 0004 C368     		ldr	r3, [r0, #12]
 1164              		.loc 1 311 20 view .LVU320
 1165 0006 0269     		ldr	r2, [r0, #16]
 1166              		.loc 1 309 16 view .LVU321
 1167 0008 8361     		str	r3, [r0, #24]
 1168              		.loc 1 310 3 is_stmt 1 view .LVU322
 1169              		.loc 1 310 16 is_stmt 0 view .LVU323
 1170 000a 4361     		str	r3, [r0, #20]
 1171              		.loc 1 311 3 is_stmt 1 view .LVU324
 1172              		.loc 1 311 20 is_stmt 0 view .LVU325
 1173 000c D31A     		subs	r3, r2, r3
 1174              		.loc 1 311 18 view .LVU326
 1175 000e 8360     		str	r3, [r0, #8]
 1176              		.loc 1 312 3 is_stmt 1 view .LVU327
 1177              	.LVL54:
 1178              	.LBB370:
 1179              	.LBI367:
 1180              		.loc 2 808 20 view .LVU328
 1181              	.LBB369:
 1182              		.loc 2 810 3 view .LVU329
 1183 0010 4942     		rsbs	r1, r1, #0
 1184 0012 FFF7FEFF 		bl	chThdDequeueAllI
 1185              	.LVL55:
 1186              		.loc 2 810 3 is_stmt 0 view .LVU330
 1187              	.LBE369:
 1188              	.LBE370:
 1189              		.loc 1 313 1 view .LVU331
 1190              		@ sp needed
 1191 0016 10BD     		pop	{r4, pc}
 1192              		.cfi_endproc
 1193              	.LFE157:
 1194              		.size	oqResetI, .-oqResetI
 1195              		.section	.text.oqPutTimeout,"ax",%progbits
 1196              		.align	1
 1197              		.p2align 4,,15
ARM GAS  /tmp/ccjeNgEm.s 			page 22


 1198              		.global	oqPutTimeout
 1199              		.syntax unified
 1200              		.code	16
 1201              		.thumb_func
 1202              		.fpu softvfp
 1203              		.type	oqPutTimeout, %function
 1204              	oqPutTimeout:
 1205              	.LVL56:
 1206              	.LFB158:
 1207              		.loc 1 337 71 is_stmt 1 view -0
 1208              		.cfi_startproc
 1209              		@ args = 0, pretend = 0, frame = 0
 1210              		@ frame_needed = 0, uses_anonymous_args = 0
 1211              		.loc 1 339 3 view .LVU333
 1212              	.LBB371:
 1213              	.LBI371:
 1214              		.loc 2 491 20 view .LVU334
 1215              	.LBE371:
 1216              		.loc 2 493 3 view .LVU335
 1217              	.LBB383:
 1218              	.LBB372:
 1219              	.LBI372:
 1220              		.loc 5 374 20 view .LVU336
 1221              	.LBE372:
 1222              	.LBE383:
 1223              		.loc 5 376 3 view .LVU337
 1224              	.LBB384:
 1225              	.LBB380:
 1226              	.LBB373:
 1227              	.LBI373:
 1228              		.loc 6 371 20 view .LVU338
 1229              	.LBE373:
 1230              	.LBE380:
 1231              	.LBE384:
 1232              		.loc 6 373 3 view .LVU339
 1233              	.LBB385:
 1234              	.LBB381:
 1235              	.LBB378:
 1236              	.LBB374:
 1237              	.LBI374:
 1238              		.loc 7 342 57 view .LVU340
 1239              	.LBB375:
 1240              		.loc 7 344 3 view .LVU341
 1241              	.LBE375:
 1242              	.LBE374:
 1243              	.LBE378:
 1244              	.LBE381:
 1245              	.LBE385:
 1246              		.loc 1 337 71 is_stmt 0 view .LVU342
 1247 0000 70B5     		push	{r4, r5, r6, lr}
 1248              		.cfi_def_cfa_offset 16
 1249              		.cfi_offset 4, -16
 1250              		.cfi_offset 5, -12
 1251              		.cfi_offset 6, -8
 1252              		.cfi_offset 14, -4
 1253              		.loc 1 337 71 view .LVU343
 1254 0002 0400     		movs	r4, r0
ARM GAS  /tmp/ccjeNgEm.s 			page 23


 1255 0004 0E00     		movs	r6, r1
 1256 0006 1500     		movs	r5, r2
 1257              	.LBB386:
 1258              	.LBB382:
 1259              	.LBB379:
 1260              	.LBB377:
 1261              	.LBB376:
 1262              		.loc 7 344 3 view .LVU344
 1263              		.syntax divided
 1264              	@ 344 "ChibiOS/os/common/ext/CMSIS/include/core_cmFunc.h" 1
 1265 0008 72B6     		cpsid i
 1266              	@ 0 "" 2
 1267              		.thumb
 1268              		.syntax unified
 1269              	.LBE376:
 1270              	.LBE377:
 1271              	.LBE379:
 1272              	.LBE382:
 1273              	.LBE386:
 1274              		.loc 5 377 34 is_stmt 1 view .LVU345
 1275              		.loc 5 378 20 view .LVU346
 1276 000a 05E0     		b	.L47
 1277              	.LVL57:
 1278              	.L49:
 1279              	.LBB387:
 1280              		.loc 1 343 5 view .LVU347
 1281              	.LBB388:
 1282              	.LBI388:
 1283              		.loc 2 781 21 view .LVU348
 1284              	.LBB389:
 1285              		.loc 2 784 3 view .LVU349
 1286              		.loc 2 784 10 is_stmt 0 view .LVU350
 1287 000c 2900     		movs	r1, r5
 1288 000e 2000     		movs	r0, r4
 1289 0010 FFF7FEFF 		bl	chThdEnqueueTimeoutS
 1290              	.LVL58:
 1291              		.loc 2 784 10 view .LVU351
 1292              	.LBE389:
 1293              	.LBE388:
 1294              		.loc 1 344 5 is_stmt 1 view .LVU352
 1295              		.loc 1 344 8 is_stmt 0 view .LVU353
 1296 0014 0028     		cmp	r0, #0
 1297 0016 17DB     		blt	.L56
 1298              	.LVL59:
 1299              	.L47:
 1300              		.loc 1 344 8 view .LVU354
 1301              	.LBE387:
 1302              		.loc 1 342 10 view .LVU355
 1303 0018 A368     		ldr	r3, [r4, #8]
 1304              		.loc 1 342 9 view .LVU356
 1305 001a 002B     		cmp	r3, #0
 1306 001c F6D0     		beq	.L49
 1307              		.loc 1 351 3 is_stmt 1 view .LVU357
 1308              		.loc 1 351 6 is_stmt 0 view .LVU358
 1309 001e A368     		ldr	r3, [r4, #8]
 1310              		.loc 1 351 17 view .LVU359
 1311 0020 013B     		subs	r3, r3, #1
ARM GAS  /tmp/ccjeNgEm.s 			page 24


 1312 0022 A360     		str	r3, [r4, #8]
 1313              		.loc 1 352 3 is_stmt 1 view .LVU360
 1314              		.loc 1 352 7 is_stmt 0 view .LVU361
 1315 0024 6369     		ldr	r3, [r4, #20]
 1316              		.loc 1 352 16 view .LVU362
 1317 0026 5A1C     		adds	r2, r3, #1
 1318 0028 6261     		str	r2, [r4, #20]
 1319              		.loc 1 352 19 view .LVU363
 1320 002a 1E70     		strb	r6, [r3]
 1321              		.loc 1 353 3 is_stmt 1 view .LVU364
 1322              		.loc 1 353 6 is_stmt 0 view .LVU365
 1323 002c 6369     		ldr	r3, [r4, #20]
 1324 002e 2269     		ldr	r2, [r4, #16]
 1325 0030 9342     		cmp	r3, r2
 1326 0032 01D3     		bcc	.L50
 1327              		.loc 1 354 5 is_stmt 1 view .LVU366
 1328              		.loc 1 354 18 is_stmt 0 view .LVU367
 1329 0034 E368     		ldr	r3, [r4, #12]
 1330 0036 6361     		str	r3, [r4, #20]
 1331              	.L50:
 1332              		.loc 1 358 3 is_stmt 1 view .LVU368
 1333              		.loc 1 358 10 is_stmt 0 view .LVU369
 1334 0038 E369     		ldr	r3, [r4, #28]
 1335              		.loc 1 358 6 view .LVU370
 1336 003a 002B     		cmp	r3, #0
 1337 003c 01D0     		beq	.L51
 1338              		.loc 1 359 5 is_stmt 1 view .LVU371
 1339 003e 2000     		movs	r0, r4
 1340 0040 9847     		blx	r3
 1341              	.LVL60:
 1342              	.L51:
 1343              		.loc 1 362 3 view .LVU372
 1344              	.LBB401:
 1345              	.LBI401:
 1346              		.loc 2 502 20 view .LVU373
 1347              	.LBE401:
 1348              		.loc 2 504 3 view .LVU374
 1349              	.LBB410:
 1350              	.LBB402:
 1351              	.LBI402:
 1352              		.loc 5 386 20 view .LVU375
 1353              	.LBB403:
 1354              		.loc 5 388 22 view .LVU376
 1355              		.loc 5 389 33 view .LVU377
 1356              		.loc 5 395 3 view .LVU378
 1357              		.loc 5 395 3 view .LVU379
 1358              		.loc 5 399 3 view .LVU380
 1359              	.LBB404:
 1360              	.LBI404:
 1361              		.loc 6 380 20 view .LVU381
 1362              	.LBE404:
 1363              	.LBE403:
 1364              	.LBE402:
 1365              	.LBE410:
 1366              		.loc 6 382 3 view .LVU382
 1367              	.LBB411:
 1368              	.LBB409:
ARM GAS  /tmp/ccjeNgEm.s 			page 25


 1369              	.LBB408:
 1370              	.LBB407:
 1371              	.LBB405:
 1372              	.LBI405:
 1373              		.loc 7 331 57 view .LVU383
 1374              	.LBB406:
 1375              		.loc 7 333 3 view .LVU384
 1376              		.syntax divided
 1377              	@ 333 "ChibiOS/os/common/ext/CMSIS/include/core_cmFunc.h" 1
 1378 0042 62B6     		cpsie i
 1379              	@ 0 "" 2
 1380              		.thumb
 1381              		.syntax unified
 1382              	.LBE406:
 1383              	.LBE405:
 1384              	.LBE407:
 1385              	.LBE408:
 1386              	.LBE409:
 1387              	.LBE411:
 1388              		.loc 1 364 3 view .LVU385
 1389              		.loc 1 364 10 is_stmt 0 view .LVU386
 1390 0044 0020     		movs	r0, #0
 1391              	.L46:
 1392              		.loc 1 365 1 view .LVU387
 1393              		@ sp needed
 1394              	.LVL61:
 1395              	.LVL62:
 1396              		.loc 1 365 1 view .LVU388
 1397 0046 70BD     		pop	{r4, r5, r6, pc}
 1398              	.LVL63:
 1399              	.L56:
 1400              	.LBB412:
 1401              		.loc 1 345 7 is_stmt 1 view .LVU389
 1402              	.LBB390:
 1403              	.LBI390:
 1404              		.loc 2 502 20 view .LVU390
 1405              	.LBE390:
 1406              	.LBE412:
 1407              		.loc 2 504 3 view .LVU391
 1408              	.LBB413:
 1409              	.LBB399:
 1410              	.LBB391:
 1411              	.LBI391:
 1412              		.loc 5 386 20 view .LVU392
 1413              	.LBB392:
 1414              		.loc 5 388 22 view .LVU393
 1415              		.loc 5 389 33 view .LVU394
 1416              		.loc 5 395 3 view .LVU395
 1417              		.loc 5 395 3 view .LVU396
 1418              		.loc 5 399 3 view .LVU397
 1419              	.LBB393:
 1420              	.LBI393:
 1421              		.loc 6 380 20 view .LVU398
 1422              	.LBE393:
 1423              	.LBE392:
 1424              	.LBE391:
 1425              	.LBE399:
ARM GAS  /tmp/ccjeNgEm.s 			page 26


 1426              	.LBE413:
 1427              		.loc 6 382 3 view .LVU399
 1428              	.LBB414:
 1429              	.LBB400:
 1430              	.LBB398:
 1431              	.LBB397:
 1432              	.LBB396:
 1433              	.LBB394:
 1434              	.LBI394:
 1435              		.loc 7 331 57 view .LVU400
 1436              	.LBB395:
 1437              		.loc 7 333 3 view .LVU401
 1438              		.syntax divided
 1439              	@ 333 "ChibiOS/os/common/ext/CMSIS/include/core_cmFunc.h" 1
 1440 0048 62B6     		cpsie i
 1441              	@ 0 "" 2
 1442              		.thumb
 1443              		.syntax unified
 1444              	.LBE395:
 1445              	.LBE394:
 1446              	.LBE396:
 1447              	.LBE397:
 1448              	.LBE398:
 1449              	.LBE400:
 1450              		.loc 1 346 7 view .LVU402
 1451              		.loc 1 346 14 is_stmt 0 view .LVU403
 1452 004a FCE7     		b	.L46
 1453              	.LBE414:
 1454              		.cfi_endproc
 1455              	.LFE158:
 1456              		.size	oqPutTimeout, .-oqPutTimeout
 1457              		.section	.text.oqGetI,"ax",%progbits
 1458              		.align	1
 1459              		.p2align 4,,15
 1460              		.global	oqGetI
 1461              		.syntax unified
 1462              		.code	16
 1463              		.thumb_func
 1464              		.fpu softvfp
 1465              		.type	oqGetI, %function
 1466              	oqGetI:
 1467              	.LVL64:
 1468              	.LFB159:
 1469              		.loc 1 377 35 is_stmt 1 view -0
 1470              		.cfi_startproc
 1471              		@ args = 0, pretend = 0, frame = 0
 1472              		@ frame_needed = 0, uses_anonymous_args = 0
 1473              		.loc 1 378 3 view .LVU405
 1474              		.loc 1 380 23 view .LVU406
 1475              		.loc 1 382 3 view .LVU407
 1476              		.loc 1 382 7 is_stmt 0 view .LVU408
 1477 0000 8369     		ldr	r3, [r0, #24]
 1478 0002 4269     		ldr	r2, [r0, #20]
 1479              		.loc 1 377 35 view .LVU409
 1480 0004 10B5     		push	{r4, lr}
 1481              		.cfi_def_cfa_offset 8
 1482              		.cfi_offset 4, -8
ARM GAS  /tmp/ccjeNgEm.s 			page 27


 1483              		.cfi_offset 14, -4
 1484              		.loc 1 382 7 view .LVU410
 1485 0006 9A42     		cmp	r2, r3
 1486 0008 10D0     		beq	.L63
 1487              	.L58:
 1488              		.loc 1 386 3 is_stmt 1 view .LVU411
 1489              		.loc 1 386 6 is_stmt 0 view .LVU412
 1490 000a 8268     		ldr	r2, [r0, #8]
 1491              		.loc 1 386 17 view .LVU413
 1492 000c 0132     		adds	r2, r2, #1
 1493 000e 8260     		str	r2, [r0, #8]
 1494              		.loc 1 387 3 is_stmt 1 view .LVU414
 1495              		.loc 1 387 20 is_stmt 0 view .LVU415
 1496 0010 5A1C     		adds	r2, r3, #1
 1497 0012 8261     		str	r2, [r0, #24]
 1498              		.loc 1 387 5 view .LVU416
 1499 0014 1C78     		ldrb	r4, [r3]
 1500              	.LVL65:
 1501              		.loc 1 388 3 is_stmt 1 view .LVU417
 1502              		.loc 1 388 6 is_stmt 0 view .LVU418
 1503 0016 0369     		ldr	r3, [r0, #16]
 1504 0018 9A42     		cmp	r2, r3
 1505 001a 04D2     		bcs	.L60
 1506              	.L61:
 1507              		.loc 1 392 3 is_stmt 1 view .LVU419
 1508              	.LVL66:
 1509              	.LBB415:
 1510              	.LBI415:
 1511              		.loc 2 795 20 view .LVU420
 1512              	.LBB416:
 1513              		.loc 2 797 3 view .LVU421
 1514 001c 0021     		movs	r1, #0
 1515 001e FFF7FEFF 		bl	chThdDequeueNextI
 1516              	.LVL67:
 1517              		.loc 2 797 3 is_stmt 0 view .LVU422
 1518              	.LBE416:
 1519              	.LBE415:
 1520              		.loc 1 394 3 is_stmt 1 view .LVU423
 1521              		.loc 1 394 10 is_stmt 0 view .LVU424
 1522 0022 2000     		movs	r0, r4
 1523              	.LVL68:
 1524              	.L57:
 1525              		.loc 1 395 1 view .LVU425
 1526              		@ sp needed
 1527 0024 10BD     		pop	{r4, pc}
 1528              	.LVL69:
 1529              	.L60:
 1530              		.loc 1 389 5 is_stmt 1 view .LVU426
 1531              		.loc 1 389 18 is_stmt 0 view .LVU427
 1532 0026 C368     		ldr	r3, [r0, #12]
 1533 0028 8361     		str	r3, [r0, #24]
 1534 002a F7E7     		b	.L61
 1535              	.LVL70:
 1536              	.L63:
 1537              		.loc 1 382 7 discriminator 1 view .LVU428
 1538 002c 8268     		ldr	r2, [r0, #8]
 1539 002e 002A     		cmp	r2, #0
ARM GAS  /tmp/ccjeNgEm.s 			page 28


 1540 0030 EBD0     		beq	.L58
 1541              		.loc 1 383 12 view .LVU429
 1542 0032 0120     		movs	r0, #1
 1543              	.LVL71:
 1544              		.loc 1 383 12 view .LVU430
 1545 0034 4042     		rsbs	r0, r0, #0
 1546 0036 F5E7     		b	.L57
 1547              		.cfi_endproc
 1548              	.LFE159:
 1549              		.size	oqGetI, .-oqGetI
 1550              		.section	.text.oqWriteTimeout,"ax",%progbits
 1551              		.align	1
 1552              		.p2align 4,,15
 1553              		.global	oqWriteTimeout
 1554              		.syntax unified
 1555              		.code	16
 1556              		.thumb_func
 1557              		.fpu softvfp
 1558              		.type	oqWriteTimeout, %function
 1559              	oqWriteTimeout:
 1560              	.LVL72:
 1561              	.LFB160:
 1562              		.loc 1 422 52 is_stmt 1 view -0
 1563              		.cfi_startproc
 1564              		@ args = 0, pretend = 0, frame = 8
 1565              		@ frame_needed = 0, uses_anonymous_args = 0
 1566              		.loc 1 423 3 view .LVU432
 1567              		.loc 1 424 3 view .LVU433
 1568              		.loc 1 422 52 is_stmt 0 view .LVU434
 1569 0000 F0B5     		push	{r4, r5, r6, r7, lr}
 1570              		.cfi_def_cfa_offset 20
 1571              		.cfi_offset 4, -20
 1572              		.cfi_offset 5, -16
 1573              		.cfi_offset 6, -12
 1574              		.cfi_offset 7, -8
 1575              		.cfi_offset 14, -4
 1576 0002 5746     		mov	r7, r10
 1577 0004 4E46     		mov	r6, r9
 1578 0006 4546     		mov	r5, r8
 1579 0008 DE46     		mov	lr, fp
 1580 000a E0B5     		push	{r5, r6, r7, lr}
 1581              		.cfi_def_cfa_offset 36
 1582              		.cfi_offset 8, -36
 1583              		.cfi_offset 9, -32
 1584              		.cfi_offset 10, -28
 1585              		.cfi_offset 11, -24
 1586 000c 9A46     		mov	r10, r3
 1587              		.loc 1 424 13 view .LVU435
 1588 000e C369     		ldr	r3, [r0, #28]
 1589              	.LVL73:
 1590              		.loc 1 422 52 view .LVU436
 1591 0010 83B0     		sub	sp, sp, #12
 1592              		.cfi_def_cfa_offset 48
 1593              		.loc 1 422 52 view .LVU437
 1594 0012 0400     		movs	r4, r0
 1595 0014 0E00     		movs	r6, r1
 1596 0016 1500     		movs	r5, r2
ARM GAS  /tmp/ccjeNgEm.s 			page 29


 1597              		.loc 1 424 13 view .LVU438
 1598 0018 9946     		mov	r9, r3
 1599              	.LVL74:
 1600              		.loc 1 425 3 is_stmt 1 view .LVU439
 1601              		.loc 1 427 3 view .LVU440
 1602              		.loc 1 427 3 view .LVU441
 1603              		.loc 1 429 3 view .LVU442
 1604              	.LBB417:
 1605              	.LBI417:
 1606              		.loc 2 491 20 view .LVU443
 1607              	.LBE417:
 1608              		.loc 2 493 3 view .LVU444
 1609              	.LBB425:
 1610              	.LBB418:
 1611              	.LBI418:
 1612              		.loc 5 374 20 view .LVU445
 1613              	.LBE418:
 1614              	.LBE425:
 1615              		.loc 5 376 3 view .LVU446
 1616              	.LBB426:
 1617              	.LBB423:
 1618              	.LBB419:
 1619              	.LBI419:
 1620              		.loc 6 371 20 view .LVU447
 1621              	.LBE419:
 1622              	.LBE423:
 1623              	.LBE426:
 1624              		.loc 6 373 3 view .LVU448
 1625              	.LBB427:
 1626              	.LBB424:
 1627              	.LBB422:
 1628              	.LBB420:
 1629              	.LBI420:
 1630              		.loc 7 342 57 view .LVU449
 1631              	.LBB421:
 1632              		.loc 7 344 3 view .LVU450
 1633              		.syntax divided
 1634              	@ 344 "ChibiOS/os/common/ext/CMSIS/include/core_cmFunc.h" 1
 1635 001a 72B6     		cpsid i
 1636              	@ 0 "" 2
 1637              		.thumb
 1638              		.syntax unified
 1639              	.LBE421:
 1640              	.LBE420:
 1641              	.LBE422:
 1642              	.LBE424:
 1643              	.LBE427:
 1644              		.loc 5 377 34 view .LVU451
 1645              		.loc 5 378 20 view .LVU452
 1646              		.loc 1 434 3 view .LVU453
 1647              	.LBB428:
 1648              	.LBI428:
 1649              		.loc 2 616 25 view .LVU454
 1650              	.LBE428:
 1651              		.loc 2 618 3 view .LVU455
 1652              	.LBB436:
 1653              	.LBB429:
ARM GAS  /tmp/ccjeNgEm.s 			page 30


 1654              	.LBI429:
 1655              		.loc 8 228 25 view .LVU456
 1656              	.LBE429:
 1657              	.LBE436:
 1658              		.loc 8 233 3 view .LVU457
 1659              	.LBB437:
 1660              	.LBB434:
 1661              	.LBB430:
 1662              	.LBI430:
 1663              		.loc 9 105 25 view .LVU458
 1664              	.LBE430:
 1665              	.LBE434:
 1666              	.LBE437:
 1667              		.loc 9 107 3 view .LVU459
 1668              	.LBB438:
 1669              	.LBB435:
 1670              	.LBB433:
 1671              	.LBB431:
 1672              	.LBI431:
 1673              		.loc 10 139 25 view .LVU460
 1674              	.LBB432:
 1675              		.loc 10 141 3 view .LVU461
 1676              		.loc 10 141 10 is_stmt 0 view .LVU462
 1677 001c 8023     		movs	r3, #128
 1678              	.LVL75:
 1679              		.loc 10 141 10 view .LVU463
 1680 001e DB05     		lsls	r3, r3, #23
 1681 0020 5A6A     		ldr	r2, [r3, #36]
 1682              	.LVL76:
 1683              		.loc 10 141 10 view .LVU464
 1684              	.LBE432:
 1685              	.LBE431:
 1686              	.LBE433:
 1687              	.LBE435:
 1688              	.LBE438:
 1689              		.loc 1 425 10 view .LVU465
 1690 0022 0027     		movs	r7, #0
 1691              		.loc 1 434 12 view .LVU466
 1692 0024 5244     		add	r2, r2, r10
 1693 0026 0192     		str	r2, [sp, #4]
 1694              	.LVL77:
 1695              	.LBB439:
 1696              		.loc 1 442 38 view .LVU467
 1697 0028 5246     		mov	r2, r10
 1698              	.LVL78:
 1699              	.LBB440:
 1700              	.LBB441:
 1701              	.LBB442:
 1702              	.LBB443:
 1703              	.LBB444:
 1704              	.LBB445:
 1705              		.loc 10 141 10 view .LVU468
 1706 002a 9B46     		mov	fp, r3
 1707              	.LBE445:
 1708              	.LBE444:
 1709              	.LBE443:
 1710              	.LBE442:
ARM GAS  /tmp/ccjeNgEm.s 			page 31


 1711              	.LBE441:
 1712              	.LBE440:
 1713              		.loc 1 442 38 view .LVU469
 1714 002c 013A     		subs	r2, r2, #1
 1715 002e 0092     		str	r2, [sp]
 1716              	.LVL79:
 1717              	.L65:
 1718              		.loc 1 439 12 view .LVU470
 1719 0030 A368     		ldr	r3, [r4, #8]
 1720              		.loc 1 439 11 view .LVU471
 1721 0032 002B     		cmp	r3, #0
 1722 0034 1ED0     		beq	.L71
 1723              	.L84:
 1724              		.loc 1 467 5 is_stmt 1 view .LVU472
 1725              		.loc 1 467 8 is_stmt 0 view .LVU473
 1726 0036 A368     		ldr	r3, [r4, #8]
 1727              		.loc 1 467 19 view .LVU474
 1728 0038 013B     		subs	r3, r3, #1
 1729 003a A360     		str	r3, [r4, #8]
 1730              		.loc 1 468 5 is_stmt 1 view .LVU475
 1731              		.loc 1 468 26 is_stmt 0 view .LVU476
 1732 003c 731C     		adds	r3, r6, #1
 1733 003e 9846     		mov	r8, r3
 1734              	.LVL80:
 1735              		.loc 1 468 9 view .LVU477
 1736 0040 6369     		ldr	r3, [r4, #20]
 1737              	.LVL81:
 1738              		.loc 1 468 18 view .LVU478
 1739 0042 5A1C     		adds	r2, r3, #1
 1740 0044 6261     		str	r2, [r4, #20]
 1741              		.loc 1 468 23 view .LVU479
 1742 0046 3278     		ldrb	r2, [r6]
 1743              		.loc 1 468 21 view .LVU480
 1744 0048 1A70     		strb	r2, [r3]
 1745              		.loc 1 469 5 is_stmt 1 view .LVU481
 1746              		.loc 1 469 8 is_stmt 0 view .LVU482
 1747 004a 6369     		ldr	r3, [r4, #20]
 1748 004c 2269     		ldr	r2, [r4, #16]
 1749 004e 9342     		cmp	r3, r2
 1750 0050 01D3     		bcc	.L72
 1751              		.loc 1 470 7 is_stmt 1 view .LVU483
 1752              		.loc 1 470 20 is_stmt 0 view .LVU484
 1753 0052 E368     		ldr	r3, [r4, #12]
 1754 0054 6361     		str	r3, [r4, #20]
 1755              	.L72:
 1756              		.loc 1 474 5 is_stmt 1 view .LVU485
 1757              		.loc 1 474 8 is_stmt 0 view .LVU486
 1758 0056 4B46     		mov	r3, r9
 1759 0058 002B     		cmp	r3, #0
 1760 005a 01D0     		beq	.L73
 1761              	.LVL82:
 1762              		.loc 1 475 7 is_stmt 1 view .LVU487
 1763 005c 2000     		movs	r0, r4
 1764 005e C847     		blx	r9
 1765              	.LVL83:
 1766              	.L73:
 1767              		.loc 1 479 5 view .LVU488
ARM GAS  /tmp/ccjeNgEm.s 			page 32


 1768              	.LBB459:
 1769              	.LBI459:
 1770              		.loc 2 502 20 view .LVU489
 1771              	.LBE459:
 1772              	.LBE439:
 1773              		.loc 2 504 3 view .LVU490
 1774              	.LBB498:
 1775              	.LBB468:
 1776              	.LBB460:
 1777              	.LBI460:
 1778              		.loc 5 386 20 view .LVU491
 1779              	.LBB461:
 1780              		.loc 5 388 22 view .LVU492
 1781              		.loc 5 389 33 view .LVU493
 1782              		.loc 5 395 3 view .LVU494
 1783              		.loc 5 395 3 view .LVU495
 1784              		.loc 5 399 3 view .LVU496
 1785              	.LBB462:
 1786              	.LBI462:
 1787              		.loc 6 380 20 view .LVU497
 1788              	.LBE462:
 1789              	.LBE461:
 1790              	.LBE460:
 1791              	.LBE468:
 1792              	.LBE498:
 1793              		.loc 6 382 3 view .LVU498
 1794              	.LBB499:
 1795              	.LBB469:
 1796              	.LBB467:
 1797              	.LBB466:
 1798              	.LBB465:
 1799              	.LBB463:
 1800              	.LBI463:
 1801              		.loc 7 331 57 view .LVU499
 1802              	.LBB464:
 1803              		.loc 7 333 3 view .LVU500
 1804              		.syntax divided
 1805              	@ 333 "ChibiOS/os/common/ext/CMSIS/include/core_cmFunc.h" 1
 1806 0060 62B6     		cpsie i
 1807              	@ 0 "" 2
 1808              		.thumb
 1809              		.syntax unified
 1810              	.LBE464:
 1811              	.LBE463:
 1812              	.LBE465:
 1813              	.LBE466:
 1814              	.LBE467:
 1815              	.LBE469:
 1816              		.loc 1 481 5 view .LVU501
 1817              		.loc 1 482 8 is_stmt 0 view .LVU502
 1818 0062 013D     		subs	r5, r5, #1
 1819              	.LVL84:
 1820              		.loc 1 481 6 view .LVU503
 1821 0064 0137     		adds	r7, r7, #1
 1822              	.LVL85:
 1823              		.loc 1 482 5 is_stmt 1 view .LVU504
 1824              		.loc 1 482 8 is_stmt 0 view .LVU505
ARM GAS  /tmp/ccjeNgEm.s 			page 33


 1825 0066 002D     		cmp	r5, #0
 1826 0068 13D0     		beq	.L64
 1827              		.loc 1 486 5 is_stmt 1 view .LVU506
 1828              	.LBB470:
 1829              	.LBI470:
 1830              		.loc 2 491 20 view .LVU507
 1831              	.LBE470:
 1832              	.LBE499:
 1833              		.loc 2 493 3 view .LVU508
 1834              	.LBB500:
 1835              	.LBB478:
 1836              	.LBB471:
 1837              	.LBI471:
 1838              		.loc 5 374 20 view .LVU509
 1839              	.LBE471:
 1840              	.LBE478:
 1841              	.LBE500:
 1842              		.loc 5 376 3 view .LVU510
 1843              	.LBB501:
 1844              	.LBB479:
 1845              	.LBB476:
 1846              	.LBB472:
 1847              	.LBI472:
 1848              		.loc 6 371 20 view .LVU511
 1849              	.LBE472:
 1850              	.LBE476:
 1851              	.LBE479:
 1852              	.LBE501:
 1853              		.loc 6 373 3 view .LVU512
 1854              	.LBB502:
 1855              	.LBB480:
 1856              	.LBB477:
 1857              	.LBB475:
 1858              	.LBB473:
 1859              	.LBI473:
 1860              		.loc 7 342 57 view .LVU513
 1861              	.LBB474:
 1862              		.loc 7 344 3 view .LVU514
 1863              		.syntax divided
 1864              	@ 344 "ChibiOS/os/common/ext/CMSIS/include/core_cmFunc.h" 1
 1865 006a 72B6     		cpsid i
 1866              	@ 0 "" 2
 1867              		.thumb
 1868              		.syntax unified
 1869              	.LBE474:
 1870              	.LBE473:
 1871              	.LBE475:
 1872              	.LBE477:
 1873              	.LBE480:
 1874              	.LBE502:
 1875              		.loc 5 377 34 view .LVU515
 1876              		.loc 5 378 20 view .LVU516
 1877              	.LBB503:
 1878              		.loc 1 439 12 is_stmt 0 view .LVU517
 1879 006c A368     		ldr	r3, [r4, #8]
 1880              		.loc 1 468 26 view .LVU518
 1881 006e 4646     		mov	r6, r8
ARM GAS  /tmp/ccjeNgEm.s 			page 34


 1882              	.LVL86:
 1883              		.loc 1 439 11 view .LVU519
 1884 0070 002B     		cmp	r3, #0
 1885 0072 E0D1     		bne	.L84
 1886              	.L71:
 1887              		.loc 1 442 7 is_stmt 1 view .LVU520
 1888              		.loc 1 442 10 is_stmt 0 view .LVU521
 1889 0074 009B     		ldr	r3, [sp]
 1890 0076 0333     		adds	r3, r3, #3
 1891 0078 13D8     		bhi	.L85
 1892              	.LBB481:
 1893              		.loc 1 446 9 is_stmt 1 view .LVU522
 1894              	.LBB453:
 1895              	.LBI441:
 1896              		.loc 2 616 25 view .LVU523
 1897              	.LBE453:
 1898              	.LBE481:
 1899              	.LBE503:
 1900              		.loc 2 618 3 view .LVU524
 1901              	.LBB504:
 1902              	.LBB482:
 1903              	.LBB454:
 1904              	.LBB450:
 1905              	.LBI442:
 1906              		.loc 8 228 25 view .LVU525
 1907              	.LBE450:
 1908              	.LBE454:
 1909              	.LBE482:
 1910              	.LBE504:
 1911              		.loc 8 233 3 view .LVU526
 1912              	.LBB505:
 1913              	.LBB483:
 1914              	.LBB455:
 1915              	.LBB451:
 1916              	.LBB448:
 1917              	.LBI443:
 1918              		.loc 9 105 25 view .LVU527
 1919              	.LBE448:
 1920              	.LBE451:
 1921              	.LBE455:
 1922              	.LBE483:
 1923              	.LBE505:
 1924              		.loc 9 107 3 view .LVU528
 1925              	.LBB506:
 1926              	.LBB484:
 1927              	.LBB456:
 1928              	.LBB452:
 1929              	.LBB449:
 1930              	.LBB447:
 1931              	.LBI444:
 1932              		.loc 10 139 25 view .LVU529
 1933              	.LBB446:
 1934              		.loc 10 141 3 view .LVU530
 1935              		.loc 10 141 10 is_stmt 0 view .LVU531
 1936 007a 5B46     		mov	r3, fp
 1937 007c 596A     		ldr	r1, [r3, #36]
 1938              	.LBE446:
ARM GAS  /tmp/ccjeNgEm.s 			page 35


 1939              	.LBE447:
 1940              	.LBE449:
 1941              	.LBE452:
 1942              	.LBE456:
 1943              		.loc 1 446 19 view .LVU532
 1944 007e 019B     		ldr	r3, [sp, #4]
 1945 0080 591A     		subs	r1, r3, r1
 1946              	.LVL87:
 1947              		.loc 1 451 9 is_stmt 1 view .LVU533
 1948              		.loc 1 451 12 is_stmt 0 view .LVU534
 1949 0082 8A45     		cmp	r10, r1
 1950 0084 04D3     		bcc	.L83
 1951              		.loc 1 456 9 is_stmt 1 view .LVU535
 1952              	.LVL88:
 1953              	.LBB457:
 1954              	.LBI457:
 1955              		.loc 2 781 21 view .LVU536
 1956              	.LBB458:
 1957              		.loc 2 784 3 view .LVU537
 1958              		.loc 2 784 10 is_stmt 0 view .LVU538
 1959 0086 2000     		movs	r0, r4
 1960 0088 FFF7FEFF 		bl	chThdEnqueueTimeoutS
 1961              	.LVL89:
 1962              	.L67:
 1963              		.loc 2 784 10 view .LVU539
 1964              	.LBE458:
 1965              	.LBE457:
 1966              	.LBE484:
 1967              		.loc 1 460 7 is_stmt 1 view .LVU540
 1968              		.loc 1 460 10 is_stmt 0 view .LVU541
 1969 008c 0028     		cmp	r0, #0
 1970 008e CFD0     		beq	.L65
 1971              	.LVL90:
 1972              	.L83:
 1973              		.loc 1 461 9 is_stmt 1 view .LVU542
 1974              	.LBB485:
 1975              	.LBI485:
 1976              		.loc 2 502 20 view .LVU543
 1977              	.LBE485:
 1978              	.LBE506:
 1979              		.loc 2 504 3 view .LVU544
 1980              	.LBB507:
 1981              	.LBB494:
 1982              	.LBB486:
 1983              	.LBI486:
 1984              		.loc 5 386 20 view .LVU545
 1985              	.LBB487:
 1986              		.loc 5 388 22 view .LVU546
 1987              		.loc 5 389 33 view .LVU547
 1988              		.loc 5 395 3 view .LVU548
 1989              		.loc 5 395 3 view .LVU549
 1990              		.loc 5 399 3 view .LVU550
 1991              	.LBB488:
 1992              	.LBI488:
 1993              		.loc 6 380 20 view .LVU551
 1994              	.LBE488:
 1995              	.LBE487:
ARM GAS  /tmp/ccjeNgEm.s 			page 36


 1996              	.LBE486:
 1997              	.LBE494:
 1998              	.LBE507:
 1999              		.loc 6 382 3 view .LVU552
 2000              	.LBB508:
 2001              	.LBB495:
 2002              	.LBB493:
 2003              	.LBB492:
 2004              	.LBB491:
 2005              	.LBB489:
 2006              	.LBI489:
 2007              		.loc 7 331 57 view .LVU553
 2008              	.LBB490:
 2009              		.loc 7 333 3 view .LVU554
 2010              		.syntax divided
 2011              	@ 333 "ChibiOS/os/common/ext/CMSIS/include/core_cmFunc.h" 1
 2012 0090 62B6     		cpsie i
 2013              	@ 0 "" 2
 2014              		.thumb
 2015              		.syntax unified
 2016              	.LBE490:
 2017              	.LBE489:
 2018              	.LBE491:
 2019              	.LBE492:
 2020              	.LBE493:
 2021              	.LBE495:
 2022              		.loc 1 462 9 view .LVU555
 2023              	.LVL91:
 2024              	.L64:
 2025              		.loc 1 462 9 is_stmt 0 view .LVU556
 2026              	.LBE508:
 2027              		.loc 1 488 1 view .LVU557
 2028 0092 3800     		movs	r0, r7
 2029 0094 03B0     		add	sp, sp, #12
 2030              		@ sp needed
 2031              	.LVL92:
 2032              	.LVL93:
 2033              	.LVL94:
 2034              	.LVL95:
 2035              	.LVL96:
 2036              		.loc 1 488 1 view .LVU558
 2037 0096 3CBC     		pop	{r2, r3, r4, r5}
 2038 0098 9046     		mov	r8, r2
 2039 009a 9946     		mov	r9, r3
 2040 009c A246     		mov	r10, r4
 2041 009e AB46     		mov	fp, r5
 2042 00a0 F0BD     		pop	{r4, r5, r6, r7, pc}
 2043              	.LVL97:
 2044              	.L85:
 2045              	.LBB509:
 2046              		.loc 1 443 9 is_stmt 1 view .LVU559
 2047              	.LBB496:
 2048              	.LBI496:
 2049              		.loc 2 781 21 view .LVU560
 2050              	.LBB497:
 2051              		.loc 2 784 3 view .LVU561
 2052              		.loc 2 784 10 is_stmt 0 view .LVU562
ARM GAS  /tmp/ccjeNgEm.s 			page 37


 2053 00a2 5146     		mov	r1, r10
 2054 00a4 2000     		movs	r0, r4
 2055 00a6 FFF7FEFF 		bl	chThdEnqueueTimeoutS
 2056              	.LVL98:
 2057              		.loc 2 784 10 view .LVU563
 2058              	.LBE497:
 2059              	.LBE496:
 2060 00aa EFE7     		b	.L67
 2061              	.LBE509:
 2062              		.cfi_endproc
 2063              	.LFE160:
 2064              		.size	oqWriteTimeout, .-oqWriteTimeout
 2065              		.text
 2066              	.Letext0:
 2067              		.file 11 "/opt/nanovna/gcc-arm-none-eabi-8-2018-q4-major/lib/gcc/arm-none-eabi/8.2.1/include/stdde
 2068              		.file 12 "/opt/nanovna/gcc-arm-none-eabi-8-2018-q4-major/arm-none-eabi/include/machine/_default_ty
 2069              		.file 13 "/opt/nanovna/gcc-arm-none-eabi-8-2018-q4-major/arm-none-eabi/include/sys/_stdint.h"
 2070              		.file 14 "ChibiOS/os/common/ports/ARMCMx/compilers/GCC/chtypes.h"
 2071              		.file 15 "ChibiOS/os/rt/include/chsystypes.h"
 2072              		.file 16 "ChibiOS/os/common/ext/CMSIS/ST/STM32F0xx/stm32f072xb.h"
 2073              		.file 17 "ChibiOS/os/common/ports/ARMCMx/chcore.h"
 2074              		.file 18 "ChibiOS/os/hal/ports/STM32/LLD/TIMv1/stm32_tim.h"
 2075              		.file 19 "ChibiOS/os/rt/include/chmtx.h"
 2076              		.file 20 "ChibiOS/os/common/ext/CMSIS/ST/STM32F0xx/system_stm32f0xx.h"
 2077              		.file 21 "ChibiOS/os/rt/include/chregistry.h"
 2078              		.file 22 "ChibiOS/os/rt/include/chevents.h"
 2079              		.file 23 "ChibiOS/os/hal/ports/STM32/LLD/DMAv1/stm32_dma.h"
 2080              		.file 24 "ChibiOS/os/hal/include/hal_queues.h"
 2081              		.file 25 "ChibiOS/os/hal/ports/STM32/LLD/GPIOv2/hal_pal_lld.h"
 2082              		.file 26 "ChibiOS/os/hal/include/hal_ext.h"
 2083              		.file 27 "ChibiOS/os/hal/ports/STM32/LLD/EXTIv1/hal_ext_lld.h"
 2084              		.file 28 "ChibiOS/os/hal/include/hal_gpt.h"
 2085              		.file 29 "ChibiOS/os/hal/ports/STM32/LLD/TIMv1/hal_gpt_lld.h"
 2086              		.file 30 "ChibiOS/os/hal/include/hal_i2c.h"
 2087              		.file 31 "ChibiOS/os/hal/ports/STM32/LLD/I2Cv2/hal_i2c_lld.h"
 2088              		.file 32 "ChibiOS/os/hal/include/hal_i2s.h"
 2089              		.file 33 "ChibiOS/os/hal/ports/STM32/LLD/SPIv2/hal_i2s_lld.h"
 2090              		.file 34 "/opt/nanovna/gcc-arm-none-eabi-8-2018-q4-major/arm-none-eabi/include/sys/lock.h"
 2091              		.file 35 "/opt/nanovna/gcc-arm-none-eabi-8-2018-q4-major/arm-none-eabi/include/sys/_types.h"
 2092              		.file 36 "/opt/nanovna/gcc-arm-none-eabi-8-2018-q4-major/arm-none-eabi/include/sys/reent.h"
 2093              		.file 37 "/opt/nanovna/gcc-arm-none-eabi-8-2018-q4-major/arm-none-eabi/include/time.h"
 2094              		.file 38 "ChibiOS/os/hal/include/hal_rtc.h"
 2095              		.file 39 "ChibiOS/os/hal/ports/STM32/LLD/RTCv2/hal_rtc_lld.h"
 2096              		.file 40 "ChibiOS/os/hal/include/hal_serial.h"
 2097              		.file 41 "ChibiOS/os/hal/ports/STM32/LLD/USARTv2/hal_serial_lld.h"
 2098              		.file 42 "ChibiOS/os/hal/include/hal_spi.h"
 2099              		.file 43 "ChibiOS/os/hal/ports/STM32/LLD/SPIv2/hal_spi_lld.h"
 2100              		.file 44 "ChibiOS/os/hal/include/hal_usb.h"
 2101              		.file 45 "ChibiOS/os/hal/ports/STM32/LLD/USBv1/hal_usb_lld.h"