ARM GAS  /tmp/ccPlDtpd.s 			page 1


   1              		.cpu cortex-m0
   2              		.eabi_attribute 20, 1
   3              		.eabi_attribute 21, 1
   4              		.eabi_attribute 23, 3
   5              		.eabi_attribute 24, 1
   6              		.eabi_attribute 25, 1
   7              		.eabi_attribute 26, 1
   8              		.eabi_attribute 30, 2
   9              		.eabi_attribute 34, 0
  10              		.eabi_attribute 18, 4
  11              		.file	"hal_rtc.c"
  12              		.text
  13              	.Ltext0:
  14              		.cfi_sections	.debug_frame
  15              		.section	.text.rtcInit,"ax",%progbits
  16              		.align	1
  17              		.p2align 4,,15
  18              		.global	rtcInit
  19              		.arch armv6s-m
  20              		.syntax unified
  21              		.code	16
  22              		.thumb_func
  23              		.fpu softvfp
  24              		.type	rtcInit, %function
  25              	rtcInit:
  26              	.LFB151:
  27              		.file 1 "ChibiOS/os/hal/src/hal_rtc.c"
  28              		.loc 1 67 20 view -0
  29              		.cfi_startproc
  30              		@ args = 0, pretend = 0, frame = 0
  31              		@ frame_needed = 0, uses_anonymous_args = 0
  32              		.loc 1 69 3 view .LVU1
  33              		.loc 1 67 20 is_stmt 0 view .LVU2
  34 0000 10B5     		push	{r4, lr}
  35              		.cfi_def_cfa_offset 8
  36              		.cfi_offset 4, -8
  37              		.cfi_offset 14, -4
  38              		.loc 1 69 3 view .LVU3
  39 0002 FFF7FEFF 		bl	rtc_lld_init
  40              	.LVL0:
  41              		.loc 1 70 1 view .LVU4
  42              		@ sp needed
  43 0006 10BD     		pop	{r4, pc}
  44              		.cfi_endproc
  45              	.LFE151:
  46              		.size	rtcInit, .-rtcInit
  47              		.section	.text.rtcObjectInit,"ax",%progbits
  48              		.align	1
  49              		.p2align 4,,15
  50              		.global	rtcObjectInit
  51              		.syntax unified
  52              		.code	16
  53              		.thumb_func
  54              		.fpu softvfp
  55              		.type	rtcObjectInit, %function
  56              	rtcObjectInit:
  57              	.LVL1:
ARM GAS  /tmp/ccPlDtpd.s 			page 2


  58              	.LFB152:
  59              		.loc 1 81 37 is_stmt 1 view -0
  60              		.cfi_startproc
  61              		@ args = 0, pretend = 0, frame = 0
  62              		@ frame_needed = 0, uses_anonymous_args = 0
  63              		@ link register save eliminated.
  64              		.loc 1 86 3 view .LVU6
  65              		.loc 1 88 1 is_stmt 0 view .LVU7
  66              		@ sp needed
  67 0000 7047     		bx	lr
  68              		.cfi_endproc
  69              	.LFE152:
  70              		.size	rtcObjectInit, .-rtcObjectInit
  71 0002 C046     		.section	.text.rtcSetTime,"ax",%progbits
  72              		.align	1
  73              		.p2align 4,,15
  74              		.global	rtcSetTime
  75              		.syntax unified
  76              		.code	16
  77              		.thumb_func
  78              		.fpu softvfp
  79              		.type	rtcSetTime, %function
  80              	rtcSetTime:
  81              	.LVL2:
  82              	.LFB153:
  83              		.loc 1 104 63 is_stmt 1 view -0
  84              		.cfi_startproc
  85              		@ args = 0, pretend = 0, frame = 0
  86              		@ frame_needed = 0, uses_anonymous_args = 0
  87              		.loc 1 106 3 view .LVU9
  88              		.loc 1 106 3 view .LVU10
  89              		.loc 1 108 3 view .LVU11
  90              		.loc 1 104 63 is_stmt 0 view .LVU12
  91 0000 10B5     		push	{r4, lr}
  92              		.cfi_def_cfa_offset 8
  93              		.cfi_offset 4, -8
  94              		.cfi_offset 14, -4
  95              		.loc 1 108 3 view .LVU13
  96 0002 FFF7FEFF 		bl	rtc_lld_set_time
  97              	.LVL3:
  98              		.loc 1 109 1 view .LVU14
  99              		@ sp needed
 100 0006 10BD     		pop	{r4, pc}
 101              		.cfi_endproc
 102              	.LFE153:
 103              		.size	rtcSetTime, .-rtcSetTime
 104              		.section	.text.rtcGetTime,"ax",%progbits
 105              		.align	1
 106              		.p2align 4,,15
 107              		.global	rtcGetTime
 108              		.syntax unified
 109              		.code	16
 110              		.thumb_func
 111              		.fpu softvfp
 112              		.type	rtcGetTime, %function
 113              	rtcGetTime:
 114              	.LVL4:
ARM GAS  /tmp/ccPlDtpd.s 			page 3


 115              	.LFB154:
 116              		.loc 1 125 57 is_stmt 1 view -0
 117              		.cfi_startproc
 118              		@ args = 0, pretend = 0, frame = 0
 119              		@ frame_needed = 0, uses_anonymous_args = 0
 120              		.loc 1 127 3 view .LVU16
 121              		.loc 1 127 3 view .LVU17
 122              		.loc 1 129 3 view .LVU18
 123              		.loc 1 125 57 is_stmt 0 view .LVU19
 124 0000 10B5     		push	{r4, lr}
 125              		.cfi_def_cfa_offset 8
 126              		.cfi_offset 4, -8
 127              		.cfi_offset 14, -4
 128              		.loc 1 129 3 view .LVU20
 129 0002 FFF7FEFF 		bl	rtc_lld_get_time
 130              	.LVL5:
 131              		.loc 1 130 1 view .LVU21
 132              		@ sp needed
 133 0006 10BD     		pop	{r4, pc}
 134              		.cfi_endproc
 135              	.LFE154:
 136              		.size	rtcGetTime, .-rtcGetTime
 137              		.section	.text.rtcSetAlarm,"ax",%progbits
 138              		.align	1
 139              		.p2align 4,,15
 140              		.global	rtcSetAlarm
 141              		.syntax unified
 142              		.code	16
 143              		.thumb_func
 144              		.fpu softvfp
 145              		.type	rtcSetAlarm, %function
 146              	rtcSetAlarm:
 147              	.LVL6:
 148              	.LFB155:
 149              		.loc 1 150 45 is_stmt 1 view -0
 150              		.cfi_startproc
 151              		@ args = 0, pretend = 0, frame = 0
 152              		@ frame_needed = 0, uses_anonymous_args = 0
 153              		.loc 1 152 3 view .LVU23
 154              		.loc 1 152 3 view .LVU24
 155              		.loc 1 154 3 view .LVU25
 156              		.loc 1 150 45 is_stmt 0 view .LVU26
 157 0000 10B5     		push	{r4, lr}
 158              		.cfi_def_cfa_offset 8
 159              		.cfi_offset 4, -8
 160              		.cfi_offset 14, -4
 161              		.loc 1 154 3 view .LVU27
 162 0002 FFF7FEFF 		bl	rtc_lld_set_alarm
 163              	.LVL7:
 164              		.loc 1 155 1 view .LVU28
 165              		@ sp needed
 166 0006 10BD     		pop	{r4, pc}
 167              		.cfi_endproc
 168              	.LFE155:
 169              		.size	rtcSetAlarm, .-rtcSetAlarm
 170              		.section	.text.rtcGetAlarm,"ax",%progbits
 171              		.align	1
ARM GAS  /tmp/ccPlDtpd.s 			page 4


 172              		.p2align 4,,15
 173              		.global	rtcGetAlarm
 174              		.syntax unified
 175              		.code	16
 176              		.thumb_func
 177              		.fpu softvfp
 178              		.type	rtcGetAlarm, %function
 179              	rtcGetAlarm:
 180              	.LVL8:
 181              	.LFB156:
 182              		.loc 1 176 39 is_stmt 1 view -0
 183              		.cfi_startproc
 184              		@ args = 0, pretend = 0, frame = 0
 185              		@ frame_needed = 0, uses_anonymous_args = 0
 186              		.loc 1 178 3 view .LVU30
 187              		.loc 1 178 3 view .LVU31
 188              		.loc 1 182 3 view .LVU32
 189              		.loc 1 176 39 is_stmt 0 view .LVU33
 190 0000 10B5     		push	{r4, lr}
 191              		.cfi_def_cfa_offset 8
 192              		.cfi_offset 4, -8
 193              		.cfi_offset 14, -4
 194              		.loc 1 182 3 view .LVU34
 195 0002 FFF7FEFF 		bl	rtc_lld_get_alarm
 196              	.LVL9:
 197              		.loc 1 183 1 view .LVU35
 198              		@ sp needed
 199 0006 10BD     		pop	{r4, pc}
 200              		.cfi_endproc
 201              	.LFE156:
 202              		.size	rtcGetAlarm, .-rtcGetAlarm
 203              		.global	__aeabi_uidiv
 204              		.global	__aeabi_idiv
 205              		.global	__aeabi_uidivmod
 206              		.global	__aeabi_idivmod
 207              		.section	.text.rtcConvertDateTimeToStructTm,"ax",%progbits
 208              		.align	1
 209              		.p2align 4,,15
 210              		.global	rtcConvertDateTimeToStructTm
 211              		.syntax unified
 212              		.code	16
 213              		.thumb_func
 214              		.fpu softvfp
 215              		.type	rtcConvertDateTimeToStructTm, %function
 216              	rtcConvertDateTimeToStructTm:
 217              	.LVL10:
 218              	.LFB157:
 219              		.loc 1 222 54 is_stmt 1 view -0
 220              		.cfi_startproc
 221              		@ args = 0, pretend = 0, frame = 0
 222              		@ frame_needed = 0, uses_anonymous_args = 0
 223              		.loc 1 223 3 view .LVU37
 224              		.loc 1 225 3 view .LVU38
 225              		.loc 1 222 54 is_stmt 0 view .LVU39
 226 0000 F8B5     		push	{r3, r4, r5, r6, r7, lr}
 227              		.cfi_def_cfa_offset 24
 228              		.cfi_offset 3, -24
ARM GAS  /tmp/ccPlDtpd.s 			page 5


 229              		.cfi_offset 4, -20
 230              		.cfi_offset 5, -16
 231              		.cfi_offset 6, -12
 232              		.cfi_offset 7, -8
 233              		.cfi_offset 14, -4
 234              		.loc 1 225 20 view .LVU40
 235 0002 0378     		ldrb	r3, [r0]
 236              		.loc 1 222 54 view .LVU41
 237 0004 0C00     		movs	r4, r1
 238              		.loc 1 225 40 view .LVU42
 239 0006 5033     		adds	r3, r3, #80
 240              		.loc 1 225 18 view .LVU43
 241 0008 4B61     		str	r3, [r1, #20]
 242              		.loc 1 226 3 is_stmt 1 view .LVU44
 243              		.loc 1 226 33 is_stmt 0 view .LVU45
 244 000a 4378     		ldrb	r3, [r0, #1]
 245              		.loc 1 231 22 view .LVU46
 246 000c 4568     		ldr	r5, [r0, #4]
 247              		.loc 1 226 33 view .LVU47
 248 000e 1B07     		lsls	r3, r3, #28
 249              		.loc 1 226 20 view .LVU48
 250 0010 1B0F     		lsrs	r3, r3, #28
 251              		.loc 1 226 41 view .LVU49
 252 0012 013B     		subs	r3, r3, #1
 253              		.loc 1 226 18 view .LVU50
 254 0014 0B61     		str	r3, [r1, #16]
 255              		.loc 1 227 3 is_stmt 1 view .LVU51
 256              		.loc 1 227 33 is_stmt 0 view .LVU52
 257 0016 8378     		ldrb	r3, [r0, #2]
 258              		.loc 1 231 22 view .LVU53
 259 0018 6D01     		lsls	r5, r5, #5
 260              		.loc 1 227 33 view .LVU54
 261 001a DB06     		lsls	r3, r3, #27
 262              		.loc 1 227 20 view .LVU55
 263 001c DB0E     		lsrs	r3, r3, #27
 264 001e CB60     		str	r3, [r1, #12]
 265              		.loc 1 228 3 is_stmt 1 view .LVU56
 266              		.loc 1 228 33 is_stmt 0 view .LVU57
 267 0020 4378     		ldrb	r3, [r0, #1]
 268              		.loc 1 231 22 view .LVU58
 269 0022 6D09     		lsrs	r5, r5, #5
 270              		.loc 1 228 33 view .LVU59
 271 0024 DB06     		lsls	r3, r3, #27
 272              		.loc 1 228 20 view .LVU60
 273 0026 DB0F     		lsrs	r3, r3, #31
 274 0028 0B62     		str	r3, [r1, #32]
 275              		.loc 1 229 3 is_stmt 1 view .LVU61
 276              		.loc 1 229 33 is_stmt 0 view .LVU62
 277 002a 4378     		ldrb	r3, [r0, #1]
 278              		.loc 1 231 7 view .LVU63
 279 002c 2800     		movs	r0, r5
 280              	.LVL11:
 281              		.loc 1 229 20 view .LVU64
 282 002e 5B09     		lsrs	r3, r3, #5
 283              		.loc 1 229 45 view .LVU65
 284 0030 013B     		subs	r3, r3, #1
 285              		.loc 1 229 18 view .LVU66
ARM GAS  /tmp/ccPlDtpd.s 			page 6


 286 0032 8B61     		str	r3, [r1, #24]
 287              		.loc 1 231 3 is_stmt 1 view .LVU67
 288              		.loc 1 231 7 is_stmt 0 view .LVU68
 289 0034 FA21     		movs	r1, #250
 290              	.LVL12:
 291              		.loc 1 231 7 view .LVU69
 292 0036 8900     		lsls	r1, r1, #2
 293              		.loc 1 222 54 view .LVU70
 294 0038 1600     		movs	r6, r2
 295              		.loc 1 231 7 view .LVU71
 296 003a FFF7FEFF 		bl	__aeabi_idiv
 297              	.LVL13:
 298              		.loc 1 232 23 view .LVU72
 299 003e 0F49     		ldr	r1, .L13
 300              		.loc 1 231 7 view .LVU73
 301 0040 0700     		movs	r7, r0
 302              	.LVL14:
 303              		.loc 1 232 3 is_stmt 1 view .LVU74
 304              		.loc 1 232 23 is_stmt 0 view .LVU75
 305 0042 2800     		movs	r0, r5
 306              	.LVL15:
 307              		.loc 1 232 23 view .LVU76
 308 0044 FFF7FEFF 		bl	__aeabi_idiv
 309              	.LVL16:
 310              		.loc 1 233 7 view .LVU77
 311 0048 E121     		movs	r1, #225
 312              		.loc 1 232 17 view .LVU78
 313 004a A060     		str	r0, [r4, #8]
 314              		.loc 1 233 3 is_stmt 1 view .LVU79
 315              		.loc 1 233 7 is_stmt 0 view .LVU80
 316 004c 0901     		lsls	r1, r1, #4
 317 004e 3800     		movs	r0, r7
 318 0050 FFF7FEFF 		bl	__aeabi_idivmod
 319              	.LVL17:
 320 0054 0F00     		movs	r7, r1
 321              	.LVL18:
 322              		.loc 1 234 3 is_stmt 1 view .LVU81
 323              		.loc 1 234 22 is_stmt 0 view .LVU82
 324 0056 3C21     		movs	r1, #60
 325              	.LVL19:
 326              		.loc 1 234 22 view .LVU83
 327 0058 3800     		movs	r0, r7
 328 005a FFF7FEFF 		bl	__aeabi_idiv
 329              	.LVL20:
 330              		.loc 1 235 22 view .LVU84
 331 005e 3C21     		movs	r1, #60
 332              		.loc 1 234 16 view .LVU85
 333 0060 6060     		str	r0, [r4, #4]
 334              		.loc 1 235 3 is_stmt 1 view .LVU86
 335              		.loc 1 235 22 is_stmt 0 view .LVU87
 336 0062 3800     		movs	r0, r7
 337 0064 FFF7FEFF 		bl	__aeabi_idivmod
 338              	.LVL21:
 339              		.loc 1 235 16 view .LVU88
 340 0068 2160     		str	r1, [r4]
 341              		.loc 1 237 3 is_stmt 1 view .LVU89
 342              		.loc 1 237 6 is_stmt 0 view .LVU90
ARM GAS  /tmp/ccPlDtpd.s 			page 7


 343 006a 002E     		cmp	r6, #0
 344 006c 05D0     		beq	.L8
 345              		.loc 1 238 5 is_stmt 1 view .LVU91
 346              		.loc 1 238 48 is_stmt 0 view .LVU92
 347 006e FA21     		movs	r1, #250
 348 0070 2800     		movs	r0, r5
 349 0072 8900     		lsls	r1, r1, #2
 350 0074 FFF7FEFF 		bl	__aeabi_uidivmod
 351              	.LVL22:
 352              		.loc 1 238 14 view .LVU93
 353 0078 3160     		str	r1, [r6]
 354              	.L8:
 355              		.loc 1 240 1 view .LVU94
 356              		@ sp needed
 357              	.LVL23:
 358              	.LVL24:
 359              	.LVL25:
 360              		.loc 1 240 1 view .LVU95
 361 007a F8BD     		pop	{r3, r4, r5, r6, r7, pc}
 362              	.L14:
 363              		.align	2
 364              	.L13:
 365 007c 80EE3600 		.word	3600000
 366              		.cfi_endproc
 367              	.LFE157:
 368              		.size	rtcConvertDateTimeToStructTm, .-rtcConvertDateTimeToStructTm
 369              		.section	.text.rtcConvertStructTmToDateTime,"ax",%progbits
 370              		.align	1
 371              		.p2align 4,,15
 372              		.global	rtcConvertStructTmToDateTime
 373              		.syntax unified
 374              		.code	16
 375              		.thumb_func
 376              		.fpu softvfp
 377              		.type	rtcConvertStructTmToDateTime, %function
 378              	rtcConvertStructTmToDateTime:
 379              	.LVL26:
 380              	.LFB158:
 381              		.loc 1 253 58 is_stmt 1 view -0
 382              		.cfi_startproc
 383              		@ args = 0, pretend = 0, frame = 0
 384              		@ frame_needed = 0, uses_anonymous_args = 0
 385              		.loc 1 256 3 view .LVU97
 386              		.loc 1 256 49 is_stmt 0 view .LVU98
 387 0000 4369     		ldr	r3, [r0, #20]
 388              		.loc 1 253 58 view .LVU99
 389 0002 F0B5     		push	{r4, r5, r6, r7, lr}
 390              		.cfi_def_cfa_offset 20
 391              		.cfi_offset 4, -20
 392              		.cfi_offset 5, -16
 393              		.cfi_offset 6, -12
 394              		.cfi_offset 7, -8
 395              		.cfi_offset 14, -4
 396              		.loc 1 256 49 view .LVU100
 397 0004 503B     		subs	r3, r3, #80
 398              		.loc 1 256 23 view .LVU101
 399 0006 1370     		strb	r3, [r2]
ARM GAS  /tmp/ccPlDtpd.s 			page 8


 400              		.loc 1 257 3 is_stmt 1 view .LVU102
 401              		.loc 1 258 3 view .LVU103
 402              		.loc 1 257 48 is_stmt 0 view .LVU104
 403 0008 0369     		ldr	r3, [r0, #16]
 404              		.loc 1 257 23 view .LVU105
 405 000a 5578     		ldrb	r5, [r2, #1]
 406              		.loc 1 257 48 view .LVU106
 407 000c 5E1C     		adds	r6, r3, #1
 408              		.loc 1 257 23 view .LVU107
 409 000e 0F23     		movs	r3, #15
 410              		.loc 1 258 23 view .LVU108
 411 0010 C768     		ldr	r7, [r0, #12]
 412 0012 9478     		ldrb	r4, [r2, #2]
 413              		.loc 1 257 23 view .LVU109
 414 0014 1E40     		ands	r6, r3
 415 0016 9D43     		bics	r5, r3
 416              		.loc 1 258 23 view .LVU110
 417 0018 1033     		adds	r3, r3, #16
 418 001a 1F40     		ands	r7, r3
 419 001c 9C43     		bics	r4, r3
 420 001e 3C43     		orrs	r4, r7
 421 0020 9470     		strb	r4, [r2, #2]
 422              		.loc 1 259 3 is_stmt 1 view .LVU111
 423              		.loc 1 259 49 is_stmt 0 view .LVU112
 424 0022 8469     		ldr	r4, [r0, #24]
 425              		.loc 1 259 23 view .LVU113
 426 0024 3543     		orrs	r5, r6
 427              		.loc 1 260 17 view .LVU114
 428 0026 066A     		ldr	r6, [r0, #32]
 429              		.loc 1 259 49 view .LVU115
 430 0028 0134     		adds	r4, r4, #1
 431              		.loc 1 259 23 view .LVU116
 432 002a 6401     		lsls	r4, r4, #5
 433 002c 2B40     		ands	r3, r5
 434              		.loc 1 260 6 view .LVU117
 435 002e 751C     		adds	r5, r6, #1
 436              		.loc 1 259 23 view .LVU118
 437 0030 2343     		orrs	r3, r4
 438              		.loc 1 260 3 is_stmt 1 view .LVU119
 439              		.loc 1 260 6 is_stmt 0 view .LVU120
 440 0032 6C1E     		subs	r4, r5, #1
 441 0034 A541     		sbcs	r5, r5, r4
 442 0036 0124     		movs	r4, #1
 443 0038 6D42     		rsbs	r5, r5, #0
 444 003a 2E40     		ands	r6, r5
 445 003c EF25     		movs	r5, #239
 446 003e 3440     		ands	r4, r6
 447 0040 2401     		lsls	r4, r4, #4
 448 0042 2B40     		ands	r3, r5
 449 0044 2343     		orrs	r3, r4
 450 0046 5370     		strb	r3, [r2, #1]
 451              		.loc 1 268 3 is_stmt 1 view .LVU121
 452              		.loc 1 268 64 is_stmt 0 view .LVU122
 453 0048 8368     		ldr	r3, [r0, #8]
 454              		.loc 1 269 63 view .LVU123
 455 004a 4568     		ldr	r5, [r0, #4]
 456              		.loc 1 268 64 view .LVU124
ARM GAS  /tmp/ccPlDtpd.s 			page 9


 457 004c 1C01     		lsls	r4, r3, #4
 458 004e E31A     		subs	r3, r4, r3
 459 0050 1C01     		lsls	r4, r3, #4
 460 0052 E41A     		subs	r4, r4, r3
 461              		.loc 1 269 63 view .LVU125
 462 0054 2B01     		lsls	r3, r5, #4
 463 0056 5B1B     		subs	r3, r3, r5
 464 0058 9B00     		lsls	r3, r3, #2
 465              		.loc 1 268 64 view .LVU126
 466 005a 2401     		lsls	r4, r4, #4
 467              		.loc 1 268 72 view .LVU127
 468 005c E418     		adds	r4, r4, r3
 469              		.loc 1 269 69 view .LVU128
 470 005e 0368     		ldr	r3, [r0]
 471              		.loc 1 272 1 view .LVU129
 472              		@ sp needed
 473              		.loc 1 269 69 view .LVU130
 474 0060 E418     		adds	r4, r4, r3
 475              		.loc 1 270 64 view .LVU131
 476 0062 6301     		lsls	r3, r4, #5
 477 0064 1B1B     		subs	r3, r3, r4
 478 0066 9B00     		lsls	r3, r3, #2
 479 0068 1B19     		adds	r3, r3, r4
 480 006a DB00     		lsls	r3, r3, #3
 481              		.loc 1 268 35 view .LVU132
 482 006c 5B18     		adds	r3, r3, r1
 483              		.loc 1 268 25 view .LVU133
 484 006e 5168     		ldr	r1, [r2, #4]
 485              	.LVL27:
 486              		.loc 1 268 25 view .LVU134
 487 0070 5B01     		lsls	r3, r3, #5
 488 0072 C90E     		lsrs	r1, r1, #27
 489 0074 C906     		lsls	r1, r1, #27
 490 0076 5B09     		lsrs	r3, r3, #5
 491 0078 0B43     		orrs	r3, r1
 492 007a 5360     		str	r3, [r2, #4]
 493              		.loc 1 272 1 view .LVU135
 494 007c F0BD     		pop	{r4, r5, r6, r7, pc}
 495              		.cfi_endproc
 496              	.LFE158:
 497              		.size	rtcConvertStructTmToDateTime, .-rtcConvertStructTmToDateTime
 498 007e C046     		.section	.text.rtcConvertDateTimeToFAT,"ax",%progbits
 499              		.align	1
 500              		.p2align 4,,15
 501              		.global	rtcConvertDateTimeToFAT
 502              		.syntax unified
 503              		.code	16
 504              		.thumb_func
 505              		.fpu softvfp
 506              		.type	rtcConvertDateTimeToFAT, %function
 507              	rtcConvertDateTimeToFAT:
 508              	.LVL28:
 509              	.LFB159:
 510              		.loc 1 284 63 is_stmt 1 view -0
 511              		.cfi_startproc
 512              		@ args = 0, pretend = 0, frame = 0
 513              		@ frame_needed = 0, uses_anonymous_args = 0
ARM GAS  /tmp/ccPlDtpd.s 			page 10


 514              		.loc 1 285 3 view .LVU137
 515              		.loc 1 286 3 view .LVU138
 516              		.loc 1 288 3 view .LVU139
 517              		.loc 1 288 33 is_stmt 0 view .LVU140
 518 0000 FA21     		movs	r1, #250
 519              		.loc 1 284 63 view .LVU141
 520 0002 F8B5     		push	{r3, r4, r5, r6, r7, lr}
 521              		.cfi_def_cfa_offset 24
 522              		.cfi_offset 3, -24
 523              		.cfi_offset 4, -20
 524              		.cfi_offset 5, -16
 525              		.cfi_offset 6, -12
 526              		.cfi_offset 7, -8
 527              		.cfi_offset 14, -4
 528              		.loc 1 288 19 view .LVU142
 529 0004 4368     		ldr	r3, [r0, #4]
 530              		.loc 1 284 63 view .LVU143
 531 0006 0500     		movs	r5, r0
 532              		.loc 1 288 19 view .LVU144
 533 0008 5801     		lsls	r0, r3, #5
 534              	.LVL29:
 535              		.loc 1 288 33 view .LVU145
 536 000a 8900     		lsls	r1, r1, #2
 537              		.loc 1 288 19 view .LVU146
 538 000c 4009     		lsrs	r0, r0, #5
 539              		.loc 1 288 33 view .LVU147
 540 000e FFF7FEFF 		bl	__aeabi_uidiv
 541              	.LVL30:
 542              		.loc 1 289 9 view .LVU148
 543 0012 E121     		movs	r1, #225
 544 0014 0901     		lsls	r1, r1, #4
 545              		.loc 1 288 33 view .LVU149
 546 0016 0400     		movs	r4, r0
 547              	.LVL31:
 548              		.loc 1 289 3 is_stmt 1 view .LVU150
 549              		.loc 1 289 9 is_stmt 0 view .LVU151
 550 0018 FFF7FEFF 		bl	__aeabi_uidiv
 551              	.LVL32:
 552              		.loc 1 290 8 view .LVU152
 553 001c E121     		movs	r1, #225
 554              		.loc 1 289 9 view .LVU153
 555 001e 0600     		movs	r6, r0
 556              	.LVL33:
 557              		.loc 1 290 3 is_stmt 1 view .LVU154
 558              		.loc 1 290 8 is_stmt 0 view .LVU155
 559 0020 0901     		lsls	r1, r1, #4
 560 0022 2000     		movs	r0, r4
 561              	.LVL34:
 562              		.loc 1 290 8 view .LVU156
 563 0024 FFF7FEFF 		bl	__aeabi_uidivmod
 564              	.LVL35:
 565 0028 0F00     		movs	r7, r1
 566              	.LVL36:
 567              		.loc 1 291 3 is_stmt 1 view .LVU157
 568              		.loc 1 291 9 is_stmt 0 view .LVU158
 569 002a 3C21     		movs	r1, #60
 570              	.LVL37:
ARM GAS  /tmp/ccPlDtpd.s 			page 11


 571              		.loc 1 291 9 view .LVU159
 572 002c 3800     		movs	r0, r7
 573 002e FFF7FEFF 		bl	__aeabi_uidiv
 574              	.LVL38:
 575              		.loc 1 292 8 view .LVU160
 576 0032 3C21     		movs	r1, #60
 577              		.loc 1 291 9 view .LVU161
 578 0034 0400     		movs	r4, r0
 579              	.LVL39:
 580              		.loc 1 292 3 is_stmt 1 view .LVU162
 581              		.loc 1 292 8 is_stmt 0 view .LVU163
 582 0036 3800     		movs	r0, r7
 583              	.LVL40:
 584              		.loc 1 292 8 view .LVU164
 585 0038 FFF7FEFF 		bl	__aeabi_uidivmod
 586              	.LVL41:
 587              		.loc 1 293 3 is_stmt 1 view .LVU165
 588              		.loc 1 293 19 is_stmt 0 view .LVU166
 589 003c AB78     		ldrb	r3, [r5, #2]
 590              		.loc 1 294 19 view .LVU167
 591 003e 6F78     		ldrb	r7, [r5, #1]
 592              		.loc 1 293 19 view .LVU168
 593 0040 DB06     		lsls	r3, r3, #27
 594              		.loc 1 294 19 view .LVU169
 595 0042 3A07     		lsls	r2, r7, #28
 596              		.loc 1 293 9 view .LVU170
 597 0044 DB0E     		lsrs	r3, r3, #27
 598              	.LVL42:
 599              		.loc 1 294 3 is_stmt 1 view .LVU171
 600              		.loc 1 294 9 is_stmt 0 view .LVU172
 601 0046 120F     		lsrs	r2, r2, #28
 602              	.LVL43:
 603              		.loc 1 297 3 is_stmt 1 view .LVU173
 604              		.loc 1 297 6 is_stmt 0 view .LVU174
 605 0048 F806     		lsls	r0, r7, #27
 606 004a 02D5     		bpl	.L22
 607              		.loc 1 298 5 is_stmt 1 view .LVU175
 608              		.loc 1 298 10 is_stmt 0 view .LVU176
 609 004c 0136     		adds	r6, r6, #1
 610              	.LVL44:
 611              		.loc 1 299 5 is_stmt 1 view .LVU177
 612              		.loc 1 299 8 is_stmt 0 view .LVU178
 613 004e 182E     		cmp	r6, #24
 614 0050 0CD0     		beq	.L20
 615              	.L22:
 616              		.loc 1 299 8 view .LVU179
 617 0052 F602     		lsls	r6, r6, #11
 618              	.LVL45:
 619              		.loc 1 299 8 view .LVU180
 620 0054 1B04     		lsls	r3, r3, #16
 621              	.LVL46:
 622              	.L19:
 623              		.loc 1 309 3 is_stmt 1 view .LVU181
 624              		.loc 1 310 3 view .LVU182
 625              		.loc 1 311 3 view .LVU183
 626              		.loc 1 312 3 view .LVU184
 627              		.loc 1 313 3 view .LVU185
ARM GAS  /tmp/ccPlDtpd.s 			page 12


 628              		.loc 1 314 3 view .LVU186
 629              		.loc 1 314 14 is_stmt 0 view .LVU187
 630 0056 2878     		ldrb	r0, [r5]
 631              		.loc 1 309 12 view .LVU188
 632 0058 4908     		lsrs	r1, r1, #1
 633              	.LVL47:
 634              		.loc 1 310 20 view .LVU189
 635 005a 6401     		lsls	r4, r4, #5
 636              	.LVL48:
 637              		.loc 1 310 20 view .LVU190
 638 005c 0C43     		orrs	r4, r1
 639              		.loc 1 314 39 view .LVU191
 640 005e 4006     		lsls	r0, r0, #25
 641 0060 2043     		orrs	r0, r4
 642 0062 3043     		orrs	r0, r6
 643 0064 1843     		orrs	r0, r3
 644              	.LVL49:
 645              		.loc 1 316 3 is_stmt 1 view .LVU192
 646              		.loc 1 313 20 is_stmt 0 view .LVU193
 647 0066 5205     		lsls	r2, r2, #21
 648              	.LVL50:
 649              		.loc 1 314 11 view .LVU194
 650 0068 1043     		orrs	r0, r2
 651              	.LVL51:
 652              		.loc 1 317 1 view .LVU195
 653              		@ sp needed
 654              	.LVL52:
 655              		.loc 1 317 1 view .LVU196
 656 006a F8BD     		pop	{r3, r4, r5, r6, r7, pc}
 657              	.LVL53:
 658              	.L20:
 659              		.loc 1 300 7 is_stmt 1 view .LVU197
 660              		.loc 1 301 7 view .LVU198
 661              		.loc 1 302 26 is_stmt 0 view .LVU199
 662 006c 0748     		ldr	r0, .L23
 663              		.loc 1 301 11 view .LVU200
 664 006e 0133     		adds	r3, r3, #1
 665              	.LVL54:
 666              		.loc 1 302 7 is_stmt 1 view .LVU201
 667              		.loc 1 302 26 is_stmt 0 view .LVU202
 668 0070 8018     		adds	r0, r0, r2
 669 0072 0138     		subs	r0, r0, #1
 670 0074 0078     		ldrb	r0, [r0]
 671              		.loc 1 302 10 view .LVU203
 672 0076 9842     		cmp	r0, r3
 673 0078 02D3     		bcc	.L21
 674 007a 1B04     		lsls	r3, r3, #16
 675              	.LVL55:
 676              		.loc 1 302 10 view .LVU204
 677 007c 0026     		movs	r6, #0
 678 007e EAE7     		b	.L19
 679              	.LVL56:
 680              	.L21:
 681              		.loc 1 303 9 is_stmt 1 view .LVU205
 682              		.loc 1 304 9 view .LVU206
 683              		.loc 1 304 15 is_stmt 0 view .LVU207
 684 0080 8023     		movs	r3, #128
ARM GAS  /tmp/ccPlDtpd.s 			page 13


 685 0082 0132     		adds	r2, r2, #1
 686              	.LVL57:
 687              		.loc 1 304 15 view .LVU208
 688 0084 5B02     		lsls	r3, r3, #9
 689 0086 0026     		movs	r6, #0
 690 0088 E5E7     		b	.L19
 691              	.L24:
 692 008a C046     		.align	2
 693              	.L23:
 694 008c 00000000 		.word	.LANCHOR0
 695              		.cfi_endproc
 696              	.LFE159:
 697              		.size	rtcConvertDateTimeToFAT, .-rtcConvertDateTimeToFAT
 698              		.section	.rodata.month_len,"a"
 699              		.align	2
 700              		.set	.LANCHOR0,. + 0
 701              		.type	month_len, %object
 702              		.size	month_len, 12
 703              	month_len:
 704 0000 1F       		.byte	31
 705 0001 1E       		.byte	30
 706 0002 1F       		.byte	31
 707 0003 1E       		.byte	30
 708 0004 1F       		.byte	31
 709 0005 1E       		.byte	30
 710 0006 1F       		.byte	31
 711 0007 1F       		.byte	31
 712 0008 1E       		.byte	30
 713 0009 1F       		.byte	31
 714 000a 1E       		.byte	30
 715 000b 1F       		.byte	31
 716              		.text
 717              	.Letext0:
 718              		.file 2 "/opt/nanovna/gcc-arm-none-eabi-8-2018-q4-major/lib/gcc/arm-none-eabi/8.2.1/include/stddef
 719              		.file 3 "/opt/nanovna/gcc-arm-none-eabi-8-2018-q4-major/arm-none-eabi/include/machine/_default_typ
 720              		.file 4 "/opt/nanovna/gcc-arm-none-eabi-8-2018-q4-major/arm-none-eabi/include/sys/_stdint.h"
 721              		.file 5 "ChibiOS/os/common/ports/ARMCMx/compilers/GCC/chtypes.h"
 722              		.file 6 "ChibiOS/os/rt/include/chsystypes.h"
 723              		.file 7 "ChibiOS/os/rt/include/chschd.h"
 724              		.file 8 "ChibiOS/os/common/ext/CMSIS/ST/STM32F0xx/stm32f072xb.h"
 725              		.file 9 "ChibiOS/os/common/ports/ARMCMx/chcore.h"
 726              		.file 10 "ChibiOS/os/common/ports/ARMCMx/chcore_v6m.h"
 727              		.file 11 "ChibiOS/os/hal/ports/STM32/LLD/TIMv1/stm32_tim.h"
 728              		.file 12 "ChibiOS/os/rt/include/chmtx.h"
 729              		.file 13 "ChibiOS/os/common/ext/CMSIS/ST/STM32F0xx/system_stm32f0xx.h"
 730              		.file 14 "ChibiOS/os/rt/include/chsys.h"
 731              		.file 15 "ChibiOS/os/rt/include/chregistry.h"
 732              		.file 16 "ChibiOS/os/rt/include/chevents.h"
 733              		.file 17 "ChibiOS/os/hal/ports/STM32/LLD/DMAv1/stm32_dma.h"
 734              		.file 18 "ChibiOS/os/hal/include/hal_queues.h"
 735              		.file 19 "ChibiOS/os/hal/ports/STM32/LLD/GPIOv2/hal_pal_lld.h"
 736              		.file 20 "ChibiOS/os/hal/include/hal_ext.h"
 737              		.file 21 "ChibiOS/os/hal/ports/STM32/LLD/EXTIv1/hal_ext_lld.h"
 738              		.file 22 "ChibiOS/os/hal/include/hal_gpt.h"
 739              		.file 23 "ChibiOS/os/hal/ports/STM32/LLD/TIMv1/hal_gpt_lld.h"
 740              		.file 24 "ChibiOS/os/hal/include/hal_i2c.h"
 741              		.file 25 "ChibiOS/os/hal/ports/STM32/LLD/I2Cv2/hal_i2c_lld.h"
ARM GAS  /tmp/ccPlDtpd.s 			page 14


 742              		.file 26 "ChibiOS/os/hal/include/hal_i2s.h"
 743              		.file 27 "ChibiOS/os/hal/ports/STM32/LLD/SPIv2/hal_i2s_lld.h"
 744              		.file 28 "/opt/nanovna/gcc-arm-none-eabi-8-2018-q4-major/arm-none-eabi/include/sys/lock.h"
 745              		.file 29 "/opt/nanovna/gcc-arm-none-eabi-8-2018-q4-major/arm-none-eabi/include/sys/_types.h"
 746              		.file 30 "/opt/nanovna/gcc-arm-none-eabi-8-2018-q4-major/arm-none-eabi/include/sys/reent.h"
 747              		.file 31 "/opt/nanovna/gcc-arm-none-eabi-8-2018-q4-major/arm-none-eabi/include/time.h"
 748              		.file 32 "ChibiOS/os/hal/include/hal_rtc.h"
 749              		.file 33 "ChibiOS/os/hal/ports/STM32/LLD/RTCv2/hal_rtc_lld.h"
 750              		.file 34 "ChibiOS/os/hal/include/hal_serial.h"
 751              		.file 35 "ChibiOS/os/hal/ports/STM32/LLD/USARTv2/hal_serial_lld.h"
 752              		.file 36 "ChibiOS/os/hal/include/hal_spi.h"
 753              		.file 37 "ChibiOS/os/hal/ports/STM32/LLD/SPIv2/hal_spi_lld.h"
 754              		.file 38 "ChibiOS/os/hal/include/hal_usb.h"
 755              		.file 39 "ChibiOS/os/hal/ports/STM32/LLD/USBv1/hal_usb_lld.h"