ARM GAS  /tmp/cc8VuCnZ.s 			page 1


   1              		.cpu cortex-m0
   2              		.eabi_attribute 20, 1
   3              		.eabi_attribute 21, 1
   4              		.eabi_attribute 23, 3
   5              		.eabi_attribute 24, 1
   6              		.eabi_attribute 25, 1
   7              		.eabi_attribute 26, 1
   8              		.eabi_attribute 30, 2
   9              		.eabi_attribute 34, 0
  10              		.eabi_attribute 18, 4
  11              		.file	"hal_i2s_lld.c"
  12              		.text
  13              	.Ltext0:
  14              		.cfi_sections	.debug_frame
  15              		.section	.text.i2s_lld_serve_rx_interrupt,"ax",%progbits
  16              		.align	1
  17              		.p2align 4,,15
  18              		.arch armv6s-m
  19              		.syntax unified
  20              		.code	16
  21              		.thumb_func
  22              		.fpu softvfp
  23              		.type	i2s_lld_serve_rx_interrupt, %function
  24              	i2s_lld_serve_rx_interrupt:
  25              	.LVL0:
  26              	.LFB151:
  27              		.file 1 "ChibiOS/os/hal/ports/STM32/LLD/SPIv2/hal_i2s_lld.c"
  28              		.loc 1 162 73 view -0
  29              		.cfi_startproc
  30              		@ args = 0, pretend = 0, frame = 0
  31              		@ frame_needed = 0, uses_anonymous_args = 0
  32              		.loc 1 162 73 is_stmt 0 view .LVU1
  33 0000 70B5     		push	{r4, r5, r6, lr}
  34              		.cfi_def_cfa_offset 16
  35              		.cfi_offset 4, -16
  36              		.cfi_offset 5, -12
  37              		.cfi_offset 6, -8
  38              		.cfi_offset 14, -4
  39              		.loc 1 162 73 view .LVU2
  40 0002 0500     		movs	r5, r0
  41              		.loc 1 164 3 is_stmt 1 view .LVU3
  42              		.loc 1 168 3 view .LVU4
  43              		.loc 1 162 73 is_stmt 0 view .LVU5
  44 0004 0C00     		movs	r4, r1
  45              		.loc 1 168 6 view .LVU6
  46 0006 0B07     		lsls	r3, r1, #28
  47 0008 1FD4     		bmi	.L23
  48              	.LVL1:
  49              	.L2:
  50              		.loc 1 175 3 is_stmt 1 view .LVU7
  51              		.loc 1 175 6 is_stmt 0 view .LVU8
  52 000a A307     		lsls	r3, r4, #30
  53 000c 11D5     		bpl	.L3
  54              		.loc 1 177 5 is_stmt 1 view .LVU9
  55 000e 6A68     		ldr	r2, [r5, #4]
  56 0010 1369     		ldr	r3, [r2, #16]
  57 0012 002B     		cmp	r3, #0
ARM GAS  /tmp/cc8VuCnZ.s 			page 2


  58 0014 0AD0     		beq	.L4
  59              		.loc 1 177 5 discriminator 1 view .LVU10
  60 0016 0421     		movs	r1, #4
  61 0018 2970     		strb	r1, [r5]
  62              		.loc 1 177 5 discriminator 1 view .LVU11
  63 001a 9168     		ldr	r1, [r2, #8]
  64 001c 2800     		movs	r0, r5
  65 001e 4908     		lsrs	r1, r1, #1
  66 0020 0A00     		movs	r2, r1
  67 0022 9847     		blx	r3
  68              	.LVL2:
  69              		.loc 1 177 5 discriminator 1 view .LVU12
  70 0024 2B78     		ldrb	r3, [r5]
  71 0026 042B     		cmp	r3, #4
  72 0028 00D0     		beq	.L4
  73              	.L1:
  74              		.loc 1 183 1 is_stmt 0 view .LVU13
  75              		@ sp needed
  76              	.LVL3:
  77              	.LVL4:
  78              		.loc 1 183 1 view .LVU14
  79 002a 70BD     		pop	{r4, r5, r6, pc}
  80              	.LVL5:
  81              	.L4:
  82              		.loc 1 177 5 is_stmt 1 discriminator 3 view .LVU15
  83 002c 0223     		movs	r3, #2
  84 002e 2B70     		strb	r3, [r5]
  85 0030 FBE7     		b	.L1
  86              	.L3:
  87              		.loc 1 179 8 view .LVU16
  88              		.loc 1 179 11 is_stmt 0 view .LVU17
  89 0032 6307     		lsls	r3, r4, #29
  90 0034 F9D5     		bpl	.L1
  91              	.LVL6:
  92              	.LBB12:
  93              	.LBI12:
  94              		.loc 1 162 13 is_stmt 1 view .LVU18
  95              	.LBB13:
  96              		.loc 1 181 5 view .LVU19
  97 0036 6A68     		ldr	r2, [r5, #4]
  98 0038 1369     		ldr	r3, [r2, #16]
  99 003a 002B     		cmp	r3, #0
 100 003c F5D0     		beq	.L1
 101              		.loc 1 181 5 view .LVU20
 102 003e 9268     		ldr	r2, [r2, #8]
 103 0040 0021     		movs	r1, #0
 104 0042 5208     		lsrs	r2, r2, #1
 105 0044 2800     		movs	r0, r5
 106 0046 9847     		blx	r3
 107              	.LVL7:
 108              	.LBE13:
 109              	.LBE12:
 110              		.loc 1 181 32 view .LVU21
 111              		.loc 1 183 1 is_stmt 0 view .LVU22
 112 0048 EFE7     		b	.L1
 113              	.LVL8:
 114              	.L23:
ARM GAS  /tmp/cc8VuCnZ.s 			page 3


 115              		.loc 1 169 5 is_stmt 1 view .LVU23
 116              	.LBB14:
 117              	.LBI14:
 118              		.file 2 "ChibiOS/os/hal/osal/rt/osal.h"
 119              		.loc 2 460 20 view .LVU24
 120              	.LBB15:
 121              		.loc 2 462 3 view .LVU25
 122 004a 0248     		ldr	r0, .L24
 123              	.LVL9:
 124              		.loc 2 462 3 is_stmt 0 view .LVU26
 125 004c FFF7FEFF 		bl	chSysHalt
 126              	.LVL10:
 127              		.loc 2 462 3 view .LVU27
 128 0050 DBE7     		b	.L2
 129              	.L25:
 130 0052 C046     		.align	2
 131              	.L24:
 132 0054 00000000 		.word	.LC0
 133              	.LBE15:
 134              	.LBE14:
 135              		.cfi_endproc
 136              	.LFE151:
 137              		.size	i2s_lld_serve_rx_interrupt, .-i2s_lld_serve_rx_interrupt
 138              		.section	.text.i2s_lld_init,"ax",%progbits
 139              		.align	1
 140              		.p2align 4,,15
 141              		.global	i2s_lld_init
 142              		.syntax unified
 143              		.code	16
 144              		.thumb_func
 145              		.fpu softvfp
 146              		.type	i2s_lld_init, %function
 147              	i2s_lld_init:
 148              	.LFB152:
 149              		.loc 1 232 25 is_stmt 1 view -0
 150              		.cfi_startproc
 151              		@ args = 0, pretend = 0, frame = 0
 152              		@ frame_needed = 0, uses_anonymous_args = 0
 153              		.loc 1 277 3 view .LVU29
 154              		.loc 1 232 25 is_stmt 0 view .LVU30
 155 0000 10B5     		push	{r4, lr}
 156              		.cfi_def_cfa_offset 8
 157              		.cfi_offset 4, -8
 158              		.cfi_offset 14, -4
 159              		.loc 1 277 3 view .LVU31
 160 0002 094C     		ldr	r4, .L27
 161              		.loc 1 369 1 view .LVU32
 162              		@ sp needed
 163              		.loc 1 277 3 view .LVU33
 164 0004 2000     		movs	r0, r4
 165 0006 FFF7FEFF 		bl	i2sObjectInit
 166              	.LVL11:
 167              		.loc 1 278 3 is_stmt 1 view .LVU34
 168              		.loc 1 279 3 view .LVU35
 169              		.loc 1 284 3 view .LVU36
 170              		.loc 1 285 3 view .LVU37
 171              		.loc 1 279 19 is_stmt 0 view .LVU38
ARM GAS  /tmp/cc8VuCnZ.s 			page 4


 172 000a 8022     		movs	r2, #128
 173              		.loc 1 278 19 view .LVU39
 174 000c 074B     		ldr	r3, .L27+4
 175              		.loc 1 279 19 view .LVU40
 176 000e 5200     		lsls	r2, r2, #1
 177              		.loc 1 278 19 view .LVU41
 178 0010 A360     		str	r3, [r4, #8]
 179              		.loc 1 284 19 view .LVU42
 180 0012 0023     		movs	r3, #0
 181              		.loc 1 279 19 view .LVU43
 182 0014 2261     		str	r2, [r4, #16]
 183              		.loc 1 288 3 is_stmt 1 view .LVU44
 184              		.loc 1 288 19 is_stmt 0 view .LVU45
 185 0016 064A     		ldr	r2, .L27+8
 186              		.loc 1 284 19 view .LVU46
 187 0018 E360     		str	r3, [r4, #12]
 188              		.loc 1 288 19 view .LVU47
 189 001a 6261     		str	r2, [r4, #20]
 190              		.loc 1 289 3 is_stmt 1 view .LVU48
 191              		.loc 1 289 19 is_stmt 0 view .LVU49
 192 001c 054A     		ldr	r2, .L27+12
 193              		.loc 1 318 19 view .LVU50
 194 001e A361     		str	r3, [r4, #24]
 195              		.loc 1 289 19 view .LVU51
 196 0020 E261     		str	r2, [r4, #28]
 197              		.loc 1 318 3 is_stmt 1 view .LVU52
 198              		.loc 1 319 3 view .LVU53
 199              		.loc 1 319 19 is_stmt 0 view .LVU54
 200 0022 2362     		str	r3, [r4, #32]
 201              		.loc 1 369 1 view .LVU55
 202 0024 10BD     		pop	{r4, pc}
 203              	.L28:
 204 0026 C046     		.align	2
 205              	.L27:
 206 0028 00000000 		.word	.LANCHOR0
 207 002c 00380040 		.word	1073756160
 208 0030 3C000000 		.word	_stm32_dma_streams+60
 209 0034 AE150000 		.word	5550
 210              		.cfi_endproc
 211              	.LFE152:
 212              		.size	i2s_lld_init, .-i2s_lld_init
 213              		.section	.text.i2s_lld_start,"ax",%progbits
 214              		.align	1
 215              		.p2align 4,,15
 216              		.global	i2s_lld_start
 217              		.syntax unified
 218              		.code	16
 219              		.thumb_func
 220              		.fpu softvfp
 221              		.type	i2s_lld_start, %function
 222              	i2s_lld_start:
 223              	.LVL12:
 224              	.LFB153:
 225              		.loc 1 378 37 is_stmt 1 view -0
 226              		.cfi_startproc
 227              		@ args = 0, pretend = 0, frame = 0
 228              		@ frame_needed = 0, uses_anonymous_args = 0
ARM GAS  /tmp/cc8VuCnZ.s 			page 5


 229              		.loc 1 381 3 view .LVU57
 230              		.loc 1 378 37 is_stmt 0 view .LVU58
 231 0000 70B5     		push	{r4, r5, r6, lr}
 232              		.cfi_def_cfa_offset 16
 233              		.cfi_offset 4, -16
 234              		.cfi_offset 5, -12
 235              		.cfi_offset 6, -8
 236              		.cfi_offset 14, -4
 237              		.loc 1 381 6 view .LVU59
 238 0002 0578     		ldrb	r5, [r0]
 239              		.loc 1 378 37 view .LVU60
 240 0004 0400     		movs	r4, r0
 241              		.loc 1 381 6 view .LVU61
 242 0006 012D     		cmp	r5, #1
 243 0008 15D0     		beq	.L35
 244              	.LVL13:
 245              	.L30:
 246              		.loc 1 565 3 is_stmt 1 view .LVU62
 247              		.loc 1 565 28 is_stmt 0 view .LVU63
 248 000a 6368     		ldr	r3, [r4, #4]
 249              		.loc 1 565 7 view .LVU64
 250 000c A168     		ldr	r1, [r4, #8]
 251              		.loc 1 565 36 view .LVU65
 252 000e 1622     		movs	r2, #22
 253 0010 9D5E     		ldrsh	r5, [r3, r2]
 254              		.loc 1 566 58 view .LVU66
 255 0012 8022     		movs	r2, #128
 256              		.loc 1 565 22 view .LVU67
 257 0014 0D62     		str	r5, [r1, #32]
 258              		.loc 1 566 3 is_stmt 1 view .LVU68
 259              		.loc 1 566 36 is_stmt 0 view .LVU69
 260 0016 1420     		movs	r0, #20
 261 0018 185E     		ldrsh	r0, [r3, r0]
 262              		.loc 1 566 52 view .LVU70
 263 001a 238A     		ldrh	r3, [r4, #16]
 264              		.loc 1 566 58 view .LVU71
 265 001c 1201     		lsls	r2, r2, #4
 266              		.loc 1 566 46 view .LVU72
 267 001e 0343     		orrs	r3, r0
 268              		.loc 1 566 58 view .LVU73
 269 0020 1343     		orrs	r3, r2
 270              		.loc 1 566 22 view .LVU74
 271 0022 CB61     		str	r3, [r1, #28]
 272              		.loc 1 568 3 is_stmt 1 view .LVU75
 273              		.loc 1 568 11 is_stmt 0 view .LVU76
 274 0024 E368     		ldr	r3, [r4, #12]
 275              		.loc 1 568 6 view .LVU77
 276 0026 002B     		cmp	r3, #0
 277 0028 04D0     		beq	.L29
 278              		.loc 1 569 5 is_stmt 1 view .LVU78
 279              		.loc 1 569 27 is_stmt 0 view .LVU79
 280 002a 1D62     		str	r5, [r3, #32]
 281              		.loc 1 570 5 is_stmt 1 view .LVU80
 282              		.loc 1 570 57 is_stmt 0 view .LVU81
 283 002c 618A     		ldrh	r1, [r4, #18]
 284              		.loc 1 570 51 view .LVU82
 285 002e 0143     		orrs	r1, r0
ARM GAS  /tmp/cc8VuCnZ.s 			page 6


 286              		.loc 1 570 66 view .LVU83
 287 0030 0A43     		orrs	r2, r1
 288              		.loc 1 570 27 view .LVU84
 289 0032 DA61     		str	r2, [r3, #28]
 290              	.L29:
 291              		.loc 1 572 1 view .LVU85
 292              		@ sp needed
 293              	.LVL14:
 294              		.loc 1 572 1 view .LVU86
 295 0034 70BD     		pop	{r4, r5, r6, pc}
 296              	.LVL15:
 297              	.L35:
 298              		.loc 1 444 5 is_stmt 1 view .LVU87
 299              		.loc 1 444 8 is_stmt 0 view .LVU88
 300 0036 0B4B     		ldr	r3, .L36
 301 0038 9842     		cmp	r0, r3
 302 003a E6D1     		bne	.L30
 303              	.LBB16:
 304              		.loc 1 445 7 is_stmt 1 view .LVU89
 305              		.loc 1 448 7 view .LVU90
 306 003c 8023     		movs	r3, #128
 307 003e 0A4A     		ldr	r2, .L36+4
 308 0040 DB01     		lsls	r3, r3, #7
 309 0042 D169     		ldr	r1, [r2, #28]
 310 0044 0B43     		orrs	r3, r1
 311 0046 D361     		str	r3, [r2, #28]
 312              		.loc 1 448 27 view .LVU91
 313              		.loc 1 451 7 view .LVU92
 314              		.loc 1 451 11 is_stmt 0 view .LVU93
 315 0048 0221     		movs	r1, #2
 316 004a 0300     		movs	r3, r0
 317 004c 074A     		ldr	r2, .L36+8
 318 004e 4069     		ldr	r0, [r0, #20]
 319              	.LVL16:
 320              		.loc 1 451 11 view .LVU94
 321 0050 FFF7FEFF 		bl	dmaStreamAllocate
 322              	.LVL17:
 323              		.loc 1 455 7 is_stmt 1 view .LVU95
 324              		.loc 1 455 7 view .LVU96
 325              		.loc 1 459 7 view .LVU97
 326              		.loc 1 459 22 is_stmt 0 view .LVU98
 327 0054 0022     		movs	r2, #0
 328              		.loc 1 459 11 view .LVU99
 329 0056 A368     		ldr	r3, [r4, #8]
 330              		.loc 1 459 22 view .LVU100
 331 0058 1A60     		str	r2, [r3]
 332              		.loc 1 460 7 is_stmt 1 view .LVU101
 333              		.loc 1 460 22 is_stmt 0 view .LVU102
 334 005a 5D60     		str	r5, [r3, #4]
 335              		.loc 1 461 7 is_stmt 1 view .LVU103
 336              		.loc 1 461 21 is_stmt 0 view .LVU104
 337 005c 0C33     		adds	r3, r3, #12
 338              		.loc 1 461 19 view .LVU105
 339 005e 6362     		str	r3, [r4, #36]
 340 0060 D3E7     		b	.L30
 341              	.L37:
 342 0062 C046     		.align	2
ARM GAS  /tmp/cc8VuCnZ.s 			page 7


 343              	.L36:
 344 0064 00000000 		.word	.LANCHOR0
 345 0068 00100240 		.word	1073876992
 346 006c 00000000 		.word	i2s_lld_serve_rx_interrupt
 347              	.LBE16:
 348              		.cfi_endproc
 349              	.LFE153:
 350              		.size	i2s_lld_start, .-i2s_lld_start
 351              		.section	.text.i2s_lld_stop,"ax",%progbits
 352              		.align	1
 353              		.p2align 4,,15
 354              		.global	i2s_lld_stop
 355              		.syntax unified
 356              		.code	16
 357              		.thumb_func
 358              		.fpu softvfp
 359              		.type	i2s_lld_stop, %function
 360              	i2s_lld_stop:
 361              	.LVL18:
 362              	.LFB154:
 363              		.loc 1 581 36 is_stmt 1 view -0
 364              		.cfi_startproc
 365              		@ args = 0, pretend = 0, frame = 0
 366              		@ frame_needed = 0, uses_anonymous_args = 0
 367              		.loc 1 584 3 view .LVU107
 368              		.loc 1 584 6 is_stmt 0 view .LVU108
 369 0000 0378     		ldrb	r3, [r0]
 370              		.loc 1 581 36 view .LVU109
 371 0002 10B5     		push	{r4, lr}
 372              		.cfi_def_cfa_offset 8
 373              		.cfi_offset 4, -8
 374              		.cfi_offset 14, -4
 375              		.loc 1 581 36 view .LVU110
 376 0004 0400     		movs	r4, r0
 377              		.loc 1 584 6 view .LVU111
 378 0006 022B     		cmp	r3, #2
 379 0008 00D0     		beq	.L54
 380              	.LVL19:
 381              	.L38:
 382              		.loc 1 611 1 view .LVU112
 383              		@ sp needed
 384              	.LVL20:
 385              		.loc 1 611 1 view .LVU113
 386 000a 10BD     		pop	{r4, pc}
 387              	.LVL21:
 388              	.L54:
 389              		.loc 1 587 5 is_stmt 1 view .LVU114
 390              		.loc 1 587 20 is_stmt 0 view .LVU115
 391 000c 0022     		movs	r2, #0
 392              		.loc 1 587 9 view .LVU116
 393 000e 8368     		ldr	r3, [r0, #8]
 394              		.loc 1 587 20 view .LVU117
 395 0010 5A60     		str	r2, [r3, #4]
 396              		.loc 1 588 5 is_stmt 1 view .LVU118
 397              		.loc 1 588 13 is_stmt 0 view .LVU119
 398 0012 C368     		ldr	r3, [r0, #12]
 399              		.loc 1 588 8 view .LVU120
ARM GAS  /tmp/cc8VuCnZ.s 			page 8


 400 0014 002B     		cmp	r3, #0
 401 0016 00D0     		beq	.L41
 402              		.loc 1 589 7 is_stmt 1 view .LVU121
 403              		.loc 1 589 25 is_stmt 0 view .LVU122
 404 0018 5A60     		str	r2, [r3, #4]
 405              	.L41:
 406              		.loc 1 591 5 is_stmt 1 view .LVU123
 407              		.loc 1 591 21 is_stmt 0 view .LVU124
 408 001a 6069     		ldr	r0, [r4, #20]
 409              	.LVL22:
 410              		.loc 1 591 8 view .LVU125
 411 001c 0028     		cmp	r0, #0
 412 001e 01D0     		beq	.L42
 413              		.loc 1 592 7 is_stmt 1 view .LVU126
 414 0020 FFF7FEFF 		bl	dmaStreamRelease
 415              	.LVL23:
 416              	.L42:
 417              		.loc 1 593 5 view .LVU127
 418              		.loc 1 593 21 is_stmt 0 view .LVU128
 419 0024 A069     		ldr	r0, [r4, #24]
 420              		.loc 1 593 8 view .LVU129
 421 0026 0028     		cmp	r0, #0
 422 0028 01D0     		beq	.L43
 423              		.loc 1 594 7 is_stmt 1 view .LVU130
 424 002a FFF7FEFF 		bl	dmaStreamRelease
 425              	.LVL24:
 426              	.L43:
 427              		.loc 1 602 5 view .LVU131
 428              		.loc 1 602 8 is_stmt 0 view .LVU132
 429 002e 044B     		ldr	r3, .L55
 430 0030 9C42     		cmp	r4, r3
 431 0032 EAD1     		bne	.L38
 432              		.loc 1 603 7 is_stmt 1 view .LVU133
 433 0034 034A     		ldr	r2, .L55+4
 434 0036 0449     		ldr	r1, .L55+8
 435 0038 D369     		ldr	r3, [r2, #28]
 436 003a 0B40     		ands	r3, r1
 437 003c D361     		str	r3, [r2, #28]
 438              		.loc 1 603 28 view .LVU134
 439              		.loc 1 611 1 is_stmt 0 view .LVU135
 440 003e E4E7     		b	.L38
 441              	.L56:
 442              		.align	2
 443              	.L55:
 444 0040 00000000 		.word	.LANCHOR0
 445 0044 00100240 		.word	1073876992
 446 0048 FFBFFFFF 		.word	-16385
 447              		.cfi_endproc
 448              	.LFE154:
 449              		.size	i2s_lld_stop, .-i2s_lld_stop
 450              		.section	.text.i2s_lld_start_exchange,"ax",%progbits
 451              		.align	1
 452              		.p2align 4,,15
 453              		.global	i2s_lld_start_exchange
 454              		.syntax unified
 455              		.code	16
 456              		.thumb_func
ARM GAS  /tmp/cc8VuCnZ.s 			page 9


 457              		.fpu softvfp
 458              		.type	i2s_lld_start_exchange, %function
 459              	i2s_lld_start_exchange:
 460              	.LVL25:
 461              	.LFB155:
 462              		.loc 1 620 46 is_stmt 1 view -0
 463              		.cfi_startproc
 464              		@ args = 0, pretend = 0, frame = 0
 465              		@ frame_needed = 0, uses_anonymous_args = 0
 466              		.loc 1 621 3 view .LVU137
 467              		.loc 1 620 46 is_stmt 0 view .LVU138
 468 0000 30B5     		push	{r4, r5, lr}
 469              		.cfi_def_cfa_offset 12
 470              		.cfi_offset 4, -12
 471              		.cfi_offset 5, -8
 472              		.cfi_offset 14, -4
 473              		.loc 1 632 6 view .LVU139
 474 0002 0624     		movs	r4, #6
 475              		.loc 1 621 21 view .LVU140
 476 0004 4268     		ldr	r2, [r0, #4]
 477              		.loc 1 632 6 view .LVU141
 478 0006 938A     		ldrh	r3, [r2, #20]
 479              		.loc 1 621 10 view .LVU142
 480 0008 9168     		ldr	r1, [r2, #8]
 481              	.LVL26:
 482              		.loc 1 632 3 is_stmt 1 view .LVU143
 483              		.loc 1 632 6 is_stmt 0 view .LVU144
 484 000a 1C42     		tst	r4, r3
 485 000c 00D0     		beq	.L58
 486              		.loc 1 633 5 is_stmt 1 view .LVU145
 487              		.loc 1 633 10 is_stmt 0 view .LVU146
 488 000e 4900     		lsls	r1, r1, #1
 489              	.LVL27:
 490              	.L58:
 491              		.loc 1 636 3 is_stmt 1 view .LVU147
 492              		.loc 1 636 19 is_stmt 0 view .LVU148
 493 0010 4369     		ldr	r3, [r0, #20]
 494              		.loc 1 636 6 view .LVU149
 495 0012 002B     		cmp	r3, #0
 496 0014 0BD0     		beq	.L59
 497              		.loc 1 637 5 is_stmt 1 view .LVU150
 498              		.loc 1 641 5 is_stmt 0 view .LVU151
 499 0016 0125     		movs	r5, #1
 500              		.loc 1 637 5 view .LVU152
 501 0018 5B68     		ldr	r3, [r3, #4]
 502 001a C469     		ldr	r4, [r0, #28]
 503 001c 1C60     		str	r4, [r3]
 504              		.loc 1 637 51 is_stmt 1 view .LVU153
 505              		.loc 1 638 5 view .LVU154
 506 001e 446A     		ldr	r4, [r0, #36]
 507 0020 9C60     		str	r4, [r3, #8]
 508              		.loc 1 638 53 view .LVU155
 509              		.loc 1 639 5 view .LVU156
 510 0022 5468     		ldr	r4, [r2, #4]
 511 0024 DC60     		str	r4, [r3, #12]
 512              		.loc 1 639 62 view .LVU157
 513              		.loc 1 640 5 view .LVU158
ARM GAS  /tmp/cc8VuCnZ.s 			page 10


 514 0026 5960     		str	r1, [r3, #4]
 515              		.loc 1 640 51 view .LVU159
 516              		.loc 1 641 5 view .LVU160
 517 0028 1C68     		ldr	r4, [r3]
 518 002a 2C43     		orrs	r4, r5
 519 002c 1C60     		str	r4, [r3]
 520              	.L59:
 521              		.loc 1 641 33 discriminator 1 view .LVU161
 522              		.loc 1 645 3 discriminator 1 view .LVU162
 523              		.loc 1 645 19 is_stmt 0 discriminator 1 view .LVU163
 524 002e 8369     		ldr	r3, [r0, #24]
 525              		.loc 1 645 6 discriminator 1 view .LVU164
 526 0030 002B     		cmp	r3, #0
 527 0032 0BD0     		beq	.L60
 528              		.loc 1 646 5 is_stmt 1 view .LVU165
 529 0034 5B68     		ldr	r3, [r3, #4]
 530 0036 046A     		ldr	r4, [r0, #32]
 531              		.loc 1 648 5 is_stmt 0 view .LVU166
 532 0038 1268     		ldr	r2, [r2]
 533              		.loc 1 646 5 view .LVU167
 534 003a 1C60     		str	r4, [r3]
 535              		.loc 1 646 51 is_stmt 1 view .LVU168
 536              		.loc 1 647 5 view .LVU169
 537 003c 846A     		ldr	r4, [r0, #40]
 538 003e 9C60     		str	r4, [r3, #8]
 539              		.loc 1 647 53 view .LVU170
 540              		.loc 1 648 5 view .LVU171
 541 0040 DA60     		str	r2, [r3, #12]
 542              		.loc 1 648 62 view .LVU172
 543              		.loc 1 649 5 view .LVU173
 544 0042 5960     		str	r1, [r3, #4]
 545              		.loc 1 649 51 view .LVU174
 546              		.loc 1 650 5 view .LVU175
 547 0044 0121     		movs	r1, #1
 548              	.LVL28:
 549              		.loc 1 650 5 is_stmt 0 view .LVU176
 550 0046 1A68     		ldr	r2, [r3]
 551 0048 0A43     		orrs	r2, r1
 552 004a 1A60     		str	r2, [r3]
 553              	.LVL29:
 554              	.L60:
 555              		.loc 1 650 33 is_stmt 1 discriminator 1 view .LVU177
 556              		.loc 1 654 3 discriminator 1 view .LVU178
 557              		.loc 1 654 22 is_stmt 0 discriminator 1 view .LVU179
 558 004c 8023     		movs	r3, #128
 559              		.loc 1 654 7 discriminator 1 view .LVU180
 560 004e 8168     		ldr	r1, [r0, #8]
 561              		.loc 1 654 22 discriminator 1 view .LVU181
 562 0050 DB00     		lsls	r3, r3, #3
 563 0052 CA69     		ldr	r2, [r1, #28]
 564 0054 1A43     		orrs	r2, r3
 565 0056 CA61     		str	r2, [r1, #28]
 566              		.loc 1 655 3 is_stmt 1 discriminator 1 view .LVU182
 567              		.loc 1 655 11 is_stmt 0 discriminator 1 view .LVU183
 568 0058 C268     		ldr	r2, [r0, #12]
 569              		.loc 1 655 6 discriminator 1 view .LVU184
 570 005a 002A     		cmp	r2, #0
ARM GAS  /tmp/cc8VuCnZ.s 			page 11


 571 005c 02D0     		beq	.L57
 572              		.loc 1 656 5 is_stmt 1 view .LVU185
 573              		.loc 1 656 27 is_stmt 0 view .LVU186
 574 005e D169     		ldr	r1, [r2, #28]
 575 0060 0B43     		orrs	r3, r1
 576 0062 D361     		str	r3, [r2, #28]
 577              	.L57:
 578              		.loc 1 657 1 view .LVU187
 579              		@ sp needed
 580 0064 30BD     		pop	{r4, r5, pc}
 581              		.cfi_endproc
 582              	.LFE155:
 583              		.size	i2s_lld_start_exchange, .-i2s_lld_start_exchange
 584 0066 C046     		.section	.text.i2s_lld_stop_exchange,"ax",%progbits
 585              		.align	1
 586              		.p2align 4,,15
 587              		.global	i2s_lld_stop_exchange
 588              		.syntax unified
 589              		.code	16
 590              		.thumb_func
 591              		.fpu softvfp
 592              		.type	i2s_lld_stop_exchange, %function
 593              	i2s_lld_stop_exchange:
 594              	.LVL30:
 595              	.LFB156:
 596              		.loc 1 668 45 is_stmt 1 view -0
 597              		.cfi_startproc
 598              		@ args = 0, pretend = 0, frame = 0
 599              		@ frame_needed = 0, uses_anonymous_args = 0
 600              		.loc 1 671 3 view .LVU189
 601              		.loc 1 671 19 is_stmt 0 view .LVU190
 602 0000 8369     		ldr	r3, [r0, #24]
 603              		.loc 1 668 45 view .LVU191
 604 0002 30B5     		push	{r4, r5, lr}
 605              		.cfi_def_cfa_offset 12
 606              		.cfi_offset 4, -12
 607              		.cfi_offset 5, -8
 608              		.cfi_offset 14, -4
 609 0004 8268     		ldr	r2, [r0, #8]
 610              		.loc 1 671 6 view .LVU192
 611 0006 002B     		cmp	r3, #0
 612 0008 0DD0     		beq	.L79
 613              		.loc 1 672 5 is_stmt 1 view .LVU193
 614 000a 0F21     		movs	r1, #15
 615 000c 5D68     		ldr	r5, [r3, #4]
 616 000e 2C68     		ldr	r4, [r5]
 617 0010 8C43     		bics	r4, r1
 618 0012 2C60     		str	r4, [r5]
 619              		.loc 1 672 5 view .LVU194
 620 0014 1C68     		ldr	r4, [r3]
 621 0016 1B7C     		ldrb	r3, [r3, #16]
 622 0018 9940     		lsls	r1, r1, r3
 623 001a 6160     		str	r1, [r4, #4]
 624              		.loc 1 672 5 view .LVU195
 625              		.loc 1 672 34 view .LVU196
 626              		.loc 1 676 5 view .LVU197
 627              		.loc 1 676 27 is_stmt 0 view .LVU198
ARM GAS  /tmp/cc8VuCnZ.s 			page 12


 628 001c 8221     		movs	r1, #130
 629              	.L78:
 630              		.loc 1 677 7 is_stmt 1 discriminator 1 view .LVU199
 631              		.loc 1 676 22 is_stmt 0 discriminator 1 view .LVU200
 632 001e 9368     		ldr	r3, [r2, #8]
 633              		.loc 1 676 27 discriminator 1 view .LVU201
 634 0020 0B40     		ands	r3, r1
 635              		.loc 1 676 11 discriminator 1 view .LVU202
 636 0022 022B     		cmp	r3, #2
 637 0024 FBD1     		bne	.L78
 638              	.L79:
 639              		.loc 1 681 3 is_stmt 1 view .LVU203
 640              		.loc 1 681 22 is_stmt 0 view .LVU204
 641 0026 D369     		ldr	r3, [r2, #28]
 642 0028 0A49     		ldr	r1, .L85
 643 002a 0B40     		ands	r3, r1
 644 002c D361     		str	r3, [r2, #28]
 645              		.loc 1 682 3 is_stmt 1 view .LVU205
 646              		.loc 1 682 11 is_stmt 0 view .LVU206
 647 002e C368     		ldr	r3, [r0, #12]
 648              		.loc 1 682 6 view .LVU207
 649 0030 002B     		cmp	r3, #0
 650 0032 02D0     		beq	.L77
 651              		.loc 1 683 5 is_stmt 1 view .LVU208
 652              		.loc 1 683 27 is_stmt 0 view .LVU209
 653 0034 DA69     		ldr	r2, [r3, #28]
 654 0036 0A40     		ands	r2, r1
 655 0038 DA61     		str	r2, [r3, #28]
 656              	.L77:
 657              		.loc 1 686 3 is_stmt 1 view .LVU210
 658              		.loc 1 686 19 is_stmt 0 view .LVU211
 659 003a 4369     		ldr	r3, [r0, #20]
 660              		.loc 1 686 6 view .LVU212
 661 003c 002B     		cmp	r3, #0
 662 003e 08D0     		beq	.L74
 663              		.loc 1 687 5 is_stmt 1 view .LVU213
 664 0040 0F22     		movs	r2, #15
 665 0042 5868     		ldr	r0, [r3, #4]
 666              	.LVL31:
 667              		.loc 1 687 5 is_stmt 0 view .LVU214
 668 0044 0168     		ldr	r1, [r0]
 669 0046 9143     		bics	r1, r2
 670 0048 0160     		str	r1, [r0]
 671              		.loc 1 687 5 is_stmt 1 view .LVU215
 672 004a 1968     		ldr	r1, [r3]
 673 004c 1B7C     		ldrb	r3, [r3, #16]
 674 004e 9A40     		lsls	r2, r2, r3
 675 0050 4A60     		str	r2, [r1, #4]
 676              		.loc 1 687 5 view .LVU216
 677              		.loc 1 687 34 view .LVU217
 678              	.L74:
 679              		.loc 1 688 1 is_stmt 0 view .LVU218
 680              		@ sp needed
 681 0052 30BD     		pop	{r4, r5, pc}
 682              	.L86:
 683              		.align	2
 684              	.L85:
ARM GAS  /tmp/cc8VuCnZ.s 			page 13


 685 0054 FFFBFFFF 		.word	-1025
 686              		.cfi_endproc
 687              	.LFE156:
 688              		.size	i2s_lld_stop_exchange, .-i2s_lld_stop_exchange
 689              		.global	I2SD2
 690              		.section	.bss.I2SD2,"aw",%nobits
 691              		.align	2
 692              		.set	.LANCHOR0,. + 0
 693              		.type	I2SD2, %object
 694              		.size	I2SD2, 44
 695              	I2SD2:
 696 0000 00000000 		.space	44
 696      00000000 
 696      00000000 
 696      00000000 
 696      00000000 
 697              		.section	.rodata.i2s_lld_serve_rx_interrupt.str1.4,"aMS",%progbits,1
 698              		.align	2
 699              	.LC0:
 700 0000 444D4120 		.ascii	"DMA failure\000"
 700      6661696C 
 700      75726500 
 701              		.text
 702              	.Letext0:
 703              		.file 3 "/opt/nanovna/gcc-arm-none-eabi-8-2018-q4-major/lib/gcc/arm-none-eabi/8.2.1/include/stddef
 704              		.file 4 "/opt/nanovna/gcc-arm-none-eabi-8-2018-q4-major/arm-none-eabi/include/machine/_default_typ
 705              		.file 5 "/opt/nanovna/gcc-arm-none-eabi-8-2018-q4-major/arm-none-eabi/include/sys/_stdint.h"
 706              		.file 6 "ChibiOS/os/common/ports/ARMCMx/compilers/GCC/chtypes.h"
 707              		.file 7 "ChibiOS/os/rt/include/chsystypes.h"
 708              		.file 8 "ChibiOS/os/rt/include/chschd.h"
 709              		.file 9 "ChibiOS/os/common/ext/CMSIS/ST/STM32F0xx/stm32f072xb.h"
 710              		.file 10 "ChibiOS/os/common/ports/ARMCMx/chcore.h"
 711              		.file 11 "ChibiOS/os/common/ports/ARMCMx/chcore_v6m.h"
 712              		.file 12 "ChibiOS/os/hal/ports/STM32/LLD/TIMv1/stm32_tim.h"
 713              		.file 13 "ChibiOS/os/rt/include/chmtx.h"
 714              		.file 14 "ChibiOS/os/common/ext/CMSIS/ST/STM32F0xx/system_stm32f0xx.h"
 715              		.file 15 "ChibiOS/os/rt/include/chsys.h"
 716              		.file 16 "ChibiOS/os/rt/include/chregistry.h"
 717              		.file 17 "ChibiOS/os/rt/include/chevents.h"
 718              		.file 18 "ChibiOS/os/hal/ports/STM32/LLD/DMAv1/stm32_dma.h"
 719              		.file 19 "ChibiOS/os/hal/include/hal_queues.h"
 720              		.file 20 "ChibiOS/os/hal/ports/STM32/LLD/GPIOv2/hal_pal_lld.h"
 721              		.file 21 "ChibiOS/os/hal/include/hal_ext.h"
 722              		.file 22 "ChibiOS/os/hal/ports/STM32/LLD/EXTIv1/hal_ext_lld.h"
 723              		.file 23 "ChibiOS/os/hal/include/hal_gpt.h"
 724              		.file 24 "ChibiOS/os/hal/ports/STM32/LLD/TIMv1/hal_gpt_lld.h"
 725              		.file 25 "ChibiOS/os/hal/include/hal_i2c.h"
 726              		.file 26 "ChibiOS/os/hal/ports/STM32/LLD/I2Cv2/hal_i2c_lld.h"
 727              		.file 27 "ChibiOS/os/hal/include/hal_i2s.h"
 728              		.file 28 "ChibiOS/os/hal/ports/STM32/LLD/SPIv2/hal_i2s_lld.h"
 729              		.file 29 "/opt/nanovna/gcc-arm-none-eabi-8-2018-q4-major/arm-none-eabi/include/sys/lock.h"
 730              		.file 30 "/opt/nanovna/gcc-arm-none-eabi-8-2018-q4-major/arm-none-eabi/include/sys/_types.h"
 731              		.file 31 "/opt/nanovna/gcc-arm-none-eabi-8-2018-q4-major/arm-none-eabi/include/sys/reent.h"
 732              		.file 32 "/opt/nanovna/gcc-arm-none-eabi-8-2018-q4-major/arm-none-eabi/include/time.h"
 733              		.file 33 "ChibiOS/os/hal/include/hal_rtc.h"
 734              		.file 34 "ChibiOS/os/hal/ports/STM32/LLD/RTCv2/hal_rtc_lld.h"
 735              		.file 35 "ChibiOS/os/hal/include/hal_serial.h"
ARM GAS  /tmp/cc8VuCnZ.s 			page 14


 736              		.file 36 "ChibiOS/os/hal/ports/STM32/LLD/USARTv2/hal_serial_lld.h"
 737              		.file 37 "ChibiOS/os/hal/include/hal_spi.h"
 738              		.file 38 "ChibiOS/os/hal/ports/STM32/LLD/SPIv2/hal_spi_lld.h"
 739              		.file 39 "ChibiOS/os/hal/include/hal_usb.h"
 740              		.file 40 "ChibiOS/os/hal/ports/STM32/LLD/USBv1/hal_usb_lld.h"