ARM GAS  /tmp/ccFDlCNy.s 			page 1


   1              		.cpu cortex-m0
   2              		.eabi_attribute 20, 1
   3              		.eabi_attribute 21, 1
   4              		.eabi_attribute 23, 3
   5              		.eabi_attribute 24, 1
   6              		.eabi_attribute 25, 1
   7              		.eabi_attribute 26, 1
   8              		.eabi_attribute 30, 2
   9              		.eabi_attribute 34, 0
  10              		.eabi_attribute 18, 4
  11              		.file	"hal_ext_lld_isr.c"
  12              		.text
  13              	.Ltext0:
  14              		.cfi_sections	.debug_frame
  15              		.section	.text.Vector54,"ax",%progbits
  16              		.align	1
  17              		.p2align 4,,15
  18              		.global	Vector54
  19              		.arch armv6s-m
  20              		.syntax unified
  21              		.code	16
  22              		.thumb_func
  23              		.fpu softvfp
  24              		.type	Vector54, %function
  25              	Vector54:
  26              	.LFB151:
  27              		.file 1 "ChibiOS/os/hal/ports/STM32/STM32F0xx/hal_ext_lld_isr.c"
  28              		.loc 1 56 28 view -0
  29              		.cfi_startproc
  30              		@ args = 0, pretend = 0, frame = 0
  31              		@ frame_needed = 0, uses_anonymous_args = 0
  32              		.loc 1 57 3 view .LVU1
  33              		.loc 1 59 3 view .LVU2
  34              		.loc 1 62 6 is_stmt 0 view .LVU3
  35 0000 0323     		movs	r3, #3
  36              		.loc 1 61 6 view .LVU4
  37 0002 0C4A     		ldr	r2, .L11
  38              		.loc 1 56 28 view .LVU5
  39 0004 70B5     		push	{r4, r5, r6, lr}
  40              		.cfi_def_cfa_offset 16
  41              		.cfi_offset 4, -16
  42              		.cfi_offset 5, -12
  43              		.cfi_offset 6, -8
  44              		.cfi_offset 14, -4
  45              		.loc 1 61 6 view .LVU6
  46 0006 5469     		ldr	r4, [r2, #20]
  47              		.loc 1 59 3 view .LVU7
  48 0008 7546     		mov	r5, lr
  49              	.LVL0:
  50              		.loc 1 59 3 is_stmt 1 view .LVU8
  51              		.loc 1 59 3 view .LVU9
  52              		.loc 1 59 3 view .LVU10
  53              		.loc 1 59 3 view .LVU11
  54              		.loc 1 59 22 view .LVU12
  55              		.loc 1 61 3 view .LVU13
  56              		.loc 1 62 3 view .LVU14
  57              		.loc 1 62 6 is_stmt 0 view .LVU15
ARM GAS  /tmp/ccFDlCNy.s 			page 2


  58 000a 2340     		ands	r3, r4
  59              	.LVL1:
  60              		.loc 1 63 3 is_stmt 1 view .LVU16
  61              		.loc 1 63 12 is_stmt 0 view .LVU17
  62 000c 5361     		str	r3, [r2, #20]
  63              		.loc 1 64 3 is_stmt 1 view .LVU18
  64              		.loc 1 64 6 is_stmt 0 view .LVU19
  65 000e E307     		lsls	r3, r4, #31
  66 0010 04D5     		bpl	.L2
  67              	.LVL2:
  68              		.loc 1 65 5 is_stmt 1 view .LVU20
  69 0012 0948     		ldr	r0, .L11+4
  70 0014 0021     		movs	r1, #0
  71              		.loc 1 65 30 is_stmt 0 view .LVU21
  72 0016 4368     		ldr	r3, [r0, #4]
  73              		.loc 1 65 5 view .LVU22
  74 0018 5B68     		ldr	r3, [r3, #4]
  75 001a 9847     		blx	r3
  76              	.LVL3:
  77              	.L2:
  78              		.loc 1 66 3 is_stmt 1 view .LVU23
  79              		.loc 1 66 6 is_stmt 0 view .LVU24
  80 001c A307     		lsls	r3, r4, #30
  81 001e 04D5     		bpl	.L3
  82              		.loc 1 67 5 is_stmt 1 view .LVU25
  83 0020 0548     		ldr	r0, .L11+4
  84 0022 0121     		movs	r1, #1
  85              		.loc 1 67 30 is_stmt 0 view .LVU26
  86 0024 4368     		ldr	r3, [r0, #4]
  87              		.loc 1 67 5 view .LVU27
  88 0026 DB68     		ldr	r3, [r3, #12]
  89 0028 9847     		blx	r3
  90              	.LVL4:
  91              	.L3:
  92              		.loc 1 69 3 is_stmt 1 view .LVU28
  93              		.loc 1 69 3 view .LVU29
  94              		.loc 1 69 3 view .LVU30
  95              		.loc 1 69 3 view .LVU31
  96              		.loc 1 69 3 view .LVU32
  97 002a 2800     		movs	r0, r5
  98 002c FFF7FEFF 		bl	_port_irq_epilogue
  99              	.LVL5:
 100              		.loc 1 70 1 is_stmt 0 view .LVU33
 101              		@ sp needed
 102              	.LVL6:
 103              	.LVL7:
 104              		.loc 1 70 1 view .LVU34
 105 0030 70BD     		pop	{r4, r5, r6, pc}
 106              	.L12:
 107 0032 C046     		.align	2
 108              	.L11:
 109 0034 00040140 		.word	1073808384
 110 0038 00000000 		.word	EXTD1
 111              		.cfi_endproc
 112              	.LFE151:
 113              		.size	Vector54, .-Vector54
 114              		.section	.text.Vector58,"ax",%progbits
ARM GAS  /tmp/ccFDlCNy.s 			page 3


 115              		.align	1
 116              		.p2align 4,,15
 117              		.global	Vector58
 118              		.syntax unified
 119              		.code	16
 120              		.thumb_func
 121              		.fpu softvfp
 122              		.type	Vector58, %function
 123              	Vector58:
 124              	.LFB152:
 125              		.loc 1 77 28 is_stmt 1 view -0
 126              		.cfi_startproc
 127              		@ args = 0, pretend = 0, frame = 0
 128              		@ frame_needed = 0, uses_anonymous_args = 0
 129              		.loc 1 78 3 view .LVU36
 130              		.loc 1 80 3 view .LVU37
 131              		.loc 1 83 6 is_stmt 0 view .LVU38
 132 0000 0C23     		movs	r3, #12
 133              		.loc 1 82 6 view .LVU39
 134 0002 0C4A     		ldr	r2, .L22
 135              		.loc 1 77 28 view .LVU40
 136 0004 70B5     		push	{r4, r5, r6, lr}
 137              		.cfi_def_cfa_offset 16
 138              		.cfi_offset 4, -16
 139              		.cfi_offset 5, -12
 140              		.cfi_offset 6, -8
 141              		.cfi_offset 14, -4
 142              		.loc 1 82 6 view .LVU41
 143 0006 5469     		ldr	r4, [r2, #20]
 144              		.loc 1 80 3 view .LVU42
 145 0008 7546     		mov	r5, lr
 146              	.LVL8:
 147              		.loc 1 80 3 is_stmt 1 view .LVU43
 148              		.loc 1 80 3 view .LVU44
 149              		.loc 1 80 3 view .LVU45
 150              		.loc 1 80 3 view .LVU46
 151              		.loc 1 80 22 view .LVU47
 152              		.loc 1 82 3 view .LVU48
 153              		.loc 1 83 3 view .LVU49
 154              		.loc 1 83 6 is_stmt 0 view .LVU50
 155 000a 2340     		ands	r3, r4
 156              	.LVL9:
 157              		.loc 1 84 3 is_stmt 1 view .LVU51
 158              		.loc 1 84 12 is_stmt 0 view .LVU52
 159 000c 5361     		str	r3, [r2, #20]
 160              		.loc 1 85 3 is_stmt 1 view .LVU53
 161              		.loc 1 85 6 is_stmt 0 view .LVU54
 162 000e 6307     		lsls	r3, r4, #29
 163 0010 04D5     		bpl	.L14
 164              	.LVL10:
 165              		.loc 1 86 5 is_stmt 1 view .LVU55
 166 0012 0948     		ldr	r0, .L22+4
 167 0014 0221     		movs	r1, #2
 168              		.loc 1 86 30 is_stmt 0 view .LVU56
 169 0016 4368     		ldr	r3, [r0, #4]
 170              		.loc 1 86 5 view .LVU57
 171 0018 5B69     		ldr	r3, [r3, #20]
ARM GAS  /tmp/ccFDlCNy.s 			page 4


 172 001a 9847     		blx	r3
 173              	.LVL11:
 174              	.L14:
 175              		.loc 1 87 3 is_stmt 1 view .LVU58
 176              		.loc 1 87 6 is_stmt 0 view .LVU59
 177 001c 2307     		lsls	r3, r4, #28
 178 001e 04D5     		bpl	.L15
 179              		.loc 1 88 5 is_stmt 1 view .LVU60
 180 0020 0548     		ldr	r0, .L22+4
 181 0022 0321     		movs	r1, #3
 182              		.loc 1 88 30 is_stmt 0 view .LVU61
 183 0024 4368     		ldr	r3, [r0, #4]
 184              		.loc 1 88 5 view .LVU62
 185 0026 DB69     		ldr	r3, [r3, #28]
 186 0028 9847     		blx	r3
 187              	.LVL12:
 188              	.L15:
 189              		.loc 1 90 3 is_stmt 1 view .LVU63
 190              		.loc 1 90 3 view .LVU64
 191              		.loc 1 90 3 view .LVU65
 192              		.loc 1 90 3 view .LVU66
 193              		.loc 1 90 3 view .LVU67
 194 002a 2800     		movs	r0, r5
 195 002c FFF7FEFF 		bl	_port_irq_epilogue
 196              	.LVL13:
 197              		.loc 1 91 1 is_stmt 0 view .LVU68
 198              		@ sp needed
 199              	.LVL14:
 200              	.LVL15:
 201              		.loc 1 91 1 view .LVU69
 202 0030 70BD     		pop	{r4, r5, r6, pc}
 203              	.L23:
 204 0032 C046     		.align	2
 205              	.L22:
 206 0034 00040140 		.word	1073808384
 207 0038 00000000 		.word	EXTD1
 208              		.cfi_endproc
 209              	.LFE152:
 210              		.size	Vector58, .-Vector58
 211              		.section	.text.Vector5C,"ax",%progbits
 212              		.align	1
 213              		.p2align 4,,15
 214              		.global	Vector5C
 215              		.syntax unified
 216              		.code	16
 217              		.thumb_func
 218              		.fpu softvfp
 219              		.type	Vector5C, %function
 220              	Vector5C:
 221              	.LFB153:
 222              		.loc 1 98 28 is_stmt 1 view -0
 223              		.cfi_startproc
 224              		@ args = 0, pretend = 0, frame = 0
 225              		@ frame_needed = 0, uses_anonymous_args = 0
 226              		.loc 1 99 3 view .LVU71
 227              		.loc 1 101 3 view .LVU72
 228              		.loc 1 103 6 is_stmt 0 view .LVU73
ARM GAS  /tmp/ccFDlCNy.s 			page 5


 229 0000 2F4A     		ldr	r2, .L73
 230              		.loc 1 98 28 view .LVU74
 231 0002 70B5     		push	{r4, r5, r6, lr}
 232              		.cfi_def_cfa_offset 16
 233              		.cfi_offset 4, -16
 234              		.cfi_offset 5, -12
 235              		.cfi_offset 6, -8
 236              		.cfi_offset 14, -4
 237              		.loc 1 104 6 view .LVU75
 238 0004 2F4B     		ldr	r3, .L73+4
 239              		.loc 1 103 6 view .LVU76
 240 0006 5469     		ldr	r4, [r2, #20]
 241              		.loc 1 101 3 view .LVU77
 242 0008 7546     		mov	r5, lr
 243              	.LVL16:
 244              		.loc 1 101 3 is_stmt 1 view .LVU78
 245              		.loc 1 101 3 view .LVU79
 246              		.loc 1 101 3 view .LVU80
 247              		.loc 1 101 3 view .LVU81
 248              		.loc 1 101 22 view .LVU82
 249              		.loc 1 103 3 view .LVU83
 250              		.loc 1 104 3 view .LVU84
 251              		.loc 1 104 6 is_stmt 0 view .LVU85
 252 000a 2340     		ands	r3, r4
 253              	.LVL17:
 254              		.loc 1 107 3 is_stmt 1 view .LVU86
 255              		.loc 1 107 12 is_stmt 0 view .LVU87
 256 000c 5361     		str	r3, [r2, #20]
 257              		.loc 1 108 3 is_stmt 1 view .LVU88
 258              		.loc 1 108 6 is_stmt 0 view .LVU89
 259 000e E306     		lsls	r3, r4, #27
 260 0010 04D5     		bpl	.L25
 261              	.LVL18:
 262              		.loc 1 109 5 is_stmt 1 view .LVU90
 263 0012 2D48     		ldr	r0, .L73+8
 264 0014 0421     		movs	r1, #4
 265              		.loc 1 109 30 is_stmt 0 view .LVU91
 266 0016 4368     		ldr	r3, [r0, #4]
 267              		.loc 1 109 5 view .LVU92
 268 0018 5B6A     		ldr	r3, [r3, #36]
 269 001a 9847     		blx	r3
 270              	.LVL19:
 271              	.L25:
 272              		.loc 1 110 3 is_stmt 1 view .LVU93
 273              		.loc 1 110 6 is_stmt 0 view .LVU94
 274 001c A306     		lsls	r3, r4, #26
 275 001e 04D5     		bpl	.L26
 276              		.loc 1 111 5 is_stmt 1 view .LVU95
 277 0020 2948     		ldr	r0, .L73+8
 278 0022 0521     		movs	r1, #5
 279              		.loc 1 111 30 is_stmt 0 view .LVU96
 280 0024 4368     		ldr	r3, [r0, #4]
 281              		.loc 1 111 5 view .LVU97
 282 0026 DB6A     		ldr	r3, [r3, #44]
 283 0028 9847     		blx	r3
 284              	.LVL20:
 285              	.L26:
ARM GAS  /tmp/ccFDlCNy.s 			page 6


 286              		.loc 1 112 3 is_stmt 1 view .LVU98
 287              		.loc 1 112 6 is_stmt 0 view .LVU99
 288 002a 6306     		lsls	r3, r4, #25
 289 002c 04D5     		bpl	.L27
 290              		.loc 1 113 5 is_stmt 1 view .LVU100
 291 002e 2648     		ldr	r0, .L73+8
 292 0030 0621     		movs	r1, #6
 293              		.loc 1 113 30 is_stmt 0 view .LVU101
 294 0032 4368     		ldr	r3, [r0, #4]
 295              		.loc 1 113 5 view .LVU102
 296 0034 5B6B     		ldr	r3, [r3, #52]
 297 0036 9847     		blx	r3
 298              	.LVL21:
 299              	.L27:
 300              		.loc 1 114 3 is_stmt 1 view .LVU103
 301              		.loc 1 114 6 is_stmt 0 view .LVU104
 302 0038 2306     		lsls	r3, r4, #24
 303 003a 04D5     		bpl	.L28
 304              		.loc 1 115 5 is_stmt 1 view .LVU105
 305 003c 2248     		ldr	r0, .L73+8
 306 003e 0721     		movs	r1, #7
 307              		.loc 1 115 30 is_stmt 0 view .LVU106
 308 0040 4368     		ldr	r3, [r0, #4]
 309              		.loc 1 115 5 view .LVU107
 310 0042 DB6B     		ldr	r3, [r3, #60]
 311 0044 9847     		blx	r3
 312              	.LVL22:
 313              	.L28:
 314              		.loc 1 116 3 is_stmt 1 view .LVU108
 315              		.loc 1 116 6 is_stmt 0 view .LVU109
 316 0046 E305     		lsls	r3, r4, #23
 317 0048 04D5     		bpl	.L29
 318              		.loc 1 117 5 is_stmt 1 view .LVU110
 319 004a 1F48     		ldr	r0, .L73+8
 320 004c 0821     		movs	r1, #8
 321              		.loc 1 117 30 is_stmt 0 view .LVU111
 322 004e 4368     		ldr	r3, [r0, #4]
 323              		.loc 1 117 5 view .LVU112
 324 0050 5B6C     		ldr	r3, [r3, #68]
 325 0052 9847     		blx	r3
 326              	.LVL23:
 327              	.L29:
 328              		.loc 1 118 3 is_stmt 1 view .LVU113
 329              		.loc 1 118 6 is_stmt 0 view .LVU114
 330 0054 A305     		lsls	r3, r4, #22
 331 0056 04D5     		bpl	.L30
 332              		.loc 1 119 5 is_stmt 1 view .LVU115
 333 0058 1B48     		ldr	r0, .L73+8
 334 005a 0921     		movs	r1, #9
 335              		.loc 1 119 30 is_stmt 0 view .LVU116
 336 005c 4368     		ldr	r3, [r0, #4]
 337              		.loc 1 119 5 view .LVU117
 338 005e DB6C     		ldr	r3, [r3, #76]
 339 0060 9847     		blx	r3
 340              	.LVL24:
 341              	.L30:
 342              		.loc 1 120 3 is_stmt 1 view .LVU118
ARM GAS  /tmp/ccFDlCNy.s 			page 7


 343              		.loc 1 120 6 is_stmt 0 view .LVU119
 344 0062 6305     		lsls	r3, r4, #21
 345 0064 04D5     		bpl	.L31
 346              		.loc 1 121 5 is_stmt 1 view .LVU120
 347 0066 1848     		ldr	r0, .L73+8
 348 0068 0A21     		movs	r1, #10
 349              		.loc 1 121 31 is_stmt 0 view .LVU121
 350 006a 4368     		ldr	r3, [r0, #4]
 351              		.loc 1 121 5 view .LVU122
 352 006c 5B6D     		ldr	r3, [r3, #84]
 353 006e 9847     		blx	r3
 354              	.LVL25:
 355              	.L31:
 356              		.loc 1 122 3 is_stmt 1 view .LVU123
 357              		.loc 1 122 6 is_stmt 0 view .LVU124
 358 0070 2305     		lsls	r3, r4, #20
 359 0072 04D5     		bpl	.L32
 360              		.loc 1 123 5 is_stmt 1 view .LVU125
 361 0074 1448     		ldr	r0, .L73+8
 362 0076 0B21     		movs	r1, #11
 363              		.loc 1 123 31 is_stmt 0 view .LVU126
 364 0078 4368     		ldr	r3, [r0, #4]
 365              		.loc 1 123 5 view .LVU127
 366 007a DB6D     		ldr	r3, [r3, #92]
 367 007c 9847     		blx	r3
 368              	.LVL26:
 369              	.L32:
 370              		.loc 1 124 3 is_stmt 1 view .LVU128
 371              		.loc 1 124 6 is_stmt 0 view .LVU129
 372 007e E304     		lsls	r3, r4, #19
 373 0080 04D5     		bpl	.L33
 374              		.loc 1 125 5 is_stmt 1 view .LVU130
 375 0082 1148     		ldr	r0, .L73+8
 376 0084 0C21     		movs	r1, #12
 377              		.loc 1 125 31 is_stmt 0 view .LVU131
 378 0086 4368     		ldr	r3, [r0, #4]
 379              		.loc 1 125 5 view .LVU132
 380 0088 5B6E     		ldr	r3, [r3, #100]
 381 008a 9847     		blx	r3
 382              	.LVL27:
 383              	.L33:
 384              		.loc 1 126 3 is_stmt 1 view .LVU133
 385              		.loc 1 126 6 is_stmt 0 view .LVU134
 386 008c A304     		lsls	r3, r4, #18
 387 008e 04D5     		bpl	.L34
 388              		.loc 1 127 5 is_stmt 1 view .LVU135
 389 0090 0D48     		ldr	r0, .L73+8
 390 0092 0D21     		movs	r1, #13
 391              		.loc 1 127 31 is_stmt 0 view .LVU136
 392 0094 4368     		ldr	r3, [r0, #4]
 393              		.loc 1 127 5 view .LVU137
 394 0096 DB6E     		ldr	r3, [r3, #108]
 395 0098 9847     		blx	r3
 396              	.LVL28:
 397              	.L34:
 398              		.loc 1 128 3 is_stmt 1 view .LVU138
 399              		.loc 1 128 6 is_stmt 0 view .LVU139
ARM GAS  /tmp/ccFDlCNy.s 			page 8


 400 009a 6304     		lsls	r3, r4, #17
 401 009c 04D5     		bpl	.L35
 402              		.loc 1 129 5 is_stmt 1 view .LVU140
 403 009e 0A48     		ldr	r0, .L73+8
 404 00a0 0E21     		movs	r1, #14
 405              		.loc 1 129 31 is_stmt 0 view .LVU141
 406 00a2 4368     		ldr	r3, [r0, #4]
 407              		.loc 1 129 5 view .LVU142
 408 00a4 5B6F     		ldr	r3, [r3, #116]
 409 00a6 9847     		blx	r3
 410              	.LVL29:
 411              	.L35:
 412              		.loc 1 130 3 is_stmt 1 view .LVU143
 413              		.loc 1 130 6 is_stmt 0 view .LVU144
 414 00a8 2304     		lsls	r3, r4, #16
 415 00aa 04D5     		bpl	.L36
 416              		.loc 1 131 5 is_stmt 1 view .LVU145
 417 00ac 0648     		ldr	r0, .L73+8
 418 00ae 0F21     		movs	r1, #15
 419              		.loc 1 131 31 is_stmt 0 view .LVU146
 420 00b0 4368     		ldr	r3, [r0, #4]
 421              		.loc 1 131 5 view .LVU147
 422 00b2 DB6F     		ldr	r3, [r3, #124]
 423 00b4 9847     		blx	r3
 424              	.LVL30:
 425              	.L36:
 426              		.loc 1 133 3 is_stmt 1 view .LVU148
 427              		.loc 1 133 3 view .LVU149
 428              		.loc 1 133 3 view .LVU150
 429              		.loc 1 133 3 view .LVU151
 430              		.loc 1 133 3 view .LVU152
 431 00b6 2800     		movs	r0, r5
 432 00b8 FFF7FEFF 		bl	_port_irq_epilogue
 433              	.LVL31:
 434              		.loc 1 134 1 is_stmt 0 view .LVU153
 435              		@ sp needed
 436              	.LVL32:
 437              	.LVL33:
 438              		.loc 1 134 1 view .LVU154
 439 00bc 70BD     		pop	{r4, r5, r6, pc}
 440              	.L74:
 441 00be C046     		.align	2
 442              	.L73:
 443 00c0 00040140 		.word	1073808384
 444 00c4 F0FF0000 		.word	65520
 445 00c8 00000000 		.word	EXTD1
 446              		.cfi_endproc
 447              	.LFE153:
 448              		.size	Vector5C, .-Vector5C
 449              		.section	.text.Vector44,"ax",%progbits
 450              		.align	1
 451              		.p2align 4,,15
 452              		.global	Vector44
 453              		.syntax unified
 454              		.code	16
 455              		.thumb_func
 456              		.fpu softvfp
ARM GAS  /tmp/ccFDlCNy.s 			page 9


 457              		.type	Vector44, %function
 458              	Vector44:
 459              	.LFB154:
 460              		.loc 1 142 28 is_stmt 1 view -0
 461              		.cfi_startproc
 462              		@ args = 0, pretend = 0, frame = 0
 463              		@ frame_needed = 0, uses_anonymous_args = 0
 464              		.loc 1 143 3 view .LVU156
 465              		.loc 1 145 3 view .LVU157
 466              		.loc 1 147 6 is_stmt 0 view .LVU158
 467 0000 0A4A     		ldr	r2, .L80
 468              		.loc 1 142 28 view .LVU159
 469 0002 10B5     		push	{r4, lr}
 470              		.cfi_def_cfa_offset 8
 471              		.cfi_offset 4, -8
 472              		.cfi_offset 14, -4
 473              		.loc 1 147 6 view .LVU160
 474 0004 5369     		ldr	r3, [r2, #20]
 475              		.loc 1 148 13 view .LVU161
 476 0006 1168     		ldr	r1, [r2]
 477              		.loc 1 145 3 view .LVU162
 478 0008 7446     		mov	r4, lr
 479              	.LVL34:
 480              		.loc 1 145 3 is_stmt 1 view .LVU163
 481              		.loc 1 145 3 view .LVU164
 482              		.loc 1 145 3 view .LVU165
 483              		.loc 1 145 3 view .LVU166
 484              		.loc 1 145 22 view .LVU167
 485              		.loc 1 147 3 view .LVU168
 486              		.loc 1 148 3 view .LVU169
 487 000a 0B40     		ands	r3, r1
 488              	.LVL35:
 489              		.loc 1 148 6 is_stmt 0 view .LVU170
 490 000c 8021     		movs	r1, #128
 491 000e 4902     		lsls	r1, r1, #9
 492 0010 0B40     		ands	r3, r1
 493              	.LVL36:
 494              		.loc 1 149 3 is_stmt 1 view .LVU171
 495              		.loc 1 149 12 is_stmt 0 view .LVU172
 496 0012 5361     		str	r3, [r2, #20]
 497              		.loc 1 150 3 is_stmt 1 view .LVU173
 498              		.loc 1 150 6 is_stmt 0 view .LVU174
 499 0014 05D0     		beq	.L76
 500              		.loc 1 151 5 is_stmt 1 view .LVU175
 501              		.loc 1 151 31 is_stmt 0 view .LVU176
 502 0016 8423     		movs	r3, #132
 503              	.LVL37:
 504              		.loc 1 151 5 view .LVU177
 505 0018 0548     		ldr	r0, .L80+4
 506 001a 1021     		movs	r1, #16
 507 001c 4268     		ldr	r2, [r0, #4]
 508              	.LVL38:
 509              		.loc 1 151 5 view .LVU178
 510 001e D358     		ldr	r3, [r2, r3]
 511 0020 9847     		blx	r3
 512              	.LVL39:
 513              	.L76:
ARM GAS  /tmp/ccFDlCNy.s 			page 10


 514              		.loc 1 153 3 is_stmt 1 view .LVU179
 515              		.loc 1 153 3 view .LVU180
 516              		.loc 1 153 3 view .LVU181
 517              		.loc 1 153 3 view .LVU182
 518              		.loc 1 153 3 view .LVU183
 519 0022 2000     		movs	r0, r4
 520 0024 FFF7FEFF 		bl	_port_irq_epilogue
 521              	.LVL40:
 522              		.loc 1 154 1 is_stmt 0 view .LVU184
 523              		@ sp needed
 524              	.LVL41:
 525              		.loc 1 154 1 view .LVU185
 526 0028 10BD     		pop	{r4, pc}
 527              	.L81:
 528 002a C046     		.align	2
 529              	.L80:
 530 002c 00040140 		.word	1073808384
 531 0030 00000000 		.word	EXTD1
 532              		.cfi_endproc
 533              	.LFE154:
 534              		.size	Vector44, .-Vector44
 535              		.section	.text.Vector48,"ax",%progbits
 536              		.align	1
 537              		.p2align 4,,15
 538              		.global	Vector48
 539              		.syntax unified
 540              		.code	16
 541              		.thumb_func
 542              		.fpu softvfp
 543              		.type	Vector48, %function
 544              	Vector48:
 545              	.LFB155:
 546              		.loc 1 163 28 is_stmt 1 view -0
 547              		.cfi_startproc
 548              		@ args = 0, pretend = 0, frame = 0
 549              		@ frame_needed = 0, uses_anonymous_args = 0
 550              		.loc 1 164 3 view .LVU187
 551              		.loc 1 166 3 view .LVU188
 552              		.loc 1 168 6 is_stmt 0 view .LVU189
 553 0000 124B     		ldr	r3, .L95
 554              		.loc 1 163 28 view .LVU190
 555 0002 70B5     		push	{r4, r5, r6, lr}
 556              		.cfi_def_cfa_offset 16
 557              		.cfi_offset 4, -16
 558              		.cfi_offset 5, -12
 559              		.cfi_offset 6, -8
 560              		.cfi_offset 14, -4
 561              		.loc 1 168 6 view .LVU191
 562 0004 5C69     		ldr	r4, [r3, #20]
 563              		.loc 1 169 13 view .LVU192
 564 0006 1A68     		ldr	r2, [r3]
 565              		.loc 1 166 3 view .LVU193
 566 0008 7546     		mov	r5, lr
 567              	.LVL42:
 568              		.loc 1 166 3 is_stmt 1 view .LVU194
 569              		.loc 1 166 3 view .LVU195
 570              		.loc 1 166 3 view .LVU196
ARM GAS  /tmp/ccFDlCNy.s 			page 11


 571              		.loc 1 166 3 view .LVU197
 572              		.loc 1 166 22 view .LVU198
 573              		.loc 1 168 3 view .LVU199
 574              		.loc 1 169 3 view .LVU200
 575 000a 1440     		ands	r4, r2
 576              	.LVL43:
 577              		.loc 1 169 6 is_stmt 0 view .LVU201
 578 000c D022     		movs	r2, #208
 579 000e 5203     		lsls	r2, r2, #13
 580 0010 2240     		ands	r2, r4
 581              	.LVL44:
 582              		.loc 1 170 3 is_stmt 1 view .LVU202
 583              		.loc 1 170 12 is_stmt 0 view .LVU203
 584 0012 5A61     		str	r2, [r3, #20]
 585              		.loc 1 171 3 is_stmt 1 view .LVU204
 586              		.loc 1 171 6 is_stmt 0 view .LVU205
 587 0014 A303     		lsls	r3, r4, #14
 588 0016 05D5     		bpl	.L83
 589              		.loc 1 172 5 is_stmt 1 view .LVU206
 590              		.loc 1 172 31 is_stmt 0 view .LVU207
 591 0018 8C23     		movs	r3, #140
 592              		.loc 1 172 5 view .LVU208
 593 001a 0D48     		ldr	r0, .L95+4
 594 001c 1121     		movs	r1, #17
 595 001e 4268     		ldr	r2, [r0, #4]
 596              	.LVL45:
 597              		.loc 1 172 5 view .LVU209
 598 0020 D358     		ldr	r3, [r2, r3]
 599 0022 9847     		blx	r3
 600              	.LVL46:
 601              	.L83:
 602              		.loc 1 173 3 is_stmt 1 view .LVU210
 603              		.loc 1 173 6 is_stmt 0 view .LVU211
 604 0024 2303     		lsls	r3, r4, #12
 605 0026 05D5     		bpl	.L84
 606              		.loc 1 174 5 is_stmt 1 view .LVU212
 607              		.loc 1 174 31 is_stmt 0 view .LVU213
 608 0028 9C23     		movs	r3, #156
 609              		.loc 1 174 5 view .LVU214
 610 002a 0948     		ldr	r0, .L95+4
 611 002c 1321     		movs	r1, #19
 612 002e 4268     		ldr	r2, [r0, #4]
 613 0030 D358     		ldr	r3, [r2, r3]
 614 0032 9847     		blx	r3
 615              	.LVL47:
 616              	.L84:
 617              		.loc 1 175 3 is_stmt 1 view .LVU215
 618              		.loc 1 175 6 is_stmt 0 view .LVU216
 619 0034 E302     		lsls	r3, r4, #11
 620 0036 05D5     		bpl	.L85
 621              		.loc 1 176 5 is_stmt 1 view .LVU217
 622              		.loc 1 176 31 is_stmt 0 view .LVU218
 623 0038 A423     		movs	r3, #164
 624              		.loc 1 176 5 view .LVU219
 625 003a 0548     		ldr	r0, .L95+4
 626 003c 1421     		movs	r1, #20
 627 003e 4268     		ldr	r2, [r0, #4]
ARM GAS  /tmp/ccFDlCNy.s 			page 12


 628 0040 D358     		ldr	r3, [r2, r3]
 629 0042 9847     		blx	r3
 630              	.LVL48:
 631              	.L85:
 632              		.loc 1 178 3 is_stmt 1 view .LVU220
 633              		.loc 1 178 3 view .LVU221
 634              		.loc 1 178 3 view .LVU222
 635              		.loc 1 178 3 view .LVU223
 636              		.loc 1 178 3 view .LVU224
 637 0044 2800     		movs	r0, r5
 638 0046 FFF7FEFF 		bl	_port_irq_epilogue
 639              	.LVL49:
 640              		.loc 1 179 1 is_stmt 0 view .LVU225
 641              		@ sp needed
 642              	.LVL50:
 643              	.LVL51:
 644              		.loc 1 179 1 view .LVU226
 645 004a 70BD     		pop	{r4, r5, r6, pc}
 646              	.L96:
 647              		.align	2
 648              	.L95:
 649 004c 00040140 		.word	1073808384
 650 0050 00000000 		.word	EXTD1
 651              		.cfi_endproc
 652              	.LFE155:
 653              		.size	Vector48, .-Vector48
 654              		.section	.text.ext_lld_exti_irq_enable,"ax",%progbits
 655              		.align	1
 656              		.p2align 4,,15
 657              		.global	ext_lld_exti_irq_enable
 658              		.syntax unified
 659              		.code	16
 660              		.thumb_func
 661              		.fpu softvfp
 662              		.type	ext_lld_exti_irq_enable, %function
 663              	ext_lld_exti_irq_enable:
 664              	.LFB156:
 665              		.loc 1 231 36 is_stmt 1 view -0
 666              		.cfi_startproc
 667              		@ args = 0, pretend = 0, frame = 0
 668              		@ frame_needed = 0, uses_anonymous_args = 0
 669              		.loc 1 233 3 view .LVU228
 670              		.loc 1 231 36 is_stmt 0 view .LVU229
 671 0000 10B5     		push	{r4, lr}
 672              		.cfi_def_cfa_offset 8
 673              		.cfi_offset 4, -8
 674              		.cfi_offset 14, -4
 675              		.loc 1 233 3 view .LVU230
 676 0002 0321     		movs	r1, #3
 677 0004 0520     		movs	r0, #5
 678 0006 FFF7FEFF 		bl	nvicEnableVector
 679              	.LVL52:
 680              		.loc 1 234 3 is_stmt 1 view .LVU231
 681 000a 0321     		movs	r1, #3
 682 000c 0620     		movs	r0, #6
 683 000e FFF7FEFF 		bl	nvicEnableVector
 684              	.LVL53:
ARM GAS  /tmp/ccFDlCNy.s 			page 13


 685              		.loc 1 235 3 view .LVU232
 686 0012 0321     		movs	r1, #3
 687 0014 0720     		movs	r0, #7
 688 0016 FFF7FEFF 		bl	nvicEnableVector
 689              	.LVL54:
 690              		.loc 1 237 3 view .LVU233
 691 001a 0321     		movs	r1, #3
 692 001c 0120     		movs	r0, #1
 693 001e FFF7FEFF 		bl	nvicEnableVector
 694              	.LVL55:
 695              		.loc 1 238 3 view .LVU234
 696 0022 0321     		movs	r1, #3
 697 0024 0C20     		movs	r0, #12
 698 0026 FFF7FEFF 		bl	nvicEnableVector
 699              	.LVL56:
 700              		.loc 1 240 3 view .LVU235
 701 002a 0321     		movs	r1, #3
 702 002c 0220     		movs	r0, #2
 703 002e FFF7FEFF 		bl	nvicEnableVector
 704              	.LVL57:
 705              		.loc 1 241 1 is_stmt 0 view .LVU236
 706              		@ sp needed
 707 0032 10BD     		pop	{r4, pc}
 708              		.cfi_endproc
 709              	.LFE156:
 710              		.size	ext_lld_exti_irq_enable, .-ext_lld_exti_irq_enable
 711              		.section	.text.ext_lld_exti_irq_disable,"ax",%progbits
 712              		.align	1
 713              		.p2align 4,,15
 714              		.global	ext_lld_exti_irq_disable
 715              		.syntax unified
 716              		.code	16
 717              		.thumb_func
 718              		.fpu softvfp
 719              		.type	ext_lld_exti_irq_disable, %function
 720              	ext_lld_exti_irq_disable:
 721              	.LFB157:
 722              		.loc 1 248 37 is_stmt 1 view -0
 723              		.cfi_startproc
 724              		@ args = 0, pretend = 0, frame = 0
 725              		@ frame_needed = 0, uses_anonymous_args = 0
 726              		.loc 1 250 3 view .LVU238
 727              		.loc 1 248 37 is_stmt 0 view .LVU239
 728 0000 10B5     		push	{r4, lr}
 729              		.cfi_def_cfa_offset 8
 730              		.cfi_offset 4, -8
 731              		.cfi_offset 14, -4
 732              		.loc 1 250 3 view .LVU240
 733 0002 0520     		movs	r0, #5
 734 0004 FFF7FEFF 		bl	nvicDisableVector
 735              	.LVL58:
 736              		.loc 1 251 3 is_stmt 1 view .LVU241
 737 0008 0620     		movs	r0, #6
 738 000a FFF7FEFF 		bl	nvicDisableVector
 739              	.LVL59:
 740              		.loc 1 252 3 view .LVU242
 741 000e 0720     		movs	r0, #7
ARM GAS  /tmp/ccFDlCNy.s 			page 14


 742 0010 FFF7FEFF 		bl	nvicDisableVector
 743              	.LVL60:
 744              		.loc 1 254 3 view .LVU243
 745 0014 0120     		movs	r0, #1
 746 0016 FFF7FEFF 		bl	nvicDisableVector
 747              	.LVL61:
 748              		.loc 1 255 3 view .LVU244
 749 001a 0C20     		movs	r0, #12
 750 001c FFF7FEFF 		bl	nvicDisableVector
 751              	.LVL62:
 752              		.loc 1 257 3 view .LVU245
 753 0020 0220     		movs	r0, #2
 754 0022 FFF7FEFF 		bl	nvicDisableVector
 755              	.LVL63:
 756              		.loc 1 258 1 is_stmt 0 view .LVU246
 757              		@ sp needed
 758 0026 10BD     		pop	{r4, pc}
 759              		.cfi_endproc
 760              	.LFE157:
 761              		.size	ext_lld_exti_irq_disable, .-ext_lld_exti_irq_disable
 762              		.text
 763              	.Letext0:
 764              		.file 2 "/opt/nanovna/gcc-arm-none-eabi-8-2018-q4-major/lib/gcc/arm-none-eabi/8.2.1/include/stddef
 765              		.file 3 "/opt/nanovna/gcc-arm-none-eabi-8-2018-q4-major/arm-none-eabi/include/machine/_default_typ
 766              		.file 4 "/opt/nanovna/gcc-arm-none-eabi-8-2018-q4-major/arm-none-eabi/include/sys/_stdint.h"
 767              		.file 5 "ChibiOS/os/common/ports/ARMCMx/compilers/GCC/chtypes.h"
 768              		.file 6 "ChibiOS/os/rt/include/chsystypes.h"
 769              		.file 7 "ChibiOS/os/rt/include/chschd.h"
 770              		.file 8 "ChibiOS/os/common/ext/CMSIS/ST/STM32F0xx/stm32f072xb.h"
 771              		.file 9 "ChibiOS/os/common/ports/ARMCMx/chcore.h"
 772              		.file 10 "ChibiOS/os/common/ports/ARMCMx/chcore_v6m.h"
 773              		.file 11 "ChibiOS/os/hal/ports/STM32/LLD/TIMv1/stm32_tim.h"
 774              		.file 12 "ChibiOS/os/rt/include/chmtx.h"
 775              		.file 13 "ChibiOS/os/common/ext/CMSIS/ST/STM32F0xx/system_stm32f0xx.h"
 776              		.file 14 "ChibiOS/os/rt/include/chsys.h"
 777              		.file 15 "ChibiOS/os/rt/include/chregistry.h"
 778              		.file 16 "ChibiOS/os/rt/include/chevents.h"
 779              		.file 17 "ChibiOS/os/hal/ports/STM32/LLD/DMAv1/stm32_dma.h"
 780              		.file 18 "ChibiOS/os/hal/include/hal_queues.h"
 781              		.file 19 "ChibiOS/os/hal/ports/STM32/LLD/GPIOv2/hal_pal_lld.h"
 782              		.file 20 "ChibiOS/os/hal/include/hal_ext.h"
 783              		.file 21 "ChibiOS/os/hal/ports/STM32/LLD/EXTIv1/hal_ext_lld.h"
 784              		.file 22 "ChibiOS/os/hal/include/hal_gpt.h"
 785              		.file 23 "ChibiOS/os/hal/ports/STM32/LLD/TIMv1/hal_gpt_lld.h"
 786              		.file 24 "ChibiOS/os/hal/include/hal_i2c.h"
 787              		.file 25 "ChibiOS/os/hal/ports/STM32/LLD/I2Cv2/hal_i2c_lld.h"
 788              		.file 26 "ChibiOS/os/hal/include/hal_i2s.h"
 789              		.file 27 "ChibiOS/os/hal/ports/STM32/LLD/SPIv2/hal_i2s_lld.h"
 790              		.file 28 "/opt/nanovna/gcc-arm-none-eabi-8-2018-q4-major/arm-none-eabi/include/sys/lock.h"
 791              		.file 29 "/opt/nanovna/gcc-arm-none-eabi-8-2018-q4-major/arm-none-eabi/include/sys/_types.h"
 792              		.file 30 "/opt/nanovna/gcc-arm-none-eabi-8-2018-q4-major/arm-none-eabi/include/sys/reent.h"
 793              		.file 31 "/opt/nanovna/gcc-arm-none-eabi-8-2018-q4-major/arm-none-eabi/include/time.h"
 794              		.file 32 "ChibiOS/os/hal/include/hal_rtc.h"
 795              		.file 33 "ChibiOS/os/hal/ports/STM32/LLD/RTCv2/hal_rtc_lld.h"
 796              		.file 34 "ChibiOS/os/hal/include/hal_serial.h"
 797              		.file 35 "ChibiOS/os/hal/ports/STM32/LLD/USARTv2/hal_serial_lld.h"
 798              		.file 36 "ChibiOS/os/hal/include/hal_spi.h"
ARM GAS  /tmp/ccFDlCNy.s 			page 15


 799              		.file 37 "ChibiOS/os/hal/ports/STM32/LLD/SPIv2/hal_spi_lld.h"
 800              		.file 38 "ChibiOS/os/hal/include/hal_usb.h"
 801              		.file 39 "ChibiOS/os/hal/ports/STM32/LLD/USBv1/hal_usb_lld.h"
 802              		.file 40 "ChibiOS/os/hal/ports/common/ARMCMx/nvic.h"