ARM GAS  /tmp/ccQIckF8.s 			page 1


   1              		.cpu cortex-m0
   2              		.eabi_attribute 20, 1
   3              		.eabi_attribute 21, 1
   4              		.eabi_attribute 23, 3
   5              		.eabi_attribute 24, 1
   6              		.eabi_attribute 25, 1
   7              		.eabi_attribute 26, 1
   8              		.eabi_attribute 30, 2
   9              		.eabi_attribute 34, 0
  10              		.eabi_attribute 18, 4
  11              		.file	"hal_ext.c"
  12              		.text
  13              	.Ltext0:
  14              		.cfi_sections	.debug_frame
  15              		.section	.text.extInit,"ax",%progbits
  16              		.align	1
  17              		.p2align 4,,15
  18              		.global	extInit
  19              		.arch armv6s-m
  20              		.syntax unified
  21              		.code	16
  22              		.thumb_func
  23              		.fpu softvfp
  24              		.type	extInit, %function
  25              	extInit:
  26              	.LFB151:
  27              		.file 1 "ChibiOS/os/hal/src/hal_ext.c"
  28              		.loc 1 56 20 view -0
  29              		.cfi_startproc
  30              		@ args = 0, pretend = 0, frame = 0
  31              		@ frame_needed = 0, uses_anonymous_args = 0
  32              		.loc 1 58 3 view .LVU1
  33              		.loc 1 56 20 is_stmt 0 view .LVU2
  34 0000 10B5     		push	{r4, lr}
  35              		.cfi_def_cfa_offset 8
  36              		.cfi_offset 4, -8
  37              		.cfi_offset 14, -4
  38              		.loc 1 58 3 view .LVU3
  39 0002 FFF7FEFF 		bl	ext_lld_init
  40              	.LVL0:
  41              		.loc 1 59 1 view .LVU4
  42              		@ sp needed
  43 0006 10BD     		pop	{r4, pc}
  44              		.cfi_endproc
  45              	.LFE151:
  46              		.size	extInit, .-extInit
  47              		.section	.text.extObjectInit,"ax",%progbits
  48              		.align	1
  49              		.p2align 4,,15
  50              		.global	extObjectInit
  51              		.syntax unified
  52              		.code	16
  53              		.thumb_func
  54              		.fpu softvfp
  55              		.type	extObjectInit, %function
  56              	extObjectInit:
  57              	.LVL1:
ARM GAS  /tmp/ccQIckF8.s 			page 2


  58              	.LFB152:
  59              		.loc 1 68 37 is_stmt 1 view -0
  60              		.cfi_startproc
  61              		@ args = 0, pretend = 0, frame = 0
  62              		@ frame_needed = 0, uses_anonymous_args = 0
  63              		@ link register save eliminated.
  64              		.loc 1 70 3 view .LVU6
  65              		.loc 1 70 16 is_stmt 0 view .LVU7
  66 0000 0123     		movs	r3, #1
  67 0002 0370     		strb	r3, [r0]
  68              		.loc 1 71 3 is_stmt 1 view .LVU8
  69              		.loc 1 71 16 is_stmt 0 view .LVU9
  70 0004 0023     		movs	r3, #0
  71              		.loc 1 72 1 view .LVU10
  72              		@ sp needed
  73              		.loc 1 71 16 view .LVU11
  74 0006 4360     		str	r3, [r0, #4]
  75              		.loc 1 72 1 view .LVU12
  76 0008 7047     		bx	lr
  77              		.cfi_endproc
  78              	.LFE152:
  79              		.size	extObjectInit, .-extObjectInit
  80 000a C046     		.section	.text.extStart,"ax",%progbits
  81              		.align	1
  82              		.p2align 4,,15
  83              		.global	extStart
  84              		.syntax unified
  85              		.code	16
  86              		.thumb_func
  87              		.fpu softvfp
  88              		.type	extStart, %function
  89              	extStart:
  90              	.LVL2:
  91              	.LFB153:
  92              		.loc 1 84 57 is_stmt 1 view -0
  93              		.cfi_startproc
  94              		@ args = 0, pretend = 0, frame = 0
  95              		@ frame_needed = 0, uses_anonymous_args = 0
  96              		.loc 1 86 3 view .LVU14
  97              		.loc 1 86 3 view .LVU15
  98              		.loc 1 88 3 view .LVU16
  99              	.LBB76:
 100              	.LBI76:
 101              		.file 2 "ChibiOS/os/hal/osal/rt/osal.h"
 102              		.loc 2 491 20 view .LVU17
 103              	.LBE76:
 104              		.loc 2 493 3 view .LVU18
 105              	.LBB88:
 106              	.LBB77:
 107              	.LBI77:
 108              		.file 3 "ChibiOS/os/rt/include/chsys.h"
 109              		.loc 3 374 20 view .LVU19
 110              	.LBE77:
 111              	.LBE88:
 112              		.loc 3 376 3 view .LVU20
 113              	.LBB89:
 114              	.LBB85:
ARM GAS  /tmp/ccQIckF8.s 			page 3


 115              	.LBB78:
 116              	.LBI78:
 117              		.file 4 "ChibiOS/os/common/ports/ARMCMx/chcore_v6m.h"
 118              		.loc 4 371 20 view .LVU21
 119              	.LBE78:
 120              	.LBE85:
 121              	.LBE89:
 122              		.loc 4 373 3 view .LVU22
 123              	.LBB90:
 124              	.LBB86:
 125              	.LBB83:
 126              	.LBB79:
 127              	.LBI79:
 128              		.file 5 "ChibiOS/os/common/ext/CMSIS/include/core_cmFunc.h"
 129              		.loc 5 342 57 view .LVU23
 130              	.LBB80:
 131              		.loc 5 344 3 view .LVU24
 132              	.LBE80:
 133              	.LBE79:
 134              	.LBE83:
 135              	.LBE86:
 136              	.LBE90:
 137              		.loc 1 84 57 is_stmt 0 view .LVU25
 138 0000 10B5     		push	{r4, lr}
 139              		.cfi_def_cfa_offset 8
 140              		.cfi_offset 4, -8
 141              		.cfi_offset 14, -4
 142              		.loc 1 84 57 view .LVU26
 143 0002 0400     		movs	r4, r0
 144              	.LBB91:
 145              	.LBB87:
 146              	.LBB84:
 147              	.LBB82:
 148              	.LBB81:
 149              		.loc 5 344 3 view .LVU27
 150              		.syntax divided
 151              	@ 344 "ChibiOS/os/common/ext/CMSIS/include/core_cmFunc.h" 1
 152 0004 72B6     		cpsid i
 153              	@ 0 "" 2
 154              		.thumb
 155              		.syntax unified
 156              	.LBE81:
 157              	.LBE82:
 158              	.LBE84:
 159              	.LBE87:
 160              	.LBE91:
 161              		.loc 3 377 34 is_stmt 1 view .LVU28
 162              		.loc 3 378 20 view .LVU29
 163              		.loc 1 89 3 view .LVU30
 164              		.loc 1 89 3 view .LVU31
 165              		.loc 1 91 3 view .LVU32
 166              		.loc 1 91 16 is_stmt 0 view .LVU33
 167 0006 4160     		str	r1, [r0, #4]
 168              		.loc 1 92 3 is_stmt 1 view .LVU34
 169 0008 FFF7FEFF 		bl	ext_lld_start
 170              	.LVL3:
 171              		.loc 1 93 3 view .LVU35
ARM GAS  /tmp/ccQIckF8.s 			page 4


 172              		.loc 1 93 15 is_stmt 0 view .LVU36
 173 000c 0223     		movs	r3, #2
 174 000e 2370     		strb	r3, [r4]
 175              		.loc 1 94 3 is_stmt 1 view .LVU37
 176              	.LBB92:
 177              	.LBI92:
 178              		.loc 2 502 20 view .LVU38
 179              	.LBE92:
 180              		.loc 2 504 3 view .LVU39
 181              	.LBB101:
 182              	.LBB93:
 183              	.LBI93:
 184              		.loc 3 386 20 view .LVU40
 185              	.LBB94:
 186              		.loc 3 388 22 view .LVU41
 187              		.loc 3 389 33 view .LVU42
 188              		.loc 3 395 3 view .LVU43
 189              		.loc 3 395 3 view .LVU44
 190              		.loc 3 399 3 view .LVU45
 191              	.LBB95:
 192              	.LBI95:
 193              		.loc 4 380 20 view .LVU46
 194              	.LBE95:
 195              	.LBE94:
 196              	.LBE93:
 197              	.LBE101:
 198              		.loc 4 382 3 view .LVU47
 199              	.LBB102:
 200              	.LBB100:
 201              	.LBB99:
 202              	.LBB98:
 203              	.LBB96:
 204              	.LBI96:
 205              		.loc 5 331 57 view .LVU48
 206              	.LBB97:
 207              		.loc 5 333 3 view .LVU49
 208              		.syntax divided
 209              	@ 333 "ChibiOS/os/common/ext/CMSIS/include/core_cmFunc.h" 1
 210 0010 62B6     		cpsie i
 211              	@ 0 "" 2
 212              		.thumb
 213              		.syntax unified
 214              	.LBE97:
 215              	.LBE96:
 216              	.LBE98:
 217              	.LBE99:
 218              	.LBE100:
 219              	.LBE102:
 220              		.loc 1 95 1 is_stmt 0 view .LVU50
 221              		@ sp needed
 222              	.LVL4:
 223              		.loc 1 95 1 view .LVU51
 224 0012 10BD     		pop	{r4, pc}
 225              		.cfi_endproc
 226              	.LFE153:
 227              		.size	extStart, .-extStart
 228              		.section	.text.extStop,"ax",%progbits
ARM GAS  /tmp/ccQIckF8.s 			page 5


 229              		.align	1
 230              		.p2align 4,,15
 231              		.global	extStop
 232              		.syntax unified
 233              		.code	16
 234              		.thumb_func
 235              		.fpu softvfp
 236              		.type	extStop, %function
 237              	extStop:
 238              	.LVL5:
 239              	.LFB154:
 240              		.loc 1 104 31 is_stmt 1 view -0
 241              		.cfi_startproc
 242              		@ args = 0, pretend = 0, frame = 0
 243              		@ frame_needed = 0, uses_anonymous_args = 0
 244              		.loc 1 106 3 view .LVU53
 245              		.loc 1 106 3 view .LVU54
 246              		.loc 1 108 3 view .LVU55
 247              	.LBB103:
 248              	.LBI103:
 249              		.loc 2 491 20 view .LVU56
 250              	.LBE103:
 251              		.loc 2 493 3 view .LVU57
 252              	.LBB115:
 253              	.LBB104:
 254              	.LBI104:
 255              		.loc 3 374 20 view .LVU58
 256              	.LBE104:
 257              	.LBE115:
 258              		.loc 3 376 3 view .LVU59
 259              	.LBB116:
 260              	.LBB112:
 261              	.LBB105:
 262              	.LBI105:
 263              		.loc 4 371 20 view .LVU60
 264              	.LBE105:
 265              	.LBE112:
 266              	.LBE116:
 267              		.loc 4 373 3 view .LVU61
 268              	.LBB117:
 269              	.LBB113:
 270              	.LBB110:
 271              	.LBB106:
 272              	.LBI106:
 273              		.loc 5 342 57 view .LVU62
 274              	.LBB107:
 275              		.loc 5 344 3 view .LVU63
 276              	.LBE107:
 277              	.LBE106:
 278              	.LBE110:
 279              	.LBE113:
 280              	.LBE117:
 281              		.loc 1 104 31 is_stmt 0 view .LVU64
 282 0000 10B5     		push	{r4, lr}
 283              		.cfi_def_cfa_offset 8
 284              		.cfi_offset 4, -8
 285              		.cfi_offset 14, -4
ARM GAS  /tmp/ccQIckF8.s 			page 6


 286              		.loc 1 104 31 view .LVU65
 287 0002 0400     		movs	r4, r0
 288              	.LBB118:
 289              	.LBB114:
 290              	.LBB111:
 291              	.LBB109:
 292              	.LBB108:
 293              		.loc 5 344 3 view .LVU66
 294              		.syntax divided
 295              	@ 344 "ChibiOS/os/common/ext/CMSIS/include/core_cmFunc.h" 1
 296 0004 72B6     		cpsid i
 297              	@ 0 "" 2
 298              		.thumb
 299              		.syntax unified
 300              	.LBE108:
 301              	.LBE109:
 302              	.LBE111:
 303              	.LBE114:
 304              	.LBE118:
 305              		.loc 3 377 34 is_stmt 1 view .LVU67
 306              		.loc 3 378 20 view .LVU68
 307              		.loc 1 109 3 view .LVU69
 308              		.loc 1 109 3 view .LVU70
 309              		.loc 1 111 3 view .LVU71
 310 0006 FFF7FEFF 		bl	ext_lld_stop
 311              	.LVL6:
 312              		.loc 1 112 3 view .LVU72
 313              		.loc 1 112 15 is_stmt 0 view .LVU73
 314 000a 0123     		movs	r3, #1
 315 000c 2370     		strb	r3, [r4]
 316              		.loc 1 113 3 is_stmt 1 view .LVU74
 317              	.LBB119:
 318              	.LBI119:
 319              		.loc 2 502 20 view .LVU75
 320              	.LBE119:
 321              		.loc 2 504 3 view .LVU76
 322              	.LBB128:
 323              	.LBB120:
 324              	.LBI120:
 325              		.loc 3 386 20 view .LVU77
 326              	.LBB121:
 327              		.loc 3 388 22 view .LVU78
 328              		.loc 3 389 33 view .LVU79
 329              		.loc 3 395 3 view .LVU80
 330              		.loc 3 395 3 view .LVU81
 331              		.loc 3 399 3 view .LVU82
 332              	.LBB122:
 333              	.LBI122:
 334              		.loc 4 380 20 view .LVU83
 335              	.LBE122:
 336              	.LBE121:
 337              	.LBE120:
 338              	.LBE128:
 339              		.loc 4 382 3 view .LVU84
 340              	.LBB129:
 341              	.LBB127:
 342              	.LBB126:
ARM GAS  /tmp/ccQIckF8.s 			page 7


 343              	.LBB125:
 344              	.LBB123:
 345              	.LBI123:
 346              		.loc 5 331 57 view .LVU85
 347              	.LBB124:
 348              		.loc 5 333 3 view .LVU86
 349              		.syntax divided
 350              	@ 333 "ChibiOS/os/common/ext/CMSIS/include/core_cmFunc.h" 1
 351 000e 62B6     		cpsie i
 352              	@ 0 "" 2
 353              		.thumb
 354              		.syntax unified
 355              	.LBE124:
 356              	.LBE123:
 357              	.LBE125:
 358              	.LBE126:
 359              	.LBE127:
 360              	.LBE129:
 361              		.loc 1 114 1 is_stmt 0 view .LVU87
 362              		@ sp needed
 363              	.LVL7:
 364              		.loc 1 114 1 view .LVU88
 365 0010 10BD     		pop	{r4, pc}
 366              		.cfi_endproc
 367              	.LFE154:
 368              		.size	extStop, .-extStop
 369 0012 C046     		.section	.text.extChannelEnable,"ax",%progbits
 370              		.align	1
 371              		.p2align 4,,15
 372              		.global	extChannelEnable
 373              		.syntax unified
 374              		.code	16
 375              		.thumb_func
 376              		.fpu softvfp
 377              		.type	extChannelEnable, %function
 378              	extChannelEnable:
 379              	.LVL8:
 380              	.LFB155:
 381              		.loc 1 125 62 is_stmt 1 view -0
 382              		.cfi_startproc
 383              		@ args = 0, pretend = 0, frame = 0
 384              		@ frame_needed = 0, uses_anonymous_args = 0
 385              		.loc 1 127 3 view .LVU90
 386              		.loc 1 127 3 view .LVU91
 387              		.loc 1 129 3 view .LVU92
 388              	.LBB130:
 389              	.LBI130:
 390              		.loc 2 491 20 view .LVU93
 391              	.LBE130:
 392              		.loc 2 493 3 view .LVU94
 393              	.LBB142:
 394              	.LBB131:
 395              	.LBI131:
 396              		.loc 3 374 20 view .LVU95
 397              	.LBE131:
 398              	.LBE142:
 399              		.loc 3 376 3 view .LVU96
ARM GAS  /tmp/ccQIckF8.s 			page 8


 400              	.LBB143:
 401              	.LBB139:
 402              	.LBB132:
 403              	.LBI132:
 404              		.loc 4 371 20 view .LVU97
 405              	.LBE132:
 406              	.LBE139:
 407              	.LBE143:
 408              		.loc 4 373 3 view .LVU98
 409              	.LBB144:
 410              	.LBB140:
 411              	.LBB137:
 412              	.LBB133:
 413              	.LBI133:
 414              		.loc 5 342 57 view .LVU99
 415              	.LBB134:
 416              		.loc 5 344 3 view .LVU100
 417              	.LBE134:
 418              	.LBE133:
 419              	.LBE137:
 420              	.LBE140:
 421              	.LBE144:
 422              		.loc 1 125 62 is_stmt 0 view .LVU101
 423 0000 10B5     		push	{r4, lr}
 424              		.cfi_def_cfa_offset 8
 425              		.cfi_offset 4, -8
 426              		.cfi_offset 14, -4
 427              	.LBB145:
 428              	.LBB141:
 429              	.LBB138:
 430              	.LBB136:
 431              	.LBB135:
 432              		.loc 5 344 3 view .LVU102
 433              		.syntax divided
 434              	@ 344 "ChibiOS/os/common/ext/CMSIS/include/core_cmFunc.h" 1
 435 0002 72B6     		cpsid i
 436              	@ 0 "" 2
 437              		.thumb
 438              		.syntax unified
 439              	.LBE135:
 440              	.LBE136:
 441              	.LBE138:
 442              	.LBE141:
 443              	.LBE145:
 444              		.loc 3 377 34 is_stmt 1 view .LVU103
 445              		.loc 3 378 20 view .LVU104
 446              		.loc 1 130 3 view .LVU105
 447              		.loc 1 130 3 view .LVU106
 448              		.loc 1 134 3 view .LVU107
 449 0004 FFF7FEFF 		bl	ext_lld_channel_enable
 450              	.LVL9:
 451              		.loc 1 135 3 view .LVU108
 452              	.LBB146:
 453              	.LBI146:
 454              		.loc 2 502 20 view .LVU109
 455              	.LBE146:
 456              		.loc 2 504 3 view .LVU110
ARM GAS  /tmp/ccQIckF8.s 			page 9


 457              	.LBB155:
 458              	.LBB147:
 459              	.LBI147:
 460              		.loc 3 386 20 view .LVU111
 461              	.LBB148:
 462              		.loc 3 388 22 view .LVU112
 463              		.loc 3 389 33 view .LVU113
 464              		.loc 3 395 3 view .LVU114
 465              		.loc 3 395 3 view .LVU115
 466              		.loc 3 399 3 view .LVU116
 467              	.LBB149:
 468              	.LBI149:
 469              		.loc 4 380 20 view .LVU117
 470              	.LBE149:
 471              	.LBE148:
 472              	.LBE147:
 473              	.LBE155:
 474              		.loc 4 382 3 view .LVU118
 475              	.LBB156:
 476              	.LBB154:
 477              	.LBB153:
 478              	.LBB152:
 479              	.LBB150:
 480              	.LBI150:
 481              		.loc 5 331 57 view .LVU119
 482              	.LBB151:
 483              		.loc 5 333 3 view .LVU120
 484              		.syntax divided
 485              	@ 333 "ChibiOS/os/common/ext/CMSIS/include/core_cmFunc.h" 1
 486 0008 62B6     		cpsie i
 487              	@ 0 "" 2
 488              		.thumb
 489              		.syntax unified
 490              	.LBE151:
 491              	.LBE150:
 492              	.LBE152:
 493              	.LBE153:
 494              	.LBE154:
 495              	.LBE156:
 496              		.loc 1 136 1 is_stmt 0 view .LVU121
 497              		@ sp needed
 498 000a 10BD     		pop	{r4, pc}
 499              		.cfi_endproc
 500              	.LFE155:
 501              		.size	extChannelEnable, .-extChannelEnable
 502              		.section	.text.extChannelDisable,"ax",%progbits
 503              		.align	1
 504              		.p2align 4,,15
 505              		.global	extChannelDisable
 506              		.syntax unified
 507              		.code	16
 508              		.thumb_func
 509              		.fpu softvfp
 510              		.type	extChannelDisable, %function
 511              	extChannelDisable:
 512              	.LVL10:
 513              	.LFB156:
ARM GAS  /tmp/ccQIckF8.s 			page 10


 514              		.loc 1 147 63 is_stmt 1 view -0
 515              		.cfi_startproc
 516              		@ args = 0, pretend = 0, frame = 0
 517              		@ frame_needed = 0, uses_anonymous_args = 0
 518              		.loc 1 149 3 view .LVU123
 519              		.loc 1 149 3 view .LVU124
 520              		.loc 1 151 3 view .LVU125
 521              	.LBB157:
 522              	.LBI157:
 523              		.loc 2 491 20 view .LVU126
 524              	.LBE157:
 525              		.loc 2 493 3 view .LVU127
 526              	.LBB169:
 527              	.LBB158:
 528              	.LBI158:
 529              		.loc 3 374 20 view .LVU128
 530              	.LBE158:
 531              	.LBE169:
 532              		.loc 3 376 3 view .LVU129
 533              	.LBB170:
 534              	.LBB166:
 535              	.LBB159:
 536              	.LBI159:
 537              		.loc 4 371 20 view .LVU130
 538              	.LBE159:
 539              	.LBE166:
 540              	.LBE170:
 541              		.loc 4 373 3 view .LVU131
 542              	.LBB171:
 543              	.LBB167:
 544              	.LBB164:
 545              	.LBB160:
 546              	.LBI160:
 547              		.loc 5 342 57 view .LVU132
 548              	.LBB161:
 549              		.loc 5 344 3 view .LVU133
 550              	.LBE161:
 551              	.LBE160:
 552              	.LBE164:
 553              	.LBE167:
 554              	.LBE171:
 555              		.loc 1 147 63 is_stmt 0 view .LVU134
 556 0000 10B5     		push	{r4, lr}
 557              		.cfi_def_cfa_offset 8
 558              		.cfi_offset 4, -8
 559              		.cfi_offset 14, -4
 560              	.LBB172:
 561              	.LBB168:
 562              	.LBB165:
 563              	.LBB163:
 564              	.LBB162:
 565              		.loc 5 344 3 view .LVU135
 566              		.syntax divided
 567              	@ 344 "ChibiOS/os/common/ext/CMSIS/include/core_cmFunc.h" 1
 568 0002 72B6     		cpsid i
 569              	@ 0 "" 2
 570              		.thumb
ARM GAS  /tmp/ccQIckF8.s 			page 11


 571              		.syntax unified
 572              	.LBE162:
 573              	.LBE163:
 574              	.LBE165:
 575              	.LBE168:
 576              	.LBE172:
 577              		.loc 3 377 34 is_stmt 1 view .LVU136
 578              		.loc 3 378 20 view .LVU137
 579              		.loc 1 152 3 view .LVU138
 580              		.loc 1 152 3 view .LVU139
 581              		.loc 1 156 3 view .LVU140
 582 0004 FFF7FEFF 		bl	ext_lld_channel_disable
 583              	.LVL11:
 584              		.loc 1 157 3 view .LVU141
 585              	.LBB173:
 586              	.LBI173:
 587              		.loc 2 502 20 view .LVU142
 588              	.LBE173:
 589              		.loc 2 504 3 view .LVU143
 590              	.LBB182:
 591              	.LBB174:
 592              	.LBI174:
 593              		.loc 3 386 20 view .LVU144
 594              	.LBB175:
 595              		.loc 3 388 22 view .LVU145
 596              		.loc 3 389 33 view .LVU146
 597              		.loc 3 395 3 view .LVU147
 598              		.loc 3 395 3 view .LVU148
 599              		.loc 3 399 3 view .LVU149
 600              	.LBB176:
 601              	.LBI176:
 602              		.loc 4 380 20 view .LVU150
 603              	.LBE176:
 604              	.LBE175:
 605              	.LBE174:
 606              	.LBE182:
 607              		.loc 4 382 3 view .LVU151
 608              	.LBB183:
 609              	.LBB181:
 610              	.LBB180:
 611              	.LBB179:
 612              	.LBB177:
 613              	.LBI177:
 614              		.loc 5 331 57 view .LVU152
 615              	.LBB178:
 616              		.loc 5 333 3 view .LVU153
 617              		.syntax divided
 618              	@ 333 "ChibiOS/os/common/ext/CMSIS/include/core_cmFunc.h" 1
 619 0008 62B6     		cpsie i
 620              	@ 0 "" 2
 621              		.thumb
 622              		.syntax unified
 623              	.LBE178:
 624              	.LBE177:
 625              	.LBE179:
 626              	.LBE180:
 627              	.LBE181:
ARM GAS  /tmp/ccQIckF8.s 			page 12


 628              	.LBE183:
 629              		.loc 1 158 1 is_stmt 0 view .LVU154
 630              		@ sp needed
 631 000a 10BD     		pop	{r4, pc}
 632              		.cfi_endproc
 633              	.LFE156:
 634              		.size	extChannelDisable, .-extChannelDisable
 635              		.section	.text.extSetChannelModeI,"ax",%progbits
 636              		.align	1
 637              		.p2align 4,,15
 638              		.global	extSetChannelModeI
 639              		.syntax unified
 640              		.code	16
 641              		.thumb_func
 642              		.fpu softvfp
 643              		.type	extSetChannelModeI, %function
 644              	extSetChannelModeI:
 645              	.LVL12:
 646              	.LFB157:
 647              		.loc 1 179 56 is_stmt 1 view -0
 648              		.cfi_startproc
 649              		@ args = 0, pretend = 0, frame = 0
 650              		@ frame_needed = 0, uses_anonymous_args = 0
 651              		.loc 1 180 3 view .LVU156
 652              		.loc 1 182 3 view .LVU157
 653              		.loc 1 182 3 view .LVU158
 654              		.loc 1 186 3 view .LVU159
 655              		.loc 1 186 3 view .LVU160
 656              		.loc 1 191 3 view .LVU161
 657              		.loc 1 196 3 view .LVU162
 658              		.loc 1 179 56 is_stmt 0 view .LVU163
 659 0000 70B5     		push	{r4, r5, r6, lr}
 660              		.cfi_def_cfa_offset 16
 661              		.cfi_offset 4, -16
 662              		.cfi_offset 5, -12
 663              		.cfi_offset 6, -8
 664              		.cfi_offset 14, -4
 665              		.loc 1 196 10 view .LVU164
 666 0002 4468     		ldr	r4, [r0, #4]
 667 0004 CB00     		lsls	r3, r1, #3
 668 0006 A446     		mov	ip, r4
 669 0008 6344     		add	r3, r3, ip
 670 000a 30CA     		ldmia	r2!, {r4, r5}
 671 000c 30C3     		stmia	r3!, {r4, r5}
 672              	.LVL13:
 673              		.loc 1 197 3 is_stmt 1 view .LVU165
 674 000e FFF7FEFF 		bl	ext_lld_channel_enable
 675              	.LVL14:
 676              		.loc 1 198 1 is_stmt 0 view .LVU166
 677              		@ sp needed
 678 0012 70BD     		pop	{r4, r5, r6, pc}
 679              		.cfi_endproc
 680              	.LFE157:
 681              		.size	extSetChannelModeI, .-extSetChannelModeI
 682              		.text
 683              	.Letext0:
 684              		.file 6 "/opt/nanovna/gcc-arm-none-eabi-8-2018-q4-major/lib/gcc/arm-none-eabi/8.2.1/include/stddef
ARM GAS  /tmp/ccQIckF8.s 			page 13


 685              		.file 7 "/opt/nanovna/gcc-arm-none-eabi-8-2018-q4-major/arm-none-eabi/include/machine/_default_typ
 686              		.file 8 "/opt/nanovna/gcc-arm-none-eabi-8-2018-q4-major/arm-none-eabi/include/sys/_stdint.h"
 687              		.file 9 "ChibiOS/os/common/ports/ARMCMx/compilers/GCC/chtypes.h"
 688              		.file 10 "ChibiOS/os/rt/include/chsystypes.h"
 689              		.file 11 "ChibiOS/os/rt/include/chschd.h"
 690              		.file 12 "ChibiOS/os/common/ext/CMSIS/ST/STM32F0xx/stm32f072xb.h"
 691              		.file 13 "ChibiOS/os/common/ports/ARMCMx/chcore.h"
 692              		.file 14 "ChibiOS/os/hal/ports/STM32/LLD/TIMv1/stm32_tim.h"
 693              		.file 15 "ChibiOS/os/rt/include/chmtx.h"
 694              		.file 16 "ChibiOS/os/common/ext/CMSIS/ST/STM32F0xx/system_stm32f0xx.h"
 695              		.file 17 "ChibiOS/os/rt/include/chregistry.h"
 696              		.file 18 "ChibiOS/os/rt/include/chevents.h"
 697              		.file 19 "ChibiOS/os/hal/ports/STM32/LLD/DMAv1/stm32_dma.h"
 698              		.file 20 "ChibiOS/os/hal/include/hal_queues.h"
 699              		.file 21 "ChibiOS/os/hal/ports/STM32/LLD/GPIOv2/hal_pal_lld.h"
 700              		.file 22 "ChibiOS/os/hal/include/hal_ext.h"
 701              		.file 23 "ChibiOS/os/hal/ports/STM32/LLD/EXTIv1/hal_ext_lld.h"
 702              		.file 24 "ChibiOS/os/hal/include/hal_gpt.h"
 703              		.file 25 "ChibiOS/os/hal/ports/STM32/LLD/TIMv1/hal_gpt_lld.h"
 704              		.file 26 "ChibiOS/os/hal/include/hal_i2c.h"
 705              		.file 27 "ChibiOS/os/hal/ports/STM32/LLD/I2Cv2/hal_i2c_lld.h"
 706              		.file 28 "ChibiOS/os/hal/include/hal_i2s.h"
 707              		.file 29 "ChibiOS/os/hal/ports/STM32/LLD/SPIv2/hal_i2s_lld.h"
 708              		.file 30 "/opt/nanovna/gcc-arm-none-eabi-8-2018-q4-major/arm-none-eabi/include/sys/lock.h"
 709              		.file 31 "/opt/nanovna/gcc-arm-none-eabi-8-2018-q4-major/arm-none-eabi/include/sys/_types.h"
 710              		.file 32 "/opt/nanovna/gcc-arm-none-eabi-8-2018-q4-major/arm-none-eabi/include/sys/reent.h"
 711              		.file 33 "/opt/nanovna/gcc-arm-none-eabi-8-2018-q4-major/arm-none-eabi/include/time.h"
 712              		.file 34 "ChibiOS/os/hal/include/hal_rtc.h"
 713              		.file 35 "ChibiOS/os/hal/ports/STM32/LLD/RTCv2/hal_rtc_lld.h"
 714              		.file 36 "ChibiOS/os/hal/include/hal_serial.h"
 715              		.file 37 "ChibiOS/os/hal/ports/STM32/LLD/USARTv2/hal_serial_lld.h"
 716              		.file 38 "ChibiOS/os/hal/include/hal_spi.h"
 717              		.file 39 "ChibiOS/os/hal/ports/STM32/LLD/SPIv2/hal_spi_lld.h"
 718              		.file 40 "ChibiOS/os/hal/include/hal_usb.h"
 719              		.file 41 "ChibiOS/os/hal/ports/STM32/LLD/USBv1/hal_usb_lld.h"