ARM GAS  /tmp/ccTxpxgR.s 			page 1


   1              		.cpu cortex-m0
   2              		.eabi_attribute 20, 1
   3              		.eabi_attribute 21, 1
   4              		.eabi_attribute 23, 3
   5              		.eabi_attribute 24, 1
   6              		.eabi_attribute 25, 1
   7              		.eabi_attribute 26, 1
   8              		.eabi_attribute 30, 2
   9              		.eabi_attribute 34, 0
  10              		.eabi_attribute 18, 4
  11              		.file	"hal_buffers.c"
  12              		.text
  13              	.Ltext0:
  14              		.cfi_sections	.debug_frame
  15              		.section	.text.ibqObjectInit,"ax",%progbits
  16              		.align	1
  17              		.p2align 4,,15
  18              		.global	ibqObjectInit
  19              		.arch armv6s-m
  20              		.syntax unified
  21              		.code	16
  22              		.thumb_func
  23              		.fpu softvfp
  24              		.type	ibqObjectInit, %function
  25              	ibqObjectInit:
  26              	.LVL0:
  27              	.LFB151:
  28              		.file 1 "ChibiOS/os/hal/src/hal_buffers.c"
  29              		.loc 1 77 49 view -0
  30              		.cfi_startproc
  31              		@ args = 8, pretend = 0, frame = 0
  32              		@ frame_needed = 0, uses_anonymous_args = 0
  33              		.loc 1 79 3 view .LVU1
  34              		.loc 1 79 3 view .LVU2
  35              		.loc 1 81 3 view .LVU3
  36              	.LBB287:
  37              	.LBI287:
  38              		.file 2 "ChibiOS/os/hal/osal/rt/osal.h"
  39              		.loc 2 753 20 view .LVU4
  40              	.LBE287:
  41              		.loc 2 755 3 view .LVU5
  42              	.LBB295:
  43              	.LBB288:
  44              	.LBI288:
  45              		.file 3 "ChibiOS/os/rt/include/chthreads.h"
  46              		.loc 3 395 20 view .LVU6
  47              	.LBE288:
  48              	.LBE295:
  49              		.loc 3 397 3 view .LVU7
  50              	.LBB296:
  51              	.LBB293:
  52              	.LBB289:
  53              	.LBI289:
  54              		.file 4 "ChibiOS/os/rt/include/chschd.h"
  55              		.loc 4 548 20 view .LVU8
  56              	.LBB290:
  57              		.loc 4 550 3 view .LVU9
ARM GAS  /tmp/ccTxpxgR.s 			page 2


  58              	.LBE290:
  59              	.LBE289:
  60              	.LBE293:
  61              	.LBE296:
  62              		.loc 1 77 49 is_stmt 0 view .LVU10
  63 0000 30B5     		push	{r4, r5, lr}
  64              		.cfi_def_cfa_offset 12
  65              		.cfi_offset 4, -12
  66              		.cfi_offset 5, -8
  67              		.cfi_offset 14, -4
  68              		.loc 1 85 51 view .LVU11
  69 0002 1D00     		movs	r5, r3
  70              		.loc 1 82 18 view .LVU12
  71 0004 0024     		movs	r4, #0
  72              		.loc 1 85 32 view .LVU13
  73 0006 0432     		adds	r2, r2, #4
  74              	.LVL1:
  75              		.loc 1 85 51 view .LVU14
  76 0008 5543     		muls	r5, r2
  77              		.loc 1 87 18 view .LVU15
  78 000a C361     		str	r3, [r0, #28]
  79              		.loc 1 91 18 view .LVU16
  80 000c 039B     		ldr	r3, [sp, #12]
  81              	.LVL2:
  82              		.loc 1 85 23 view .LVU17
  83 000e 4D19     		adds	r5, r1, r5
  84              		.loc 1 91 18 view .LVU18
  85 0010 C362     		str	r3, [r0, #44]
  86              		.loc 1 92 18 view .LVU19
  87 0012 049B     		ldr	r3, [sp, #16]
  88              		.loc 1 85 18 view .LVU20
  89 0014 4561     		str	r5, [r0, #20]
  90              	.LBB297:
  91              	.LBB294:
  92              	.LBB292:
  93              	.LBB291:
  94              		.loc 4 550 13 view .LVU21
  95 0016 0060     		str	r0, [r0]
  96              		.loc 4 551 3 is_stmt 1 view .LVU22
  97              		.loc 4 551 13 is_stmt 0 view .LVU23
  98 0018 4060     		str	r0, [r0, #4]
  99              	.LVL3:
 100              		.loc 4 551 13 view .LVU24
 101              	.LBE291:
 102              	.LBE292:
 103              	.LBE294:
 104              	.LBE297:
 105              		.loc 1 82 3 is_stmt 1 view .LVU25
 106              		.loc 1 82 18 is_stmt 0 view .LVU26
 107 001a 8460     		str	r4, [r0, #8]
 108              		.loc 1 83 3 is_stmt 1 view .LVU27
 109              		.loc 1 83 18 is_stmt 0 view .LVU28
 110 001c 0161     		str	r1, [r0, #16]
 111              		.loc 1 84 3 is_stmt 1 view .LVU29
 112              		.loc 1 84 18 is_stmt 0 view .LVU30
 113 001e C160     		str	r1, [r0, #12]
 114              		.loc 1 85 3 is_stmt 1 view .LVU31
ARM GAS  /tmp/ccTxpxgR.s 			page 3


 115              		.loc 1 86 3 view .LVU32
 116              		.loc 1 86 18 is_stmt 0 view .LVU33
 117 0020 8261     		str	r2, [r0, #24]
 118              		.loc 1 87 3 is_stmt 1 view .LVU34
 119              		.loc 1 88 3 view .LVU35
 120              		.loc 1 88 18 is_stmt 0 view .LVU36
 121 0022 0162     		str	r1, [r0, #32]
 122              		.loc 1 89 3 is_stmt 1 view .LVU37
 123              		.loc 1 89 18 is_stmt 0 view .LVU38
 124 0024 4462     		str	r4, [r0, #36]
 125              		.loc 1 90 3 is_stmt 1 view .LVU39
 126              		.loc 1 90 18 is_stmt 0 view .LVU40
 127 0026 8462     		str	r4, [r0, #40]
 128              		.loc 1 91 3 is_stmt 1 view .LVU41
 129              		.loc 1 92 3 view .LVU42
 130              		.loc 1 92 18 is_stmt 0 view .LVU43
 131 0028 0363     		str	r3, [r0, #48]
 132              		.loc 1 93 1 view .LVU44
 133              		@ sp needed
 134 002a 30BD     		pop	{r4, r5, pc}
 135              		.cfi_endproc
 136              	.LFE151:
 137              		.size	ibqObjectInit, .-ibqObjectInit
 138              		.section	.text.ibqResetI,"ax",%progbits
 139              		.align	1
 140              		.p2align 4,,15
 141              		.global	ibqResetI
 142              		.syntax unified
 143              		.code	16
 144              		.thumb_func
 145              		.fpu softvfp
 146              		.type	ibqResetI, %function
 147              	ibqResetI:
 148              	.LVL4:
 149              	.LFB152:
 150              		.loc 1 106 45 is_stmt 1 view -0
 151              		.cfi_startproc
 152              		@ args = 0, pretend = 0, frame = 0
 153              		@ frame_needed = 0, uses_anonymous_args = 0
 154              		.loc 1 108 23 view .LVU46
 155              		.loc 1 110 3 view .LVU47
 156              		.loc 1 110 18 is_stmt 0 view .LVU48
 157 0000 0023     		movs	r3, #0
 158              	.LBB298:
 159              	.LBB299:
 160              		.loc 2 810 3 view .LVU49
 161 0002 0221     		movs	r1, #2
 162              	.LBE299:
 163              	.LBE298:
 164              		.loc 1 106 45 view .LVU50
 165 0004 10B5     		push	{r4, lr}
 166              		.cfi_def_cfa_offset 8
 167              		.cfi_offset 4, -8
 168              		.cfi_offset 14, -4
 169              		.loc 1 111 24 view .LVU51
 170 0006 026A     		ldr	r2, [r0, #32]
 171              		.loc 1 110 18 view .LVU52
ARM GAS  /tmp/ccTxpxgR.s 			page 4


 172 0008 8360     		str	r3, [r0, #8]
 173              		.loc 1 111 3 is_stmt 1 view .LVU53
 174              		.loc 1 111 18 is_stmt 0 view .LVU54
 175 000a 0261     		str	r2, [r0, #16]
 176              		.loc 1 112 3 is_stmt 1 view .LVU55
 177              		.loc 1 112 18 is_stmt 0 view .LVU56
 178 000c C260     		str	r2, [r0, #12]
 179              		.loc 1 113 3 is_stmt 1 view .LVU57
 180              		.loc 1 113 18 is_stmt 0 view .LVU58
 181 000e 4362     		str	r3, [r0, #36]
 182              		.loc 1 114 3 is_stmt 1 view .LVU59
 183              		.loc 1 114 18 is_stmt 0 view .LVU60
 184 0010 8362     		str	r3, [r0, #40]
 185              		.loc 1 115 3 is_stmt 1 view .LVU61
 186              	.LVL5:
 187              	.LBB301:
 188              	.LBI298:
 189              		.loc 2 808 20 view .LVU62
 190              	.LBB300:
 191              		.loc 2 810 3 view .LVU63
 192 0012 4942     		rsbs	r1, r1, #0
 193 0014 FFF7FEFF 		bl	chThdDequeueAllI
 194              	.LVL6:
 195              		.loc 2 810 3 is_stmt 0 view .LVU64
 196              	.LBE300:
 197              	.LBE301:
 198              		.loc 1 116 1 view .LVU65
 199              		@ sp needed
 200 0018 10BD     		pop	{r4, pc}
 201              		.cfi_endproc
 202              	.LFE152:
 203              		.size	ibqResetI, .-ibqResetI
 204 001a C046     		.section	.text.ibqGetEmptyBufferI,"ax",%progbits
 205              		.align	1
 206              		.p2align 4,,15
 207              		.global	ibqGetEmptyBufferI
 208              		.syntax unified
 209              		.code	16
 210              		.thumb_func
 211              		.fpu softvfp
 212              		.type	ibqGetEmptyBufferI, %function
 213              	ibqGetEmptyBufferI:
 214              	.LVL7:
 215              	.LFB153:
 216              		.loc 1 128 58 is_stmt 1 view -0
 217              		.cfi_startproc
 218              		@ args = 0, pretend = 0, frame = 0
 219              		@ frame_needed = 0, uses_anonymous_args = 0
 220              		@ link register save eliminated.
 221              		.loc 1 130 23 view .LVU67
 222              		.loc 1 132 3 view .LVU68
 223              		.loc 1 132 7 is_stmt 0 view .LVU69
 224 0000 C368     		ldr	r3, [r0, #12]
 225 0002 0269     		ldr	r2, [r0, #16]
 226 0004 9342     		cmp	r3, r2
 227 0006 01D0     		beq	.L10
 228              	.LVL8:
ARM GAS  /tmp/ccTxpxgR.s 			page 5


 229              	.L5:
 230              		.loc 1 136 3 is_stmt 1 view .LVU70
 231              		.loc 1 136 23 is_stmt 0 view .LVU71
 232 0008 181D     		adds	r0, r3, #4
 233              	.L4:
 234              		.loc 1 137 1 view .LVU72
 235              		@ sp needed
 236 000a 7047     		bx	lr
 237              	.LVL9:
 238              	.L10:
 239              		.loc 1 132 7 discriminator 1 view .LVU73
 240 000c 8268     		ldr	r2, [r0, #8]
 241              		.loc 1 133 12 discriminator 1 view .LVU74
 242 000e 0020     		movs	r0, #0
 243              	.LVL10:
 244              		.loc 1 132 7 discriminator 1 view .LVU75
 245 0010 002A     		cmp	r2, #0
 246 0012 FAD1     		bne	.L4
 247 0014 F8E7     		b	.L5
 248              		.cfi_endproc
 249              	.LFE153:
 250              		.size	ibqGetEmptyBufferI, .-ibqGetEmptyBufferI
 251 0016 C046     		.section	.text.ibqPostFullBufferI,"ax",%progbits
 252              		.align	1
 253              		.p2align 4,,15
 254              		.global	ibqPostFullBufferI
 255              		.syntax unified
 256              		.code	16
 257              		.thumb_func
 258              		.fpu softvfp
 259              		.type	ibqPostFullBufferI, %function
 260              	ibqPostFullBufferI:
 261              	.LVL11:
 262              	.LFB154:
 263              		.loc 1 147 67 is_stmt 1 view -0
 264              		.cfi_startproc
 265              		@ args = 0, pretend = 0, frame = 0
 266              		@ frame_needed = 0, uses_anonymous_args = 0
 267              		.loc 1 149 23 view .LVU77
 268              		.loc 1 151 3 view .LVU78
 269              		.loc 1 151 3 view .LVU79
 270              		.loc 1 152 3 view .LVU80
 271              		.loc 1 152 3 view .LVU81
 272              		.loc 1 155 3 view .LVU82
 273              		.loc 1 155 19 is_stmt 0 view .LVU83
 274 0000 C368     		ldr	r3, [r0, #12]
 275              		.loc 1 147 67 view .LVU84
 276 0002 10B5     		push	{r4, lr}
 277              		.cfi_def_cfa_offset 8
 278              		.cfi_offset 4, -8
 279              		.cfi_offset 14, -4
 280              		.loc 1 155 29 view .LVU85
 281 0004 1960     		str	r1, [r3]
 282              		.loc 1 158 3 is_stmt 1 view .LVU86
 283              		.loc 1 158 7 is_stmt 0 view .LVU87
 284 0006 8268     		ldr	r2, [r0, #8]
 285              		.loc 1 158 17 view .LVU88
ARM GAS  /tmp/ccTxpxgR.s 			page 6


 286 0008 0132     		adds	r2, r2, #1
 287 000a 8260     		str	r2, [r0, #8]
 288              		.loc 1 159 3 is_stmt 1 view .LVU89
 289              		.loc 1 159 16 is_stmt 0 view .LVU90
 290 000c 8269     		ldr	r2, [r0, #24]
 291 000e 9446     		mov	ip, r2
 292              		.loc 1 160 6 view .LVU91
 293 0010 4269     		ldr	r2, [r0, #20]
 294              		.loc 1 159 16 view .LVU92
 295 0012 6344     		add	r3, r3, ip
 296 0014 C360     		str	r3, [r0, #12]
 297              		.loc 1 160 3 is_stmt 1 view .LVU93
 298              		.loc 1 160 6 is_stmt 0 view .LVU94
 299 0016 9342     		cmp	r3, r2
 300 0018 01D3     		bcc	.L12
 301              		.loc 1 161 5 is_stmt 1 view .LVU95
 302              		.loc 1 161 18 is_stmt 0 view .LVU96
 303 001a 036A     		ldr	r3, [r0, #32]
 304 001c C360     		str	r3, [r0, #12]
 305              	.L12:
 306              		.loc 1 165 3 is_stmt 1 view .LVU97
 307              	.LVL12:
 308              	.LBB302:
 309              	.LBI302:
 310              		.loc 2 795 20 view .LVU98
 311              	.LBB303:
 312              		.loc 2 797 3 view .LVU99
 313 001e 0021     		movs	r1, #0
 314              	.LVL13:
 315              		.loc 2 797 3 is_stmt 0 view .LVU100
 316 0020 FFF7FEFF 		bl	chThdDequeueNextI
 317              	.LVL14:
 318              		.loc 2 797 3 view .LVU101
 319              	.LBE303:
 320              	.LBE302:
 321              		.loc 1 166 1 view .LVU102
 322              		@ sp needed
 323 0024 10BD     		pop	{r4, pc}
 324              		.cfi_endproc
 325              	.LFE154:
 326              		.size	ibqPostFullBufferI, .-ibqPostFullBufferI
 327 0026 C046     		.section	.text.ibqGetFullBufferTimeoutS,"ax",%progbits
 328              		.align	1
 329              		.p2align 4,,15
 330              		.global	ibqGetFullBufferTimeoutS
 331              		.syntax unified
 332              		.code	16
 333              		.thumb_func
 334              		.fpu softvfp
 335              		.type	ibqGetFullBufferTimeoutS, %function
 336              	ibqGetFullBufferTimeoutS:
 337              	.LVL15:
 338              	.LFB156:
 339              		.loc 1 220 53 is_stmt 1 view -0
 340              		.cfi_startproc
 341              		@ args = 0, pretend = 0, frame = 0
 342              		@ frame_needed = 0, uses_anonymous_args = 0
ARM GAS  /tmp/ccTxpxgR.s 			page 7


 343              		.loc 1 220 53 is_stmt 0 view .LVU104
 344 0000 70B5     		push	{r4, r5, r6, lr}
 345              		.cfi_def_cfa_offset 16
 346              		.cfi_offset 4, -16
 347              		.cfi_offset 5, -12
 348              		.cfi_offset 6, -8
 349              		.cfi_offset 14, -4
 350              		.loc 1 220 53 view .LVU105
 351 0002 0400     		movs	r4, r0
 352              		.loc 1 222 23 is_stmt 1 view .LVU106
 353              		.loc 1 224 3 view .LVU107
 354              		.loc 1 220 53 is_stmt 0 view .LVU108
 355 0004 0D00     		movs	r5, r1
 356              		.loc 1 224 9 view .LVU109
 357 0006 05E0     		b	.L14
 358              	.LVL16:
 359              	.L16:
 360              	.LBB312:
 361              		.loc 1 225 5 is_stmt 1 view .LVU110
 362              	.LBB313:
 363              	.LBI313:
 364              		.loc 2 781 21 view .LVU111
 365              	.LBB314:
 366              		.loc 2 784 3 view .LVU112
 367              		.loc 2 784 10 is_stmt 0 view .LVU113
 368 0008 2900     		movs	r1, r5
 369 000a 2000     		movs	r0, r4
 370 000c FFF7FEFF 		bl	chThdEnqueueTimeoutS
 371              	.LVL17:
 372              		.loc 2 784 10 view .LVU114
 373              	.LBE314:
 374              	.LBE313:
 375              		.loc 1 226 5 is_stmt 1 view .LVU115
 376              		.loc 1 226 8 is_stmt 0 view .LVU116
 377 0010 0028     		cmp	r0, #0
 378 0012 09DB     		blt	.L13
 379              	.LVL18:
 380              	.L14:
 381              		.loc 1 226 8 view .LVU117
 382              	.LBE312:
 383              		.loc 1 224 10 view .LVU118
 384 0014 A368     		ldr	r3, [r4, #8]
 385              		.loc 1 224 9 view .LVU119
 386 0016 002B     		cmp	r3, #0
 387 0018 F6D0     		beq	.L16
 388              	.LVL19:
 389              	.LBB315:
 390              	.LBI315:
 391              		.loc 1 219 9 is_stmt 1 view .LVU120
 392              	.LBB316:
 393              		.loc 1 231 3 view .LVU121
 394              		.loc 1 231 3 view .LVU122
 395              		.loc 1 234 3 view .LVU123
 396              		.loc 1 235 13 is_stmt 0 view .LVU124
 397 001a 0020     		movs	r0, #0
 398              		.loc 1 234 19 view .LVU125
 399 001c 2269     		ldr	r2, [r4, #16]
ARM GAS  /tmp/ccTxpxgR.s 			page 8


 400              		.loc 1 234 28 view .LVU126
 401 001e 131D     		adds	r3, r2, #4
 402              		.loc 1 235 25 view .LVU127
 403 0020 1268     		ldr	r2, [r2]
 404              		.loc 1 234 13 view .LVU128
 405 0022 6362     		str	r3, [r4, #36]
 406              		.loc 1 235 3 is_stmt 1 view .LVU129
 407              		.loc 1 235 25 is_stmt 0 view .LVU130
 408 0024 9B18     		adds	r3, r3, r2
 409              		.loc 1 235 13 view .LVU131
 410 0026 A362     		str	r3, [r4, #40]
 411              		.loc 1 237 3 is_stmt 1 view .LVU132
 412              	.LVL20:
 413              	.L13:
 414              		.loc 1 237 3 is_stmt 0 view .LVU133
 415              	.LBE316:
 416              	.LBE315:
 417              		.loc 1 238 1 view .LVU134
 418              		@ sp needed
 419              	.LVL21:
 420              	.LVL22:
 421              		.loc 1 238 1 view .LVU135
 422 0028 70BD     		pop	{r4, r5, r6, pc}
 423              		.cfi_endproc
 424              	.LFE156:
 425              		.size	ibqGetFullBufferTimeoutS, .-ibqGetFullBufferTimeoutS
 426 002a C046     		.section	.text.ibqGetFullBufferTimeout,"ax",%progbits
 427              		.align	1
 428              		.p2align 4,,15
 429              		.global	ibqGetFullBufferTimeout
 430              		.syntax unified
 431              		.code	16
 432              		.thumb_func
 433              		.fpu softvfp
 434              		.type	ibqGetFullBufferTimeout, %function
 435              	ibqGetFullBufferTimeout:
 436              	.LVL23:
 437              	.LFB155:
 438              		.loc 1 189 50 is_stmt 1 view -0
 439              		.cfi_startproc
 440              		@ args = 0, pretend = 0, frame = 0
 441              		@ frame_needed = 0, uses_anonymous_args = 0
 442              		.loc 1 190 3 view .LVU137
 443              		.loc 1 192 3 view .LVU138
 444              	.LBB317:
 445              	.LBI317:
 446              		.loc 2 491 20 view .LVU139
 447              	.LBE317:
 448              		.loc 2 493 3 view .LVU140
 449              	.LBB329:
 450              	.LBB318:
 451              	.LBI318:
 452              		.file 5 "ChibiOS/os/rt/include/chsys.h"
 453              		.loc 5 374 20 view .LVU141
 454              	.LBE318:
 455              	.LBE329:
 456              		.loc 5 376 3 view .LVU142
ARM GAS  /tmp/ccTxpxgR.s 			page 9


 457              	.LBB330:
 458              	.LBB326:
 459              	.LBB319:
 460              	.LBI319:
 461              		.file 6 "ChibiOS/os/common/ports/ARMCMx/chcore_v6m.h"
 462              		.loc 6 371 20 view .LVU143
 463              	.LBE319:
 464              	.LBE326:
 465              	.LBE330:
 466              		.loc 6 373 3 view .LVU144
 467              	.LBB331:
 468              	.LBB327:
 469              	.LBB324:
 470              	.LBB320:
 471              	.LBI320:
 472              		.file 7 "ChibiOS/os/common/ext/CMSIS/include/core_cmFunc.h"
 473              		.loc 7 342 57 view .LVU145
 474              	.LBB321:
 475              		.loc 7 344 3 view .LVU146
 476              	.LBE321:
 477              	.LBE320:
 478              	.LBE324:
 479              	.LBE327:
 480              	.LBE331:
 481              		.loc 1 189 50 is_stmt 0 view .LVU147
 482 0000 10B5     		push	{r4, lr}
 483              		.cfi_def_cfa_offset 8
 484              		.cfi_offset 4, -8
 485              		.cfi_offset 14, -4
 486              	.LBB332:
 487              	.LBB328:
 488              	.LBB325:
 489              	.LBB323:
 490              	.LBB322:
 491              		.loc 7 344 3 view .LVU148
 492              		.syntax divided
 493              	@ 344 "ChibiOS/os/common/ext/CMSIS/include/core_cmFunc.h" 1
 494 0002 72B6     		cpsid i
 495              	@ 0 "" 2
 496              		.thumb
 497              		.syntax unified
 498              	.LBE322:
 499              	.LBE323:
 500              	.LBE325:
 501              	.LBE328:
 502              	.LBE332:
 503              		.loc 5 377 34 is_stmt 1 view .LVU149
 504              		.loc 5 378 20 view .LVU150
 505              		.loc 1 193 3 view .LVU151
 506              		.loc 1 193 9 is_stmt 0 view .LVU152
 507 0004 FFF7FEFF 		bl	ibqGetFullBufferTimeoutS
 508              	.LVL24:
 509              		.loc 1 194 3 is_stmt 1 view .LVU153
 510              	.LBB333:
 511              	.LBI333:
 512              		.loc 2 502 20 view .LVU154
 513              	.LBE333:
ARM GAS  /tmp/ccTxpxgR.s 			page 10


 514              		.loc 2 504 3 view .LVU155
 515              	.LBB342:
 516              	.LBB334:
 517              	.LBI334:
 518              		.loc 5 386 20 view .LVU156
 519              	.LBB335:
 520              		.loc 5 388 22 view .LVU157
 521              		.loc 5 389 33 view .LVU158
 522              		.loc 5 395 3 view .LVU159
 523              		.loc 5 395 3 view .LVU160
 524              		.loc 5 399 3 view .LVU161
 525              	.LBB336:
 526              	.LBI336:
 527              		.loc 6 380 20 view .LVU162
 528              	.LBE336:
 529              	.LBE335:
 530              	.LBE334:
 531              	.LBE342:
 532              		.loc 6 382 3 view .LVU163
 533              	.LBB343:
 534              	.LBB341:
 535              	.LBB340:
 536              	.LBB339:
 537              	.LBB337:
 538              	.LBI337:
 539              		.loc 7 331 57 view .LVU164
 540              	.LBB338:
 541              		.loc 7 333 3 view .LVU165
 542              		.syntax divided
 543              	@ 333 "ChibiOS/os/common/ext/CMSIS/include/core_cmFunc.h" 1
 544 0008 62B6     		cpsie i
 545              	@ 0 "" 2
 546              		.thumb
 547              		.syntax unified
 548              	.LBE338:
 549              	.LBE337:
 550              	.LBE339:
 551              	.LBE340:
 552              	.LBE341:
 553              	.LBE343:
 554              		.loc 1 196 3 view .LVU166
 555              		.loc 1 197 1 is_stmt 0 view .LVU167
 556              		@ sp needed
 557 000a 10BD     		pop	{r4, pc}
 558              		.cfi_endproc
 559              	.LFE155:
 560              		.size	ibqGetFullBufferTimeout, .-ibqGetFullBufferTimeout
 561              		.section	.text.ibqReleaseEmptyBuffer,"ax",%progbits
 562              		.align	1
 563              		.p2align 4,,15
 564              		.global	ibqReleaseEmptyBuffer
 565              		.syntax unified
 566              		.code	16
 567              		.thumb_func
 568              		.fpu softvfp
 569              		.type	ibqReleaseEmptyBuffer, %function
 570              	ibqReleaseEmptyBuffer:
ARM GAS  /tmp/ccTxpxgR.s 			page 11


 571              	.LVL25:
 572              	.LFB157:
 573              		.loc 1 248 57 is_stmt 1 view -0
 574              		.cfi_startproc
 575              		@ args = 0, pretend = 0, frame = 0
 576              		@ frame_needed = 0, uses_anonymous_args = 0
 577              		.loc 1 250 3 view .LVU169
 578              	.LBB344:
 579              	.LBI344:
 580              		.loc 2 491 20 view .LVU170
 581              	.LBE344:
 582              		.loc 2 493 3 view .LVU171
 583              	.LBB356:
 584              	.LBB345:
 585              	.LBI345:
 586              		.loc 5 374 20 view .LVU172
 587              	.LBE345:
 588              	.LBE356:
 589              		.loc 5 376 3 view .LVU173
 590              	.LBB357:
 591              	.LBB353:
 592              	.LBB346:
 593              	.LBI346:
 594              		.loc 6 371 20 view .LVU174
 595              	.LBE346:
 596              	.LBE353:
 597              	.LBE357:
 598              		.loc 6 373 3 view .LVU175
 599              	.LBB358:
 600              	.LBB354:
 601              	.LBB351:
 602              	.LBB347:
 603              	.LBI347:
 604              		.loc 7 342 57 view .LVU176
 605              	.LBB348:
 606              		.loc 7 344 3 view .LVU177
 607              	.LBE348:
 608              	.LBE347:
 609              	.LBE351:
 610              	.LBE354:
 611              	.LBE358:
 612              		.loc 1 248 57 is_stmt 0 view .LVU178
 613 0000 10B5     		push	{r4, lr}
 614              		.cfi_def_cfa_offset 8
 615              		.cfi_offset 4, -8
 616              		.cfi_offset 14, -4
 617              	.LBB359:
 618              	.LBB355:
 619              	.LBB352:
 620              	.LBB350:
 621              	.LBB349:
 622              		.loc 7 344 3 view .LVU179
 623              		.syntax divided
 624              	@ 344 "ChibiOS/os/common/ext/CMSIS/include/core_cmFunc.h" 1
 625 0002 72B6     		cpsid i
 626              	@ 0 "" 2
 627              		.thumb
ARM GAS  /tmp/ccTxpxgR.s 			page 12


 628              		.syntax unified
 629              	.LBE349:
 630              	.LBE350:
 631              	.LBE352:
 632              	.LBE355:
 633              	.LBE359:
 634              		.loc 5 377 34 is_stmt 1 view .LVU180
 635              		.loc 5 378 20 view .LVU181
 636              		.loc 1 251 3 view .LVU182
 637              	.LVL26:
 638              	.LBB360:
 639              	.LBI360:
 640              		.loc 1 263 8 view .LVU183
 641              	.LBB361:
 642              		.loc 1 265 23 view .LVU184
 643              		.loc 1 266 3 view .LVU185
 644              		.loc 1 266 3 view .LVU186
 645              		.loc 1 269 3 view .LVU187
 646              		.loc 1 270 16 is_stmt 0 view .LVU188
 647 0004 8269     		ldr	r2, [r0, #24]
 648              		.loc 1 269 7 view .LVU189
 649 0006 8368     		ldr	r3, [r0, #8]
 650              		.loc 1 270 16 view .LVU190
 651 0008 9446     		mov	ip, r2
 652              		.loc 1 269 17 view .LVU191
 653 000a 013B     		subs	r3, r3, #1
 654 000c 8360     		str	r3, [r0, #8]
 655              		.loc 1 270 3 is_stmt 1 view .LVU192
 656              		.loc 1 270 16 is_stmt 0 view .LVU193
 657 000e 0369     		ldr	r3, [r0, #16]
 658              		.loc 1 271 6 view .LVU194
 659 0010 4269     		ldr	r2, [r0, #20]
 660              		.loc 1 270 16 view .LVU195
 661 0012 6344     		add	r3, r3, ip
 662 0014 0361     		str	r3, [r0, #16]
 663              		.loc 1 271 3 is_stmt 1 view .LVU196
 664              		.loc 1 271 6 is_stmt 0 view .LVU197
 665 0016 9342     		cmp	r3, r2
 666 0018 01D3     		bcc	.L19
 667              		.loc 1 272 5 is_stmt 1 view .LVU198
 668              		.loc 1 272 18 is_stmt 0 view .LVU199
 669 001a 036A     		ldr	r3, [r0, #32]
 670 001c 0361     		str	r3, [r0, #16]
 671              	.L19:
 672              		.loc 1 276 3 is_stmt 1 view .LVU200
 673              		.loc 1 276 13 is_stmt 0 view .LVU201
 674 001e 0023     		movs	r3, #0
 675 0020 4362     		str	r3, [r0, #36]
 676              		.loc 1 279 3 is_stmt 1 view .LVU202
 677              		.loc 1 279 11 is_stmt 0 view .LVU203
 678 0022 C36A     		ldr	r3, [r0, #44]
 679              		.loc 1 279 6 view .LVU204
 680 0024 002B     		cmp	r3, #0
 681 0026 00D0     		beq	.L20
 682              		.loc 1 280 5 is_stmt 1 view .LVU205
 683 0028 9847     		blx	r3
 684              	.LVL27:
ARM GAS  /tmp/ccTxpxgR.s 			page 13


 685              	.L20:
 686              		.loc 1 280 5 is_stmt 0 view .LVU206
 687              	.LBE361:
 688              	.LBE360:
 689              		.loc 1 252 3 is_stmt 1 view .LVU207
 690              	.LBB362:
 691              	.LBI362:
 692              		.loc 2 502 20 view .LVU208
 693              	.LBE362:
 694              		.loc 2 504 3 view .LVU209
 695              	.LBB371:
 696              	.LBB363:
 697              	.LBI363:
 698              		.loc 5 386 20 view .LVU210
 699              	.LBB364:
 700              		.loc 5 388 22 view .LVU211
 701              		.loc 5 389 33 view .LVU212
 702              		.loc 5 395 3 view .LVU213
 703              		.loc 5 395 3 view .LVU214
 704              		.loc 5 399 3 view .LVU215
 705              	.LBB365:
 706              	.LBI365:
 707              		.loc 6 380 20 view .LVU216
 708              	.LBE365:
 709              	.LBE364:
 710              	.LBE363:
 711              	.LBE371:
 712              		.loc 6 382 3 view .LVU217
 713              	.LBB372:
 714              	.LBB370:
 715              	.LBB369:
 716              	.LBB368:
 717              	.LBB366:
 718              	.LBI366:
 719              		.loc 7 331 57 view .LVU218
 720              	.LBB367:
 721              		.loc 7 333 3 view .LVU219
 722              		.syntax divided
 723              	@ 333 "ChibiOS/os/common/ext/CMSIS/include/core_cmFunc.h" 1
 724 002a 62B6     		cpsie i
 725              	@ 0 "" 2
 726              		.thumb
 727              		.syntax unified
 728              	.LBE367:
 729              	.LBE366:
 730              	.LBE368:
 731              	.LBE369:
 732              	.LBE370:
 733              	.LBE372:
 734              		.loc 1 253 1 is_stmt 0 view .LVU220
 735              		@ sp needed
 736 002c 10BD     		pop	{r4, pc}
 737              		.cfi_endproc
 738              	.LFE157:
 739              		.size	ibqReleaseEmptyBuffer, .-ibqReleaseEmptyBuffer
 740 002e C046     		.section	.text.ibqReleaseEmptyBufferS,"ax",%progbits
 741              		.align	1
ARM GAS  /tmp/ccTxpxgR.s 			page 14


 742              		.p2align 4,,15
 743              		.global	ibqReleaseEmptyBufferS
 744              		.syntax unified
 745              		.code	16
 746              		.thumb_func
 747              		.fpu softvfp
 748              		.type	ibqReleaseEmptyBufferS, %function
 749              	ibqReleaseEmptyBufferS:
 750              	.LVL28:
 751              	.LFB158:
 752              		.loc 1 263 60 is_stmt 1 view -0
 753              		.cfi_startproc
 754              		@ args = 0, pretend = 0, frame = 0
 755              		@ frame_needed = 0, uses_anonymous_args = 0
 756              		.loc 1 265 23 view .LVU222
 757              		.loc 1 266 3 view .LVU223
 758              		.loc 1 266 3 view .LVU224
 759              		.loc 1 269 3 view .LVU225
 760              		.loc 1 270 16 is_stmt 0 view .LVU226
 761 0000 8269     		ldr	r2, [r0, #24]
 762              		.loc 1 269 7 view .LVU227
 763 0002 8368     		ldr	r3, [r0, #8]
 764              		.loc 1 270 16 view .LVU228
 765 0004 9446     		mov	ip, r2
 766              		.loc 1 269 17 view .LVU229
 767 0006 013B     		subs	r3, r3, #1
 768 0008 8360     		str	r3, [r0, #8]
 769              		.loc 1 270 3 is_stmt 1 view .LVU230
 770              		.loc 1 270 16 is_stmt 0 view .LVU231
 771 000a 0369     		ldr	r3, [r0, #16]
 772              		.loc 1 271 6 view .LVU232
 773 000c 4269     		ldr	r2, [r0, #20]
 774              		.loc 1 270 16 view .LVU233
 775 000e 6344     		add	r3, r3, ip
 776              		.loc 1 263 60 view .LVU234
 777 0010 10B5     		push	{r4, lr}
 778              		.cfi_def_cfa_offset 8
 779              		.cfi_offset 4, -8
 780              		.cfi_offset 14, -4
 781              		.loc 1 270 16 view .LVU235
 782 0012 0361     		str	r3, [r0, #16]
 783              		.loc 1 271 3 is_stmt 1 view .LVU236
 784              		.loc 1 271 6 is_stmt 0 view .LVU237
 785 0014 9342     		cmp	r3, r2
 786 0016 01D3     		bcc	.L25
 787              		.loc 1 272 5 is_stmt 1 view .LVU238
 788              		.loc 1 272 18 is_stmt 0 view .LVU239
 789 0018 036A     		ldr	r3, [r0, #32]
 790 001a 0361     		str	r3, [r0, #16]
 791              	.L25:
 792              		.loc 1 276 3 is_stmt 1 view .LVU240
 793              		.loc 1 276 13 is_stmt 0 view .LVU241
 794 001c 0023     		movs	r3, #0
 795 001e 4362     		str	r3, [r0, #36]
 796              		.loc 1 279 3 is_stmt 1 view .LVU242
 797              		.loc 1 279 11 is_stmt 0 view .LVU243
 798 0020 C36A     		ldr	r3, [r0, #44]
ARM GAS  /tmp/ccTxpxgR.s 			page 15


 799              		.loc 1 279 6 view .LVU244
 800 0022 002B     		cmp	r3, #0
 801 0024 00D0     		beq	.L24
 802              		.loc 1 280 5 is_stmt 1 view .LVU245
 803 0026 9847     		blx	r3
 804              	.LVL29:
 805              	.L24:
 806              		.loc 1 282 1 is_stmt 0 view .LVU246
 807              		@ sp needed
 808 0028 10BD     		pop	{r4, pc}
 809              		.cfi_endproc
 810              	.LFE158:
 811              		.size	ibqReleaseEmptyBufferS, .-ibqReleaseEmptyBufferS
 812 002a C046     		.section	.text.ibqGetTimeout,"ax",%progbits
 813              		.align	1
 814              		.p2align 4,,15
 815              		.global	ibqGetTimeout
 816              		.syntax unified
 817              		.code	16
 818              		.thumb_func
 819              		.fpu softvfp
 820              		.type	ibqGetTimeout, %function
 821              	ibqGetTimeout:
 822              	.LVL30:
 823              	.LFB159:
 824              		.loc 1 302 69 is_stmt 1 view -0
 825              		.cfi_startproc
 826              		@ args = 0, pretend = 0, frame = 0
 827              		@ frame_needed = 0, uses_anonymous_args = 0
 828              		.loc 1 303 3 view .LVU248
 829              		.loc 1 305 3 view .LVU249
 830              	.LBB373:
 831              	.LBI373:
 832              		.loc 2 491 20 view .LVU250
 833              	.LBE373:
 834              		.loc 2 493 3 view .LVU251
 835              	.LBB385:
 836              	.LBB374:
 837              	.LBI374:
 838              		.loc 5 374 20 view .LVU252
 839              	.LBE374:
 840              	.LBE385:
 841              		.loc 5 376 3 view .LVU253
 842              	.LBB386:
 843              	.LBB382:
 844              	.LBB375:
 845              	.LBI375:
 846              		.loc 6 371 20 view .LVU254
 847              	.LBE375:
 848              	.LBE382:
 849              	.LBE386:
 850              		.loc 6 373 3 view .LVU255
 851              	.LBB387:
 852              	.LBB383:
 853              	.LBB380:
 854              	.LBB376:
 855              	.LBI376:
ARM GAS  /tmp/ccTxpxgR.s 			page 16


 856              		.loc 7 342 57 view .LVU256
 857              	.LBB377:
 858              		.loc 7 344 3 view .LVU257
 859              	.LBE377:
 860              	.LBE376:
 861              	.LBE380:
 862              	.LBE383:
 863              	.LBE387:
 864              		.loc 1 302 69 is_stmt 0 view .LVU258
 865 0000 70B5     		push	{r4, r5, r6, lr}
 866              		.cfi_def_cfa_offset 16
 867              		.cfi_offset 4, -16
 868              		.cfi_offset 5, -12
 869              		.cfi_offset 6, -8
 870              		.cfi_offset 14, -4
 871              		.loc 1 302 69 view .LVU259
 872 0002 0400     		movs	r4, r0
 873              	.LBB388:
 874              	.LBB384:
 875              	.LBB381:
 876              	.LBB379:
 877              	.LBB378:
 878              		.loc 7 344 3 view .LVU260
 879              		.syntax divided
 880              	@ 344 "ChibiOS/os/common/ext/CMSIS/include/core_cmFunc.h" 1
 881 0004 72B6     		cpsid i
 882              	@ 0 "" 2
 883              		.thumb
 884              		.syntax unified
 885              	.LBE378:
 886              	.LBE379:
 887              	.LBE381:
 888              	.LBE384:
 889              	.LBE388:
 890              		.loc 5 377 34 is_stmt 1 view .LVU261
 891              		.loc 5 378 20 view .LVU262
 892              		.loc 1 308 3 view .LVU263
 893              		.loc 1 308 11 is_stmt 0 view .LVU264
 894 0006 436A     		ldr	r3, [r0, #36]
 895              		.loc 1 308 6 view .LVU265
 896 0008 002B     		cmp	r3, #0
 897 000a 1CD0     		beq	.L41
 898              	.LVL31:
 899              	.L31:
 900              		.loc 1 317 3 is_stmt 1 view .LVU266
 901              		.loc 1 322 6 is_stmt 0 view .LVU267
 902 000c A26A     		ldr	r2, [r4, #40]
 903              		.loc 1 317 7 view .LVU268
 904 000e 1D78     		ldrb	r5, [r3]
 905              	.LVL32:
 906              		.loc 1 318 3 is_stmt 1 view .LVU269
 907              		.loc 1 318 12 is_stmt 0 view .LVU270
 908 0010 0133     		adds	r3, r3, #1
 909 0012 6362     		str	r3, [r4, #36]
 910              		.loc 1 322 3 is_stmt 1 view .LVU271
 911              		.loc 1 322 6 is_stmt 0 view .LVU272
 912 0014 9342     		cmp	r3, r2
ARM GAS  /tmp/ccTxpxgR.s 			page 17


 913 0016 13D3     		bcc	.L35
 914              		.loc 1 323 5 is_stmt 1 view .LVU273
 915              	.LVL33:
 916              	.LBB389:
 917              	.LBI389:
 918              		.loc 1 263 8 view .LVU274
 919              	.LBB390:
 920              		.loc 1 265 23 view .LVU275
 921              		.loc 1 266 3 view .LVU276
 922              		.loc 1 266 3 view .LVU277
 923              		.loc 1 269 3 view .LVU278
 924              		.loc 1 270 16 is_stmt 0 view .LVU279
 925 0018 A269     		ldr	r2, [r4, #24]
 926              		.loc 1 269 7 view .LVU280
 927 001a A368     		ldr	r3, [r4, #8]
 928              		.loc 1 270 16 view .LVU281
 929 001c 9446     		mov	ip, r2
 930              		.loc 1 269 17 view .LVU282
 931 001e 013B     		subs	r3, r3, #1
 932 0020 A360     		str	r3, [r4, #8]
 933              		.loc 1 270 3 is_stmt 1 view .LVU283
 934              		.loc 1 270 16 is_stmt 0 view .LVU284
 935 0022 2369     		ldr	r3, [r4, #16]
 936              		.loc 1 271 6 view .LVU285
 937 0024 6269     		ldr	r2, [r4, #20]
 938              		.loc 1 270 16 view .LVU286
 939 0026 6344     		add	r3, r3, ip
 940 0028 2361     		str	r3, [r4, #16]
 941              		.loc 1 271 3 is_stmt 1 view .LVU287
 942              		.loc 1 271 6 is_stmt 0 view .LVU288
 943 002a 9342     		cmp	r3, r2
 944 002c 01D3     		bcc	.L36
 945              		.loc 1 272 5 is_stmt 1 view .LVU289
 946              		.loc 1 272 18 is_stmt 0 view .LVU290
 947 002e 236A     		ldr	r3, [r4, #32]
 948 0030 2361     		str	r3, [r4, #16]
 949              	.L36:
 950              		.loc 1 276 3 is_stmt 1 view .LVU291
 951              		.loc 1 276 13 is_stmt 0 view .LVU292
 952 0032 0023     		movs	r3, #0
 953 0034 6362     		str	r3, [r4, #36]
 954              		.loc 1 279 3 is_stmt 1 view .LVU293
 955              		.loc 1 279 11 is_stmt 0 view .LVU294
 956 0036 E36A     		ldr	r3, [r4, #44]
 957              		.loc 1 279 6 view .LVU295
 958 0038 002B     		cmp	r3, #0
 959 003a 01D0     		beq	.L35
 960              		.loc 1 280 5 is_stmt 1 view .LVU296
 961 003c 2000     		movs	r0, r4
 962 003e 9847     		blx	r3
 963              	.LVL34:
 964              	.L35:
 965              		.loc 1 280 5 is_stmt 0 view .LVU297
 966              	.LBE390:
 967              	.LBE389:
 968              		.loc 1 326 3 is_stmt 1 view .LVU298
 969              	.LBB391:
ARM GAS  /tmp/ccTxpxgR.s 			page 18


 970              	.LBI391:
 971              		.loc 2 502 20 view .LVU299
 972              	.LBE391:
 973              		.loc 2 504 3 view .LVU300
 974              	.LBB400:
 975              	.LBB392:
 976              	.LBI392:
 977              		.loc 5 386 20 view .LVU301
 978              	.LBB393:
 979              		.loc 5 388 22 view .LVU302
 980              		.loc 5 389 33 view .LVU303
 981              		.loc 5 395 3 view .LVU304
 982              		.loc 5 395 3 view .LVU305
 983              		.loc 5 399 3 view .LVU306
 984              	.LBB394:
 985              	.LBI394:
 986              		.loc 6 380 20 view .LVU307
 987              	.LBE394:
 988              	.LBE393:
 989              	.LBE392:
 990              	.LBE400:
 991              		.loc 6 382 3 view .LVU308
 992              	.LBB401:
 993              	.LBB399:
 994              	.LBB398:
 995              	.LBB397:
 996              	.LBB395:
 997              	.LBI395:
 998              		.loc 7 331 57 view .LVU309
 999              	.LBB396:
 1000              		.loc 7 333 3 view .LVU310
 1001              		.syntax divided
 1002              	@ 333 "ChibiOS/os/common/ext/CMSIS/include/core_cmFunc.h" 1
 1003 0040 62B6     		cpsie i
 1004              	@ 0 "" 2
 1005              		.thumb
 1006              		.syntax unified
 1007              	.LBE396:
 1008              	.LBE395:
 1009              	.LBE397:
 1010              	.LBE398:
 1011              	.LBE399:
 1012              	.LBE401:
 1013              		.loc 1 327 3 view .LVU311
 1014              		.loc 1 328 1 is_stmt 0 view .LVU312
 1015 0042 2800     		movs	r0, r5
 1016              		@ sp needed
 1017              	.LVL35:
 1018              	.LVL36:
 1019              		.loc 1 328 1 view .LVU313
 1020 0044 70BD     		pop	{r4, r5, r6, pc}
 1021              	.LVL37:
 1022              	.L41:
 1023              		.loc 1 309 5 is_stmt 1 view .LVU314
 1024              		.loc 1 309 11 is_stmt 0 view .LVU315
 1025 0046 FFF7FEFF 		bl	ibqGetFullBufferTimeoutS
 1026              	.LVL38:
ARM GAS  /tmp/ccTxpxgR.s 			page 19


 1027              		.loc 1 309 11 view .LVU316
 1028 004a 051E     		subs	r5, r0, #0
 1029              	.LVL39:
 1030              		.loc 1 310 5 is_stmt 1 view .LVU317
 1031              		.loc 1 310 8 is_stmt 0 view .LVU318
 1032 004c F8D1     		bne	.L35
 1033 004e 636A     		ldr	r3, [r4, #36]
 1034 0050 DCE7     		b	.L31
 1035              		.cfi_endproc
 1036              	.LFE159:
 1037              		.size	ibqGetTimeout, .-ibqGetTimeout
 1038 0052 C046     		.section	.text.ibqReadTimeout,"ax",%progbits
 1039              		.align	1
 1040              		.p2align 4,,15
 1041              		.global	ibqReadTimeout
 1042              		.syntax unified
 1043              		.code	16
 1044              		.thumb_func
 1045              		.fpu softvfp
 1046              		.type	ibqReadTimeout, %function
 1047              	ibqReadTimeout:
 1048              	.LVL40:
 1049              	.LFB160:
 1050              		.loc 1 352 52 is_stmt 1 view -0
 1051              		.cfi_startproc
 1052              		@ args = 0, pretend = 0, frame = 8
 1053              		@ frame_needed = 0, uses_anonymous_args = 0
 1054              		.loc 1 353 3 view .LVU320
 1055              		.loc 1 354 3 view .LVU321
 1056              		.loc 1 356 3 view .LVU322
 1057              		.loc 1 356 3 view .LVU323
 1058              		.loc 1 358 3 view .LVU324
 1059              	.LBB402:
 1060              	.LBI402:
 1061              		.loc 2 491 20 view .LVU325
 1062              	.LBE402:
 1063              		.loc 2 493 3 view .LVU326
 1064              	.LBB414:
 1065              	.LBB403:
 1066              	.LBI403:
 1067              		.loc 5 374 20 view .LVU327
 1068              	.LBE403:
 1069              	.LBE414:
 1070              		.loc 5 376 3 view .LVU328
 1071              	.LBB415:
 1072              	.LBB411:
 1073              	.LBB404:
 1074              	.LBI404:
 1075              		.loc 6 371 20 view .LVU329
 1076              	.LBE404:
 1077              	.LBE411:
 1078              	.LBE415:
 1079              		.loc 6 373 3 view .LVU330
 1080              	.LBB416:
 1081              	.LBB412:
 1082              	.LBB409:
 1083              	.LBB405:
ARM GAS  /tmp/ccTxpxgR.s 			page 20


 1084              	.LBI405:
 1085              		.loc 7 342 57 view .LVU331
 1086              	.LBB406:
 1087              		.loc 7 344 3 view .LVU332
 1088              	.LBE406:
 1089              	.LBE405:
 1090              	.LBE409:
 1091              	.LBE412:
 1092              	.LBE416:
 1093              		.loc 1 352 52 is_stmt 0 view .LVU333
 1094 0000 F0B5     		push	{r4, r5, r6, r7, lr}
 1095              		.cfi_def_cfa_offset 20
 1096              		.cfi_offset 4, -20
 1097              		.cfi_offset 5, -16
 1098              		.cfi_offset 6, -12
 1099              		.cfi_offset 7, -8
 1100              		.cfi_offset 14, -4
 1101 0002 5746     		mov	r7, r10
 1102 0004 4546     		mov	r5, r8
 1103 0006 DE46     		mov	lr, fp
 1104 0008 4E46     		mov	r6, r9
 1105 000a E0B5     		push	{r5, r6, r7, lr}
 1106              		.cfi_def_cfa_offset 36
 1107              		.cfi_offset 8, -36
 1108              		.cfi_offset 9, -32
 1109              		.cfi_offset 10, -28
 1110              		.cfi_offset 11, -24
 1111 000c 0400     		movs	r4, r0
 1112 000e 83B0     		sub	sp, sp, #12
 1113              		.cfi_def_cfa_offset 48
 1114              		.loc 1 352 52 view .LVU334
 1115 0010 0F00     		movs	r7, r1
 1116 0012 9046     		mov	r8, r2
 1117 0014 9A46     		mov	r10, r3
 1118              	.LBB417:
 1119              	.LBB413:
 1120              	.LBB410:
 1121              	.LBB408:
 1122              	.LBB407:
 1123              		.loc 7 344 3 view .LVU335
 1124              		.syntax divided
 1125              	@ 344 "ChibiOS/os/common/ext/CMSIS/include/core_cmFunc.h" 1
 1126 0016 72B6     		cpsid i
 1127              	@ 0 "" 2
 1128              		.thumb
 1129              		.syntax unified
 1130              	.LBE407:
 1131              	.LBE408:
 1132              	.LBE410:
 1133              	.LBE413:
 1134              	.LBE417:
 1135              		.loc 5 377 34 is_stmt 1 view .LVU336
 1136              		.loc 5 378 20 view .LVU337
 1137              		.loc 1 361 3 view .LVU338
 1138              	.LBB418:
 1139              	.LBI418:
 1140              		.loc 2 616 25 view .LVU339
ARM GAS  /tmp/ccTxpxgR.s 			page 21


 1141              	.LBE418:
 1142              		.loc 2 618 3 view .LVU340
 1143              	.LBB426:
 1144              	.LBB419:
 1145              	.LBI419:
 1146              		.file 8 "ChibiOS/os/rt/include/chvt.h"
 1147              		.loc 8 228 25 view .LVU341
 1148              	.LBE419:
 1149              	.LBE426:
 1150              		.loc 8 233 3 view .LVU342
 1151              	.LBB427:
 1152              	.LBB424:
 1153              	.LBB420:
 1154              	.LBI420:
 1155              		.file 9 "ChibiOS/os/common/ports/ARMCMx/chcore_timer.h"
 1156              		.loc 9 105 25 view .LVU343
 1157              	.LBE420:
 1158              	.LBE424:
 1159              	.LBE427:
 1160              		.loc 9 107 3 view .LVU344
 1161              	.LBB428:
 1162              	.LBB425:
 1163              	.LBB423:
 1164              	.LBB421:
 1165              	.LBI421:
 1166              		.file 10 "ChibiOS/os/hal/ports/STM32/LLD/TIMv1/hal_st_lld.h"
 1167              		.loc 10 139 25 view .LVU345
 1168              	.LBB422:
 1169              		.loc 10 141 3 view .LVU346
 1170              		.loc 10 141 10 is_stmt 0 view .LVU347
 1171 0018 8023     		movs	r3, #128
 1172              	.LVL41:
 1173              		.loc 10 141 10 view .LVU348
 1174 001a DB05     		lsls	r3, r3, #23
 1175 001c 5A6A     		ldr	r2, [r3, #36]
 1176              	.LVL42:
 1177              		.loc 10 141 10 view .LVU349
 1178              	.LBE422:
 1179              	.LBE421:
 1180              	.LBE423:
 1181              	.LBE425:
 1182              	.LBE428:
 1183              	.LBB429:
 1184              	.LBB430:
 1185              	.LBB431:
 1186              	.LBB432:
 1187              	.LBB433:
 1188              	.LBB434:
 1189              	.LBB435:
 1190              	.LBB436:
 1191 001e 9B46     		mov	fp, r3
 1192              	.LBE436:
 1193              	.LBE435:
 1194              	.LBE434:
 1195              	.LBE433:
 1196              	.LBE432:
 1197              	.LBE431:
ARM GAS  /tmp/ccTxpxgR.s 			page 22


 1198              	.LBE430:
 1199              	.LBE429:
 1200              		.loc 1 361 12 view .LVU350
 1201 0020 5244     		add	r2, r2, r10
 1202 0022 0192     		str	r2, [sp, #4]
 1203              	.LVL43:
 1204              	.LBB500:
 1205              	.LBB463:
 1206              		.loc 1 372 38 view .LVU351
 1207 0024 5246     		mov	r2, r10
 1208              	.LVL44:
 1209              		.loc 1 372 38 view .LVU352
 1210              	.LBE463:
 1211              	.LBB464:
 1212              	.LBB465:
 1213              		.loc 1 276 13 view .LVU353
 1214 0026 0023     		movs	r3, #0
 1215              	.LBE465:
 1216              	.LBE464:
 1217              	.LBB468:
 1218              		.loc 1 372 38 view .LVU354
 1219 0028 013A     		subs	r2, r2, #1
 1220              	.LBE468:
 1221              	.LBE500:
 1222              		.loc 1 353 10 view .LVU355
 1223 002a 0026     		movs	r6, #0
 1224              	.LBB501:
 1225              	.LBB469:
 1226              		.loc 1 372 38 view .LVU356
 1227 002c 0092     		str	r2, [sp]
 1228              	.LBE469:
 1229              	.LBB470:
 1230              	.LBB466:
 1231              		.loc 1 276 13 view .LVU357
 1232 002e 9946     		mov	r9, r3
 1233 0030 23E0     		b	.L56
 1234              	.LVL45:
 1235              	.L62:
 1236              		.loc 1 276 13 view .LVU358
 1237              	.LBE466:
 1238              	.LBE470:
 1239              		.loc 1 405 7 is_stmt 1 view .LVU359
 1240 0032 3800     		movs	r0, r7
 1241 0034 4022     		movs	r2, #64
 1242              	.LVL46:
 1243              		.loc 1 405 7 is_stmt 0 view .LVU360
 1244 0036 FFF7FEFF 		bl	memcpy
 1245              	.LVL47:
 1246              		.loc 1 406 7 is_stmt 1 view .LVU361
 1247              		.loc 1 407 17 is_stmt 0 view .LVU362
 1248 003a 636A     		ldr	r3, [r4, #36]
 1249              		.loc 1 406 17 view .LVU363
 1250 003c 4037     		adds	r7, r7, #64
 1251              	.LVL48:
 1252              		.loc 1 407 7 is_stmt 1 view .LVU364
 1253              		.loc 1 407 17 is_stmt 0 view .LVU365
 1254 003e 4033     		adds	r3, r3, #64
ARM GAS  /tmp/ccTxpxgR.s 			page 23


 1255 0040 6362     		str	r3, [r4, #36]
 1256              		.loc 1 408 7 is_stmt 1 view .LVU366
 1257              		.loc 1 408 17 is_stmt 0 view .LVU367
 1258 0042 4036     		adds	r6, r6, #64
 1259              	.LVL49:
 1260              	.L51:
 1261              		.loc 1 418 5 is_stmt 1 view .LVU368
 1262              		.loc 1 418 8 is_stmt 0 view .LVU369
 1263 0044 A26A     		ldr	r2, [r4, #40]
 1264 0046 9A42     		cmp	r2, r3
 1265 0048 13D8     		bhi	.L53
 1266              		.loc 1 419 7 is_stmt 1 view .LVU370
 1267              	.LVL50:
 1268              	.LBB471:
 1269              	.LBI464:
 1270              		.loc 1 263 8 view .LVU371
 1271              	.LBB467:
 1272              		.loc 1 265 23 view .LVU372
 1273              		.loc 1 266 3 view .LVU373
 1274              		.loc 1 266 3 view .LVU374
 1275              		.loc 1 269 3 view .LVU375
 1276              		.loc 1 270 16 is_stmt 0 view .LVU376
 1277 004a A269     		ldr	r2, [r4, #24]
 1278              		.loc 1 269 7 view .LVU377
 1279 004c A368     		ldr	r3, [r4, #8]
 1280              		.loc 1 270 16 view .LVU378
 1281 004e 9446     		mov	ip, r2
 1282              		.loc 1 269 17 view .LVU379
 1283 0050 013B     		subs	r3, r3, #1
 1284 0052 A360     		str	r3, [r4, #8]
 1285              		.loc 1 270 3 is_stmt 1 view .LVU380
 1286              		.loc 1 270 16 is_stmt 0 view .LVU381
 1287 0054 2369     		ldr	r3, [r4, #16]
 1288              		.loc 1 271 6 view .LVU382
 1289 0056 6269     		ldr	r2, [r4, #20]
 1290              		.loc 1 270 16 view .LVU383
 1291 0058 6344     		add	r3, r3, ip
 1292 005a 2361     		str	r3, [r4, #16]
 1293              		.loc 1 271 3 is_stmt 1 view .LVU384
 1294              		.loc 1 271 6 is_stmt 0 view .LVU385
 1295 005c 9342     		cmp	r3, r2
 1296 005e 01D3     		bcc	.L54
 1297              		.loc 1 272 5 is_stmt 1 view .LVU386
 1298              		.loc 1 272 18 is_stmt 0 view .LVU387
 1299 0060 236A     		ldr	r3, [r4, #32]
 1300 0062 2361     		str	r3, [r4, #16]
 1301              	.L54:
 1302              		.loc 1 276 3 is_stmt 1 view .LVU388
 1303              		.loc 1 276 13 is_stmt 0 view .LVU389
 1304 0064 4B46     		mov	r3, r9
 1305 0066 6362     		str	r3, [r4, #36]
 1306              		.loc 1 279 3 is_stmt 1 view .LVU390
 1307              		.loc 1 279 11 is_stmt 0 view .LVU391
 1308 0068 E36A     		ldr	r3, [r4, #44]
 1309              		.loc 1 279 6 view .LVU392
 1310 006a 002B     		cmp	r3, #0
 1311 006c 01D0     		beq	.L53
ARM GAS  /tmp/ccTxpxgR.s 			page 24


 1312              		.loc 1 280 5 is_stmt 1 view .LVU393
 1313 006e 2000     		movs	r0, r4
 1314 0070 9847     		blx	r3
 1315              	.LVL51:
 1316              	.L53:
 1317              		.loc 1 280 5 is_stmt 0 view .LVU394
 1318              	.LBE467:
 1319              	.LBE471:
 1320              		.loc 1 423 5 is_stmt 1 view .LVU395
 1321              	.LBB472:
 1322              	.LBI472:
 1323              		.loc 2 502 20 view .LVU396
 1324              	.LBE472:
 1325              	.LBE501:
 1326              		.loc 2 504 3 view .LVU397
 1327              	.LBB502:
 1328              	.LBB481:
 1329              	.LBB473:
 1330              	.LBI473:
 1331              		.loc 5 386 20 view .LVU398
 1332              	.LBB474:
 1333              		.loc 5 388 22 view .LVU399
 1334              		.loc 5 389 33 view .LVU400
 1335              		.loc 5 395 3 view .LVU401
 1336              		.loc 5 395 3 view .LVU402
 1337              		.loc 5 399 3 view .LVU403
 1338              	.LBB475:
 1339              	.LBI475:
 1340              		.loc 6 380 20 view .LVU404
 1341              	.LBE475:
 1342              	.LBE474:
 1343              	.LBE473:
 1344              	.LBE481:
 1345              	.LBE502:
 1346              		.loc 6 382 3 view .LVU405
 1347              	.LBB503:
 1348              	.LBB482:
 1349              	.LBB480:
 1350              	.LBB479:
 1351              	.LBB478:
 1352              	.LBB476:
 1353              	.LBI476:
 1354              		.loc 7 331 57 view .LVU406
 1355              	.LBB477:
 1356              		.loc 7 333 3 view .LVU407
 1357              		.syntax divided
 1358              	@ 333 "ChibiOS/os/common/ext/CMSIS/include/core_cmFunc.h" 1
 1359 0072 62B6     		cpsie i
 1360              	@ 0 "" 2
 1361              		.thumb
 1362              		.syntax unified
 1363              	.LBE477:
 1364              	.LBE476:
 1365              	.LBE478:
 1366              	.LBE479:
 1367              	.LBE480:
 1368              	.LBE482:
ARM GAS  /tmp/ccTxpxgR.s 			page 25


 1369              		.loc 1 424 5 view .LVU408
 1370              		.loc 1 424 8 is_stmt 0 view .LVU409
 1371 0074 4645     		cmp	r6, r8
 1372 0076 2DD2     		bcs	.L42
 1373              		.loc 1 427 5 is_stmt 1 view .LVU410
 1374              	.LBB483:
 1375              	.LBI483:
 1376              		.loc 2 491 20 view .LVU411
 1377              	.LBE483:
 1378              	.LBE503:
 1379              		.loc 2 493 3 view .LVU412
 1380              	.LBB504:
 1381              	.LBB491:
 1382              	.LBB484:
 1383              	.LBI484:
 1384              		.loc 5 374 20 view .LVU413
 1385              	.LBE484:
 1386              	.LBE491:
 1387              	.LBE504:
 1388              		.loc 5 376 3 view .LVU414
 1389              	.LBB505:
 1390              	.LBB492:
 1391              	.LBB489:
 1392              	.LBB485:
 1393              	.LBI485:
 1394              		.loc 6 371 20 view .LVU415
 1395              	.LBE485:
 1396              	.LBE489:
 1397              	.LBE492:
 1398              	.LBE505:
 1399              		.loc 6 373 3 view .LVU416
 1400              	.LBB506:
 1401              	.LBB493:
 1402              	.LBB490:
 1403              	.LBB488:
 1404              	.LBB486:
 1405              	.LBI486:
 1406              		.loc 7 342 57 view .LVU417
 1407              	.LBB487:
 1408              		.loc 7 344 3 view .LVU418
 1409              		.syntax divided
 1410              	@ 344 "ChibiOS/os/common/ext/CMSIS/include/core_cmFunc.h" 1
 1411 0078 72B6     		cpsid i
 1412              	@ 0 "" 2
 1413              		.thumb
 1414              		.syntax unified
 1415              	.LBE487:
 1416              	.LBE486:
 1417              	.LBE488:
 1418              	.LBE490:
 1419              	.LBE493:
 1420              	.LBE506:
 1421              		.loc 5 377 34 view .LVU419
 1422              		.loc 5 378 20 view .LVU420
 1423              	.LVL52:
 1424              	.L56:
 1425              		.loc 1 363 3 view .LVU421
ARM GAS  /tmp/ccTxpxgR.s 			page 26


 1426              	.LBB507:
 1427              		.loc 1 364 5 view .LVU422
 1428              		.loc 1 367 5 view .LVU423
 1429              		.loc 1 367 13 is_stmt 0 view .LVU424
 1430 007a 616A     		ldr	r1, [r4, #36]
 1431              		.loc 1 367 8 view .LVU425
 1432 007c 0029     		cmp	r1, #0
 1433 007e 12D0     		beq	.L61
 1434              	.L43:
 1435              		.loc 1 396 5 is_stmt 1 view .LVU426
 1436              		.loc 1 397 19 is_stmt 0 view .LVU427
 1437 0080 4246     		mov	r2, r8
 1438              		.loc 1 396 10 view .LVU428
 1439 0082 A36A     		ldr	r3, [r4, #40]
 1440              		.loc 1 397 19 view .LVU429
 1441 0084 951B     		subs	r5, r2, r6
 1442              		.loc 1 396 10 view .LVU430
 1443 0086 5B1A     		subs	r3, r3, r1
 1444              	.LVL53:
 1445              		.loc 1 397 5 is_stmt 1 view .LVU431
 1446 0088 9D42     		cmp	r5, r3
 1447 008a 00D9     		bls	.L49
 1448              	.LVL54:
 1449              		.loc 1 397 5 is_stmt 0 view .LVU432
 1450 008c 1D00     		movs	r5, r3
 1451              	.L49:
 1452              	.LVL55:
 1453              		.loc 1 403 5 is_stmt 1 view .LVU433
 1454              		.loc 1 403 8 is_stmt 0 view .LVU434
 1455 008e 402D     		cmp	r5, #64
 1456 0090 CFD8     		bhi	.L62
 1457              		.loc 1 411 7 is_stmt 1 view .LVU435
 1458 0092 3800     		movs	r0, r7
 1459 0094 2A00     		movs	r2, r5
 1460              	.LVL56:
 1461              		.loc 1 411 7 is_stmt 0 view .LVU436
 1462 0096 FFF7FEFF 		bl	memcpy
 1463              	.LVL57:
 1464              		.loc 1 412 7 is_stmt 1 view .LVU437
 1465              		.loc 1 413 17 is_stmt 0 view .LVU438
 1466 009a 636A     		ldr	r3, [r4, #36]
 1467              		.loc 1 412 17 view .LVU439
 1468 009c 7F19     		adds	r7, r7, r5
 1469              	.LVL58:
 1470              		.loc 1 413 7 is_stmt 1 view .LVU440
 1471              		.loc 1 413 17 is_stmt 0 view .LVU441
 1472 009e 5B19     		adds	r3, r3, r5
 1473 00a0 6362     		str	r3, [r4, #36]
 1474              		.loc 1 414 7 is_stmt 1 view .LVU442
 1475              		.loc 1 414 17 is_stmt 0 view .LVU443
 1476 00a2 7619     		adds	r6, r6, r5
 1477              	.LVL59:
 1478              		.loc 1 414 17 view .LVU444
 1479 00a4 CEE7     		b	.L51
 1480              	.LVL60:
 1481              	.L61:
 1482              	.LBB494:
ARM GAS  /tmp/ccTxpxgR.s 			page 27


 1483              		.loc 1 368 7 is_stmt 1 view .LVU445
 1484              		.loc 1 372 7 view .LVU446
 1485              		.loc 1 372 10 is_stmt 0 view .LVU447
 1486 00a6 009B     		ldr	r3, [sp]
 1487 00a8 0333     		adds	r3, r3, #3
 1488 00aa 0CD8     		bhi	.L63
 1489              	.LBB448:
 1490              		.loc 1 376 9 is_stmt 1 view .LVU448
 1491              	.LBB444:
 1492              	.LBI432:
 1493              		.loc 2 616 25 view .LVU449
 1494              	.LBE444:
 1495              	.LBE448:
 1496              	.LBE494:
 1497              	.LBE507:
 1498              		.loc 2 618 3 view .LVU450
 1499              	.LBB508:
 1500              	.LBB495:
 1501              	.LBB449:
 1502              	.LBB445:
 1503              	.LBB441:
 1504              	.LBI433:
 1505              		.loc 8 228 25 view .LVU451
 1506              	.LBE441:
 1507              	.LBE445:
 1508              	.LBE449:
 1509              	.LBE495:
 1510              	.LBE508:
 1511              		.loc 8 233 3 view .LVU452
 1512              	.LBB509:
 1513              	.LBB496:
 1514              	.LBB450:
 1515              	.LBB446:
 1516              	.LBB442:
 1517              	.LBB439:
 1518              	.LBI434:
 1519              		.loc 9 105 25 view .LVU453
 1520              	.LBE439:
 1521              	.LBE442:
 1522              	.LBE446:
 1523              	.LBE450:
 1524              	.LBE496:
 1525              	.LBE509:
 1526              		.loc 9 107 3 view .LVU454
 1527              	.LBB510:
 1528              	.LBB497:
 1529              	.LBB451:
 1530              	.LBB447:
 1531              	.LBB443:
 1532              	.LBB440:
 1533              	.LBB438:
 1534              	.LBI435:
 1535              		.loc 10 139 25 view .LVU455
 1536              	.LBB437:
 1537              		.loc 10 141 3 view .LVU456
 1538              		.loc 10 141 10 is_stmt 0 view .LVU457
 1539 00ac 5B46     		mov	r3, fp
ARM GAS  /tmp/ccTxpxgR.s 			page 28


 1540 00ae 596A     		ldr	r1, [r3, #36]
 1541              	.LBE437:
 1542              	.LBE438:
 1543              	.LBE440:
 1544              	.LBE443:
 1545              	.LBE447:
 1546              		.loc 1 376 19 view .LVU458
 1547 00b0 019B     		ldr	r3, [sp, #4]
 1548 00b2 591A     		subs	r1, r3, r1
 1549              	.LVL61:
 1550              		.loc 1 381 9 is_stmt 1 view .LVU459
 1551              		.loc 1 381 12 is_stmt 0 view .LVU460
 1552 00b4 8A45     		cmp	r10, r1
 1553 00b6 0CD3     		bcc	.L48
 1554              		.loc 1 385 9 is_stmt 1 view .LVU461
 1555              		.loc 1 385 15 is_stmt 0 view .LVU462
 1556 00b8 2000     		movs	r0, r4
 1557 00ba FFF7FEFF 		bl	ibqGetFullBufferTimeoutS
 1558              	.LVL62:
 1559              		.loc 1 385 15 view .LVU463
 1560              	.LBE451:
 1561              		.loc 1 389 7 is_stmt 1 view .LVU464
 1562              		.loc 1 389 10 is_stmt 0 view .LVU465
 1563 00be 0028     		cmp	r0, #0
 1564 00c0 07D1     		bne	.L48
 1565              	.L64:
 1566              		.loc 1 389 10 view .LVU466
 1567 00c2 616A     		ldr	r1, [r4, #36]
 1568 00c4 DCE7     		b	.L43
 1569              	.LVL63:
 1570              	.L63:
 1571              		.loc 1 373 9 is_stmt 1 view .LVU467
 1572              		.loc 1 373 15 is_stmt 0 view .LVU468
 1573 00c6 5146     		mov	r1, r10
 1574 00c8 2000     		movs	r0, r4
 1575 00ca FFF7FEFF 		bl	ibqGetFullBufferTimeoutS
 1576              	.LVL64:
 1577              		.loc 1 389 7 is_stmt 1 view .LVU469
 1578              		.loc 1 389 10 is_stmt 0 view .LVU470
 1579 00ce 0028     		cmp	r0, #0
 1580 00d0 F7D0     		beq	.L64
 1581              	.LVL65:
 1582              	.L48:
 1583              		.loc 1 390 9 is_stmt 1 view .LVU471
 1584              	.LBB452:
 1585              	.LBI452:
 1586              		.loc 2 502 20 view .LVU472
 1587              	.LBE452:
 1588              	.LBE497:
 1589              	.LBE510:
 1590              		.loc 2 504 3 view .LVU473
 1591              	.LBB511:
 1592              	.LBB498:
 1593              	.LBB461:
 1594              	.LBB453:
 1595              	.LBI453:
 1596              		.loc 5 386 20 view .LVU474
ARM GAS  /tmp/ccTxpxgR.s 			page 29


 1597              	.LBB454:
 1598              		.loc 5 388 22 view .LVU475
 1599              		.loc 5 389 33 view .LVU476
 1600              		.loc 5 395 3 view .LVU477
 1601              		.loc 5 395 3 view .LVU478
 1602              		.loc 5 399 3 view .LVU479
 1603              	.LBB455:
 1604              	.LBI455:
 1605              		.loc 6 380 20 view .LVU480
 1606              	.LBE455:
 1607              	.LBE454:
 1608              	.LBE453:
 1609              	.LBE461:
 1610              	.LBE498:
 1611              	.LBE511:
 1612              		.loc 6 382 3 view .LVU481
 1613              	.LBB512:
 1614              	.LBB499:
 1615              	.LBB462:
 1616              	.LBB460:
 1617              	.LBB459:
 1618              	.LBB458:
 1619              	.LBB456:
 1620              	.LBI456:
 1621              		.loc 7 331 57 view .LVU482
 1622              	.LBB457:
 1623              		.loc 7 333 3 view .LVU483
 1624              		.syntax divided
 1625              	@ 333 "ChibiOS/os/common/ext/CMSIS/include/core_cmFunc.h" 1
 1626 00d2 62B6     		cpsie i
 1627              	@ 0 "" 2
 1628              		.thumb
 1629              		.syntax unified
 1630              	.LBE457:
 1631              	.LBE456:
 1632              	.LBE458:
 1633              	.LBE459:
 1634              	.LBE460:
 1635              	.LBE462:
 1636              		.loc 1 391 9 view .LVU484
 1637              	.L42:
 1638              		.loc 1 391 9 is_stmt 0 view .LVU485
 1639              	.LBE499:
 1640              	.LBE512:
 1641              		.loc 1 429 1 view .LVU486
 1642 00d4 3000     		movs	r0, r6
 1643 00d6 03B0     		add	sp, sp, #12
 1644              		@ sp needed
 1645              	.LVL66:
 1646              	.LVL67:
 1647              	.LVL68:
 1648              	.LVL69:
 1649              	.LVL70:
 1650              		.loc 1 429 1 view .LVU487
 1651 00d8 3CBC     		pop	{r2, r3, r4, r5}
 1652 00da 9046     		mov	r8, r2
 1653 00dc 9946     		mov	r9, r3
ARM GAS  /tmp/ccTxpxgR.s 			page 30


 1654 00de A246     		mov	r10, r4
 1655 00e0 AB46     		mov	fp, r5
 1656 00e2 F0BD     		pop	{r4, r5, r6, r7, pc}
 1657              		.cfi_endproc
 1658              	.LFE160:
 1659              		.size	ibqReadTimeout, .-ibqReadTimeout
 1660              		.section	.text.obqObjectInit,"ax",%progbits
 1661              		.align	1
 1662              		.p2align 4,,15
 1663              		.global	obqObjectInit
 1664              		.syntax unified
 1665              		.code	16
 1666              		.thumb_func
 1667              		.fpu softvfp
 1668              		.type	obqObjectInit, %function
 1669              	obqObjectInit:
 1670              	.LVL71:
 1671              	.LFB161:
 1672              		.loc 1 445 49 is_stmt 1 view -0
 1673              		.cfi_startproc
 1674              		@ args = 8, pretend = 0, frame = 0
 1675              		@ frame_needed = 0, uses_anonymous_args = 0
 1676              		.loc 1 447 3 view .LVU489
 1677              		.loc 1 447 3 view .LVU490
 1678              		.loc 1 449 3 view .LVU491
 1679              	.LBB513:
 1680              	.LBI513:
 1681              		.loc 2 753 20 view .LVU492
 1682              	.LBE513:
 1683              		.loc 2 755 3 view .LVU493
 1684              	.LBB521:
 1685              	.LBB514:
 1686              	.LBI514:
 1687              		.loc 3 395 20 view .LVU494
 1688              	.LBE514:
 1689              	.LBE521:
 1690              		.loc 3 397 3 view .LVU495
 1691              	.LBB522:
 1692              	.LBB519:
 1693              	.LBB515:
 1694              	.LBI515:
 1695              		.loc 4 548 20 view .LVU496
 1696              	.LBB516:
 1697              		.loc 4 550 3 view .LVU497
 1698              	.LBE516:
 1699              	.LBE515:
 1700              	.LBE519:
 1701              	.LBE522:
 1702              		.loc 1 445 49 is_stmt 0 view .LVU498
 1703 0000 10B5     		push	{r4, lr}
 1704              		.cfi_def_cfa_offset 8
 1705              		.cfi_offset 4, -8
 1706              		.cfi_offset 14, -4
 1707              		.loc 1 453 51 view .LVU499
 1708 0002 1C00     		movs	r4, r3
 1709              		.loc 1 450 18 view .LVU500
 1710 0004 8360     		str	r3, [r0, #8]
ARM GAS  /tmp/ccTxpxgR.s 			page 31


 1711              		.loc 1 455 18 view .LVU501
 1712 0006 C361     		str	r3, [r0, #28]
 1713              		.loc 1 457 18 view .LVU502
 1714 0008 0023     		movs	r3, #0
 1715              	.LVL72:
 1716              		.loc 1 453 32 view .LVU503
 1717 000a 0432     		adds	r2, r2, #4
 1718              	.LVL73:
 1719              		.loc 1 453 51 view .LVU504
 1720 000c 5443     		muls	r4, r2
 1721              	.LVL74:
 1722              		.loc 1 457 18 view .LVU505
 1723 000e 4362     		str	r3, [r0, #36]
 1724              		.loc 1 458 18 view .LVU506
 1725 0010 8362     		str	r3, [r0, #40]
 1726              		.loc 1 459 18 view .LVU507
 1727 0012 029B     		ldr	r3, [sp, #8]
 1728              		.loc 1 453 23 view .LVU508
 1729 0014 0C19     		adds	r4, r1, r4
 1730              		.loc 1 459 18 view .LVU509
 1731 0016 C362     		str	r3, [r0, #44]
 1732              		.loc 1 460 18 view .LVU510
 1733 0018 039B     		ldr	r3, [sp, #12]
 1734              	.LBB523:
 1735              	.LBB520:
 1736              	.LBB518:
 1737              	.LBB517:
 1738              		.loc 4 550 13 view .LVU511
 1739 001a 0060     		str	r0, [r0]
 1740              		.loc 4 551 3 is_stmt 1 view .LVU512
 1741              		.loc 4 551 13 is_stmt 0 view .LVU513
 1742 001c 4060     		str	r0, [r0, #4]
 1743              	.LVL75:
 1744              		.loc 4 551 13 view .LVU514
 1745              	.LBE517:
 1746              	.LBE518:
 1747              	.LBE520:
 1748              	.LBE523:
 1749              		.loc 1 450 3 is_stmt 1 view .LVU515
 1750              		.loc 1 451 3 view .LVU516
 1751              		.loc 1 451 18 is_stmt 0 view .LVU517
 1752 001e 0161     		str	r1, [r0, #16]
 1753              		.loc 1 452 3 is_stmt 1 view .LVU518
 1754              		.loc 1 452 18 is_stmt 0 view .LVU519
 1755 0020 C160     		str	r1, [r0, #12]
 1756              		.loc 1 453 3 is_stmt 1 view .LVU520
 1757              		.loc 1 453 18 is_stmt 0 view .LVU521
 1758 0022 4461     		str	r4, [r0, #20]
 1759              		.loc 1 454 3 is_stmt 1 view .LVU522
 1760              		.loc 1 454 18 is_stmt 0 view .LVU523
 1761 0024 8261     		str	r2, [r0, #24]
 1762              		.loc 1 455 3 is_stmt 1 view .LVU524
 1763              		.loc 1 456 3 view .LVU525
 1764              		.loc 1 456 18 is_stmt 0 view .LVU526
 1765 0026 0162     		str	r1, [r0, #32]
 1766              		.loc 1 457 3 is_stmt 1 view .LVU527
 1767              		.loc 1 458 3 view .LVU528
ARM GAS  /tmp/ccTxpxgR.s 			page 32


 1768              		.loc 1 459 3 view .LVU529
 1769              		.loc 1 460 3 view .LVU530
 1770              		.loc 1 460 18 is_stmt 0 view .LVU531
 1771 0028 0363     		str	r3, [r0, #48]
 1772              		.loc 1 461 1 view .LVU532
 1773              		@ sp needed
 1774 002a 10BD     		pop	{r4, pc}
 1775              		.cfi_endproc
 1776              	.LFE161:
 1777              		.size	obqObjectInit, .-obqObjectInit
 1778              		.section	.text.obqResetI,"ax",%progbits
 1779              		.align	1
 1780              		.p2align 4,,15
 1781              		.global	obqResetI
 1782              		.syntax unified
 1783              		.code	16
 1784              		.thumb_func
 1785              		.fpu softvfp
 1786              		.type	obqResetI, %function
 1787              	obqResetI:
 1788              	.LVL76:
 1789              	.LFB162:
 1790              		.loc 1 474 46 is_stmt 1 view -0
 1791              		.cfi_startproc
 1792              		@ args = 0, pretend = 0, frame = 0
 1793              		@ frame_needed = 0, uses_anonymous_args = 0
 1794              		.loc 1 476 23 view .LVU534
 1795              		.loc 1 478 3 view .LVU535
 1796              		.loc 1 478 18 is_stmt 0 view .LVU536
 1797 0000 C369     		ldr	r3, [r0, #28]
 1798              	.LBB524:
 1799              	.LBB525:
 1800              		.loc 2 810 3 view .LVU537
 1801 0002 0221     		movs	r1, #2
 1802              	.LBE525:
 1803              	.LBE524:
 1804              		.loc 1 478 18 view .LVU538
 1805 0004 8360     		str	r3, [r0, #8]
 1806              		.loc 1 479 3 is_stmt 1 view .LVU539
 1807              		.loc 1 479 24 is_stmt 0 view .LVU540
 1808 0006 036A     		ldr	r3, [r0, #32]
 1809              		.loc 1 474 46 view .LVU541
 1810 0008 10B5     		push	{r4, lr}
 1811              		.cfi_def_cfa_offset 8
 1812              		.cfi_offset 4, -8
 1813              		.cfi_offset 14, -4
 1814              		.loc 1 479 18 view .LVU542
 1815 000a 0361     		str	r3, [r0, #16]
 1816              		.loc 1 480 3 is_stmt 1 view .LVU543
 1817              		.loc 1 480 18 is_stmt 0 view .LVU544
 1818 000c C360     		str	r3, [r0, #12]
 1819              		.loc 1 481 3 is_stmt 1 view .LVU545
 1820              		.loc 1 481 18 is_stmt 0 view .LVU546
 1821 000e 0023     		movs	r3, #0
 1822              	.LBB528:
 1823              	.LBB526:
 1824              		.loc 2 810 3 view .LVU547
ARM GAS  /tmp/ccTxpxgR.s 			page 33


 1825 0010 4942     		rsbs	r1, r1, #0
 1826              	.LBE526:
 1827              	.LBE528:
 1828              		.loc 1 481 18 view .LVU548
 1829 0012 4362     		str	r3, [r0, #36]
 1830              		.loc 1 482 3 is_stmt 1 view .LVU549
 1831              		.loc 1 482 18 is_stmt 0 view .LVU550
 1832 0014 8362     		str	r3, [r0, #40]
 1833              		.loc 1 483 3 is_stmt 1 view .LVU551
 1834              	.LVL77:
 1835              	.LBB529:
 1836              	.LBI524:
 1837              		.loc 2 808 20 view .LVU552
 1838              	.LBB527:
 1839              		.loc 2 810 3 view .LVU553
 1840 0016 FFF7FEFF 		bl	chThdDequeueAllI
 1841              	.LVL78:
 1842              		.loc 2 810 3 is_stmt 0 view .LVU554
 1843              	.LBE527:
 1844              	.LBE529:
 1845              		.loc 1 484 1 view .LVU555
 1846              		@ sp needed
 1847 001a 10BD     		pop	{r4, pc}
 1848              		.cfi_endproc
 1849              	.LFE162:
 1850              		.size	obqResetI, .-obqResetI
 1851              		.section	.text.obqGetFullBufferI,"ax",%progbits
 1852              		.align	1
 1853              		.p2align 4,,15
 1854              		.global	obqGetFullBufferI
 1855              		.syntax unified
 1856              		.code	16
 1857              		.thumb_func
 1858              		.fpu softvfp
 1859              		.type	obqGetFullBufferI, %function
 1860              	obqGetFullBufferI:
 1861              	.LVL79:
 1862              	.LFB163:
 1863              		.loc 1 498 43 is_stmt 1 view -0
 1864              		.cfi_startproc
 1865              		@ args = 0, pretend = 0, frame = 0
 1866              		@ frame_needed = 0, uses_anonymous_args = 0
 1867              		@ link register save eliminated.
 1868              		.loc 1 500 23 view .LVU557
 1869              		.loc 1 502 3 view .LVU558
 1870              		.loc 1 502 7 is_stmt 0 view .LVU559
 1871 0000 0369     		ldr	r3, [r0, #16]
 1872 0002 C268     		ldr	r2, [r0, #12]
 1873 0004 9A42     		cmp	r2, r3
 1874 0006 03D0     		beq	.L73
 1875              	.LVL80:
 1876              	.L68:
 1877              		.loc 1 507 3 is_stmt 1 view .LVU560
 1878              		.loc 1 507 12 is_stmt 0 view .LVU561
 1879 0008 1800     		movs	r0, r3
 1880 000a 08C8     		ldmia	r0!, {r3}
 1881              		.loc 1 507 10 view .LVU562
ARM GAS  /tmp/ccTxpxgR.s 			page 34


 1882 000c 0B60     		str	r3, [r1]
 1883              		.loc 1 509 3 is_stmt 1 view .LVU563
 1884              	.L67:
 1885              		.loc 1 510 1 is_stmt 0 view .LVU564
 1886              		@ sp needed
 1887 000e 7047     		bx	lr
 1888              	.LVL81:
 1889              	.L73:
 1890              		.loc 1 502 7 discriminator 1 view .LVU565
 1891 0010 8268     		ldr	r2, [r0, #8]
 1892              		.loc 1 503 12 discriminator 1 view .LVU566
 1893 0012 0020     		movs	r0, #0
 1894              	.LVL82:
 1895              		.loc 1 502 7 discriminator 1 view .LVU567
 1896 0014 002A     		cmp	r2, #0
 1897 0016 FAD1     		bne	.L67
 1898 0018 F6E7     		b	.L68
 1899              		.cfi_endproc
 1900              	.LFE163:
 1901              		.size	obqGetFullBufferI, .-obqGetFullBufferI
 1902 001a C046     		.section	.text.obqReleaseEmptyBufferI,"ax",%progbits
 1903              		.align	1
 1904              		.p2align 4,,15
 1905              		.global	obqReleaseEmptyBufferI
 1906              		.syntax unified
 1907              		.code	16
 1908              		.thumb_func
 1909              		.fpu softvfp
 1910              		.type	obqReleaseEmptyBufferI, %function
 1911              	obqReleaseEmptyBufferI:
 1912              	.LVL83:
 1913              	.LFB164:
 1914              		.loc 1 519 59 is_stmt 1 view -0
 1915              		.cfi_startproc
 1916              		@ args = 0, pretend = 0, frame = 0
 1917              		@ frame_needed = 0, uses_anonymous_args = 0
 1918              		.loc 1 521 23 view .LVU569
 1919              		.loc 1 522 3 view .LVU570
 1920              		.loc 1 522 3 view .LVU571
 1921              		.loc 1 525 3 view .LVU572
 1922              		.loc 1 526 16 is_stmt 0 view .LVU573
 1923 0000 8269     		ldr	r2, [r0, #24]
 1924              		.loc 1 525 7 view .LVU574
 1925 0002 8368     		ldr	r3, [r0, #8]
 1926              		.loc 1 526 16 view .LVU575
 1927 0004 9446     		mov	ip, r2
 1928              		.loc 1 525 17 view .LVU576
 1929 0006 0133     		adds	r3, r3, #1
 1930 0008 8360     		str	r3, [r0, #8]
 1931              		.loc 1 526 3 is_stmt 1 view .LVU577
 1932              		.loc 1 526 16 is_stmt 0 view .LVU578
 1933 000a 0369     		ldr	r3, [r0, #16]
 1934              		.loc 1 527 6 view .LVU579
 1935 000c 4269     		ldr	r2, [r0, #20]
 1936              		.loc 1 526 16 view .LVU580
 1937 000e 6344     		add	r3, r3, ip
 1938              		.loc 1 519 59 view .LVU581
ARM GAS  /tmp/ccTxpxgR.s 			page 35


 1939 0010 10B5     		push	{r4, lr}
 1940              		.cfi_def_cfa_offset 8
 1941              		.cfi_offset 4, -8
 1942              		.cfi_offset 14, -4
 1943              		.loc 1 526 16 view .LVU582
 1944 0012 0361     		str	r3, [r0, #16]
 1945              		.loc 1 527 3 is_stmt 1 view .LVU583
 1946              		.loc 1 527 6 is_stmt 0 view .LVU584
 1947 0014 9342     		cmp	r3, r2
 1948 0016 01D3     		bcc	.L75
 1949              		.loc 1 528 5 is_stmt 1 view .LVU585
 1950              		.loc 1 528 18 is_stmt 0 view .LVU586
 1951 0018 036A     		ldr	r3, [r0, #32]
 1952 001a 0361     		str	r3, [r0, #16]
 1953              	.L75:
 1954              		.loc 1 532 3 is_stmt 1 view .LVU587
 1955              	.LVL84:
 1956              	.LBB530:
 1957              	.LBI530:
 1958              		.loc 2 795 20 view .LVU588
 1959              	.LBB531:
 1960              		.loc 2 797 3 view .LVU589
 1961 001c 0021     		movs	r1, #0
 1962 001e FFF7FEFF 		bl	chThdDequeueNextI
 1963              	.LVL85:
 1964              		.loc 2 797 3 is_stmt 0 view .LVU590
 1965              	.LBE531:
 1966              	.LBE530:
 1967              		.loc 1 533 1 view .LVU591
 1968              		@ sp needed
 1969 0022 10BD     		pop	{r4, pc}
 1970              		.cfi_endproc
 1971              	.LFE164:
 1972              		.size	obqReleaseEmptyBufferI, .-obqReleaseEmptyBufferI
 1973              		.section	.text.obqGetEmptyBufferTimeoutS,"ax",%progbits
 1974              		.align	1
 1975              		.p2align 4,,15
 1976              		.global	obqGetEmptyBufferTimeoutS
 1977              		.syntax unified
 1978              		.code	16
 1979              		.thumb_func
 1980              		.fpu softvfp
 1981              		.type	obqGetEmptyBufferTimeoutS, %function
 1982              	obqGetEmptyBufferTimeoutS:
 1983              	.LVL86:
 1984              	.LFB166:
 1985              		.loc 1 587 54 is_stmt 1 view -0
 1986              		.cfi_startproc
 1987              		@ args = 0, pretend = 0, frame = 0
 1988              		@ frame_needed = 0, uses_anonymous_args = 0
 1989              		.loc 1 587 54 is_stmt 0 view .LVU593
 1990 0000 70B5     		push	{r4, r5, r6, lr}
 1991              		.cfi_def_cfa_offset 16
 1992              		.cfi_offset 4, -16
 1993              		.cfi_offset 5, -12
 1994              		.cfi_offset 6, -8
 1995              		.cfi_offset 14, -4
ARM GAS  /tmp/ccTxpxgR.s 			page 36


 1996              		.loc 1 587 54 view .LVU594
 1997 0002 0400     		movs	r4, r0
 1998              		.loc 1 589 23 is_stmt 1 view .LVU595
 1999              		.loc 1 591 3 view .LVU596
 2000              		.loc 1 587 54 is_stmt 0 view .LVU597
 2001 0004 0D00     		movs	r5, r1
 2002              		.loc 1 591 9 view .LVU598
 2003 0006 05E0     		b	.L77
 2004              	.LVL87:
 2005              	.L79:
 2006              	.LBB540:
 2007              		.loc 1 592 5 is_stmt 1 view .LVU599
 2008              	.LBB541:
 2009              	.LBI541:
 2010              		.loc 2 781 21 view .LVU600
 2011              	.LBB542:
 2012              		.loc 2 784 3 view .LVU601
 2013              		.loc 2 784 10 is_stmt 0 view .LVU602
 2014 0008 2900     		movs	r1, r5
 2015 000a 2000     		movs	r0, r4
 2016 000c FFF7FEFF 		bl	chThdEnqueueTimeoutS
 2017              	.LVL88:
 2018              		.loc 2 784 10 view .LVU603
 2019              	.LBE542:
 2020              	.LBE541:
 2021              		.loc 1 593 5 is_stmt 1 view .LVU604
 2022              		.loc 1 593 8 is_stmt 0 view .LVU605
 2023 0010 0028     		cmp	r0, #0
 2024 0012 0ADB     		blt	.L76
 2025              	.LVL89:
 2026              	.L77:
 2027              		.loc 1 593 8 view .LVU606
 2028              	.LBE540:
 2029              		.loc 1 591 10 view .LVU607
 2030 0014 A368     		ldr	r3, [r4, #8]
 2031              		.loc 1 591 9 view .LVU608
 2032 0016 002B     		cmp	r3, #0
 2033 0018 F6D0     		beq	.L79
 2034              	.LVL90:
 2035              	.LBB543:
 2036              	.LBI543:
 2037              		.loc 1 586 9 is_stmt 1 view .LVU609
 2038              	.LBB544:
 2039              		.loc 1 598 3 view .LVU610
 2040              		.loc 1 598 3 view .LVU611
 2041              		.loc 1 601 3 view .LVU612
 2042              		.loc 1 601 19 is_stmt 0 view .LVU613
 2043 001a E368     		ldr	r3, [r4, #12]
 2044              		.loc 1 602 13 view .LVU614
 2045 001c 0020     		movs	r0, #0
 2046              		.loc 1 601 28 view .LVU615
 2047 001e 1A1D     		adds	r2, r3, #4
 2048              		.loc 1 601 13 view .LVU616
 2049 0020 6262     		str	r2, [r4, #36]
 2050              		.loc 1 602 3 is_stmt 1 view .LVU617
 2051              		.loc 1 602 28 is_stmt 0 view .LVU618
 2052 0022 A269     		ldr	r2, [r4, #24]
ARM GAS  /tmp/ccTxpxgR.s 			page 37


 2053 0024 9446     		mov	ip, r2
 2054 0026 6344     		add	r3, r3, ip
 2055              		.loc 1 602 13 view .LVU619
 2056 0028 A362     		str	r3, [r4, #40]
 2057              		.loc 1 604 3 is_stmt 1 view .LVU620
 2058              	.LVL91:
 2059              	.L76:
 2060              		.loc 1 604 3 is_stmt 0 view .LVU621
 2061              	.LBE544:
 2062              	.LBE543:
 2063              		.loc 1 605 1 view .LVU622
 2064              		@ sp needed
 2065              	.LVL92:
 2066              	.LVL93:
 2067              		.loc 1 605 1 view .LVU623
 2068 002a 70BD     		pop	{r4, r5, r6, pc}
 2069              		.cfi_endproc
 2070              	.LFE166:
 2071              		.size	obqGetEmptyBufferTimeoutS, .-obqGetEmptyBufferTimeoutS
 2072              		.section	.text.obqGetEmptyBufferTimeout,"ax",%progbits
 2073              		.align	1
 2074              		.p2align 4,,15
 2075              		.global	obqGetEmptyBufferTimeout
 2076              		.syntax unified
 2077              		.code	16
 2078              		.thumb_func
 2079              		.fpu softvfp
 2080              		.type	obqGetEmptyBufferTimeout, %function
 2081              	obqGetEmptyBufferTimeout:
 2082              	.LVL94:
 2083              	.LFB165:
 2084              		.loc 1 556 52 is_stmt 1 view -0
 2085              		.cfi_startproc
 2086              		@ args = 0, pretend = 0, frame = 0
 2087              		@ frame_needed = 0, uses_anonymous_args = 0
 2088              		.loc 1 557 3 view .LVU625
 2089              		.loc 1 559 3 view .LVU626
 2090              	.LBB545:
 2091              	.LBI545:
 2092              		.loc 2 491 20 view .LVU627
 2093              	.LBE545:
 2094              		.loc 2 493 3 view .LVU628
 2095              	.LBB557:
 2096              	.LBB546:
 2097              	.LBI546:
 2098              		.loc 5 374 20 view .LVU629
 2099              	.LBE546:
 2100              	.LBE557:
 2101              		.loc 5 376 3 view .LVU630
 2102              	.LBB558:
 2103              	.LBB554:
 2104              	.LBB547:
 2105              	.LBI547:
 2106              		.loc 6 371 20 view .LVU631
 2107              	.LBE547:
 2108              	.LBE554:
 2109              	.LBE558:
ARM GAS  /tmp/ccTxpxgR.s 			page 38


 2110              		.loc 6 373 3 view .LVU632
 2111              	.LBB559:
 2112              	.LBB555:
 2113              	.LBB552:
 2114              	.LBB548:
 2115              	.LBI548:
 2116              		.loc 7 342 57 view .LVU633
 2117              	.LBB549:
 2118              		.loc 7 344 3 view .LVU634
 2119              	.LBE549:
 2120              	.LBE548:
 2121              	.LBE552:
 2122              	.LBE555:
 2123              	.LBE559:
 2124              		.loc 1 556 52 is_stmt 0 view .LVU635
 2125 0000 10B5     		push	{r4, lr}
 2126              		.cfi_def_cfa_offset 8
 2127              		.cfi_offset 4, -8
 2128              		.cfi_offset 14, -4
 2129              	.LBB560:
 2130              	.LBB556:
 2131              	.LBB553:
 2132              	.LBB551:
 2133              	.LBB550:
 2134              		.loc 7 344 3 view .LVU636
 2135              		.syntax divided
 2136              	@ 344 "ChibiOS/os/common/ext/CMSIS/include/core_cmFunc.h" 1
 2137 0002 72B6     		cpsid i
 2138              	@ 0 "" 2
 2139              		.thumb
 2140              		.syntax unified
 2141              	.LBE550:
 2142              	.LBE551:
 2143              	.LBE553:
 2144              	.LBE556:
 2145              	.LBE560:
 2146              		.loc 5 377 34 is_stmt 1 view .LVU637
 2147              		.loc 5 378 20 view .LVU638
 2148              		.loc 1 560 3 view .LVU639
 2149              		.loc 1 560 9 is_stmt 0 view .LVU640
 2150 0004 FFF7FEFF 		bl	obqGetEmptyBufferTimeoutS
 2151              	.LVL95:
 2152              		.loc 1 561 3 is_stmt 1 view .LVU641
 2153              	.LBB561:
 2154              	.LBI561:
 2155              		.loc 2 502 20 view .LVU642
 2156              	.LBE561:
 2157              		.loc 2 504 3 view .LVU643
 2158              	.LBB570:
 2159              	.LBB562:
 2160              	.LBI562:
 2161              		.loc 5 386 20 view .LVU644
 2162              	.LBB563:
 2163              		.loc 5 388 22 view .LVU645
 2164              		.loc 5 389 33 view .LVU646
 2165              		.loc 5 395 3 view .LVU647
 2166              		.loc 5 395 3 view .LVU648
ARM GAS  /tmp/ccTxpxgR.s 			page 39


 2167              		.loc 5 399 3 view .LVU649
 2168              	.LBB564:
 2169              	.LBI564:
 2170              		.loc 6 380 20 view .LVU650
 2171              	.LBE564:
 2172              	.LBE563:
 2173              	.LBE562:
 2174              	.LBE570:
 2175              		.loc 6 382 3 view .LVU651
 2176              	.LBB571:
 2177              	.LBB569:
 2178              	.LBB568:
 2179              	.LBB567:
 2180              	.LBB565:
 2181              	.LBI565:
 2182              		.loc 7 331 57 view .LVU652
 2183              	.LBB566:
 2184              		.loc 7 333 3 view .LVU653
 2185              		.syntax divided
 2186              	@ 333 "ChibiOS/os/common/ext/CMSIS/include/core_cmFunc.h" 1
 2187 0008 62B6     		cpsie i
 2188              	@ 0 "" 2
 2189              		.thumb
 2190              		.syntax unified
 2191              	.LBE566:
 2192              	.LBE565:
 2193              	.LBE567:
 2194              	.LBE568:
 2195              	.LBE569:
 2196              	.LBE571:
 2197              		.loc 1 563 3 view .LVU654
 2198              		.loc 1 564 1 is_stmt 0 view .LVU655
 2199              		@ sp needed
 2200 000a 10BD     		pop	{r4, pc}
 2201              		.cfi_endproc
 2202              	.LFE165:
 2203              		.size	obqGetEmptyBufferTimeout, .-obqGetEmptyBufferTimeout
 2204              		.section	.text.obqPostFullBuffer,"ax",%progbits
 2205              		.align	1
 2206              		.p2align 4,,15
 2207              		.global	obqPostFullBuffer
 2208              		.syntax unified
 2209              		.code	16
 2210              		.thumb_func
 2211              		.fpu softvfp
 2212              		.type	obqPostFullBuffer, %function
 2213              	obqPostFullBuffer:
 2214              	.LVL96:
 2215              	.LFB167:
 2216              		.loc 1 616 67 is_stmt 1 view -0
 2217              		.cfi_startproc
 2218              		@ args = 0, pretend = 0, frame = 0
 2219              		@ frame_needed = 0, uses_anonymous_args = 0
 2220              		.loc 1 618 3 view .LVU657
 2221              	.LBB572:
 2222              	.LBI572:
 2223              		.loc 2 491 20 view .LVU658
ARM GAS  /tmp/ccTxpxgR.s 			page 40


 2224              	.LBE572:
 2225              		.loc 2 493 3 view .LVU659
 2226              	.LBB584:
 2227              	.LBB573:
 2228              	.LBI573:
 2229              		.loc 5 374 20 view .LVU660
 2230              	.LBE573:
 2231              	.LBE584:
 2232              		.loc 5 376 3 view .LVU661
 2233              	.LBB585:
 2234              	.LBB581:
 2235              	.LBB574:
 2236              	.LBI574:
 2237              		.loc 6 371 20 view .LVU662
 2238              	.LBE574:
 2239              	.LBE581:
 2240              	.LBE585:
 2241              		.loc 6 373 3 view .LVU663
 2242              	.LBB586:
 2243              	.LBB582:
 2244              	.LBB579:
 2245              	.LBB575:
 2246              	.LBI575:
 2247              		.loc 7 342 57 view .LVU664
 2248              	.LBB576:
 2249              		.loc 7 344 3 view .LVU665
 2250              	.LBE576:
 2251              	.LBE575:
 2252              	.LBE579:
 2253              	.LBE582:
 2254              	.LBE586:
 2255              		.loc 1 616 67 is_stmt 0 view .LVU666
 2256 0000 10B5     		push	{r4, lr}
 2257              		.cfi_def_cfa_offset 8
 2258              		.cfi_offset 4, -8
 2259              		.cfi_offset 14, -4
 2260              	.LBB587:
 2261              	.LBB583:
 2262              	.LBB580:
 2263              	.LBB578:
 2264              	.LBB577:
 2265              		.loc 7 344 3 view .LVU667
 2266              		.syntax divided
 2267              	@ 344 "ChibiOS/os/common/ext/CMSIS/include/core_cmFunc.h" 1
 2268 0002 72B6     		cpsid i
 2269              	@ 0 "" 2
 2270              		.thumb
 2271              		.syntax unified
 2272              	.LBE577:
 2273              	.LBE578:
 2274              	.LBE580:
 2275              	.LBE583:
 2276              	.LBE587:
 2277              		.loc 5 377 34 is_stmt 1 view .LVU668
 2278              		.loc 5 378 20 view .LVU669
 2279              		.loc 1 619 3 view .LVU670
 2280              	.LVL97:
ARM GAS  /tmp/ccTxpxgR.s 			page 41


 2281              	.LBB588:
 2282              	.LBI588:
 2283              		.loc 1 632 6 view .LVU671
 2284              	.LBB589:
 2285              		.loc 1 634 23 view .LVU672
 2286              		.loc 1 635 3 view .LVU673
 2287              		.loc 1 635 3 view .LVU674
 2288              		.loc 1 636 3 view .LVU675
 2289              		.loc 1 636 3 view .LVU676
 2290              		.loc 1 639 3 view .LVU677
 2291              		.loc 1 639 19 is_stmt 0 view .LVU678
 2292 0004 C368     		ldr	r3, [r0, #12]
 2293              		.loc 1 639 29 view .LVU679
 2294 0006 1960     		str	r1, [r3]
 2295              		.loc 1 642 3 is_stmt 1 view .LVU680
 2296              		.loc 1 642 7 is_stmt 0 view .LVU681
 2297 0008 8268     		ldr	r2, [r0, #8]
 2298              		.loc 1 642 17 view .LVU682
 2299 000a 013A     		subs	r2, r2, #1
 2300 000c 8260     		str	r2, [r0, #8]
 2301              		.loc 1 643 3 is_stmt 1 view .LVU683
 2302              		.loc 1 643 16 is_stmt 0 view .LVU684
 2303 000e 8269     		ldr	r2, [r0, #24]
 2304 0010 9446     		mov	ip, r2
 2305              		.loc 1 644 6 view .LVU685
 2306 0012 4269     		ldr	r2, [r0, #20]
 2307              		.loc 1 643 16 view .LVU686
 2308 0014 6344     		add	r3, r3, ip
 2309 0016 C360     		str	r3, [r0, #12]
 2310              		.loc 1 644 3 is_stmt 1 view .LVU687
 2311              		.loc 1 644 6 is_stmt 0 view .LVU688
 2312 0018 9342     		cmp	r3, r2
 2313 001a 01D3     		bcc	.L82
 2314              		.loc 1 645 5 is_stmt 1 view .LVU689
 2315              		.loc 1 645 18 is_stmt 0 view .LVU690
 2316 001c 036A     		ldr	r3, [r0, #32]
 2317 001e C360     		str	r3, [r0, #12]
 2318              	.L82:
 2319              		.loc 1 649 3 is_stmt 1 view .LVU691
 2320              		.loc 1 649 13 is_stmt 0 view .LVU692
 2321 0020 0023     		movs	r3, #0
 2322 0022 4362     		str	r3, [r0, #36]
 2323              		.loc 1 652 3 is_stmt 1 view .LVU693
 2324              		.loc 1 652 11 is_stmt 0 view .LVU694
 2325 0024 C36A     		ldr	r3, [r0, #44]
 2326              		.loc 1 652 6 view .LVU695
 2327 0026 002B     		cmp	r3, #0
 2328 0028 00D0     		beq	.L83
 2329              		.loc 1 653 5 is_stmt 1 view .LVU696
 2330 002a 9847     		blx	r3
 2331              	.LVL98:
 2332              	.L83:
 2333              		.loc 1 653 5 is_stmt 0 view .LVU697
 2334              	.LBE589:
 2335              	.LBE588:
 2336              		.loc 1 620 3 is_stmt 1 view .LVU698
 2337              	.LBB590:
ARM GAS  /tmp/ccTxpxgR.s 			page 42


 2338              	.LBI590:
 2339              		.loc 2 502 20 view .LVU699
 2340              	.LBE590:
 2341              		.loc 2 504 3 view .LVU700
 2342              	.LBB599:
 2343              	.LBB591:
 2344              	.LBI591:
 2345              		.loc 5 386 20 view .LVU701
 2346              	.LBB592:
 2347              		.loc 5 388 22 view .LVU702
 2348              		.loc 5 389 33 view .LVU703
 2349              		.loc 5 395 3 view .LVU704
 2350              		.loc 5 395 3 view .LVU705
 2351              		.loc 5 399 3 view .LVU706
 2352              	.LBB593:
 2353              	.LBI593:
 2354              		.loc 6 380 20 view .LVU707
 2355              	.LBE593:
 2356              	.LBE592:
 2357              	.LBE591:
 2358              	.LBE599:
 2359              		.loc 6 382 3 view .LVU708
 2360              	.LBB600:
 2361              	.LBB598:
 2362              	.LBB597:
 2363              	.LBB596:
 2364              	.LBB594:
 2365              	.LBI594:
 2366              		.loc 7 331 57 view .LVU709
 2367              	.LBB595:
 2368              		.loc 7 333 3 view .LVU710
 2369              		.syntax divided
 2370              	@ 333 "ChibiOS/os/common/ext/CMSIS/include/core_cmFunc.h" 1
 2371 002c 62B6     		cpsie i
 2372              	@ 0 "" 2
 2373              		.thumb
 2374              		.syntax unified
 2375              	.LBE595:
 2376              	.LBE594:
 2377              	.LBE596:
 2378              	.LBE597:
 2379              	.LBE598:
 2380              	.LBE600:
 2381              		.loc 1 621 1 is_stmt 0 view .LVU711
 2382              		@ sp needed
 2383 002e 10BD     		pop	{r4, pc}
 2384              		.cfi_endproc
 2385              	.LFE167:
 2386              		.size	obqPostFullBuffer, .-obqPostFullBuffer
 2387              		.section	.text.obqPostFullBufferS,"ax",%progbits
 2388              		.align	1
 2389              		.p2align 4,,15
 2390              		.global	obqPostFullBufferS
 2391              		.syntax unified
 2392              		.code	16
 2393              		.thumb_func
 2394              		.fpu softvfp
ARM GAS  /tmp/ccTxpxgR.s 			page 43


 2395              		.type	obqPostFullBufferS, %function
 2396              	obqPostFullBufferS:
 2397              	.LVL99:
 2398              	.LFB168:
 2399              		.loc 1 632 68 is_stmt 1 view -0
 2400              		.cfi_startproc
 2401              		@ args = 0, pretend = 0, frame = 0
 2402              		@ frame_needed = 0, uses_anonymous_args = 0
 2403              		.loc 1 634 23 view .LVU713
 2404              		.loc 1 635 3 view .LVU714
 2405              		.loc 1 635 3 view .LVU715
 2406              		.loc 1 636 3 view .LVU716
 2407              		.loc 1 636 3 view .LVU717
 2408              		.loc 1 639 3 view .LVU718
 2409              		.loc 1 639 19 is_stmt 0 view .LVU719
 2410 0000 C368     		ldr	r3, [r0, #12]
 2411              		.loc 1 632 68 view .LVU720
 2412 0002 10B5     		push	{r4, lr}
 2413              		.cfi_def_cfa_offset 8
 2414              		.cfi_offset 4, -8
 2415              		.cfi_offset 14, -4
 2416              		.loc 1 639 29 view .LVU721
 2417 0004 1960     		str	r1, [r3]
 2418              		.loc 1 642 3 is_stmt 1 view .LVU722
 2419              		.loc 1 642 7 is_stmt 0 view .LVU723
 2420 0006 8268     		ldr	r2, [r0, #8]
 2421              		.loc 1 642 17 view .LVU724
 2422 0008 013A     		subs	r2, r2, #1
 2423 000a 8260     		str	r2, [r0, #8]
 2424              		.loc 1 643 3 is_stmt 1 view .LVU725
 2425              		.loc 1 643 16 is_stmt 0 view .LVU726
 2426 000c 8269     		ldr	r2, [r0, #24]
 2427 000e 9446     		mov	ip, r2
 2428              		.loc 1 644 6 view .LVU727
 2429 0010 4269     		ldr	r2, [r0, #20]
 2430              		.loc 1 643 16 view .LVU728
 2431 0012 6344     		add	r3, r3, ip
 2432 0014 C360     		str	r3, [r0, #12]
 2433              		.loc 1 644 3 is_stmt 1 view .LVU729
 2434              		.loc 1 644 6 is_stmt 0 view .LVU730
 2435 0016 9342     		cmp	r3, r2
 2436 0018 01D3     		bcc	.L88
 2437              		.loc 1 645 5 is_stmt 1 view .LVU731
 2438              		.loc 1 645 18 is_stmt 0 view .LVU732
 2439 001a 036A     		ldr	r3, [r0, #32]
 2440 001c C360     		str	r3, [r0, #12]
 2441              	.L88:
 2442              		.loc 1 649 3 is_stmt 1 view .LVU733
 2443              		.loc 1 649 13 is_stmt 0 view .LVU734
 2444 001e 0023     		movs	r3, #0
 2445 0020 4362     		str	r3, [r0, #36]
 2446              		.loc 1 652 3 is_stmt 1 view .LVU735
 2447              		.loc 1 652 11 is_stmt 0 view .LVU736
 2448 0022 C36A     		ldr	r3, [r0, #44]
 2449              		.loc 1 652 6 view .LVU737
 2450 0024 002B     		cmp	r3, #0
 2451 0026 00D0     		beq	.L87
ARM GAS  /tmp/ccTxpxgR.s 			page 44


 2452              		.loc 1 653 5 is_stmt 1 view .LVU738
 2453 0028 9847     		blx	r3
 2454              	.LVL100:
 2455              	.L87:
 2456              		.loc 1 655 1 is_stmt 0 view .LVU739
 2457              		@ sp needed
 2458 002a 10BD     		pop	{r4, pc}
 2459              		.cfi_endproc
 2460              	.LFE168:
 2461              		.size	obqPostFullBufferS, .-obqPostFullBufferS
 2462              		.section	.text.obqPutTimeout,"ax",%progbits
 2463              		.align	1
 2464              		.p2align 4,,15
 2465              		.global	obqPutTimeout
 2466              		.syntax unified
 2467              		.code	16
 2468              		.thumb_func
 2469              		.fpu softvfp
 2470              		.type	obqPutTimeout, %function
 2471              	obqPutTimeout:
 2472              	.LVL101:
 2473              	.LFB169:
 2474              		.loc 1 677 40 is_stmt 1 view -0
 2475              		.cfi_startproc
 2476              		@ args = 0, pretend = 0, frame = 0
 2477              		@ frame_needed = 0, uses_anonymous_args = 0
 2478              		.loc 1 678 3 view .LVU741
 2479              		.loc 1 680 3 view .LVU742
 2480              	.LBB601:
 2481              	.LBI601:
 2482              		.loc 2 491 20 view .LVU743
 2483              	.LBE601:
 2484              		.loc 2 493 3 view .LVU744
 2485              	.LBB613:
 2486              	.LBB602:
 2487              	.LBI602:
 2488              		.loc 5 374 20 view .LVU745
 2489              	.LBE602:
 2490              	.LBE613:
 2491              		.loc 5 376 3 view .LVU746
 2492              	.LBB614:
 2493              	.LBB610:
 2494              	.LBB603:
 2495              	.LBI603:
 2496              		.loc 6 371 20 view .LVU747
 2497              	.LBE603:
 2498              	.LBE610:
 2499              	.LBE614:
 2500              		.loc 6 373 3 view .LVU748
 2501              	.LBB615:
 2502              	.LBB611:
 2503              	.LBB608:
 2504              	.LBB604:
 2505              	.LBI604:
 2506              		.loc 7 342 57 view .LVU749
 2507              	.LBB605:
 2508              		.loc 7 344 3 view .LVU750
ARM GAS  /tmp/ccTxpxgR.s 			page 45


 2509              	.LBE605:
 2510              	.LBE604:
 2511              	.LBE608:
 2512              	.LBE611:
 2513              	.LBE615:
 2514              		.loc 1 677 40 is_stmt 0 view .LVU751
 2515 0000 70B5     		push	{r4, r5, r6, lr}
 2516              		.cfi_def_cfa_offset 16
 2517              		.cfi_offset 4, -16
 2518              		.cfi_offset 5, -12
 2519              		.cfi_offset 6, -8
 2520              		.cfi_offset 14, -4
 2521              		.loc 1 677 40 view .LVU752
 2522 0002 0400     		movs	r4, r0
 2523 0004 0D00     		movs	r5, r1
 2524              	.LBB616:
 2525              	.LBB612:
 2526              	.LBB609:
 2527              	.LBB607:
 2528              	.LBB606:
 2529              		.loc 7 344 3 view .LVU753
 2530              		.syntax divided
 2531              	@ 344 "ChibiOS/os/common/ext/CMSIS/include/core_cmFunc.h" 1
 2532 0006 72B6     		cpsid i
 2533              	@ 0 "" 2
 2534              		.thumb
 2535              		.syntax unified
 2536              	.LBE606:
 2537              	.LBE607:
 2538              	.LBE609:
 2539              	.LBE612:
 2540              	.LBE616:
 2541              		.loc 5 377 34 is_stmt 1 view .LVU754
 2542              		.loc 5 378 20 view .LVU755
 2543              		.loc 1 683 3 view .LVU756
 2544              		.loc 1 683 11 is_stmt 0 view .LVU757
 2545 0008 436A     		ldr	r3, [r0, #36]
 2546              		.loc 1 683 6 view .LVU758
 2547 000a 002B     		cmp	r3, #0
 2548 000c 20D0     		beq	.L104
 2549              	.LVL102:
 2550              	.L94:
 2551              		.loc 1 692 3 is_stmt 1 view .LVU759
 2552              		.loc 1 692 14 is_stmt 0 view .LVU760
 2553 000e 1D70     		strb	r5, [r3]
 2554              		.loc 1 693 3 is_stmt 1 view .LVU761
 2555              		.loc 1 693 12 is_stmt 0 view .LVU762
 2556 0010 636A     		ldr	r3, [r4, #36]
 2557              		.loc 1 697 6 view .LVU763
 2558 0012 A26A     		ldr	r2, [r4, #40]
 2559              		.loc 1 693 12 view .LVU764
 2560 0014 0133     		adds	r3, r3, #1
 2561 0016 6362     		str	r3, [r4, #36]
 2562              		.loc 1 697 3 is_stmt 1 view .LVU765
 2563              		.loc 1 697 6 is_stmt 0 view .LVU766
 2564 0018 9342     		cmp	r3, r2
 2565 001a 16D3     		bcc	.L98
ARM GAS  /tmp/ccTxpxgR.s 			page 46


 2566              		.loc 1 698 5 is_stmt 1 view .LVU767
 2567              	.LVL103:
 2568              	.LBB617:
 2569              	.LBI617:
 2570              		.loc 1 632 6 view .LVU768
 2571              	.LBB618:
 2572              		.loc 1 634 23 view .LVU769
 2573              		.loc 1 635 3 view .LVU770
 2574              		.loc 1 635 3 view .LVU771
 2575              		.loc 1 636 3 view .LVU772
 2576              		.loc 1 636 3 view .LVU773
 2577              		.loc 1 639 3 view .LVU774
 2578              	.LBE618:
 2579              	.LBE617:
 2580              		.loc 1 698 5 is_stmt 0 view .LVU775
 2581 001c A269     		ldr	r2, [r4, #24]
 2582              	.LBB621:
 2583              	.LBB619:
 2584              		.loc 1 639 19 view .LVU776
 2585 001e E368     		ldr	r3, [r4, #12]
 2586              	.LBE619:
 2587              	.LBE621:
 2588              		.loc 1 698 5 view .LVU777
 2589 0020 043A     		subs	r2, r2, #4
 2590              	.LVL104:
 2591              	.LBB622:
 2592              	.LBB620:
 2593              		.loc 1 639 29 view .LVU778
 2594 0022 1A60     		str	r2, [r3]
 2595              		.loc 1 642 3 is_stmt 1 view .LVU779
 2596              		.loc 1 642 7 is_stmt 0 view .LVU780
 2597 0024 A268     		ldr	r2, [r4, #8]
 2598              	.LVL105:
 2599              		.loc 1 642 17 view .LVU781
 2600 0026 013A     		subs	r2, r2, #1
 2601 0028 A260     		str	r2, [r4, #8]
 2602              	.LVL106:
 2603              		.loc 1 643 3 is_stmt 1 view .LVU782
 2604              		.loc 1 643 16 is_stmt 0 view .LVU783
 2605 002a A269     		ldr	r2, [r4, #24]
 2606 002c 9446     		mov	ip, r2
 2607              		.loc 1 644 6 view .LVU784
 2608 002e 6269     		ldr	r2, [r4, #20]
 2609              		.loc 1 643 16 view .LVU785
 2610 0030 6344     		add	r3, r3, ip
 2611 0032 E360     		str	r3, [r4, #12]
 2612              		.loc 1 644 3 is_stmt 1 view .LVU786
 2613              		.loc 1 644 6 is_stmt 0 view .LVU787
 2614 0034 9342     		cmp	r3, r2
 2615 0036 01D3     		bcc	.L99
 2616              		.loc 1 645 5 is_stmt 1 view .LVU788
 2617              		.loc 1 645 18 is_stmt 0 view .LVU789
 2618 0038 236A     		ldr	r3, [r4, #32]
 2619 003a E360     		str	r3, [r4, #12]
 2620              	.L99:
 2621              		.loc 1 649 3 is_stmt 1 view .LVU790
 2622              		.loc 1 649 13 is_stmt 0 view .LVU791
ARM GAS  /tmp/ccTxpxgR.s 			page 47


 2623 003c 0023     		movs	r3, #0
 2624 003e 6362     		str	r3, [r4, #36]
 2625              		.loc 1 652 3 is_stmt 1 view .LVU792
 2626              		.loc 1 652 11 is_stmt 0 view .LVU793
 2627 0040 E36A     		ldr	r3, [r4, #44]
 2628              		.loc 1 652 6 view .LVU794
 2629 0042 002B     		cmp	r3, #0
 2630 0044 01D0     		beq	.L98
 2631              		.loc 1 653 5 is_stmt 1 view .LVU795
 2632 0046 2000     		movs	r0, r4
 2633 0048 9847     		blx	r3
 2634              	.LVL107:
 2635              	.L98:
 2636              		.loc 1 653 5 is_stmt 0 view .LVU796
 2637              	.LBE620:
 2638              	.LBE622:
 2639              		.loc 1 701 3 is_stmt 1 view .LVU797
 2640              	.LBB623:
 2641              	.LBI623:
 2642              		.loc 2 502 20 view .LVU798
 2643              	.LBE623:
 2644              		.loc 2 504 3 view .LVU799
 2645              	.LBB632:
 2646              	.LBB624:
 2647              	.LBI624:
 2648              		.loc 5 386 20 view .LVU800
 2649              	.LBB625:
 2650              		.loc 5 388 22 view .LVU801
 2651              		.loc 5 389 33 view .LVU802
 2652              		.loc 5 395 3 view .LVU803
 2653              		.loc 5 395 3 view .LVU804
 2654              		.loc 5 399 3 view .LVU805
 2655              	.LBB626:
 2656              	.LBI626:
 2657              		.loc 6 380 20 view .LVU806
 2658              	.LBE626:
 2659              	.LBE625:
 2660              	.LBE624:
 2661              	.LBE632:
 2662              		.loc 6 382 3 view .LVU807
 2663              	.LBB633:
 2664              	.LBB631:
 2665              	.LBB630:
 2666              	.LBB629:
 2667              	.LBB627:
 2668              	.LBI627:
 2669              		.loc 7 331 57 view .LVU808
 2670              	.LBB628:
 2671              		.loc 7 333 3 view .LVU809
 2672              		.syntax divided
 2673              	@ 333 "ChibiOS/os/common/ext/CMSIS/include/core_cmFunc.h" 1
 2674 004a 62B6     		cpsie i
 2675              	@ 0 "" 2
 2676              		.thumb
 2677              		.syntax unified
 2678              	.LBE628:
 2679              	.LBE627:
ARM GAS  /tmp/ccTxpxgR.s 			page 48


 2680              	.LBE629:
 2681              	.LBE630:
 2682              	.LBE631:
 2683              	.LBE633:
 2684              		.loc 1 702 3 view .LVU810
 2685              		.loc 1 702 10 is_stmt 0 view .LVU811
 2686 004c 0020     		movs	r0, #0
 2687              	.L93:
 2688              		.loc 1 703 1 view .LVU812
 2689              		@ sp needed
 2690              	.LVL108:
 2691              		.loc 1 703 1 view .LVU813
 2692 004e 70BD     		pop	{r4, r5, r6, pc}
 2693              	.LVL109:
 2694              	.L104:
 2695              		.loc 1 684 5 is_stmt 1 view .LVU814
 2696              		.loc 1 684 11 is_stmt 0 view .LVU815
 2697 0050 1100     		movs	r1, r2
 2698              	.LVL110:
 2699              		.loc 1 684 11 view .LVU816
 2700 0052 FFF7FEFF 		bl	obqGetEmptyBufferTimeoutS
 2701              	.LVL111:
 2702              		.loc 1 685 5 is_stmt 1 view .LVU817
 2703              		.loc 1 685 8 is_stmt 0 view .LVU818
 2704 0056 0028     		cmp	r0, #0
 2705 0058 01D1     		bne	.L95
 2706 005a 636A     		ldr	r3, [r4, #36]
 2707 005c D7E7     		b	.L94
 2708              	.L95:
 2709              		.loc 1 686 7 is_stmt 1 view .LVU819
 2710              	.LBB634:
 2711              	.LBI634:
 2712              		.loc 2 502 20 view .LVU820
 2713              	.LBE634:
 2714              		.loc 2 504 3 view .LVU821
 2715              	.LBB643:
 2716              	.LBB635:
 2717              	.LBI635:
 2718              		.loc 5 386 20 view .LVU822
 2719              	.LBB636:
 2720              		.loc 5 388 22 view .LVU823
 2721              		.loc 5 389 33 view .LVU824
 2722              		.loc 5 395 3 view .LVU825
 2723              		.loc 5 395 3 view .LVU826
 2724              		.loc 5 399 3 view .LVU827
 2725              	.LBB637:
 2726              	.LBI637:
 2727              		.loc 6 380 20 view .LVU828
 2728              	.LBE637:
 2729              	.LBE636:
 2730              	.LBE635:
 2731              	.LBE643:
 2732              		.loc 6 382 3 view .LVU829
 2733              	.LBB644:
 2734              	.LBB642:
 2735              	.LBB641:
 2736              	.LBB640:
ARM GAS  /tmp/ccTxpxgR.s 			page 49


 2737              	.LBB638:
 2738              	.LBI638:
 2739              		.loc 7 331 57 view .LVU830
 2740              	.LBB639:
 2741              		.loc 7 333 3 view .LVU831
 2742              		.syntax divided
 2743              	@ 333 "ChibiOS/os/common/ext/CMSIS/include/core_cmFunc.h" 1
 2744 005e 62B6     		cpsie i
 2745              	@ 0 "" 2
 2746              		.thumb
 2747              		.syntax unified
 2748              	.LBE639:
 2749              	.LBE638:
 2750              	.LBE640:
 2751              	.LBE641:
 2752              	.LBE642:
 2753              	.LBE644:
 2754              		.loc 1 687 7 view .LVU832
 2755              		.loc 1 687 14 is_stmt 0 view .LVU833
 2756 0060 F5E7     		b	.L93
 2757              		.cfi_endproc
 2758              	.LFE169:
 2759              		.size	obqPutTimeout, .-obqPutTimeout
 2760 0062 C046     		.section	.text.obqWriteTimeout,"ax",%progbits
 2761              		.align	1
 2762              		.p2align 4,,15
 2763              		.global	obqWriteTimeout
 2764              		.syntax unified
 2765              		.code	16
 2766              		.thumb_func
 2767              		.fpu softvfp
 2768              		.type	obqWriteTimeout, %function
 2769              	obqWriteTimeout:
 2770              	.LVL112:
 2771              	.LFB170:
 2772              		.loc 1 727 53 is_stmt 1 view -0
 2773              		.cfi_startproc
 2774              		@ args = 0, pretend = 0, frame = 8
 2775              		@ frame_needed = 0, uses_anonymous_args = 0
 2776              		.loc 1 728 3 view .LVU835
 2777              		.loc 1 729 3 view .LVU836
 2778              		.loc 1 731 3 view .LVU837
 2779              		.loc 1 731 3 view .LVU838
 2780              		.loc 1 733 3 view .LVU839
 2781              	.LBB645:
 2782              	.LBI645:
 2783              		.loc 2 491 20 view .LVU840
 2784              	.LBE645:
 2785              		.loc 2 493 3 view .LVU841
 2786              	.LBB657:
 2787              	.LBB646:
 2788              	.LBI646:
 2789              		.loc 5 374 20 view .LVU842
 2790              	.LBE646:
 2791              	.LBE657:
 2792              		.loc 5 376 3 view .LVU843
 2793              	.LBB658:
ARM GAS  /tmp/ccTxpxgR.s 			page 50


 2794              	.LBB654:
 2795              	.LBB647:
 2796              	.LBI647:
 2797              		.loc 6 371 20 view .LVU844
 2798              	.LBE647:
 2799              	.LBE654:
 2800              	.LBE658:
 2801              		.loc 6 373 3 view .LVU845
 2802              	.LBB659:
 2803              	.LBB655:
 2804              	.LBB652:
 2805              	.LBB648:
 2806              	.LBI648:
 2807              		.loc 7 342 57 view .LVU846
 2808              	.LBB649:
 2809              		.loc 7 344 3 view .LVU847
 2810              	.LBE649:
 2811              	.LBE648:
 2812              	.LBE652:
 2813              	.LBE655:
 2814              	.LBE659:
 2815              		.loc 1 727 53 is_stmt 0 view .LVU848
 2816 0000 F0B5     		push	{r4, r5, r6, r7, lr}
 2817              		.cfi_def_cfa_offset 20
 2818              		.cfi_offset 4, -20
 2819              		.cfi_offset 5, -16
 2820              		.cfi_offset 6, -12
 2821              		.cfi_offset 7, -8
 2822              		.cfi_offset 14, -4
 2823 0002 5746     		mov	r7, r10
 2824 0004 4546     		mov	r5, r8
 2825 0006 DE46     		mov	lr, fp
 2826 0008 4E46     		mov	r6, r9
 2827 000a E0B5     		push	{r5, r6, r7, lr}
 2828              		.cfi_def_cfa_offset 36
 2829              		.cfi_offset 8, -36
 2830              		.cfi_offset 9, -32
 2831              		.cfi_offset 10, -28
 2832              		.cfi_offset 11, -24
 2833 000c 0400     		movs	r4, r0
 2834 000e 83B0     		sub	sp, sp, #12
 2835              		.cfi_def_cfa_offset 48
 2836              		.loc 1 727 53 view .LVU849
 2837 0010 0F00     		movs	r7, r1
 2838 0012 9046     		mov	r8, r2
 2839 0014 9A46     		mov	r10, r3
 2840              	.LBB660:
 2841              	.LBB656:
 2842              	.LBB653:
 2843              	.LBB651:
 2844              	.LBB650:
 2845              		.loc 7 344 3 view .LVU850
 2846              		.syntax divided
 2847              	@ 344 "ChibiOS/os/common/ext/CMSIS/include/core_cmFunc.h" 1
 2848 0016 72B6     		cpsid i
 2849              	@ 0 "" 2
 2850              		.thumb
ARM GAS  /tmp/ccTxpxgR.s 			page 51


 2851              		.syntax unified
 2852              	.LBE650:
 2853              	.LBE651:
 2854              	.LBE653:
 2855              	.LBE656:
 2856              	.LBE660:
 2857              		.loc 5 377 34 is_stmt 1 view .LVU851
 2858              		.loc 5 378 20 view .LVU852
 2859              		.loc 1 736 3 view .LVU853
 2860              	.LBB661:
 2861              	.LBI661:
 2862              		.loc 2 616 25 view .LVU854
 2863              	.LBE661:
 2864              		.loc 2 618 3 view .LVU855
 2865              	.LBB669:
 2866              	.LBB662:
 2867              	.LBI662:
 2868              		.loc 8 228 25 view .LVU856
 2869              	.LBE662:
 2870              	.LBE669:
 2871              		.loc 8 233 3 view .LVU857
 2872              	.LBB670:
 2873              	.LBB667:
 2874              	.LBB663:
 2875              	.LBI663:
 2876              		.loc 9 105 25 view .LVU858
 2877              	.LBE663:
 2878              	.LBE667:
 2879              	.LBE670:
 2880              		.loc 9 107 3 view .LVU859
 2881              	.LBB671:
 2882              	.LBB668:
 2883              	.LBB666:
 2884              	.LBB664:
 2885              	.LBI664:
 2886              		.loc 10 139 25 view .LVU860
 2887              	.LBB665:
 2888              		.loc 10 141 3 view .LVU861
 2889              		.loc 10 141 10 is_stmt 0 view .LVU862
 2890 0018 8023     		movs	r3, #128
 2891              	.LVL113:
 2892              		.loc 10 141 10 view .LVU863
 2893 001a DB05     		lsls	r3, r3, #23
 2894 001c 5A6A     		ldr	r2, [r3, #36]
 2895              	.LVL114:
 2896              		.loc 10 141 10 view .LVU864
 2897              	.LBE665:
 2898              	.LBE664:
 2899              	.LBE666:
 2900              	.LBE668:
 2901              	.LBE671:
 2902              	.LBB672:
 2903              	.LBB673:
 2904              	.LBB674:
 2905              	.LBB675:
 2906              	.LBB676:
 2907              	.LBB677:
ARM GAS  /tmp/ccTxpxgR.s 			page 52


 2908              	.LBB678:
 2909              	.LBB679:
 2910 001e 9B46     		mov	fp, r3
 2911              	.LBE679:
 2912              	.LBE678:
 2913              	.LBE677:
 2914              	.LBE676:
 2915              	.LBE675:
 2916              	.LBE674:
 2917              	.LBE673:
 2918              	.LBE672:
 2919              		.loc 1 736 12 view .LVU865
 2920 0020 5244     		add	r2, r2, r10
 2921 0022 0192     		str	r2, [sp, #4]
 2922              	.LVL115:
 2923              	.LBB747:
 2924              	.LBB706:
 2925              		.loc 1 747 38 view .LVU866
 2926 0024 5246     		mov	r2, r10
 2927              	.LVL116:
 2928              		.loc 1 747 38 view .LVU867
 2929              	.LBE706:
 2930              	.LBB707:
 2931              	.LBB708:
 2932              		.loc 1 649 13 view .LVU868
 2933 0026 0023     		movs	r3, #0
 2934              	.LBE708:
 2935              	.LBE707:
 2936              	.LBB713:
 2937              		.loc 1 747 38 view .LVU869
 2938 0028 013A     		subs	r2, r2, #1
 2939              	.LBE713:
 2940              	.LBE747:
 2941              		.loc 1 728 10 view .LVU870
 2942 002a 0026     		movs	r6, #0
 2943              	.LBB748:
 2944              	.LBB714:
 2945              		.loc 1 747 38 view .LVU871
 2946 002c 0092     		str	r2, [sp]
 2947              	.LBE714:
 2948              	.LBB715:
 2949              	.LBB709:
 2950              		.loc 1 649 13 view .LVU872
 2951 002e 9946     		mov	r9, r3
 2952 0030 26E0     		b	.L119
 2953              	.LVL117:
 2954              	.L125:
 2955              		.loc 1 649 13 view .LVU873
 2956              	.LBE709:
 2957              	.LBE715:
 2958              		.loc 1 780 7 is_stmt 1 view .LVU874
 2959 0032 3900     		movs	r1, r7
 2960 0034 4022     		movs	r2, #64
 2961              	.LVL118:
 2962              		.loc 1 780 7 is_stmt 0 view .LVU875
 2963 0036 FFF7FEFF 		bl	memcpy
 2964              	.LVL119:
ARM GAS  /tmp/ccTxpxgR.s 			page 53


 2965              		.loc 1 781 7 is_stmt 1 view .LVU876
 2966              		.loc 1 782 17 is_stmt 0 view .LVU877
 2967 003a 636A     		ldr	r3, [r4, #36]
 2968              		.loc 1 781 17 view .LVU878
 2969 003c 4037     		adds	r7, r7, #64
 2970              	.LVL120:
 2971              		.loc 1 782 7 is_stmt 1 view .LVU879
 2972              		.loc 1 782 17 is_stmt 0 view .LVU880
 2973 003e 4033     		adds	r3, r3, #64
 2974 0040 6362     		str	r3, [r4, #36]
 2975              		.loc 1 783 7 is_stmt 1 view .LVU881
 2976              		.loc 1 783 17 is_stmt 0 view .LVU882
 2977 0042 4036     		adds	r6, r6, #64
 2978              	.LVL121:
 2979              	.L114:
 2980              		.loc 1 793 5 is_stmt 1 view .LVU883
 2981              		.loc 1 793 8 is_stmt 0 view .LVU884
 2982 0044 A26A     		ldr	r2, [r4, #40]
 2983 0046 9A42     		cmp	r2, r3
 2984 0048 16D8     		bhi	.L116
 2985              		.loc 1 794 7 is_stmt 1 view .LVU885
 2986              	.LVL122:
 2987              	.LBB716:
 2988              	.LBI707:
 2989              		.loc 1 632 6 view .LVU886
 2990              	.LBB710:
 2991              		.loc 1 634 23 view .LVU887
 2992              		.loc 1 635 3 view .LVU888
 2993              		.loc 1 635 3 view .LVU889
 2994              		.loc 1 636 3 view .LVU890
 2995              		.loc 1 636 3 view .LVU891
 2996              		.loc 1 639 3 view .LVU892
 2997              	.LBE710:
 2998              	.LBE716:
 2999              		.loc 1 794 7 is_stmt 0 view .LVU893
 3000 004a A269     		ldr	r2, [r4, #24]
 3001              	.LBB717:
 3002              	.LBB711:
 3003              		.loc 1 639 19 view .LVU894
 3004 004c E368     		ldr	r3, [r4, #12]
 3005              	.LBE711:
 3006              	.LBE717:
 3007              		.loc 1 794 7 view .LVU895
 3008 004e 043A     		subs	r2, r2, #4
 3009              	.LVL123:
 3010              	.LBB718:
 3011              	.LBB712:
 3012              		.loc 1 639 29 view .LVU896
 3013 0050 1A60     		str	r2, [r3]
 3014              		.loc 1 642 3 is_stmt 1 view .LVU897
 3015              		.loc 1 642 7 is_stmt 0 view .LVU898
 3016 0052 A268     		ldr	r2, [r4, #8]
 3017              	.LVL124:
 3018              		.loc 1 642 17 view .LVU899
 3019 0054 013A     		subs	r2, r2, #1
 3020 0056 A260     		str	r2, [r4, #8]
 3021              	.LVL125:
ARM GAS  /tmp/ccTxpxgR.s 			page 54


 3022              		.loc 1 643 3 is_stmt 1 view .LVU900
 3023              		.loc 1 643 16 is_stmt 0 view .LVU901
 3024 0058 A269     		ldr	r2, [r4, #24]
 3025 005a 9446     		mov	ip, r2
 3026              		.loc 1 644 6 view .LVU902
 3027 005c 6269     		ldr	r2, [r4, #20]
 3028              		.loc 1 643 16 view .LVU903
 3029 005e 6344     		add	r3, r3, ip
 3030 0060 E360     		str	r3, [r4, #12]
 3031              		.loc 1 644 3 is_stmt 1 view .LVU904
 3032              		.loc 1 644 6 is_stmt 0 view .LVU905
 3033 0062 9342     		cmp	r3, r2
 3034 0064 01D3     		bcc	.L117
 3035              		.loc 1 645 5 is_stmt 1 view .LVU906
 3036              		.loc 1 645 18 is_stmt 0 view .LVU907
 3037 0066 236A     		ldr	r3, [r4, #32]
 3038 0068 E360     		str	r3, [r4, #12]
 3039              	.L117:
 3040              		.loc 1 649 3 is_stmt 1 view .LVU908
 3041              		.loc 1 649 13 is_stmt 0 view .LVU909
 3042 006a 4B46     		mov	r3, r9
 3043 006c 6362     		str	r3, [r4, #36]
 3044              		.loc 1 652 3 is_stmt 1 view .LVU910
 3045              		.loc 1 652 11 is_stmt 0 view .LVU911
 3046 006e E36A     		ldr	r3, [r4, #44]
 3047              		.loc 1 652 6 view .LVU912
 3048 0070 002B     		cmp	r3, #0
 3049 0072 01D0     		beq	.L116
 3050              		.loc 1 653 5 is_stmt 1 view .LVU913
 3051 0074 2000     		movs	r0, r4
 3052 0076 9847     		blx	r3
 3053              	.LVL126:
 3054              	.L116:
 3055              		.loc 1 653 5 is_stmt 0 view .LVU914
 3056              	.LBE712:
 3057              	.LBE718:
 3058              		.loc 1 798 5 is_stmt 1 view .LVU915
 3059              	.LBB719:
 3060              	.LBI719:
 3061              		.loc 2 502 20 view .LVU916
 3062              	.LBE719:
 3063              	.LBE748:
 3064              		.loc 2 504 3 view .LVU917
 3065              	.LBB749:
 3066              	.LBB728:
 3067              	.LBB720:
 3068              	.LBI720:
 3069              		.loc 5 386 20 view .LVU918
 3070              	.LBB721:
 3071              		.loc 5 388 22 view .LVU919
 3072              		.loc 5 389 33 view .LVU920
 3073              		.loc 5 395 3 view .LVU921
 3074              		.loc 5 395 3 view .LVU922
 3075              		.loc 5 399 3 view .LVU923
 3076              	.LBB722:
 3077              	.LBI722:
 3078              		.loc 6 380 20 view .LVU924
ARM GAS  /tmp/ccTxpxgR.s 			page 55


 3079              	.LBE722:
 3080              	.LBE721:
 3081              	.LBE720:
 3082              	.LBE728:
 3083              	.LBE749:
 3084              		.loc 6 382 3 view .LVU925
 3085              	.LBB750:
 3086              	.LBB729:
 3087              	.LBB727:
 3088              	.LBB726:
 3089              	.LBB725:
 3090              	.LBB723:
 3091              	.LBI723:
 3092              		.loc 7 331 57 view .LVU926
 3093              	.LBB724:
 3094              		.loc 7 333 3 view .LVU927
 3095              		.syntax divided
 3096              	@ 333 "ChibiOS/os/common/ext/CMSIS/include/core_cmFunc.h" 1
 3097 0078 62B6     		cpsie i
 3098              	@ 0 "" 2
 3099              		.thumb
 3100              		.syntax unified
 3101              	.LBE724:
 3102              	.LBE723:
 3103              	.LBE725:
 3104              	.LBE726:
 3105              	.LBE727:
 3106              	.LBE729:
 3107              		.loc 1 799 5 view .LVU928
 3108              		.loc 1 799 8 is_stmt 0 view .LVU929
 3109 007a 4645     		cmp	r6, r8
 3110 007c 2DD2     		bcs	.L105
 3111              		.loc 1 802 5 is_stmt 1 view .LVU930
 3112              	.LBB730:
 3113              	.LBI730:
 3114              		.loc 2 491 20 view .LVU931
 3115              	.LBE730:
 3116              	.LBE750:
 3117              		.loc 2 493 3 view .LVU932
 3118              	.LBB751:
 3119              	.LBB738:
 3120              	.LBB731:
 3121              	.LBI731:
 3122              		.loc 5 374 20 view .LVU933
 3123              	.LBE731:
 3124              	.LBE738:
 3125              	.LBE751:
 3126              		.loc 5 376 3 view .LVU934
 3127              	.LBB752:
 3128              	.LBB739:
 3129              	.LBB736:
 3130              	.LBB732:
 3131              	.LBI732:
 3132              		.loc 6 371 20 view .LVU935
 3133              	.LBE732:
 3134              	.LBE736:
 3135              	.LBE739:
ARM GAS  /tmp/ccTxpxgR.s 			page 56


 3136              	.LBE752:
 3137              		.loc 6 373 3 view .LVU936
 3138              	.LBB753:
 3139              	.LBB740:
 3140              	.LBB737:
 3141              	.LBB735:
 3142              	.LBB733:
 3143              	.LBI733:
 3144              		.loc 7 342 57 view .LVU937
 3145              	.LBB734:
 3146              		.loc 7 344 3 view .LVU938
 3147              		.syntax divided
 3148              	@ 344 "ChibiOS/os/common/ext/CMSIS/include/core_cmFunc.h" 1
 3149 007e 72B6     		cpsid i
 3150              	@ 0 "" 2
 3151              		.thumb
 3152              		.syntax unified
 3153              	.LBE734:
 3154              	.LBE733:
 3155              	.LBE735:
 3156              	.LBE737:
 3157              	.LBE740:
 3158              	.LBE753:
 3159              		.loc 5 377 34 view .LVU939
 3160              		.loc 5 378 20 view .LVU940
 3161              	.LVL127:
 3162              	.L119:
 3163              		.loc 1 738 3 view .LVU941
 3164              	.LBB754:
 3165              		.loc 1 739 5 view .LVU942
 3166              		.loc 1 742 5 view .LVU943
 3167              		.loc 1 742 13 is_stmt 0 view .LVU944
 3168 0080 606A     		ldr	r0, [r4, #36]
 3169              		.loc 1 742 8 view .LVU945
 3170 0082 0028     		cmp	r0, #0
 3171 0084 12D0     		beq	.L124
 3172              	.L106:
 3173              		.loc 1 771 5 is_stmt 1 view .LVU946
 3174              		.loc 1 772 19 is_stmt 0 view .LVU947
 3175 0086 4246     		mov	r2, r8
 3176              		.loc 1 771 10 view .LVU948
 3177 0088 A36A     		ldr	r3, [r4, #40]
 3178              		.loc 1 772 19 view .LVU949
 3179 008a 951B     		subs	r5, r2, r6
 3180              		.loc 1 771 10 view .LVU950
 3181 008c 1B1A     		subs	r3, r3, r0
 3182              	.LVL128:
 3183              		.loc 1 772 5 is_stmt 1 view .LVU951
 3184 008e 9D42     		cmp	r5, r3
 3185 0090 00D9     		bls	.L112
 3186              	.LVL129:
 3187              		.loc 1 772 5 is_stmt 0 view .LVU952
 3188 0092 1D00     		movs	r5, r3
 3189              	.L112:
 3190              	.LVL130:
 3191              		.loc 1 778 5 is_stmt 1 view .LVU953
 3192              		.loc 1 778 8 is_stmt 0 view .LVU954
ARM GAS  /tmp/ccTxpxgR.s 			page 57


 3193 0094 402D     		cmp	r5, #64
 3194 0096 CCD8     		bhi	.L125
 3195              		.loc 1 786 7 is_stmt 1 view .LVU955
 3196 0098 3900     		movs	r1, r7
 3197 009a 2A00     		movs	r2, r5
 3198              	.LVL131:
 3199              		.loc 1 786 7 is_stmt 0 view .LVU956
 3200 009c FFF7FEFF 		bl	memcpy
 3201              	.LVL132:
 3202              		.loc 1 787 7 is_stmt 1 view .LVU957
 3203              		.loc 1 788 17 is_stmt 0 view .LVU958
 3204 00a0 636A     		ldr	r3, [r4, #36]
 3205              		.loc 1 787 17 view .LVU959
 3206 00a2 7F19     		adds	r7, r7, r5
 3207              	.LVL133:
 3208              		.loc 1 788 7 is_stmt 1 view .LVU960
 3209              		.loc 1 788 17 is_stmt 0 view .LVU961
 3210 00a4 5B19     		adds	r3, r3, r5
 3211 00a6 6362     		str	r3, [r4, #36]
 3212              		.loc 1 789 7 is_stmt 1 view .LVU962
 3213              		.loc 1 789 17 is_stmt 0 view .LVU963
 3214 00a8 7619     		adds	r6, r6, r5
 3215              	.LVL134:
 3216              		.loc 1 789 17 view .LVU964
 3217 00aa CBE7     		b	.L114
 3218              	.LVL135:
 3219              	.L124:
 3220              	.LBB741:
 3221              		.loc 1 743 7 is_stmt 1 view .LVU965
 3222              		.loc 1 747 7 view .LVU966
 3223              		.loc 1 747 10 is_stmt 0 view .LVU967
 3224 00ac 009B     		ldr	r3, [sp]
 3225 00ae 0333     		adds	r3, r3, #3
 3226 00b0 0CD8     		bhi	.L126
 3227              	.LBB691:
 3228              		.loc 1 751 9 is_stmt 1 view .LVU968
 3229              	.LBB687:
 3230              	.LBI675:
 3231              		.loc 2 616 25 view .LVU969
 3232              	.LBE687:
 3233              	.LBE691:
 3234              	.LBE741:
 3235              	.LBE754:
 3236              		.loc 2 618 3 view .LVU970
 3237              	.LBB755:
 3238              	.LBB742:
 3239              	.LBB692:
 3240              	.LBB688:
 3241              	.LBB684:
 3242              	.LBI676:
 3243              		.loc 8 228 25 view .LVU971
 3244              	.LBE684:
 3245              	.LBE688:
 3246              	.LBE692:
 3247              	.LBE742:
 3248              	.LBE755:
 3249              		.loc 8 233 3 view .LVU972
ARM GAS  /tmp/ccTxpxgR.s 			page 58


 3250              	.LBB756:
 3251              	.LBB743:
 3252              	.LBB693:
 3253              	.LBB689:
 3254              	.LBB685:
 3255              	.LBB682:
 3256              	.LBI677:
 3257              		.loc 9 105 25 view .LVU973
 3258              	.LBE682:
 3259              	.LBE685:
 3260              	.LBE689:
 3261              	.LBE693:
 3262              	.LBE743:
 3263              	.LBE756:
 3264              		.loc 9 107 3 view .LVU974
 3265              	.LBB757:
 3266              	.LBB744:
 3267              	.LBB694:
 3268              	.LBB690:
 3269              	.LBB686:
 3270              	.LBB683:
 3271              	.LBB681:
 3272              	.LBI678:
 3273              		.loc 10 139 25 view .LVU975
 3274              	.LBB680:
 3275              		.loc 10 141 3 view .LVU976
 3276              		.loc 10 141 10 is_stmt 0 view .LVU977
 3277 00b2 5B46     		mov	r3, fp
 3278 00b4 596A     		ldr	r1, [r3, #36]
 3279              	.LBE680:
 3280              	.LBE681:
 3281              	.LBE683:
 3282              	.LBE686:
 3283              	.LBE690:
 3284              		.loc 1 751 19 view .LVU978
 3285 00b6 019B     		ldr	r3, [sp, #4]
 3286 00b8 591A     		subs	r1, r3, r1
 3287              	.LVL136:
 3288              		.loc 1 756 9 is_stmt 1 view .LVU979
 3289              		.loc 1 756 12 is_stmt 0 view .LVU980
 3290 00ba 8A45     		cmp	r10, r1
 3291 00bc 0CD3     		bcc	.L111
 3292              		.loc 1 760 9 is_stmt 1 view .LVU981
 3293              		.loc 1 760 15 is_stmt 0 view .LVU982
 3294 00be 2000     		movs	r0, r4
 3295 00c0 FFF7FEFF 		bl	obqGetEmptyBufferTimeoutS
 3296              	.LVL137:
 3297              		.loc 1 760 15 view .LVU983
 3298              	.LBE694:
 3299              		.loc 1 764 7 is_stmt 1 view .LVU984
 3300              		.loc 1 764 10 is_stmt 0 view .LVU985
 3301 00c4 0028     		cmp	r0, #0
 3302 00c6 07D1     		bne	.L111
 3303              	.L127:
 3304              		.loc 1 764 10 view .LVU986
 3305 00c8 606A     		ldr	r0, [r4, #36]
 3306              	.LVL138:
ARM GAS  /tmp/ccTxpxgR.s 			page 59


 3307              		.loc 1 764 10 view .LVU987
 3308 00ca DCE7     		b	.L106
 3309              	.L126:
 3310              		.loc 1 748 9 is_stmt 1 view .LVU988
 3311              		.loc 1 748 15 is_stmt 0 view .LVU989
 3312 00cc 5146     		mov	r1, r10
 3313 00ce 2000     		movs	r0, r4
 3314 00d0 FFF7FEFF 		bl	obqGetEmptyBufferTimeoutS
 3315              	.LVL139:
 3316              		.loc 1 764 7 is_stmt 1 view .LVU990
 3317              		.loc 1 764 10 is_stmt 0 view .LVU991
 3318 00d4 0028     		cmp	r0, #0
 3319 00d6 F7D0     		beq	.L127
 3320              	.LVL140:
 3321              	.L111:
 3322              		.loc 1 765 9 is_stmt 1 view .LVU992
 3323              	.LBB695:
 3324              	.LBI695:
 3325              		.loc 2 502 20 view .LVU993
 3326              	.LBE695:
 3327              	.LBE744:
 3328              	.LBE757:
 3329              		.loc 2 504 3 view .LVU994
 3330              	.LBB758:
 3331              	.LBB745:
 3332              	.LBB704:
 3333              	.LBB696:
 3334              	.LBI696:
 3335              		.loc 5 386 20 view .LVU995
 3336              	.LBB697:
 3337              		.loc 5 388 22 view .LVU996
 3338              		.loc 5 389 33 view .LVU997
 3339              		.loc 5 395 3 view .LVU998
 3340              		.loc 5 395 3 view .LVU999
 3341              		.loc 5 399 3 view .LVU1000
 3342              	.LBB698:
 3343              	.LBI698:
 3344              		.loc 6 380 20 view .LVU1001
 3345              	.LBE698:
 3346              	.LBE697:
 3347              	.LBE696:
 3348              	.LBE704:
 3349              	.LBE745:
 3350              	.LBE758:
 3351              		.loc 6 382 3 view .LVU1002
 3352              	.LBB759:
 3353              	.LBB746:
 3354              	.LBB705:
 3355              	.LBB703:
 3356              	.LBB702:
 3357              	.LBB701:
 3358              	.LBB699:
 3359              	.LBI699:
 3360              		.loc 7 331 57 view .LVU1003
 3361              	.LBB700:
 3362              		.loc 7 333 3 view .LVU1004
 3363              		.syntax divided
ARM GAS  /tmp/ccTxpxgR.s 			page 60


 3364              	@ 333 "ChibiOS/os/common/ext/CMSIS/include/core_cmFunc.h" 1
 3365 00d8 62B6     		cpsie i
 3366              	@ 0 "" 2
 3367              		.thumb
 3368              		.syntax unified
 3369              	.LBE700:
 3370              	.LBE699:
 3371              	.LBE701:
 3372              	.LBE702:
 3373              	.LBE703:
 3374              	.LBE705:
 3375              		.loc 1 766 9 view .LVU1005
 3376              	.L105:
 3377              		.loc 1 766 9 is_stmt 0 view .LVU1006
 3378              	.LBE746:
 3379              	.LBE759:
 3380              		.loc 1 804 1 view .LVU1007
 3381 00da 3000     		movs	r0, r6
 3382 00dc 03B0     		add	sp, sp, #12
 3383              		@ sp needed
 3384              	.LVL141:
 3385              	.LVL142:
 3386              	.LVL143:
 3387              	.LVL144:
 3388              	.LVL145:
 3389              		.loc 1 804 1 view .LVU1008
 3390 00de 3CBC     		pop	{r2, r3, r4, r5}
 3391 00e0 9046     		mov	r8, r2
 3392 00e2 9946     		mov	r9, r3
 3393 00e4 A246     		mov	r10, r4
 3394 00e6 AB46     		mov	fp, r5
 3395 00e8 F0BD     		pop	{r4, r5, r6, r7, pc}
 3396              		.cfi_endproc
 3397              	.LFE170:
 3398              		.size	obqWriteTimeout, .-obqWriteTimeout
 3399 00ea C046     		.section	.text.obqTryFlushI,"ax",%progbits
 3400              		.align	1
 3401              		.p2align 4,,15
 3402              		.global	obqTryFlushI
 3403              		.syntax unified
 3404              		.code	16
 3405              		.thumb_func
 3406              		.fpu softvfp
 3407              		.type	obqTryFlushI, %function
 3408              	obqTryFlushI:
 3409              	.LVL146:
 3410              	.LFB171:
 3411              		.loc 1 819 49 is_stmt 1 view -0
 3412              		.cfi_startproc
 3413              		@ args = 0, pretend = 0, frame = 0
 3414              		@ frame_needed = 0, uses_anonymous_args = 0
 3415              		@ link register save eliminated.
 3416              		.loc 1 821 23 view .LVU1010
 3417              		.loc 1 825 3 view .LVU1011
 3418              		.loc 1 819 49 is_stmt 0 view .LVU1012
 3419 0000 0300     		movs	r3, r0
 3420              		.loc 1 825 7 view .LVU1013
ARM GAS  /tmp/ccTxpxgR.s 			page 61


 3421 0002 C268     		ldr	r2, [r0, #12]
 3422 0004 1969     		ldr	r1, [r3, #16]
 3423              		.loc 1 846 10 view .LVU1014
 3424 0006 0020     		movs	r0, #0
 3425              	.LVL147:
 3426              		.loc 1 825 7 view .LVU1015
 3427 0008 8A42     		cmp	r2, r1
 3428 000a 00D0     		beq	.L137
 3429              	.L135:
 3430              		.loc 1 847 1 view .LVU1016
 3431              		@ sp needed
 3432 000c 7047     		bx	lr
 3433              	.L137:
 3434              		.loc 1 825 7 discriminator 1 view .LVU1017
 3435 000e 9968     		ldr	r1, [r3, #8]
 3436 0010 0029     		cmp	r1, #0
 3437 0012 FBD0     		beq	.L135
 3438              		.loc 1 825 33 view .LVU1018
 3439 0014 596A     		ldr	r1, [r3, #36]
 3440              		.loc 1 825 25 view .LVU1019
 3441 0016 0029     		cmp	r1, #0
 3442 0018 F8D0     		beq	.L135
 3443              	.LBB760:
 3444              		.loc 1 826 5 is_stmt 1 view .LVU1020
 3445              		.loc 1 826 12 is_stmt 0 view .LVU1021
 3446 001a 0439     		subs	r1, r1, #4
 3447 001c 891A     		subs	r1, r1, r2
 3448              	.LVL148:
 3449              		.loc 1 828 5 is_stmt 1 view .LVU1022
 3450              		.loc 1 828 8 is_stmt 0 view .LVU1023
 3451 001e F5D0     		beq	.L135
 3452              		.loc 1 831 7 is_stmt 1 view .LVU1024
 3453              		.loc 1 831 33 is_stmt 0 view .LVU1025
 3454 0020 1160     		str	r1, [r2]
 3455              		.loc 1 834 7 is_stmt 1 view .LVU1026
 3456              		.loc 1 834 11 is_stmt 0 view .LVU1027
 3457 0022 9968     		ldr	r1, [r3, #8]
 3458              	.LVL149:
 3459              		.loc 1 834 21 view .LVU1028
 3460 0024 0139     		subs	r1, r1, #1
 3461 0026 9960     		str	r1, [r3, #8]
 3462              	.LVL150:
 3463              		.loc 1 835 7 is_stmt 1 view .LVU1029
 3464              		.loc 1 835 20 is_stmt 0 view .LVU1030
 3465 0028 9969     		ldr	r1, [r3, #24]
 3466 002a 8C46     		mov	ip, r1
 3467              		.loc 1 836 10 view .LVU1031
 3468 002c 5969     		ldr	r1, [r3, #20]
 3469              		.loc 1 835 20 view .LVU1032
 3470 002e 6244     		add	r2, r2, ip
 3471              	.LVL151:
 3472              		.loc 1 835 20 view .LVU1033
 3473 0030 DA60     		str	r2, [r3, #12]
 3474              	.LVL152:
 3475              		.loc 1 836 7 is_stmt 1 view .LVU1034
 3476              		.loc 1 836 10 is_stmt 0 view .LVU1035
 3477 0032 8A42     		cmp	r2, r1
ARM GAS  /tmp/ccTxpxgR.s 			page 62


 3478 0034 01D3     		bcc	.L131
 3479              		.loc 1 837 9 is_stmt 1 view .LVU1036
 3480              		.loc 1 837 22 is_stmt 0 view .LVU1037
 3481 0036 1A6A     		ldr	r2, [r3, #32]
 3482 0038 DA60     		str	r2, [r3, #12]
 3483              	.L131:
 3484              		.loc 1 841 7 is_stmt 1 view .LVU1038
 3485              		.loc 1 841 17 is_stmt 0 view .LVU1039
 3486 003a 0022     		movs	r2, #0
 3487              		.loc 1 843 14 view .LVU1040
 3488 003c 0120     		movs	r0, #1
 3489              		.loc 1 841 17 view .LVU1041
 3490 003e 5A62     		str	r2, [r3, #36]
 3491              		.loc 1 843 7 is_stmt 1 view .LVU1042
 3492              		.loc 1 843 14 is_stmt 0 view .LVU1043
 3493 0040 E4E7     		b	.L135
 3494              	.LBE760:
 3495              		.cfi_endproc
 3496              	.LFE171:
 3497              		.size	obqTryFlushI, .-obqTryFlushI
 3498 0042 C046     		.section	.text.obqFlush,"ax",%progbits
 3499              		.align	1
 3500              		.p2align 4,,15
 3501              		.global	obqFlush
 3502              		.syntax unified
 3503              		.code	16
 3504              		.thumb_func
 3505              		.fpu softvfp
 3506              		.type	obqFlush, %function
 3507              	obqFlush:
 3508              	.LVL153:
 3509              	.LFB172:
 3510              		.loc 1 856 45 is_stmt 1 view -0
 3511              		.cfi_startproc
 3512              		@ args = 0, pretend = 0, frame = 0
 3513              		@ frame_needed = 0, uses_anonymous_args = 0
 3514              		.loc 1 858 3 view .LVU1045
 3515              	.LBB761:
 3516              	.LBI761:
 3517              		.loc 2 491 20 view .LVU1046
 3518              	.LBE761:
 3519              		.loc 2 493 3 view .LVU1047
 3520              	.LBB773:
 3521              	.LBB762:
 3522              	.LBI762:
 3523              		.loc 5 374 20 view .LVU1048
 3524              	.LBE762:
 3525              	.LBE773:
 3526              		.loc 5 376 3 view .LVU1049
 3527              	.LBB774:
 3528              	.LBB770:
 3529              	.LBB763:
 3530              	.LBI763:
 3531              		.loc 6 371 20 view .LVU1050
 3532              	.LBE763:
 3533              	.LBE770:
 3534              	.LBE774:
ARM GAS  /tmp/ccTxpxgR.s 			page 63


 3535              		.loc 6 373 3 view .LVU1051
 3536              	.LBB775:
 3537              	.LBB771:
 3538              	.LBB768:
 3539              	.LBB764:
 3540              	.LBI764:
 3541              		.loc 7 342 57 view .LVU1052
 3542              	.LBB765:
 3543              		.loc 7 344 3 view .LVU1053
 3544              	.LBE765:
 3545              	.LBE764:
 3546              	.LBE768:
 3547              	.LBE771:
 3548              	.LBE775:
 3549              		.loc 1 856 45 is_stmt 0 view .LVU1054
 3550 0000 10B5     		push	{r4, lr}
 3551              		.cfi_def_cfa_offset 8
 3552              		.cfi_offset 4, -8
 3553              		.cfi_offset 14, -4
 3554              	.LBB776:
 3555              	.LBB772:
 3556              	.LBB769:
 3557              	.LBB767:
 3558              	.LBB766:
 3559              		.loc 7 344 3 view .LVU1055
 3560              		.syntax divided
 3561              	@ 344 "ChibiOS/os/common/ext/CMSIS/include/core_cmFunc.h" 1
 3562 0002 72B6     		cpsid i
 3563              	@ 0 "" 2
 3564              		.thumb
 3565              		.syntax unified
 3566              	.LBE766:
 3567              	.LBE767:
 3568              	.LBE769:
 3569              	.LBE772:
 3570              	.LBE776:
 3571              		.loc 5 377 34 is_stmt 1 view .LVU1056
 3572              		.loc 5 378 20 view .LVU1057
 3573              		.loc 1 861 3 view .LVU1058
 3574              		.loc 1 861 11 is_stmt 0 view .LVU1059
 3575 0004 436A     		ldr	r3, [r0, #36]
 3576              		.loc 1 861 6 view .LVU1060
 3577 0006 002B     		cmp	r3, #0
 3578 0008 14D0     		beq	.L140
 3579              	.LBB777:
 3580              		.loc 1 862 5 is_stmt 1 view .LVU1061
 3581              		.loc 1 862 51 is_stmt 0 view .LVU1062
 3582 000a C268     		ldr	r2, [r0, #12]
 3583              		.loc 1 862 12 view .LVU1063
 3584 000c 043B     		subs	r3, r3, #4
 3585 000e 9B1A     		subs	r3, r3, r2
 3586              	.LVL154:
 3587              		.loc 1 864 5 is_stmt 1 view .LVU1064
 3588              		.loc 1 864 8 is_stmt 0 view .LVU1065
 3589 0010 10D0     		beq	.L140
 3590              		.loc 1 865 7 is_stmt 1 view .LVU1066
 3591              	.LVL155:
ARM GAS  /tmp/ccTxpxgR.s 			page 64


 3592              	.LBB778:
 3593              	.LBI778:
 3594              		.loc 1 632 6 view .LVU1067
 3595              	.LBB779:
 3596              		.loc 1 634 23 view .LVU1068
 3597              		.loc 1 635 3 view .LVU1069
 3598              		.loc 1 635 3 view .LVU1070
 3599              		.loc 1 636 3 view .LVU1071
 3600              		.loc 1 636 3 view .LVU1072
 3601              		.loc 1 639 3 view .LVU1073
 3602              		.loc 1 639 29 is_stmt 0 view .LVU1074
 3603 0012 1360     		str	r3, [r2]
 3604              		.loc 1 642 3 is_stmt 1 view .LVU1075
 3605              		.loc 1 642 7 is_stmt 0 view .LVU1076
 3606 0014 8368     		ldr	r3, [r0, #8]
 3607              	.LVL156:
 3608              		.loc 1 642 17 view .LVU1077
 3609 0016 013B     		subs	r3, r3, #1
 3610 0018 8360     		str	r3, [r0, #8]
 3611              	.LVL157:
 3612              		.loc 1 643 3 is_stmt 1 view .LVU1078
 3613              		.loc 1 643 16 is_stmt 0 view .LVU1079
 3614 001a 8369     		ldr	r3, [r0, #24]
 3615 001c 9C46     		mov	ip, r3
 3616              		.loc 1 644 6 view .LVU1080
 3617 001e 4369     		ldr	r3, [r0, #20]
 3618              		.loc 1 643 16 view .LVU1081
 3619 0020 6244     		add	r2, r2, ip
 3620              	.LVL158:
 3621              		.loc 1 643 16 view .LVU1082
 3622 0022 C260     		str	r2, [r0, #12]
 3623              	.LVL159:
 3624              		.loc 1 644 3 is_stmt 1 view .LVU1083
 3625              		.loc 1 644 6 is_stmt 0 view .LVU1084
 3626 0024 9A42     		cmp	r2, r3
 3627 0026 07D2     		bcs	.L149
 3628              	.L142:
 3629              		.loc 1 649 3 is_stmt 1 view .LVU1085
 3630              		.loc 1 649 13 is_stmt 0 view .LVU1086
 3631 0028 0023     		movs	r3, #0
 3632 002a 4362     		str	r3, [r0, #36]
 3633              		.loc 1 652 3 is_stmt 1 view .LVU1087
 3634              		.loc 1 652 11 is_stmt 0 view .LVU1088
 3635 002c C36A     		ldr	r3, [r0, #44]
 3636              		.loc 1 652 6 view .LVU1089
 3637 002e 002B     		cmp	r3, #0
 3638 0030 00D0     		beq	.L140
 3639              		.loc 1 653 5 is_stmt 1 view .LVU1090
 3640 0032 9847     		blx	r3
 3641              	.LVL160:
 3642              	.L140:
 3643              		.loc 1 653 5 is_stmt 0 view .LVU1091
 3644              	.LBE779:
 3645              	.LBE778:
 3646              	.LBE777:
 3647              		.loc 1 869 3 is_stmt 1 view .LVU1092
 3648              	.LBB782:
ARM GAS  /tmp/ccTxpxgR.s 			page 65


 3649              	.LBI782:
 3650              		.loc 2 502 20 view .LVU1093
 3651              	.LBE782:
 3652              		.loc 2 504 3 view .LVU1094
 3653              	.LBB791:
 3654              	.LBB783:
 3655              	.LBI783:
 3656              		.loc 5 386 20 view .LVU1095
 3657              	.LBB784:
 3658              		.loc 5 388 22 view .LVU1096
 3659              		.loc 5 389 33 view .LVU1097
 3660              		.loc 5 395 3 view .LVU1098
 3661              		.loc 5 395 3 view .LVU1099
 3662              		.loc 5 399 3 view .LVU1100
 3663              	.LBB785:
 3664              	.LBI785:
 3665              		.loc 6 380 20 view .LVU1101
 3666              	.LBE785:
 3667              	.LBE784:
 3668              	.LBE783:
 3669              	.LBE791:
 3670              		.loc 6 382 3 view .LVU1102
 3671              	.LBB792:
 3672              	.LBB790:
 3673              	.LBB789:
 3674              	.LBB788:
 3675              	.LBB786:
 3676              	.LBI786:
 3677              		.loc 7 331 57 view .LVU1103
 3678              	.LBB787:
 3679              		.loc 7 333 3 view .LVU1104
 3680              		.syntax divided
 3681              	@ 333 "ChibiOS/os/common/ext/CMSIS/include/core_cmFunc.h" 1
 3682 0034 62B6     		cpsie i
 3683              	@ 0 "" 2
 3684              		.thumb
 3685              		.syntax unified
 3686              	.LBE787:
 3687              	.LBE786:
 3688              	.LBE788:
 3689              	.LBE789:
 3690              	.LBE790:
 3691              	.LBE792:
 3692              		.loc 1 870 1 is_stmt 0 view .LVU1105
 3693              		@ sp needed
 3694 0036 10BD     		pop	{r4, pc}
 3695              	.LVL161:
 3696              	.L149:
 3697              	.LBB793:
 3698              	.LBB781:
 3699              	.LBB780:
 3700              		.loc 1 645 5 is_stmt 1 view .LVU1106
 3701              		.loc 1 645 18 is_stmt 0 view .LVU1107
 3702 0038 036A     		ldr	r3, [r0, #32]
 3703 003a C360     		str	r3, [r0, #12]
 3704 003c F4E7     		b	.L142
 3705              	.LBE780:
ARM GAS  /tmp/ccTxpxgR.s 			page 66


 3706              	.LBE781:
 3707              	.LBE793:
 3708              		.cfi_endproc
 3709              	.LFE172:
 3710              		.size	obqFlush, .-obqFlush
 3711              		.text
 3712              	.Letext0:
 3713              		.file 11 "/opt/nanovna/gcc-arm-none-eabi-8-2018-q4-major/lib/gcc/arm-none-eabi/8.2.1/include/stdde
 3714              		.file 12 "/opt/nanovna/gcc-arm-none-eabi-8-2018-q4-major/arm-none-eabi/include/machine/_default_ty
 3715              		.file 13 "/opt/nanovna/gcc-arm-none-eabi-8-2018-q4-major/arm-none-eabi/include/sys/lock.h"
 3716              		.file 14 "/opt/nanovna/gcc-arm-none-eabi-8-2018-q4-major/arm-none-eabi/include/sys/_types.h"
 3717              		.file 15 "/opt/nanovna/gcc-arm-none-eabi-8-2018-q4-major/arm-none-eabi/include/sys/reent.h"
 3718              		.file 16 "/opt/nanovna/gcc-arm-none-eabi-8-2018-q4-major/arm-none-eabi/include/sys/_stdint.h"
 3719              		.file 17 "ChibiOS/os/common/ports/ARMCMx/compilers/GCC/chtypes.h"
 3720              		.file 18 "ChibiOS/os/rt/include/chsystypes.h"
 3721              		.file 19 "ChibiOS/os/common/ext/CMSIS/ST/STM32F0xx/system_stm32f0xx.h"
 3722              		.file 20 "ChibiOS/os/common/ext/CMSIS/ST/STM32F0xx/stm32f072xb.h"
 3723              		.file 21 "ChibiOS/os/common/ports/ARMCMx/chcore.h"
 3724              		.file 22 "ChibiOS/os/hal/ports/STM32/LLD/TIMv1/stm32_tim.h"
 3725              		.file 23 "ChibiOS/os/rt/include/chmtx.h"
 3726              		.file 24 "ChibiOS/os/rt/include/chregistry.h"
 3727              		.file 25 "ChibiOS/os/rt/include/chevents.h"
 3728              		.file 26 "ChibiOS/os/hal/ports/STM32/LLD/DMAv1/stm32_dma.h"
 3729              		.file 27 "ChibiOS/os/hal/include/hal_buffers.h"
 3730              		.file 28 "ChibiOS/os/hal/include/hal_queues.h"
 3731              		.file 29 "ChibiOS/os/hal/ports/STM32/LLD/GPIOv2/hal_pal_lld.h"
 3732              		.file 30 "ChibiOS/os/hal/include/hal_ext.h"
 3733              		.file 31 "ChibiOS/os/hal/ports/STM32/LLD/EXTIv1/hal_ext_lld.h"
 3734              		.file 32 "ChibiOS/os/hal/include/hal_gpt.h"
 3735              		.file 33 "ChibiOS/os/hal/ports/STM32/LLD/TIMv1/hal_gpt_lld.h"
 3736              		.file 34 "ChibiOS/os/hal/include/hal_i2c.h"
 3737              		.file 35 "ChibiOS/os/hal/ports/STM32/LLD/I2Cv2/hal_i2c_lld.h"
 3738              		.file 36 "ChibiOS/os/hal/include/hal_i2s.h"
 3739              		.file 37 "ChibiOS/os/hal/ports/STM32/LLD/SPIv2/hal_i2s_lld.h"
 3740              		.file 38 "/opt/nanovna/gcc-arm-none-eabi-8-2018-q4-major/arm-none-eabi/include/time.h"
 3741              		.file 39 "ChibiOS/os/hal/include/hal_rtc.h"
 3742              		.file 40 "ChibiOS/os/hal/ports/STM32/LLD/RTCv2/hal_rtc_lld.h"
 3743              		.file 41 "ChibiOS/os/hal/include/hal_serial.h"
 3744              		.file 42 "ChibiOS/os/hal/ports/STM32/LLD/USARTv2/hal_serial_lld.h"
 3745              		.file 43 "ChibiOS/os/hal/include/hal_spi.h"
 3746              		.file 44 "ChibiOS/os/hal/ports/STM32/LLD/SPIv2/hal_spi_lld.h"
 3747              		.file 45 "ChibiOS/os/hal/include/hal_usb.h"
 3748              		.file 46 "ChibiOS/os/hal/ports/STM32/LLD/USBv1/hal_usb_lld.h"
 3749              		.file 47 "<built-in>"