ARM GAS  /tmp/ccYM11gr.s 			page 1


   1              		.cpu cortex-m0
   2              		.eabi_attribute 20, 1
   3              		.eabi_attribute 21, 1
   4              		.eabi_attribute 23, 3
   5              		.eabi_attribute 24, 1
   6              		.eabi_attribute 25, 1
   7              		.eabi_attribute 26, 1
   8              		.eabi_attribute 30, 2
   9              		.eabi_attribute 34, 0
  10              		.eabi_attribute 18, 4
  11              		.file	"hal_ext_lld.c"
  12              		.text
  13              	.Ltext0:
  14              		.cfi_sections	.debug_frame
  15              		.section	.text.ext_lld_init,"ax",%progbits
  16              		.align	1
  17              		.p2align 4,,15
  18              		.global	ext_lld_init
  19              		.arch armv6s-m
  20              		.syntax unified
  21              		.code	16
  22              		.thumb_func
  23              		.fpu softvfp
  24              		.type	ext_lld_init, %function
  25              	ext_lld_init:
  26              	.LFB151:
  27              		.file 1 "ChibiOS/os/hal/ports/STM32/LLD/EXTIv1/hal_ext_lld.c"
  28              		.loc 1 72 25 view -0
  29              		.cfi_startproc
  30              		@ args = 0, pretend = 0, frame = 0
  31              		@ frame_needed = 0, uses_anonymous_args = 0
  32              		.loc 1 75 3 view .LVU1
  33              		.loc 1 72 25 is_stmt 0 view .LVU2
  34 0000 10B5     		push	{r4, lr}
  35              		.cfi_def_cfa_offset 8
  36              		.cfi_offset 4, -8
  37              		.cfi_offset 14, -4
  38              		.loc 1 75 3 view .LVU3
  39 0002 0248     		ldr	r0, .L3
  40 0004 FFF7FEFF 		bl	extObjectInit
  41              	.LVL0:
  42              		.loc 1 76 1 view .LVU4
  43              		@ sp needed
  44 0008 10BD     		pop	{r4, pc}
  45              	.L4:
  46 000a C046     		.align	2
  47              	.L3:
  48 000c 00000000 		.word	.LANCHOR0
  49              		.cfi_endproc
  50              	.LFE151:
  51              		.size	ext_lld_init, .-ext_lld_init
  52              		.section	.text.ext_lld_stop,"ax",%progbits
  53              		.align	1
  54              		.p2align 4,,15
  55              		.global	ext_lld_stop
  56              		.syntax unified
  57              		.code	16
ARM GAS  /tmp/ccYM11gr.s 			page 2


  58              		.thumb_func
  59              		.fpu softvfp
  60              		.type	ext_lld_stop, %function
  61              	ext_lld_stop:
  62              	.LVL1:
  63              	.LFB153:
  64              		.loc 1 106 36 is_stmt 1 view -0
  65              		.cfi_startproc
  66              		@ args = 0, pretend = 0, frame = 0
  67              		@ frame_needed = 0, uses_anonymous_args = 0
  68              		.loc 1 108 3 view .LVU6
  69              		.loc 1 108 6 is_stmt 0 view .LVU7
  70 0000 0378     		ldrb	r3, [r0]
  71              		.loc 1 106 36 view .LVU8
  72 0002 10B5     		push	{r4, lr}
  73              		.cfi_def_cfa_offset 8
  74              		.cfi_offset 4, -8
  75              		.cfi_offset 14, -4
  76              		.loc 1 108 6 view .LVU9
  77 0004 022B     		cmp	r3, #2
  78 0006 07D0     		beq	.L7
  79              	.LVL2:
  80              	.L6:
  81              		.loc 1 111 3 is_stmt 1 view .LVU10
  82              		.loc 1 111 13 is_stmt 0 view .LVU11
  83 0008 0022     		movs	r2, #0
  84 000a 054B     		ldr	r3, .L8
  85              		.loc 1 118 1 view .LVU12
  86              		@ sp needed
  87              		.loc 1 111 13 view .LVU13
  88 000c 5A60     		str	r2, [r3, #4]
  89              		.loc 1 112 3 is_stmt 1 view .LVU14
  90              		.loc 1 112 13 is_stmt 0 view .LVU15
  91 000e 054A     		ldr	r2, .L8+4
  92 0010 1A60     		str	r2, [r3]
  93              		.loc 1 113 3 is_stmt 1 view .LVU16
  94              		.loc 1 113 13 is_stmt 0 view .LVU17
  95 0012 054A     		ldr	r2, .L8+8
  96 0014 5A61     		str	r2, [r3, #20]
  97              		.loc 1 118 1 view .LVU18
  98 0016 10BD     		pop	{r4, pc}
  99              	.LVL3:
 100              	.L7:
 101              		.loc 1 109 5 is_stmt 1 view .LVU19
 102 0018 FFF7FEFF 		bl	ext_lld_exti_irq_disable
 103              	.LVL4:
 104              		.loc 1 109 5 is_stmt 0 view .LVU20
 105 001c F4E7     		b	.L6
 106              	.L9:
 107 001e C046     		.align	2
 108              	.L8:
 109 0020 00040140 		.word	1073808384
 110 0024 0000847F 		.word	2139357184
 111 0028 FFFF7B80 		.word	-2139357185
 112              		.cfi_endproc
 113              	.LFE153:
 114              		.size	ext_lld_stop, .-ext_lld_stop
ARM GAS  /tmp/ccYM11gr.s 			page 3


 115              		.section	.text.ext_lld_channel_enable,"ax",%progbits
 116              		.align	1
 117              		.p2align 4,,15
 118              		.global	ext_lld_channel_enable
 119              		.syntax unified
 120              		.code	16
 121              		.thumb_func
 122              		.fpu softvfp
 123              		.type	ext_lld_channel_enable, %function
 124              	ext_lld_channel_enable:
 125              	.LVL5:
 126              	.LFB154:
 127              		.loc 1 128 68 is_stmt 1 view -0
 128              		.cfi_startproc
 129              		@ args = 0, pretend = 0, frame = 0
 130              		@ frame_needed = 0, uses_anonymous_args = 0
 131              		.loc 1 129 3 view .LVU22
 132              		.loc 1 129 35 is_stmt 0 view .LVU23
 133 0000 1F22     		movs	r2, #31
 134              		.loc 1 129 23 view .LVU24
 135 0002 0123     		movs	r3, #1
 136              		.loc 1 129 35 view .LVU25
 137 0004 0A40     		ands	r2, r1
 138              		.loc 1 128 68 view .LVU26
 139 0006 F0B5     		push	{r4, r5, r6, r7, lr}
 140              		.cfi_def_cfa_offset 20
 141              		.cfi_offset 4, -20
 142              		.cfi_offset 5, -16
 143              		.cfi_offset 6, -12
 144              		.cfi_offset 7, -8
 145              		.cfi_offset 14, -4
 146              		.loc 1 129 23 view .LVU27
 147 0008 9340     		lsls	r3, r3, r2
 148              	.LVL6:
 149              		.loc 1 132 3 is_stmt 1 view .LVU28
 150              		.loc 1 132 6 is_stmt 0 view .LVU29
 151 000a 0F29     		cmp	r1, #15
 152 000c 13D8     		bhi	.L11
 153              	.LBB4:
 154              		.loc 1 133 5 is_stmt 1 view .LVU30
 155              	.LVL7:
 156              		.loc 1 134 5 view .LVU31
 157 000e 234A     		ldr	r2, .L21
 158              		.loc 1 136 43 is_stmt 0 view .LVU32
 159 0010 4668     		ldr	r6, [r0, #4]
 160              		.loc 1 134 40 view .LVU33
 161 0012 0325     		movs	r5, #3
 162 0014 9446     		mov	ip, r2
 163              		.loc 1 135 54 view .LVU34
 164 0016 CA00     		lsls	r2, r1, #3
 165              		.loc 1 136 43 view .LVU35
 166 0018 9259     		ldr	r2, [r2, r6]
 167 001a 0F26     		movs	r6, #15
 168              		.loc 1 134 40 view .LVU36
 169 001c 0D40     		ands	r5, r1
 170              		.loc 1 134 45 view .LVU37
 171 001e AD00     		lsls	r5, r5, #2
ARM GAS  /tmp/ccYM11gr.s 			page 4


 172              	.LVL8:
 173              		.loc 1 135 5 is_stmt 1 view .LVU38
 174              		.loc 1 142 5 view .LVU39
 175              		.loc 1 136 43 is_stmt 0 view .LVU40
 176 0020 1209     		lsrs	r2, r2, #4
 177 0022 3240     		ands	r2, r6
 178              		.loc 1 134 27 view .LVU41
 179 0024 AE40     		lsls	r6, r6, r5
 180              		.loc 1 135 14 view .LVU42
 181 0026 AA40     		lsls	r2, r2, r5
 182              		.loc 1 133 14 view .LVU43
 183 0028 8C08     		lsrs	r4, r1, #2
 184              	.LVL9:
 185              		.loc 1 133 14 view .LVU44
 186 002a A400     		lsls	r4, r4, #2
 187              	.LVL10:
 188              		.loc 1 133 14 view .LVU45
 189 002c 6444     		add	r4, r4, ip
 190              		.loc 1 142 40 view .LVU46
 191 002e A768     		ldr	r7, [r4, #8]
 192              		.loc 1 142 44 view .LVU47
 193 0030 B743     		bics	r7, r6
 194              		.loc 1 142 52 view .LVU48
 195 0032 3A43     		orrs	r2, r7
 196              		.loc 1 142 23 view .LVU49
 197 0034 A260     		str	r2, [r4, #8]
 198              	.LVL11:
 199              	.L11:
 200              		.loc 1 142 23 view .LVU50
 201              	.LBE4:
 202              		.loc 1 150 5 is_stmt 1 view .LVU51
 203              		.loc 1 150 16 is_stmt 0 view .LVU52
 204 0036 1A4A     		ldr	r2, .L21+4
 205              		.loc 1 150 8 view .LVU53
 206 0038 1342     		tst	r3, r2
 207 003a 1AD1     		bne	.L10
 208              		.loc 1 155 5 is_stmt 1 view .LVU54
 209 003c 4268     		ldr	r2, [r0, #4]
 210 003e C900     		lsls	r1, r1, #3
 211              	.LVL12:
 212              		.loc 1 155 5 is_stmt 0 view .LVU55
 213 0040 5118     		adds	r1, r2, r1
 214              		.loc 1 155 40 view .LVU56
 215 0042 0A68     		ldr	r2, [r1]
 216 0044 D843     		mvns	r0, r3
 217              	.LVL13:
 218              		.loc 1 156 18 view .LVU57
 219 0046 174D     		ldr	r5, .L21+8
 220              		.loc 1 155 8 view .LVU58
 221 0048 D407     		lsls	r4, r2, #31
 222 004a 13D4     		bmi	.L18
 223              		.loc 1 158 7 is_stmt 1 view .LVU59
 224              		.loc 1 158 18 is_stmt 0 view .LVU60
 225 004c AC68     		ldr	r4, [r5, #8]
 226 004e 0440     		ands	r4, r0
 227 0050 AC60     		str	r4, [r5, #8]
 228              		.loc 1 159 5 is_stmt 1 view .LVU61
ARM GAS  /tmp/ccYM11gr.s 			page 5


 229              		.loc 1 160 18 is_stmt 0 view .LVU62
 230 0052 144C     		ldr	r4, .L21+8
 231              		.loc 1 159 8 view .LVU63
 232 0054 9207     		lsls	r2, r2, #30
 233 0056 13D5     		bpl	.L15
 234              	.L19:
 235              		.loc 1 160 7 is_stmt 1 view .LVU64
 236              		.loc 1 160 18 is_stmt 0 view .LVU65
 237 0058 E268     		ldr	r2, [r4, #12]
 238 005a 1A43     		orrs	r2, r3
 239 005c E260     		str	r2, [r4, #12]
 240              		.loc 1 165 5 is_stmt 1 view .LVU66
 241              		.loc 1 165 8 is_stmt 0 view .LVU67
 242 005e 4A68     		ldr	r2, [r1, #4]
 243 0060 002A     		cmp	r2, #0
 244 0062 13D0     		beq	.L17
 245              	.L20:
 246              		.loc 1 166 7 is_stmt 1 view .LVU68
 247              		.loc 1 166 17 is_stmt 0 view .LVU69
 248 0064 0F4A     		ldr	r2, .L21+8
 249 0066 1168     		ldr	r1, [r2]
 250 0068 0B43     		orrs	r3, r1
 251              	.LVL14:
 252              		.loc 1 166 17 view .LVU70
 253 006a 1360     		str	r3, [r2]
 254              		.loc 1 167 7 is_stmt 1 view .LVU71
 255              		.loc 1 167 17 is_stmt 0 view .LVU72
 256 006c 5368     		ldr	r3, [r2, #4]
 257 006e 0340     		ands	r3, r0
 258 0070 5360     		str	r3, [r2, #4]
 259              	.LVL15:
 260              	.L10:
 261              		.loc 1 202 1 view .LVU73
 262              		@ sp needed
 263 0072 F0BD     		pop	{r4, r5, r6, r7, pc}
 264              	.LVL16:
 265              	.L18:
 266              		.loc 1 156 7 is_stmt 1 view .LVU74
 267              		.loc 1 156 18 is_stmt 0 view .LVU75
 268 0074 AC68     		ldr	r4, [r5, #8]
 269 0076 1C43     		orrs	r4, r3
 270 0078 AC60     		str	r4, [r5, #8]
 271              		.loc 1 159 5 is_stmt 1 view .LVU76
 272              		.loc 1 160 18 is_stmt 0 view .LVU77
 273 007a 0A4C     		ldr	r4, .L21+8
 274              		.loc 1 159 8 view .LVU78
 275 007c 9207     		lsls	r2, r2, #30
 276 007e EBD4     		bmi	.L19
 277              	.L15:
 278              		.loc 1 162 7 is_stmt 1 view .LVU79
 279              		.loc 1 162 18 is_stmt 0 view .LVU80
 280 0080 E268     		ldr	r2, [r4, #12]
 281 0082 0240     		ands	r2, r0
 282 0084 E260     		str	r2, [r4, #12]
 283              		.loc 1 165 5 is_stmt 1 view .LVU81
 284              		.loc 1 165 8 is_stmt 0 view .LVU82
 285 0086 4A68     		ldr	r2, [r1, #4]
ARM GAS  /tmp/ccYM11gr.s 			page 6


 286 0088 002A     		cmp	r2, #0
 287 008a EBD1     		bne	.L20
 288              	.L17:
 289              		.loc 1 170 7 is_stmt 1 view .LVU83
 290              		.loc 1 170 17 is_stmt 0 view .LVU84
 291 008c 054A     		ldr	r2, .L21+8
 292 008e 5168     		ldr	r1, [r2, #4]
 293 0090 0B43     		orrs	r3, r1
 294              	.LVL17:
 295              		.loc 1 170 17 view .LVU85
 296 0092 5360     		str	r3, [r2, #4]
 297              		.loc 1 171 7 is_stmt 1 view .LVU86
 298              		.loc 1 171 17 is_stmt 0 view .LVU87
 299 0094 1368     		ldr	r3, [r2]
 300 0096 0340     		ands	r3, r0
 301 0098 1360     		str	r3, [r2]
 302 009a EAE7     		b	.L10
 303              	.L22:
 304              		.align	2
 305              	.L21:
 306 009c 00000140 		.word	1073807360
 307 00a0 0000847F 		.word	2139357184
 308 00a4 00040140 		.word	1073808384
 309              		.cfi_endproc
 310              	.LFE154:
 311              		.size	ext_lld_channel_enable, .-ext_lld_channel_enable
 312              		.section	.text.ext_lld_start,"ax",%progbits
 313              		.align	1
 314              		.p2align 4,,15
 315              		.global	ext_lld_start
 316              		.syntax unified
 317              		.code	16
 318              		.thumb_func
 319              		.fpu softvfp
 320              		.type	ext_lld_start, %function
 321              	ext_lld_start:
 322              	.LVL18:
 323              	.LFB152:
 324              		.loc 1 85 37 is_stmt 1 view -0
 325              		.cfi_startproc
 326              		@ args = 0, pretend = 0, frame = 0
 327              		@ frame_needed = 0, uses_anonymous_args = 0
 328              		.loc 1 86 3 view .LVU89
 329              		.loc 1 88 3 view .LVU90
 330              		.loc 1 85 37 is_stmt 0 view .LVU91
 331 0000 F0B5     		push	{r4, r5, r6, r7, lr}
 332              		.cfi_def_cfa_offset 20
 333              		.cfi_offset 4, -20
 334              		.cfi_offset 5, -16
 335              		.cfi_offset 6, -12
 336              		.cfi_offset 7, -8
 337              		.cfi_offset 14, -4
 338 0002 C646     		mov	lr, r8
 339              		.loc 1 88 6 view .LVU92
 340 0004 0378     		ldrb	r3, [r0]
 341              		.loc 1 85 37 view .LVU93
 342 0006 00B5     		push	{lr}
ARM GAS  /tmp/ccYM11gr.s 			page 7


 343              		.cfi_def_cfa_offset 24
 344              		.cfi_offset 8, -24
 345              		.loc 1 85 37 view .LVU94
 346 0008 0600     		movs	r6, r0
 347              		.loc 1 88 6 view .LVU95
 348 000a 012B     		cmp	r3, #1
 349 000c 27D0     		beq	.L29
 350              	.LVL19:
 351              	.L24:
 352              	.LBB5:
 353              	.LBB6:
 354              		.loc 1 213 23 view .LVU96
 355 000e 0123     		movs	r3, #1
 356              	.LBE6:
 357              	.LBE5:
 358              		.loc 1 85 37 view .LVU97
 359 0010 0025     		movs	r5, #0
 360              		.loc 1 93 43 view .LVU98
 361 0012 0427     		movs	r7, #4
 362              	.LBB10:
 363              	.LBB7:
 364              		.loc 1 213 23 view .LVU99
 365 0014 9846     		mov	r8, r3
 366              		.loc 1 220 16 view .LVU100
 367 0016 134C     		ldr	r4, .L31
 368 0018 12E0     		b	.L27
 369              	.LVL20:
 370              	.L25:
 371              		.loc 1 220 16 view .LVU101
 372              	.LBE7:
 373              	.LBE10:
 374              		.loc 1 96 7 is_stmt 1 view .LVU102
 375              	.LBB11:
 376              	.LBI5:
 377              		.loc 1 212 6 view .LVU103
 378              	.LBB8:
 379              		.loc 1 213 3 view .LVU104
 380              		.loc 1 215 3 view .LVU105
 381              		.loc 1 220 5 view .LVU106
 382              		.loc 1 220 19 is_stmt 0 view .LVU107
 383 001a 4346     		mov	r3, r8
 384 001c AB40     		lsls	r3, r3, r5
 385 001e DA43     		mvns	r2, r3
 386              		.loc 1 220 16 view .LVU108
 387 0020 2168     		ldr	r1, [r4]
 388              	.LBE8:
 389              	.LBE11:
 390              		.loc 1 92 47 view .LVU109
 391 0022 0135     		adds	r5, r5, #1
 392              	.LVL21:
 393              	.LBB12:
 394              	.LBB9:
 395              		.loc 1 220 16 view .LVU110
 396 0024 1140     		ands	r1, r2
 397 0026 2160     		str	r1, [r4]
 398              		.loc 1 221 5 is_stmt 1 view .LVU111
 399              		.loc 1 221 16 is_stmt 0 view .LVU112
ARM GAS  /tmp/ccYM11gr.s 			page 8


 400 0028 6168     		ldr	r1, [r4, #4]
 401 002a 1140     		ands	r1, r2
 402 002c 6160     		str	r1, [r4, #4]
 403              		.loc 1 222 5 is_stmt 1 view .LVU113
 404              		.loc 1 222 16 is_stmt 0 view .LVU114
 405 002e A168     		ldr	r1, [r4, #8]
 406 0030 1140     		ands	r1, r2
 407 0032 A160     		str	r1, [r4, #8]
 408              		.loc 1 223 5 is_stmt 1 view .LVU115
 409              		.loc 1 223 16 is_stmt 0 view .LVU116
 410 0034 E168     		ldr	r1, [r4, #12]
 411 0036 0A40     		ands	r2, r1
 412 0038 E260     		str	r2, [r4, #12]
 413              		.loc 1 224 5 is_stmt 1 view .LVU117
 414              	.LVL22:
 415              		.loc 1 224 17 is_stmt 0 view .LVU118
 416 003a 6361     		str	r3, [r4, #20]
 417              	.LBE9:
 418              	.LBE12:
 419              		.loc 1 92 3 view .LVU119
 420 003c 202D     		cmp	r5, #32
 421 003e 0BD0     		beq	.L30
 422              	.LVL23:
 423              	.L27:
 424              		.loc 1 93 5 is_stmt 1 view .LVU120
 425              		.loc 1 93 43 is_stmt 0 view .LVU121
 426 0040 7268     		ldr	r2, [r6, #4]
 427              		.loc 1 93 37 view .LVU122
 428 0042 EB00     		lsls	r3, r5, #3
 429              		.loc 1 93 43 view .LVU123
 430 0044 9B58     		ldr	r3, [r3, r2]
 431              		.loc 1 93 8 view .LVU124
 432 0046 3B42     		tst	r3, r7
 433 0048 E7D0     		beq	.L25
 434              		.loc 1 94 7 is_stmt 1 view .LVU125
 435 004a 2900     		movs	r1, r5
 436 004c 3000     		movs	r0, r6
 437              		.loc 1 92 47 is_stmt 0 view .LVU126
 438 004e 0135     		adds	r5, r5, #1
 439              	.LVL24:
 440              		.loc 1 94 7 view .LVU127
 441 0050 FFF7FEFF 		bl	ext_lld_channel_enable
 442              	.LVL25:
 443              		.loc 1 92 3 view .LVU128
 444 0054 202D     		cmp	r5, #32
 445 0056 F3D1     		bne	.L27
 446              	.L30:
 447              		.loc 1 97 1 view .LVU129
 448              		@ sp needed
 449              	.LVL26:
 450              	.LVL27:
 451              		.loc 1 97 1 view .LVU130
 452 0058 04BC     		pop	{r2}
 453 005a 9046     		mov	r8, r2
 454 005c F0BD     		pop	{r4, r5, r6, r7, pc}
 455              	.LVL28:
 456              	.L29:
ARM GAS  /tmp/ccYM11gr.s 			page 9


 457              		.loc 1 89 5 is_stmt 1 view .LVU131
 458 005e FFF7FEFF 		bl	ext_lld_exti_irq_enable
 459              	.LVL29:
 460              		.loc 1 89 5 is_stmt 0 view .LVU132
 461 0062 D4E7     		b	.L24
 462              	.L32:
 463              		.align	2
 464              	.L31:
 465 0064 00040140 		.word	1073808384
 466              		.cfi_endproc
 467              	.LFE152:
 468              		.size	ext_lld_start, .-ext_lld_start
 469              		.section	.text.ext_lld_channel_disable,"ax",%progbits
 470              		.align	1
 471              		.p2align 4,,15
 472              		.global	ext_lld_channel_disable
 473              		.syntax unified
 474              		.code	16
 475              		.thumb_func
 476              		.fpu softvfp
 477              		.type	ext_lld_channel_disable, %function
 478              	ext_lld_channel_disable:
 479              	.LVL30:
 480              	.LFB155:
 481              		.loc 1 212 69 is_stmt 1 view -0
 482              		.cfi_startproc
 483              		@ args = 0, pretend = 0, frame = 0
 484              		@ frame_needed = 0, uses_anonymous_args = 0
 485              		@ link register save eliminated.
 486              		.loc 1 213 3 view .LVU134
 487              		.loc 1 213 35 is_stmt 0 view .LVU135
 488 0000 1F23     		movs	r3, #31
 489              		.loc 1 213 23 view .LVU136
 490 0002 0122     		movs	r2, #1
 491              		.loc 1 213 35 view .LVU137
 492 0004 0B40     		ands	r3, r1
 493              		.loc 1 213 23 view .LVU138
 494 0006 9A40     		lsls	r2, r2, r3
 495              	.LVL31:
 496              		.loc 1 215 3 is_stmt 1 view .LVU139
 497              		.loc 1 220 5 view .LVU140
 498              		.loc 1 220 19 is_stmt 0 view .LVU141
 499 0008 D143     		mvns	r1, r2
 500              	.LVL32:
 501              		.loc 1 220 16 view .LVU142
 502 000a 074B     		ldr	r3, .L34
 503              		.loc 1 235 1 view .LVU143
 504              		@ sp needed
 505              		.loc 1 220 16 view .LVU144
 506 000c 1868     		ldr	r0, [r3]
 507              	.LVL33:
 508              		.loc 1 220 16 view .LVU145
 509 000e 0840     		ands	r0, r1
 510 0010 1860     		str	r0, [r3]
 511              		.loc 1 221 5 is_stmt 1 view .LVU146
 512              		.loc 1 221 16 is_stmt 0 view .LVU147
 513 0012 5868     		ldr	r0, [r3, #4]
ARM GAS  /tmp/ccYM11gr.s 			page 10


 514 0014 0840     		ands	r0, r1
 515 0016 5860     		str	r0, [r3, #4]
 516              		.loc 1 222 5 is_stmt 1 view .LVU148
 517              		.loc 1 222 16 is_stmt 0 view .LVU149
 518 0018 9868     		ldr	r0, [r3, #8]
 519 001a 0840     		ands	r0, r1
 520 001c 9860     		str	r0, [r3, #8]
 521              		.loc 1 223 5 is_stmt 1 view .LVU150
 522              		.loc 1 223 16 is_stmt 0 view .LVU151
 523 001e D868     		ldr	r0, [r3, #12]
 524 0020 0140     		ands	r1, r0
 525 0022 D960     		str	r1, [r3, #12]
 526              		.loc 1 224 5 is_stmt 1 view .LVU152
 527              		.loc 1 224 17 is_stmt 0 view .LVU153
 528 0024 5A61     		str	r2, [r3, #20]
 529              		.loc 1 235 1 view .LVU154
 530 0026 7047     		bx	lr
 531              	.L35:
 532              		.align	2
 533              	.L34:
 534 0028 00040140 		.word	1073808384
 535              		.cfi_endproc
 536              	.LFE155:
 537              		.size	ext_lld_channel_disable, .-ext_lld_channel_disable
 538              		.global	EXTD1
 539              		.section	.bss.EXTD1,"aw",%nobits
 540              		.align	2
 541              		.set	.LANCHOR0,. + 0
 542              		.type	EXTD1, %object
 543              		.size	EXTD1, 8
 544              	EXTD1:
 545 0000 00000000 		.space	8
 545      00000000 
 546              		.text
 547              	.Letext0:
 548              		.file 2 "/opt/nanovna/gcc-arm-none-eabi-8-2018-q4-major/lib/gcc/arm-none-eabi/8.2.1/include/stddef
 549              		.file 3 "/opt/nanovna/gcc-arm-none-eabi-8-2018-q4-major/arm-none-eabi/include/machine/_default_typ
 550              		.file 4 "/opt/nanovna/gcc-arm-none-eabi-8-2018-q4-major/arm-none-eabi/include/sys/_stdint.h"
 551              		.file 5 "ChibiOS/os/common/ports/ARMCMx/compilers/GCC/chtypes.h"
 552              		.file 6 "ChibiOS/os/rt/include/chsystypes.h"
 553              		.file 7 "ChibiOS/os/rt/include/chschd.h"
 554              		.file 8 "ChibiOS/os/common/ext/CMSIS/ST/STM32F0xx/stm32f072xb.h"
 555              		.file 9 "ChibiOS/os/common/ports/ARMCMx/chcore.h"
 556              		.file 10 "ChibiOS/os/common/ports/ARMCMx/chcore_v6m.h"
 557              		.file 11 "ChibiOS/os/hal/ports/STM32/LLD/TIMv1/stm32_tim.h"
 558              		.file 12 "ChibiOS/os/rt/include/chmtx.h"
 559              		.file 13 "ChibiOS/os/common/ext/CMSIS/ST/STM32F0xx/system_stm32f0xx.h"
 560              		.file 14 "ChibiOS/os/rt/include/chsys.h"
 561              		.file 15 "ChibiOS/os/rt/include/chregistry.h"
 562              		.file 16 "ChibiOS/os/rt/include/chevents.h"
 563              		.file 17 "ChibiOS/os/hal/ports/STM32/LLD/DMAv1/stm32_dma.h"
 564              		.file 18 "ChibiOS/os/hal/include/hal_queues.h"
 565              		.file 19 "ChibiOS/os/hal/ports/STM32/LLD/GPIOv2/hal_pal_lld.h"
 566              		.file 20 "ChibiOS/os/hal/include/hal_ext.h"
 567              		.file 21 "ChibiOS/os/hal/ports/STM32/LLD/EXTIv1/hal_ext_lld.h"
 568              		.file 22 "ChibiOS/os/hal/include/hal_gpt.h"
 569              		.file 23 "ChibiOS/os/hal/ports/STM32/LLD/TIMv1/hal_gpt_lld.h"
ARM GAS  /tmp/ccYM11gr.s 			page 11


 570              		.file 24 "ChibiOS/os/hal/include/hal_i2c.h"
 571              		.file 25 "ChibiOS/os/hal/ports/STM32/LLD/I2Cv2/hal_i2c_lld.h"
 572              		.file 26 "ChibiOS/os/hal/include/hal_i2s.h"
 573              		.file 27 "ChibiOS/os/hal/ports/STM32/LLD/SPIv2/hal_i2s_lld.h"
 574              		.file 28 "/opt/nanovna/gcc-arm-none-eabi-8-2018-q4-major/arm-none-eabi/include/sys/lock.h"
 575              		.file 29 "/opt/nanovna/gcc-arm-none-eabi-8-2018-q4-major/arm-none-eabi/include/sys/_types.h"
 576              		.file 30 "/opt/nanovna/gcc-arm-none-eabi-8-2018-q4-major/arm-none-eabi/include/sys/reent.h"
 577              		.file 31 "/opt/nanovna/gcc-arm-none-eabi-8-2018-q4-major/arm-none-eabi/include/time.h"
 578              		.file 32 "ChibiOS/os/hal/include/hal_rtc.h"
 579              		.file 33 "ChibiOS/os/hal/ports/STM32/LLD/RTCv2/hal_rtc_lld.h"
 580              		.file 34 "ChibiOS/os/hal/include/hal_serial.h"
 581              		.file 35 "ChibiOS/os/hal/ports/STM32/LLD/USARTv2/hal_serial_lld.h"
 582              		.file 36 "ChibiOS/os/hal/include/hal_spi.h"
 583              		.file 37 "ChibiOS/os/hal/ports/STM32/LLD/SPIv2/hal_spi_lld.h"
 584              		.file 38 "ChibiOS/os/hal/include/hal_usb.h"
 585              		.file 39 "ChibiOS/os/hal/ports/STM32/LLD/USBv1/hal_usb_lld.h"
 586              		.file 40 "ChibiOS/os/hal/ports/STM32/STM32F0xx/hal_ext_lld_isr.h"