ARM GAS  /tmp/cc8wU8BP.s 			page 1


   1              		.cpu cortex-m0
   2              		.eabi_attribute 20, 1
   3              		.eabi_attribute 21, 1
   4              		.eabi_attribute 23, 3
   5              		.eabi_attribute 24, 1
   6              		.eabi_attribute 25, 1
   7              		.eabi_attribute 26, 1
   8              		.eabi_attribute 30, 2
   9              		.eabi_attribute 34, 0
  10              		.eabi_attribute 18, 4
  11              		.file	"hal_i2s.c"
  12              		.text
  13              	.Ltext0:
  14              		.cfi_sections	.debug_frame
  15              		.section	.text.i2sInit,"ax",%progbits
  16              		.align	1
  17              		.p2align 4,,15
  18              		.global	i2sInit
  19              		.arch armv6s-m
  20              		.syntax unified
  21              		.code	16
  22              		.thumb_func
  23              		.fpu softvfp
  24              		.type	i2sInit, %function
  25              	i2sInit:
  26              	.LFB151:
  27              		.file 1 "ChibiOS/os/hal/src/hal_i2s.c"
  28              		.loc 1 56 20 view -0
  29              		.cfi_startproc
  30              		@ args = 0, pretend = 0, frame = 0
  31              		@ frame_needed = 0, uses_anonymous_args = 0
  32              		.loc 1 58 3 view .LVU1
  33              		.loc 1 56 20 is_stmt 0 view .LVU2
  34 0000 10B5     		push	{r4, lr}
  35              		.cfi_def_cfa_offset 8
  36              		.cfi_offset 4, -8
  37              		.cfi_offset 14, -4
  38              		.loc 1 58 3 view .LVU3
  39 0002 FFF7FEFF 		bl	i2s_lld_init
  40              	.LVL0:
  41              		.loc 1 59 1 view .LVU4
  42              		@ sp needed
  43 0006 10BD     		pop	{r4, pc}
  44              		.cfi_endproc
  45              	.LFE151:
  46              		.size	i2sInit, .-i2sInit
  47              		.section	.text.i2sObjectInit,"ax",%progbits
  48              		.align	1
  49              		.p2align 4,,15
  50              		.global	i2sObjectInit
  51              		.syntax unified
  52              		.code	16
  53              		.thumb_func
  54              		.fpu softvfp
  55              		.type	i2sObjectInit, %function
  56              	i2sObjectInit:
  57              	.LVL1:
ARM GAS  /tmp/cc8wU8BP.s 			page 2


  58              	.LFB152:
  59              		.loc 1 68 37 is_stmt 1 view -0
  60              		.cfi_startproc
  61              		@ args = 0, pretend = 0, frame = 0
  62              		@ frame_needed = 0, uses_anonymous_args = 0
  63              		@ link register save eliminated.
  64              		.loc 1 70 3 view .LVU6
  65              		.loc 1 70 16 is_stmt 0 view .LVU7
  66 0000 0123     		movs	r3, #1
  67 0002 0370     		strb	r3, [r0]
  68              		.loc 1 71 3 is_stmt 1 view .LVU8
  69              		.loc 1 71 16 is_stmt 0 view .LVU9
  70 0004 0023     		movs	r3, #0
  71              		.loc 1 72 1 view .LVU10
  72              		@ sp needed
  73              		.loc 1 71 16 view .LVU11
  74 0006 4360     		str	r3, [r0, #4]
  75              		.loc 1 72 1 view .LVU12
  76 0008 7047     		bx	lr
  77              		.cfi_endproc
  78              	.LFE152:
  79              		.size	i2sObjectInit, .-i2sObjectInit
  80 000a C046     		.section	.text.i2sStart,"ax",%progbits
  81              		.align	1
  82              		.p2align 4,,15
  83              		.global	i2sStart
  84              		.syntax unified
  85              		.code	16
  86              		.thumb_func
  87              		.fpu softvfp
  88              		.type	i2sStart, %function
  89              	i2sStart:
  90              	.LVL2:
  91              	.LFB153:
  92              		.loc 1 82 57 is_stmt 1 view -0
  93              		.cfi_startproc
  94              		@ args = 0, pretend = 0, frame = 0
  95              		@ frame_needed = 0, uses_anonymous_args = 0
  96              		.loc 1 84 3 view .LVU14
  97              		.loc 1 84 3 view .LVU15
  98              		.loc 1 86 3 view .LVU16
  99              	.LBB76:
 100              	.LBI76:
 101              		.file 2 "ChibiOS/os/hal/osal/rt/osal.h"
 102              		.loc 2 491 20 view .LVU17
 103              	.LBE76:
 104              		.loc 2 493 3 view .LVU18
 105              	.LBB88:
 106              	.LBB77:
 107              	.LBI77:
 108              		.file 3 "ChibiOS/os/rt/include/chsys.h"
 109              		.loc 3 374 20 view .LVU19
 110              	.LBE77:
 111              	.LBE88:
 112              		.loc 3 376 3 view .LVU20
 113              	.LBB89:
 114              	.LBB85:
ARM GAS  /tmp/cc8wU8BP.s 			page 3


 115              	.LBB78:
 116              	.LBI78:
 117              		.file 4 "ChibiOS/os/common/ports/ARMCMx/chcore_v6m.h"
 118              		.loc 4 371 20 view .LVU21
 119              	.LBE78:
 120              	.LBE85:
 121              	.LBE89:
 122              		.loc 4 373 3 view .LVU22
 123              	.LBB90:
 124              	.LBB86:
 125              	.LBB83:
 126              	.LBB79:
 127              	.LBI79:
 128              		.file 5 "ChibiOS/os/common/ext/CMSIS/include/core_cmFunc.h"
 129              		.loc 5 342 57 view .LVU23
 130              	.LBB80:
 131              		.loc 5 344 3 view .LVU24
 132              	.LBE80:
 133              	.LBE79:
 134              	.LBE83:
 135              	.LBE86:
 136              	.LBE90:
 137              		.loc 1 82 57 is_stmt 0 view .LVU25
 138 0000 10B5     		push	{r4, lr}
 139              		.cfi_def_cfa_offset 8
 140              		.cfi_offset 4, -8
 141              		.cfi_offset 14, -4
 142              		.loc 1 82 57 view .LVU26
 143 0002 0400     		movs	r4, r0
 144              	.LBB91:
 145              	.LBB87:
 146              	.LBB84:
 147              	.LBB82:
 148              	.LBB81:
 149              		.loc 5 344 3 view .LVU27
 150              		.syntax divided
 151              	@ 344 "ChibiOS/os/common/ext/CMSIS/include/core_cmFunc.h" 1
 152 0004 72B6     		cpsid i
 153              	@ 0 "" 2
 154              		.thumb
 155              		.syntax unified
 156              	.LBE81:
 157              	.LBE82:
 158              	.LBE84:
 159              	.LBE87:
 160              	.LBE91:
 161              		.loc 3 377 34 is_stmt 1 view .LVU28
 162              		.loc 3 378 20 view .LVU29
 163              		.loc 1 87 3 view .LVU30
 164              		.loc 1 87 3 view .LVU31
 165              		.loc 1 89 3 view .LVU32
 166              		.loc 1 89 16 is_stmt 0 view .LVU33
 167 0006 4160     		str	r1, [r0, #4]
 168              		.loc 1 90 3 is_stmt 1 view .LVU34
 169 0008 FFF7FEFF 		bl	i2s_lld_start
 170              	.LVL3:
 171              		.loc 1 91 3 view .LVU35
ARM GAS  /tmp/cc8wU8BP.s 			page 4


 172              		.loc 1 91 15 is_stmt 0 view .LVU36
 173 000c 0223     		movs	r3, #2
 174 000e 2370     		strb	r3, [r4]
 175              		.loc 1 92 3 is_stmt 1 view .LVU37
 176              	.LBB92:
 177              	.LBI92:
 178              		.loc 2 502 20 view .LVU38
 179              	.LBE92:
 180              		.loc 2 504 3 view .LVU39
 181              	.LBB101:
 182              	.LBB93:
 183              	.LBI93:
 184              		.loc 3 386 20 view .LVU40
 185              	.LBB94:
 186              		.loc 3 388 22 view .LVU41
 187              		.loc 3 389 33 view .LVU42
 188              		.loc 3 395 3 view .LVU43
 189              		.loc 3 395 3 view .LVU44
 190              		.loc 3 399 3 view .LVU45
 191              	.LBB95:
 192              	.LBI95:
 193              		.loc 4 380 20 view .LVU46
 194              	.LBE95:
 195              	.LBE94:
 196              	.LBE93:
 197              	.LBE101:
 198              		.loc 4 382 3 view .LVU47
 199              	.LBB102:
 200              	.LBB100:
 201              	.LBB99:
 202              	.LBB98:
 203              	.LBB96:
 204              	.LBI96:
 205              		.loc 5 331 57 view .LVU48
 206              	.LBB97:
 207              		.loc 5 333 3 view .LVU49
 208              		.syntax divided
 209              	@ 333 "ChibiOS/os/common/ext/CMSIS/include/core_cmFunc.h" 1
 210 0010 62B6     		cpsie i
 211              	@ 0 "" 2
 212              		.thumb
 213              		.syntax unified
 214              	.LBE97:
 215              	.LBE96:
 216              	.LBE98:
 217              	.LBE99:
 218              	.LBE100:
 219              	.LBE102:
 220              		.loc 1 93 1 is_stmt 0 view .LVU50
 221              		@ sp needed
 222              	.LVL4:
 223              		.loc 1 93 1 view .LVU51
 224 0012 10BD     		pop	{r4, pc}
 225              		.cfi_endproc
 226              	.LFE153:
 227              		.size	i2sStart, .-i2sStart
 228              		.section	.text.i2sStop,"ax",%progbits
ARM GAS  /tmp/cc8wU8BP.s 			page 5


 229              		.align	1
 230              		.p2align 4,,15
 231              		.global	i2sStop
 232              		.syntax unified
 233              		.code	16
 234              		.thumb_func
 235              		.fpu softvfp
 236              		.type	i2sStop, %function
 237              	i2sStop:
 238              	.LVL5:
 239              	.LFB154:
 240              		.loc 1 102 31 is_stmt 1 view -0
 241              		.cfi_startproc
 242              		@ args = 0, pretend = 0, frame = 0
 243              		@ frame_needed = 0, uses_anonymous_args = 0
 244              		.loc 1 104 3 view .LVU53
 245              		.loc 1 104 3 view .LVU54
 246              		.loc 1 106 3 view .LVU55
 247              	.LBB103:
 248              	.LBI103:
 249              		.loc 2 491 20 view .LVU56
 250              	.LBE103:
 251              		.loc 2 493 3 view .LVU57
 252              	.LBB115:
 253              	.LBB104:
 254              	.LBI104:
 255              		.loc 3 374 20 view .LVU58
 256              	.LBE104:
 257              	.LBE115:
 258              		.loc 3 376 3 view .LVU59
 259              	.LBB116:
 260              	.LBB112:
 261              	.LBB105:
 262              	.LBI105:
 263              		.loc 4 371 20 view .LVU60
 264              	.LBE105:
 265              	.LBE112:
 266              	.LBE116:
 267              		.loc 4 373 3 view .LVU61
 268              	.LBB117:
 269              	.LBB113:
 270              	.LBB110:
 271              	.LBB106:
 272              	.LBI106:
 273              		.loc 5 342 57 view .LVU62
 274              	.LBB107:
 275              		.loc 5 344 3 view .LVU63
 276              	.LBE107:
 277              	.LBE106:
 278              	.LBE110:
 279              	.LBE113:
 280              	.LBE117:
 281              		.loc 1 102 31 is_stmt 0 view .LVU64
 282 0000 10B5     		push	{r4, lr}
 283              		.cfi_def_cfa_offset 8
 284              		.cfi_offset 4, -8
 285              		.cfi_offset 14, -4
ARM GAS  /tmp/cc8wU8BP.s 			page 6


 286              		.loc 1 102 31 view .LVU65
 287 0002 0400     		movs	r4, r0
 288              	.LBB118:
 289              	.LBB114:
 290              	.LBB111:
 291              	.LBB109:
 292              	.LBB108:
 293              		.loc 5 344 3 view .LVU66
 294              		.syntax divided
 295              	@ 344 "ChibiOS/os/common/ext/CMSIS/include/core_cmFunc.h" 1
 296 0004 72B6     		cpsid i
 297              	@ 0 "" 2
 298              		.thumb
 299              		.syntax unified
 300              	.LBE108:
 301              	.LBE109:
 302              	.LBE111:
 303              	.LBE114:
 304              	.LBE118:
 305              		.loc 3 377 34 is_stmt 1 view .LVU67
 306              		.loc 3 378 20 view .LVU68
 307              		.loc 1 107 3 view .LVU69
 308              		.loc 1 107 3 view .LVU70
 309              		.loc 1 109 3 view .LVU71
 310 0006 FFF7FEFF 		bl	i2s_lld_stop
 311              	.LVL6:
 312              		.loc 1 110 3 view .LVU72
 313              		.loc 1 110 15 is_stmt 0 view .LVU73
 314 000a 0123     		movs	r3, #1
 315 000c 2370     		strb	r3, [r4]
 316              		.loc 1 111 3 is_stmt 1 view .LVU74
 317              	.LBB119:
 318              	.LBI119:
 319              		.loc 2 502 20 view .LVU75
 320              	.LBE119:
 321              		.loc 2 504 3 view .LVU76
 322              	.LBB128:
 323              	.LBB120:
 324              	.LBI120:
 325              		.loc 3 386 20 view .LVU77
 326              	.LBB121:
 327              		.loc 3 388 22 view .LVU78
 328              		.loc 3 389 33 view .LVU79
 329              		.loc 3 395 3 view .LVU80
 330              		.loc 3 395 3 view .LVU81
 331              		.loc 3 399 3 view .LVU82
 332              	.LBB122:
 333              	.LBI122:
 334              		.loc 4 380 20 view .LVU83
 335              	.LBE122:
 336              	.LBE121:
 337              	.LBE120:
 338              	.LBE128:
 339              		.loc 4 382 3 view .LVU84
 340              	.LBB129:
 341              	.LBB127:
 342              	.LBB126:
ARM GAS  /tmp/cc8wU8BP.s 			page 7


 343              	.LBB125:
 344              	.LBB123:
 345              	.LBI123:
 346              		.loc 5 331 57 view .LVU85
 347              	.LBB124:
 348              		.loc 5 333 3 view .LVU86
 349              		.syntax divided
 350              	@ 333 "ChibiOS/os/common/ext/CMSIS/include/core_cmFunc.h" 1
 351 000e 62B6     		cpsie i
 352              	@ 0 "" 2
 353              		.thumb
 354              		.syntax unified
 355              	.LBE124:
 356              	.LBE123:
 357              	.LBE125:
 358              	.LBE126:
 359              	.LBE127:
 360              	.LBE129:
 361              		.loc 1 112 1 is_stmt 0 view .LVU87
 362              		@ sp needed
 363              	.LVL7:
 364              		.loc 1 112 1 view .LVU88
 365 0010 10BD     		pop	{r4, pc}
 366              		.cfi_endproc
 367              	.LFE154:
 368              		.size	i2sStop, .-i2sStop
 369 0012 C046     		.section	.text.i2sStartExchange,"ax",%progbits
 370              		.align	1
 371              		.p2align 4,,15
 372              		.global	i2sStartExchange
 373              		.syntax unified
 374              		.code	16
 375              		.thumb_func
 376              		.fpu softvfp
 377              		.type	i2sStartExchange, %function
 378              	i2sStartExchange:
 379              	.LVL8:
 380              	.LFB155:
 381              		.loc 1 121 40 is_stmt 1 view -0
 382              		.cfi_startproc
 383              		@ args = 0, pretend = 0, frame = 0
 384              		@ frame_needed = 0, uses_anonymous_args = 0
 385              		.loc 1 123 3 view .LVU90
 386              		.loc 1 123 3 view .LVU91
 387              		.loc 1 125 3 view .LVU92
 388              	.LBB130:
 389              	.LBI130:
 390              		.loc 2 491 20 view .LVU93
 391              	.LBE130:
 392              		.loc 2 493 3 view .LVU94
 393              	.LBB142:
 394              	.LBB131:
 395              	.LBI131:
 396              		.loc 3 374 20 view .LVU95
 397              	.LBE131:
 398              	.LBE142:
 399              		.loc 3 376 3 view .LVU96
ARM GAS  /tmp/cc8wU8BP.s 			page 8


 400              	.LBB143:
 401              	.LBB139:
 402              	.LBB132:
 403              	.LBI132:
 404              		.loc 4 371 20 view .LVU97
 405              	.LBE132:
 406              	.LBE139:
 407              	.LBE143:
 408              		.loc 4 373 3 view .LVU98
 409              	.LBB144:
 410              	.LBB140:
 411              	.LBB137:
 412              	.LBB133:
 413              	.LBI133:
 414              		.loc 5 342 57 view .LVU99
 415              	.LBB134:
 416              		.loc 5 344 3 view .LVU100
 417              	.LBE134:
 418              	.LBE133:
 419              	.LBE137:
 420              	.LBE140:
 421              	.LBE144:
 422              		.loc 1 121 40 is_stmt 0 view .LVU101
 423 0000 10B5     		push	{r4, lr}
 424              		.cfi_def_cfa_offset 8
 425              		.cfi_offset 4, -8
 426              		.cfi_offset 14, -4
 427              		.loc 1 121 40 view .LVU102
 428 0002 0400     		movs	r4, r0
 429              	.LBB145:
 430              	.LBB141:
 431              	.LBB138:
 432              	.LBB136:
 433              	.LBB135:
 434              		.loc 5 344 3 view .LVU103
 435              		.syntax divided
 436              	@ 344 "ChibiOS/os/common/ext/CMSIS/include/core_cmFunc.h" 1
 437 0004 72B6     		cpsid i
 438              	@ 0 "" 2
 439              		.thumb
 440              		.syntax unified
 441              	.LBE135:
 442              	.LBE136:
 443              	.LBE138:
 444              	.LBE141:
 445              	.LBE145:
 446              		.loc 3 377 34 is_stmt 1 view .LVU104
 447              		.loc 3 378 20 view .LVU105
 448              		.loc 1 126 3 view .LVU106
 449              		.loc 1 126 3 view .LVU107
 450              		.loc 1 127 3 view .LVU108
 451 0006 FFF7FEFF 		bl	i2s_lld_start_exchange
 452              	.LVL9:
 453              		.loc 1 127 3 view .LVU109
 454 000a 0323     		movs	r3, #3
 455 000c 2370     		strb	r3, [r4]
 456              		.loc 1 127 26 view .LVU110
ARM GAS  /tmp/cc8wU8BP.s 			page 9


 457              		.loc 1 128 3 view .LVU111
 458              	.LBB146:
 459              	.LBI146:
 460              		.loc 2 502 20 view .LVU112
 461              	.LBE146:
 462              		.loc 2 504 3 view .LVU113
 463              	.LBB155:
 464              	.LBB147:
 465              	.LBI147:
 466              		.loc 3 386 20 view .LVU114
 467              	.LBB148:
 468              		.loc 3 388 22 view .LVU115
 469              		.loc 3 389 33 view .LVU116
 470              		.loc 3 395 3 view .LVU117
 471              		.loc 3 395 3 view .LVU118
 472              		.loc 3 399 3 view .LVU119
 473              	.LBB149:
 474              	.LBI149:
 475              		.loc 4 380 20 view .LVU120
 476              	.LBE149:
 477              	.LBE148:
 478              	.LBE147:
 479              	.LBE155:
 480              		.loc 4 382 3 view .LVU121
 481              	.LBB156:
 482              	.LBB154:
 483              	.LBB153:
 484              	.LBB152:
 485              	.LBB150:
 486              	.LBI150:
 487              		.loc 5 331 57 view .LVU122
 488              	.LBB151:
 489              		.loc 5 333 3 view .LVU123
 490              		.syntax divided
 491              	@ 333 "ChibiOS/os/common/ext/CMSIS/include/core_cmFunc.h" 1
 492 000e 62B6     		cpsie i
 493              	@ 0 "" 2
 494              		.thumb
 495              		.syntax unified
 496              	.LBE151:
 497              	.LBE150:
 498              	.LBE152:
 499              	.LBE153:
 500              	.LBE154:
 501              	.LBE156:
 502              		.loc 1 129 1 is_stmt 0 view .LVU124
 503              		@ sp needed
 504              	.LVL10:
 505              		.loc 1 129 1 view .LVU125
 506 0010 10BD     		pop	{r4, pc}
 507              		.cfi_endproc
 508              	.LFE155:
 509              		.size	i2sStartExchange, .-i2sStartExchange
 510 0012 C046     		.section	.text.i2sStopExchange,"ax",%progbits
 511              		.align	1
 512              		.p2align 4,,15
 513              		.global	i2sStopExchange
ARM GAS  /tmp/cc8wU8BP.s 			page 10


 514              		.syntax unified
 515              		.code	16
 516              		.thumb_func
 517              		.fpu softvfp
 518              		.type	i2sStopExchange, %function
 519              	i2sStopExchange:
 520              	.LVL11:
 521              	.LFB156:
 522              		.loc 1 140 39 is_stmt 1 view -0
 523              		.cfi_startproc
 524              		@ args = 0, pretend = 0, frame = 0
 525              		@ frame_needed = 0, uses_anonymous_args = 0
 526              		.loc 1 142 3 view .LVU127
 527              		.loc 1 142 3 view .LVU128
 528              		.loc 1 144 3 view .LVU129
 529              	.LBB157:
 530              	.LBI157:
 531              		.loc 2 491 20 view .LVU130
 532              	.LBE157:
 533              		.loc 2 493 3 view .LVU131
 534              	.LBB169:
 535              	.LBB158:
 536              	.LBI158:
 537              		.loc 3 374 20 view .LVU132
 538              	.LBE158:
 539              	.LBE169:
 540              		.loc 3 376 3 view .LVU133
 541              	.LBB170:
 542              	.LBB166:
 543              	.LBB159:
 544              	.LBI159:
 545              		.loc 4 371 20 view .LVU134
 546              	.LBE159:
 547              	.LBE166:
 548              	.LBE170:
 549              		.loc 4 373 3 view .LVU135
 550              	.LBB171:
 551              	.LBB167:
 552              	.LBB164:
 553              	.LBB160:
 554              	.LBI160:
 555              		.loc 5 342 57 view .LVU136
 556              	.LBB161:
 557              		.loc 5 344 3 view .LVU137
 558              	.LBE161:
 559              	.LBE160:
 560              	.LBE164:
 561              	.LBE167:
 562              	.LBE171:
 563              		.loc 1 140 39 is_stmt 0 view .LVU138
 564 0000 10B5     		push	{r4, lr}
 565              		.cfi_def_cfa_offset 8
 566              		.cfi_offset 4, -8
 567              		.cfi_offset 14, -4
 568              		.loc 1 140 39 view .LVU139
 569 0002 0400     		movs	r4, r0
 570              	.LBB172:
ARM GAS  /tmp/cc8wU8BP.s 			page 11


 571              	.LBB168:
 572              	.LBB165:
 573              	.LBB163:
 574              	.LBB162:
 575              		.loc 5 344 3 view .LVU140
 576              		.syntax divided
 577              	@ 344 "ChibiOS/os/common/ext/CMSIS/include/core_cmFunc.h" 1
 578 0004 72B6     		cpsid i
 579              	@ 0 "" 2
 580              		.thumb
 581              		.syntax unified
 582              	.LBE162:
 583              	.LBE163:
 584              	.LBE165:
 585              	.LBE168:
 586              	.LBE172:
 587              		.loc 3 377 34 is_stmt 1 view .LVU141
 588              		.loc 3 378 20 view .LVU142
 589              		.loc 1 145 3 view .LVU143
 590              		.loc 1 145 3 view .LVU144
 591              		.loc 1 149 3 view .LVU145
 592 0006 FFF7FEFF 		bl	i2s_lld_stop_exchange
 593              	.LVL12:
 594              		.loc 1 149 3 view .LVU146
 595 000a 0223     		movs	r3, #2
 596 000c 2370     		strb	r3, [r4]
 597              		.loc 1 149 25 view .LVU147
 598              		.loc 1 150 3 view .LVU148
 599              	.LBB173:
 600              	.LBI173:
 601              		.loc 2 502 20 view .LVU149
 602              	.LBE173:
 603              		.loc 2 504 3 view .LVU150
 604              	.LBB182:
 605              	.LBB174:
 606              	.LBI174:
 607              		.loc 3 386 20 view .LVU151
 608              	.LBB175:
 609              		.loc 3 388 22 view .LVU152
 610              		.loc 3 389 33 view .LVU153
 611              		.loc 3 395 3 view .LVU154
 612              		.loc 3 395 3 view .LVU155
 613              		.loc 3 399 3 view .LVU156
 614              	.LBB176:
 615              	.LBI176:
 616              		.loc 4 380 20 view .LVU157
 617              	.LBE176:
 618              	.LBE175:
 619              	.LBE174:
 620              	.LBE182:
 621              		.loc 4 382 3 view .LVU158
 622              	.LBB183:
 623              	.LBB181:
 624              	.LBB180:
 625              	.LBB179:
 626              	.LBB177:
 627              	.LBI177:
ARM GAS  /tmp/cc8wU8BP.s 			page 12


 628              		.loc 5 331 57 view .LVU159
 629              	.LBB178:
 630              		.loc 5 333 3 view .LVU160
 631              		.syntax divided
 632              	@ 333 "ChibiOS/os/common/ext/CMSIS/include/core_cmFunc.h" 1
 633 000e 62B6     		cpsie i
 634              	@ 0 "" 2
 635              		.thumb
 636              		.syntax unified
 637              	.LBE178:
 638              	.LBE177:
 639              	.LBE179:
 640              	.LBE180:
 641              	.LBE181:
 642              	.LBE183:
 643              		.loc 1 151 1 is_stmt 0 view .LVU161
 644              		@ sp needed
 645              	.LVL13:
 646              		.loc 1 151 1 view .LVU162
 647 0010 10BD     		pop	{r4, pc}
 648              		.cfi_endproc
 649              	.LFE156:
 650              		.size	i2sStopExchange, .-i2sStopExchange
 651 0012 C046     		.text
 652              	.Letext0:
 653              		.file 6 "/opt/nanovna/gcc-arm-none-eabi-8-2018-q4-major/lib/gcc/arm-none-eabi/8.2.1/include/stddef
 654              		.file 7 "/opt/nanovna/gcc-arm-none-eabi-8-2018-q4-major/arm-none-eabi/include/machine/_default_typ
 655              		.file 8 "/opt/nanovna/gcc-arm-none-eabi-8-2018-q4-major/arm-none-eabi/include/sys/_stdint.h"
 656              		.file 9 "ChibiOS/os/common/ports/ARMCMx/compilers/GCC/chtypes.h"
 657              		.file 10 "ChibiOS/os/rt/include/chsystypes.h"
 658              		.file 11 "ChibiOS/os/rt/include/chschd.h"
 659              		.file 12 "ChibiOS/os/common/ext/CMSIS/ST/STM32F0xx/stm32f072xb.h"
 660              		.file 13 "ChibiOS/os/common/ports/ARMCMx/chcore.h"
 661              		.file 14 "ChibiOS/os/hal/ports/STM32/LLD/TIMv1/stm32_tim.h"
 662              		.file 15 "ChibiOS/os/rt/include/chmtx.h"
 663              		.file 16 "ChibiOS/os/common/ext/CMSIS/ST/STM32F0xx/system_stm32f0xx.h"
 664              		.file 17 "ChibiOS/os/rt/include/chregistry.h"
 665              		.file 18 "ChibiOS/os/rt/include/chevents.h"
 666              		.file 19 "ChibiOS/os/hal/ports/STM32/LLD/DMAv1/stm32_dma.h"
 667              		.file 20 "ChibiOS/os/hal/include/hal_queues.h"
 668              		.file 21 "ChibiOS/os/hal/ports/STM32/LLD/GPIOv2/hal_pal_lld.h"
 669              		.file 22 "ChibiOS/os/hal/include/hal_ext.h"
 670              		.file 23 "ChibiOS/os/hal/ports/STM32/LLD/EXTIv1/hal_ext_lld.h"
 671              		.file 24 "ChibiOS/os/hal/include/hal_gpt.h"
 672              		.file 25 "ChibiOS/os/hal/ports/STM32/LLD/TIMv1/hal_gpt_lld.h"
 673              		.file 26 "ChibiOS/os/hal/include/hal_i2c.h"
 674              		.file 27 "ChibiOS/os/hal/ports/STM32/LLD/I2Cv2/hal_i2c_lld.h"
 675              		.file 28 "ChibiOS/os/hal/include/hal_i2s.h"
 676              		.file 29 "ChibiOS/os/hal/ports/STM32/LLD/SPIv2/hal_i2s_lld.h"
 677              		.file 30 "/opt/nanovna/gcc-arm-none-eabi-8-2018-q4-major/arm-none-eabi/include/sys/lock.h"
 678              		.file 31 "/opt/nanovna/gcc-arm-none-eabi-8-2018-q4-major/arm-none-eabi/include/sys/_types.h"
 679              		.file 32 "/opt/nanovna/gcc-arm-none-eabi-8-2018-q4-major/arm-none-eabi/include/sys/reent.h"
 680              		.file 33 "/opt/nanovna/gcc-arm-none-eabi-8-2018-q4-major/arm-none-eabi/include/time.h"
 681              		.file 34 "ChibiOS/os/hal/include/hal_rtc.h"
 682              		.file 35 "ChibiOS/os/hal/ports/STM32/LLD/RTCv2/hal_rtc_lld.h"
 683              		.file 36 "ChibiOS/os/hal/include/hal_serial.h"
 684              		.file 37 "ChibiOS/os/hal/ports/STM32/LLD/USARTv2/hal_serial_lld.h"
ARM GAS  /tmp/cc8wU8BP.s 			page 13


 685              		.file 38 "ChibiOS/os/hal/include/hal_spi.h"
 686              		.file 39 "ChibiOS/os/hal/ports/STM32/LLD/SPIv2/hal_spi_lld.h"
 687              		.file 40 "ChibiOS/os/hal/include/hal_usb.h"
 688              		.file 41 "ChibiOS/os/hal/ports/STM32/LLD/USBv1/hal_usb_lld.h"