ARM GAS  /tmp/ccmIppUU.s 			page 1


   1              		.cpu cortex-m0
   2              		.eabi_attribute 20, 1
   3              		.eabi_attribute 21, 1
   4              		.eabi_attribute 23, 3
   5              		.eabi_attribute 24, 1
   6              		.eabi_attribute 25, 1
   7              		.eabi_attribute 26, 1
   8              		.eabi_attribute 30, 2
   9              		.eabi_attribute 34, 0
  10              		.eabi_attribute 18, 4
  11              		.file	"hal_pal_lld.c"
  12              		.text
  13              	.Ltext0:
  14              		.cfi_sections	.debug_frame
  15              		.section	.text._pal_lld_init,"ax",%progbits
  16              		.align	1
  17              		.p2align 4,,15
  18              		.global	_pal_lld_init
  19              		.arch armv6s-m
  20              		.syntax unified
  21              		.code	16
  22              		.thumb_func
  23              		.fpu softvfp
  24              		.type	_pal_lld_init, %function
  25              	_pal_lld_init:
  26              	.LVL0:
  27              	.LFB152:
  28              		.file 1 "ChibiOS/os/hal/ports/STM32/LLD/GPIOv2/hal_pal_lld.c"
  29              		.loc 1 88 45 view -0
  30              		.cfi_startproc
  31              		@ args = 0, pretend = 0, frame = 0
  32              		@ frame_needed = 0, uses_anonymous_args = 0
  33              		@ link register save eliminated.
  34              		.loc 1 100 3 view .LVU1
  35 0000 FC23     		movs	r3, #252
  36 0002 334A     		ldr	r2, .L3
  37 0004 DB03     		lsls	r3, r3, #15
  38 0006 5169     		ldr	r1, [r2, #20]
  39              		.loc 1 144 1 is_stmt 0 view .LVU2
  40              		@ sp needed
  41              		.loc 1 100 3 view .LVU3
  42 0008 0B43     		orrs	r3, r1
  43 000a 5361     		str	r3, [r2, #20]
  44              		.loc 1 100 34 is_stmt 1 view .LVU4
  45              		.loc 1 112 3 view .LVU5
  46              	.LVL1:
  47              	.LBB14:
  48              	.LBI14:
  49              		.loc 1 61 13 view .LVU6
  50              	.LBB15:
  51              		.loc 1 63 3 view .LVU7
  52              		.loc 1 63 18 is_stmt 0 view .LVU8
  53 000c 9023     		movs	r3, #144
  54 000e 4268     		ldr	r2, [r0, #4]
  55 0010 DB05     		lsls	r3, r3, #23
  56 0012 5A60     		str	r2, [r3, #4]
  57              		.loc 1 64 3 is_stmt 1 view .LVU9
ARM GAS  /tmp/ccmIppUU.s 			page 2


  58              		.loc 1 64 18 is_stmt 0 view .LVU10
  59 0014 8268     		ldr	r2, [r0, #8]
  60 0016 9A60     		str	r2, [r3, #8]
  61              		.loc 1 65 3 is_stmt 1 view .LVU11
  62              		.loc 1 65 18 is_stmt 0 view .LVU12
  63 0018 C268     		ldr	r2, [r0, #12]
  64 001a DA60     		str	r2, [r3, #12]
  65              		.loc 1 66 3 is_stmt 1 view .LVU13
  66              		.loc 1 66 18 is_stmt 0 view .LVU14
  67 001c 0269     		ldr	r2, [r0, #16]
  68 001e 5A61     		str	r2, [r3, #20]
  69              		.loc 1 67 3 is_stmt 1 view .LVU15
  70              		.loc 1 67 18 is_stmt 0 view .LVU16
  71 0020 4269     		ldr	r2, [r0, #20]
  72 0022 1A62     		str	r2, [r3, #32]
  73              		.loc 1 68 3 is_stmt 1 view .LVU17
  74              		.loc 1 68 18 is_stmt 0 view .LVU18
  75 0024 8269     		ldr	r2, [r0, #24]
  76 0026 5A62     		str	r2, [r3, #36]
  77              		.loc 1 69 3 is_stmt 1 view .LVU19
  78              		.loc 1 69 18 is_stmt 0 view .LVU20
  79 0028 0268     		ldr	r2, [r0]
  80 002a 1A60     		str	r2, [r3]
  81              	.LVL2:
  82              		.loc 1 69 18 view .LVU21
  83              	.LBE15:
  84              	.LBE14:
  85              		.loc 1 115 3 is_stmt 1 view .LVU22
  86              	.LBB16:
  87              	.LBI16:
  88              		.loc 1 61 13 view .LVU23
  89              	.LBB17:
  90              		.loc 1 63 3 view .LVU24
  91              		.loc 1 63 18 is_stmt 0 view .LVU25
  92 002c 026A     		ldr	r2, [r0, #32]
  93 002e 294B     		ldr	r3, .L3+4
  94 0030 5A60     		str	r2, [r3, #4]
  95              		.loc 1 64 3 is_stmt 1 view .LVU26
  96              		.loc 1 64 18 is_stmt 0 view .LVU27
  97 0032 426A     		ldr	r2, [r0, #36]
  98 0034 9A60     		str	r2, [r3, #8]
  99              		.loc 1 65 3 is_stmt 1 view .LVU28
 100              		.loc 1 65 18 is_stmt 0 view .LVU29
 101 0036 826A     		ldr	r2, [r0, #40]
 102 0038 DA60     		str	r2, [r3, #12]
 103              		.loc 1 66 3 is_stmt 1 view .LVU30
 104              		.loc 1 66 18 is_stmt 0 view .LVU31
 105 003a C26A     		ldr	r2, [r0, #44]
 106 003c 5A61     		str	r2, [r3, #20]
 107              		.loc 1 67 3 is_stmt 1 view .LVU32
 108              		.loc 1 67 18 is_stmt 0 view .LVU33
 109 003e 026B     		ldr	r2, [r0, #48]
 110 0040 1A62     		str	r2, [r3, #32]
 111              		.loc 1 68 3 is_stmt 1 view .LVU34
 112              		.loc 1 68 18 is_stmt 0 view .LVU35
 113 0042 426B     		ldr	r2, [r0, #52]
 114 0044 5A62     		str	r2, [r3, #36]
ARM GAS  /tmp/ccmIppUU.s 			page 3


 115              		.loc 1 69 3 is_stmt 1 view .LVU36
 116              		.loc 1 69 18 is_stmt 0 view .LVU37
 117 0046 C269     		ldr	r2, [r0, #28]
 118 0048 1A60     		str	r2, [r3]
 119              	.LVL3:
 120              		.loc 1 69 18 view .LVU38
 121              	.LBE17:
 122              	.LBE16:
 123              		.loc 1 118 3 is_stmt 1 view .LVU39
 124              	.LBB18:
 125              	.LBI18:
 126              		.loc 1 61 13 view .LVU40
 127              	.LBB19:
 128              		.loc 1 63 3 view .LVU41
 129              		.loc 1 63 18 is_stmt 0 view .LVU42
 130 004a C26B     		ldr	r2, [r0, #60]
 131 004c 224B     		ldr	r3, .L3+8
 132 004e 5A60     		str	r2, [r3, #4]
 133              		.loc 1 64 3 is_stmt 1 view .LVU43
 134              		.loc 1 64 18 is_stmt 0 view .LVU44
 135 0050 026C     		ldr	r2, [r0, #64]
 136 0052 9A60     		str	r2, [r3, #8]
 137              		.loc 1 65 3 is_stmt 1 view .LVU45
 138              		.loc 1 65 18 is_stmt 0 view .LVU46
 139 0054 426C     		ldr	r2, [r0, #68]
 140 0056 DA60     		str	r2, [r3, #12]
 141              		.loc 1 66 3 is_stmt 1 view .LVU47
 142              		.loc 1 66 18 is_stmt 0 view .LVU48
 143 0058 826C     		ldr	r2, [r0, #72]
 144 005a 5A61     		str	r2, [r3, #20]
 145              		.loc 1 67 3 is_stmt 1 view .LVU49
 146              		.loc 1 67 18 is_stmt 0 view .LVU50
 147 005c C26C     		ldr	r2, [r0, #76]
 148 005e 1A62     		str	r2, [r3, #32]
 149              		.loc 1 68 3 is_stmt 1 view .LVU51
 150              		.loc 1 68 18 is_stmt 0 view .LVU52
 151 0060 026D     		ldr	r2, [r0, #80]
 152 0062 5A62     		str	r2, [r3, #36]
 153              		.loc 1 69 3 is_stmt 1 view .LVU53
 154              		.loc 1 69 18 is_stmt 0 view .LVU54
 155 0064 826B     		ldr	r2, [r0, #56]
 156 0066 1A60     		str	r2, [r3]
 157              	.LVL4:
 158              		.loc 1 69 18 view .LVU55
 159              	.LBE19:
 160              	.LBE18:
 161              		.loc 1 121 3 is_stmt 1 view .LVU56
 162              	.LBB20:
 163              	.LBI20:
 164              		.loc 1 61 13 view .LVU57
 165              	.LBB21:
 166              		.loc 1 63 3 view .LVU58
 167              		.loc 1 63 18 is_stmt 0 view .LVU59
 168 0068 826D     		ldr	r2, [r0, #88]
 169 006a 1C4B     		ldr	r3, .L3+12
 170 006c 5A60     		str	r2, [r3, #4]
 171              		.loc 1 64 3 is_stmt 1 view .LVU60
ARM GAS  /tmp/ccmIppUU.s 			page 4


 172              		.loc 1 64 18 is_stmt 0 view .LVU61
 173 006e C26D     		ldr	r2, [r0, #92]
 174 0070 9A60     		str	r2, [r3, #8]
 175              		.loc 1 65 3 is_stmt 1 view .LVU62
 176              		.loc 1 65 18 is_stmt 0 view .LVU63
 177 0072 026E     		ldr	r2, [r0, #96]
 178 0074 DA60     		str	r2, [r3, #12]
 179              		.loc 1 66 3 is_stmt 1 view .LVU64
 180              		.loc 1 66 18 is_stmt 0 view .LVU65
 181 0076 426E     		ldr	r2, [r0, #100]
 182 0078 5A61     		str	r2, [r3, #20]
 183              		.loc 1 67 3 is_stmt 1 view .LVU66
 184              		.loc 1 67 18 is_stmt 0 view .LVU67
 185 007a 826E     		ldr	r2, [r0, #104]
 186 007c 1A62     		str	r2, [r3, #32]
 187              		.loc 1 68 3 is_stmt 1 view .LVU68
 188              		.loc 1 68 18 is_stmt 0 view .LVU69
 189 007e C26E     		ldr	r2, [r0, #108]
 190 0080 5A62     		str	r2, [r3, #36]
 191              		.loc 1 69 3 is_stmt 1 view .LVU70
 192              		.loc 1 69 18 is_stmt 0 view .LVU71
 193 0082 426D     		ldr	r2, [r0, #84]
 194 0084 1A60     		str	r2, [r3]
 195              	.LVL5:
 196              		.loc 1 69 18 view .LVU72
 197              	.LBE21:
 198              	.LBE20:
 199              		.loc 1 124 3 is_stmt 1 view .LVU73
 200              	.LBB22:
 201              	.LBI22:
 202              		.loc 1 61 13 view .LVU74
 203              	.LBB23:
 204              		.loc 1 63 3 view .LVU75
 205              		.loc 1 63 18 is_stmt 0 view .LVU76
 206 0086 426F     		ldr	r2, [r0, #116]
 207 0088 154B     		ldr	r3, .L3+16
 208 008a 5A60     		str	r2, [r3, #4]
 209              		.loc 1 64 3 is_stmt 1 view .LVU77
 210              		.loc 1 64 18 is_stmt 0 view .LVU78
 211 008c 826F     		ldr	r2, [r0, #120]
 212 008e 9A60     		str	r2, [r3, #8]
 213              		.loc 1 65 3 is_stmt 1 view .LVU79
 214              		.loc 1 65 18 is_stmt 0 view .LVU80
 215 0090 C26F     		ldr	r2, [r0, #124]
 216 0092 DA60     		str	r2, [r3, #12]
 217              		.loc 1 66 3 is_stmt 1 view .LVU81
 218              		.loc 1 66 26 is_stmt 0 view .LVU82
 219 0094 8022     		movs	r2, #128
 220 0096 8258     		ldr	r2, [r0, r2]
 221              		.loc 1 66 18 view .LVU83
 222 0098 5A61     		str	r2, [r3, #20]
 223              		.loc 1 67 3 is_stmt 1 view .LVU84
 224              		.loc 1 67 26 is_stmt 0 view .LVU85
 225 009a 8422     		movs	r2, #132
 226 009c 8258     		ldr	r2, [r0, r2]
 227              		.loc 1 67 18 view .LVU86
 228 009e 1A62     		str	r2, [r3, #32]
ARM GAS  /tmp/ccmIppUU.s 			page 5


 229              		.loc 1 68 3 is_stmt 1 view .LVU87
 230              		.loc 1 68 26 is_stmt 0 view .LVU88
 231 00a0 8822     		movs	r2, #136
 232 00a2 8258     		ldr	r2, [r0, r2]
 233              		.loc 1 68 18 view .LVU89
 234 00a4 5A62     		str	r2, [r3, #36]
 235              		.loc 1 69 3 is_stmt 1 view .LVU90
 236              		.loc 1 69 18 is_stmt 0 view .LVU91
 237 00a6 026F     		ldr	r2, [r0, #112]
 238 00a8 1A60     		str	r2, [r3]
 239              	.LVL6:
 240              		.loc 1 69 18 view .LVU92
 241              	.LBE23:
 242              	.LBE22:
 243              		.loc 1 127 3 is_stmt 1 view .LVU93
 244              	.LBB24:
 245              	.LBI24:
 246              		.loc 1 61 13 view .LVU94
 247              	.LBB25:
 248              		.loc 1 63 3 view .LVU95
 249              		.loc 1 63 26 is_stmt 0 view .LVU96
 250 00aa 0200     		movs	r2, r0
 251 00ac 8C32     		adds	r2, r2, #140
 252              	.LVL7:
 253              		.loc 1 63 18 view .LVU97
 254 00ae 5168     		ldr	r1, [r2, #4]
 255 00b0 0C4B     		ldr	r3, .L3+20
 256 00b2 5960     		str	r1, [r3, #4]
 257              		.loc 1 64 3 is_stmt 1 view .LVU98
 258              		.loc 1 64 18 is_stmt 0 view .LVU99
 259 00b4 9168     		ldr	r1, [r2, #8]
 260 00b6 9960     		str	r1, [r3, #8]
 261              		.loc 1 65 3 is_stmt 1 view .LVU100
 262              		.loc 1 65 18 is_stmt 0 view .LVU101
 263 00b8 D168     		ldr	r1, [r2, #12]
 264 00ba D960     		str	r1, [r3, #12]
 265              		.loc 1 66 3 is_stmt 1 view .LVU102
 266              		.loc 1 66 18 is_stmt 0 view .LVU103
 267 00bc 1169     		ldr	r1, [r2, #16]
 268 00be 5961     		str	r1, [r3, #20]
 269              		.loc 1 67 3 is_stmt 1 view .LVU104
 270              		.loc 1 67 18 is_stmt 0 view .LVU105
 271 00c0 5169     		ldr	r1, [r2, #20]
 272 00c2 1962     		str	r1, [r3, #32]
 273              		.loc 1 68 3 is_stmt 1 view .LVU106
 274              		.loc 1 68 26 is_stmt 0 view .LVU107
 275 00c4 9269     		ldr	r2, [r2, #24]
 276              	.LVL8:
 277              		.loc 1 68 18 view .LVU108
 278 00c6 5A62     		str	r2, [r3, #36]
 279              		.loc 1 69 3 is_stmt 1 view .LVU109
 280              		.loc 1 69 26 is_stmt 0 view .LVU110
 281 00c8 8C22     		movs	r2, #140
 282 00ca 8258     		ldr	r2, [r0, r2]
 283              		.loc 1 69 18 view .LVU111
 284 00cc 1A60     		str	r2, [r3]
 285              	.LVL9:
ARM GAS  /tmp/ccmIppUU.s 			page 6


 286              		.loc 1 69 18 view .LVU112
 287              	.LBE25:
 288              	.LBE24:
 289              		.loc 1 144 1 view .LVU113
 290 00ce 7047     		bx	lr
 291              	.L4:
 292              		.align	2
 293              	.L3:
 294 00d0 00100240 		.word	1073876992
 295 00d4 00040048 		.word	1207960576
 296 00d8 00080048 		.word	1207961600
 297 00dc 000C0048 		.word	1207962624
 298 00e0 00100048 		.word	1207963648
 299 00e4 00140048 		.word	1207964672
 300              		.cfi_endproc
 301              	.LFE152:
 302              		.size	_pal_lld_init, .-_pal_lld_init
 303              		.section	.text._pal_lld_setgroupmode,"ax",%progbits
 304              		.align	1
 305              		.p2align 4,,15
 306              		.global	_pal_lld_setgroupmode
 307              		.syntax unified
 308              		.code	16
 309              		.thumb_func
 310              		.fpu softvfp
 311              		.type	_pal_lld_setgroupmode, %function
 312              	_pal_lld_setgroupmode:
 313              	.LVL10:
 314              	.LFB153:
 315              		.loc 1 161 43 is_stmt 1 view -0
 316              		.cfi_startproc
 317              		@ args = 0, pretend = 0, frame = 8
 318              		@ frame_needed = 0, uses_anonymous_args = 0
 319              		.loc 1 163 3 view .LVU115
 320              		.loc 1 161 43 is_stmt 0 view .LVU116
 321 0000 F0B5     		push	{r4, r5, r6, r7, lr}
 322              		.cfi_def_cfa_offset 20
 323              		.cfi_offset 4, -20
 324              		.cfi_offset 5, -16
 325              		.cfi_offset 6, -12
 326              		.cfi_offset 7, -8
 327              		.cfi_offset 14, -4
 328 0002 5746     		mov	r7, r10
 329 0004 4E46     		mov	r6, r9
 330 0006 4546     		mov	r5, r8
 331 0008 DE46     		mov	lr, fp
 332 000a E0B5     		push	{r5, r6, r7, lr}
 333              		.cfi_def_cfa_offset 36
 334              		.cfi_offset 8, -36
 335              		.cfi_offset 9, -32
 336              		.cfi_offset 10, -28
 337              		.cfi_offset 11, -24
 338              		.loc 1 163 12 view .LVU117
 339 000c 0326     		movs	r6, #3
 340 000e 3700     		movs	r7, r6
 341              		.loc 1 161 43 view .LVU118
 342 0010 1300     		movs	r3, r2
ARM GAS  /tmp/ccmIppUU.s 			page 7


 343              		.loc 1 163 12 view .LVU119
 344 0012 1740     		ands	r7, r2
 345              	.LVL11:
 346              		.loc 1 164 3 is_stmt 1 view .LVU120
 347              		.loc 1 164 12 is_stmt 0 view .LVU121
 348 0014 5207     		lsls	r2, r2, #29
 349              	.LVL12:
 350              		.loc 1 164 12 view .LVU122
 351 0016 D20F     		lsrs	r2, r2, #31
 352 0018 9446     		mov	ip, r2
 353              	.LVL13:
 354              		.loc 1 165 3 is_stmt 1 view .LVU123
 355              		.loc 1 166 52 is_stmt 0 view .LVU124
 356 001a 5C09     		lsrs	r4, r3, #5
 357              		.loc 1 165 53 view .LVU125
 358 001c DA08     		lsrs	r2, r3, #3
 359              	.LVL14:
 360              		.loc 1 165 12 view .LVU126
 361 001e 3240     		ands	r2, r6
 362              	.LVL15:
 363              		.loc 1 166 3 is_stmt 1 view .LVU127
 364              		.loc 1 166 12 is_stmt 0 view .LVU128
 365 0020 2640     		ands	r6, r4
 366              	.LVL16:
 367              		.loc 1 167 3 is_stmt 1 view .LVU129
 368              		.loc 1 170 15 is_stmt 0 view .LVU130
 369 0022 0124     		movs	r4, #1
 370              		.loc 1 167 12 view .LVU131
 371 0024 5B05     		lsls	r3, r3, #21
 372              	.LVL17:
 373              		.loc 1 167 12 view .LVU132
 374 0026 1B0F     		lsrs	r3, r3, #28
 375 0028 9A46     		mov	r10, r3
 376              	.LVL18:
 377              		.loc 1 168 3 is_stmt 1 view .LVU133
 378              	.LBB26:
 379              		.loc 1 187 45 is_stmt 0 view .LVU134
 380 002a B046     		mov	r8, r6
 381              	.LBE26:
 382              		.loc 1 161 43 view .LVU135
 383 002c 83B0     		sub	sp, sp, #12
 384              		.cfi_def_cfa_offset 48
 385              	.LBB27:
 386              		.loc 1 187 45 view .LVU136
 387 002e 6646     		mov	r6, ip
 388              	.LVL19:
 389              		.loc 1 187 45 view .LVU137
 390              	.LBE27:
 391              		.loc 1 168 12 view .LVU138
 392 0030 0023     		movs	r3, #0
 393              	.LVL20:
 394              		.loc 1 170 15 view .LVU139
 395 0032 A146     		mov	r9, r4
 396              	.LBB28:
 397              		.loc 1 187 45 view .LVU140
 398 0034 9446     		mov	ip, r2
 399              	.LVL21:
ARM GAS  /tmp/ccmIppUU.s 			page 8


 400              		.loc 1 187 45 view .LVU141
 401 0036 15E0     		b	.L12
 402              	.LVL22:
 403              	.L7:
 404              		.loc 1 192 9 is_stmt 1 view .LVU142
 405              		.loc 1 192 30 is_stmt 0 view .LVU143
 406 0038 0568     		ldr	r5, [r0]
 407              		.loc 1 192 38 view .LVU144
 408 003a 2C40     		ands	r4, r5
 409              	.LVL23:
 410              		.loc 1 192 45 view .LVU145
 411 003c 3C43     		orrs	r4, r7
 412              		.loc 1 192 23 view .LVU146
 413 003e 0460     		str	r4, [r0]
 414              		.loc 1 193 9 is_stmt 1 view .LVU147
 415              		.loc 1 193 12 is_stmt 0 view .LVU148
 416 0040 072B     		cmp	r3, #7
 417 0042 49D8     		bhi	.L10
 418              		.loc 1 194 11 is_stmt 1 view .LVU149
 419              		.loc 1 194 29 is_stmt 0 view .LVU150
 420 0044 046A     		ldr	r4, [r0, #32]
 421              		.loc 1 194 36 view .LVU151
 422 0046 2240     		ands	r2, r4
 423              	.LVL24:
 424              		.loc 1 194 43 view .LVU152
 425 0048 5C46     		mov	r4, fp
 426 004a 2243     		orrs	r2, r4
 427              		.loc 1 194 22 view .LVU153
 428 004c 0262     		str	r2, [r0, #32]
 429              	.LVL25:
 430              	.L6:
 431              		.loc 1 194 22 view .LVU154
 432              	.LBE28:
 433              		.loc 1 199 5 is_stmt 1 view .LVU155
 434              		.loc 1 199 10 is_stmt 0 view .LVU156
 435 004e 4908     		lsrs	r1, r1, #1
 436              	.LVL26:
 437              		.loc 1 200 5 is_stmt 1 view .LVU157
 438              		.loc 1 200 8 is_stmt 0 view .LVU158
 439 0050 3BD0     		beq	.L16
 440              	.L17:
 441              		.loc 1 202 5 is_stmt 1 view .LVU159
 442              		.loc 1 203 13 is_stmt 0 view .LVU160
 443 0052 6246     		mov	r2, ip
 444 0054 9200     		lsls	r2, r2, #2
 445 0056 9446     		mov	ip, r2
 446              	.LVL27:
 447              		.loc 1 204 11 view .LVU161
 448 0058 4246     		mov	r2, r8
 449 005a 9200     		lsls	r2, r2, #2
 450 005c 9046     		mov	r8, r2
 451              	.LVL28:
 452              		.loc 1 202 12 view .LVU162
 453 005e 7600     		lsls	r6, r6, #1
 454              	.LVL29:
 455              		.loc 1 203 5 is_stmt 1 view .LVU163
 456              		.loc 1 204 5 view .LVU164
ARM GAS  /tmp/ccmIppUU.s 			page 9


 457              		.loc 1 205 5 view .LVU165
 458              		.loc 1 205 11 is_stmt 0 view .LVU166
 459 0060 BF00     		lsls	r7, r7, #2
 460              	.LVL30:
 461              		.loc 1 206 5 is_stmt 1 view .LVU167
 462              		.loc 1 206 8 is_stmt 0 view .LVU168
 463 0062 0133     		adds	r3, r3, #1
 464              	.LVL31:
 465              	.L12:
 466              		.loc 1 169 3 is_stmt 1 view .LVU169
 467              		.loc 1 170 5 view .LVU170
 468              		.loc 1 170 8 is_stmt 0 view .LVU171
 469 0064 4A46     		mov	r2, r9
 470 0066 0A42     		tst	r2, r1
 471 0068 F1D0     		beq	.L6
 472              	.LBB29:
 473              		.loc 1 171 7 is_stmt 1 view .LVU172
 474              		.loc 1 173 7 view .LVU173
 475              		.loc 1 173 32 is_stmt 0 view .LVU174
 476 006a 0722     		movs	r2, #7
 477              		.loc 1 173 16 view .LVU175
 478 006c 5446     		mov	r4, r10
 479              		.loc 1 173 32 view .LVU176
 480 006e 1A40     		ands	r2, r3
 481              		.loc 1 173 37 view .LVU177
 482 0070 9500     		lsls	r5, r2, #2
 483              		.loc 1 173 16 view .LVU178
 484 0072 AC40     		lsls	r4, r4, r5
 485 0074 0195     		str	r5, [sp, #4]
 486              		.loc 1 174 14 view .LVU179
 487 0076 4D46     		mov	r5, r9
 488 0078 9D40     		lsls	r5, r5, r3
 489              		.loc 1 175 14 view .LVU180
 490 007a 0322     		movs	r2, #3
 491              		.loc 1 173 16 view .LVU181
 492 007c A346     		mov	fp, r4
 493              	.LVL32:
 494              		.loc 1 174 7 is_stmt 1 view .LVU182
 495              		.loc 1 175 7 view .LVU183
 496              		.loc 1 176 7 view .LVU184
 497              		.loc 1 177 7 view .LVU185
 498              		.loc 1 177 28 is_stmt 0 view .LVU186
 499 007e 4468     		ldr	r4, [r0, #4]
 500              	.LVL33:
 501              		.loc 1 177 37 view .LVU187
 502 0080 AC43     		bics	r4, r5
 503              		.loc 1 177 44 view .LVU188
 504 0082 3443     		orrs	r4, r6
 505              		.loc 1 177 21 view .LVU189
 506 0084 4460     		str	r4, [r0, #4]
 507              		.loc 1 178 7 is_stmt 1 view .LVU190
 508              		.loc 1 175 14 is_stmt 0 view .LVU191
 509 0086 5C00     		lsls	r4, r3, #1
 510 0088 A240     		lsls	r2, r2, r4
 511              	.LVL34:
 512              		.loc 1 178 40 view .LVU192
 513 008a D443     		mvns	r4, r2
ARM GAS  /tmp/ccmIppUU.s 			page 10


 514              		.loc 1 178 45 view .LVU193
 515 008c 6246     		mov	r2, ip
 516              	.LVL35:
 517              		.loc 1 178 28 view .LVU194
 518 008e 8568     		ldr	r5, [r0, #8]
 519              		.loc 1 178 38 view .LVU195
 520 0090 2540     		ands	r5, r4
 521              		.loc 1 178 45 view .LVU196
 522 0092 1543     		orrs	r5, r2
 523              		.loc 1 179 43 view .LVU197
 524 0094 4246     		mov	r2, r8
 525              		.loc 1 178 21 view .LVU198
 526 0096 8560     		str	r5, [r0, #8]
 527              		.loc 1 179 7 is_stmt 1 view .LVU199
 528              		.loc 1 179 28 is_stmt 0 view .LVU200
 529 0098 C568     		ldr	r5, [r0, #12]
 530              		.loc 1 179 36 view .LVU201
 531 009a 2540     		ands	r5, r4
 532              		.loc 1 179 43 view .LVU202
 533 009c 1543     		orrs	r5, r2
 534              		.loc 1 176 15 view .LVU203
 535 009e 0F22     		movs	r2, #15
 536              		.loc 1 179 21 view .LVU204
 537 00a0 C560     		str	r5, [r0, #12]
 538              		.loc 1 180 7 is_stmt 1 view .LVU205
 539              		.loc 1 176 15 is_stmt 0 view .LVU206
 540 00a2 019D     		ldr	r5, [sp, #4]
 541 00a4 AA40     		lsls	r2, r2, r5
 542              	.LVL36:
 543              		.loc 1 176 15 view .LVU207
 544 00a6 D243     		mvns	r2, r2
 545              	.LVL37:
 546              		.loc 1 180 10 view .LVU208
 547 00a8 022F     		cmp	r7, #2
 548 00aa C5D1     		bne	.L7
 549              		.loc 1 183 9 is_stmt 1 view .LVU209
 550              		.loc 1 183 12 is_stmt 0 view .LVU210
 551 00ac 072B     		cmp	r3, #7
 552 00ae 19D8     		bhi	.L8
 553              		.loc 1 184 11 is_stmt 1 view .LVU211
 554              		.loc 1 184 29 is_stmt 0 view .LVU212
 555 00b0 056A     		ldr	r5, [r0, #32]
 556              		.loc 1 184 36 view .LVU213
 557 00b2 2A40     		ands	r2, r5
 558              	.LVL38:
 559              		.loc 1 184 43 view .LVU214
 560 00b4 5D46     		mov	r5, fp
 561 00b6 2A43     		orrs	r2, r5
 562              		.loc 1 184 22 view .LVU215
 563 00b8 0262     		str	r2, [r0, #32]
 564              	.L9:
 565              		.loc 1 187 9 is_stmt 1 view .LVU216
 566              		.loc 1 187 30 is_stmt 0 view .LVU217
 567 00ba 0268     		ldr	r2, [r0]
 568              	.LBE29:
 569              		.loc 1 199 10 view .LVU218
 570 00bc 4908     		lsrs	r1, r1, #1
ARM GAS  /tmp/ccmIppUU.s 			page 11


 571              	.LVL39:
 572              	.LBB30:
 573              		.loc 1 187 38 view .LVU219
 574 00be 1440     		ands	r4, r2
 575              	.LVL40:
 576              		.loc 1 187 45 view .LVU220
 577 00c0 0222     		movs	r2, #2
 578 00c2 1443     		orrs	r4, r2
 579              		.loc 1 187 23 view .LVU221
 580 00c4 0460     		str	r4, [r0]
 581              	.LBE30:
 582              		.loc 1 199 5 is_stmt 1 view .LVU222
 583              	.LVL41:
 584              		.loc 1 200 5 view .LVU223
 585              		.loc 1 200 8 is_stmt 0 view .LVU224
 586 00c6 0029     		cmp	r1, #0
 587 00c8 C3D1     		bne	.L17
 588              	.LVL42:
 589              	.L16:
 590              		.loc 1 208 1 view .LVU225
 591 00ca 03B0     		add	sp, sp, #12
 592              		@ sp needed
 593              	.LVL43:
 594              	.LVL44:
 595              	.LVL45:
 596              	.LVL46:
 597              		.loc 1 208 1 view .LVU226
 598 00cc 3CBC     		pop	{r2, r3, r4, r5}
 599 00ce 9046     		mov	r8, r2
 600 00d0 9946     		mov	r9, r3
 601 00d2 A246     		mov	r10, r4
 602 00d4 AB46     		mov	fp, r5
 603 00d6 F0BD     		pop	{r4, r5, r6, r7, pc}
 604              	.LVL47:
 605              	.L10:
 606              	.LBB31:
 607              		.loc 1 196 11 is_stmt 1 view .LVU227
 608              		.loc 1 196 29 is_stmt 0 view .LVU228
 609 00d8 446A     		ldr	r4, [r0, #36]
 610              		.loc 1 196 36 view .LVU229
 611 00da 2240     		ands	r2, r4
 612              	.LVL48:
 613              		.loc 1 196 43 view .LVU230
 614 00dc 5C46     		mov	r4, fp
 615 00de 2243     		orrs	r2, r4
 616              		.loc 1 196 22 view .LVU231
 617 00e0 4262     		str	r2, [r0, #36]
 618 00e2 B4E7     		b	.L6
 619              	.LVL49:
 620              	.L8:
 621              		.loc 1 186 11 is_stmt 1 view .LVU232
 622              		.loc 1 186 29 is_stmt 0 view .LVU233
 623 00e4 456A     		ldr	r5, [r0, #36]
 624              		.loc 1 186 36 view .LVU234
 625 00e6 2A40     		ands	r2, r5
 626              	.LVL50:
 627              		.loc 1 186 43 view .LVU235
ARM GAS  /tmp/ccmIppUU.s 			page 12


 628 00e8 5D46     		mov	r5, fp
 629 00ea 2A43     		orrs	r2, r5
 630              		.loc 1 186 22 view .LVU236
 631 00ec 4262     		str	r2, [r0, #36]
 632 00ee E4E7     		b	.L9
 633              	.LBE31:
 634              		.cfi_endproc
 635              	.LFE153:
 636              		.size	_pal_lld_setgroupmode, .-_pal_lld_setgroupmode
 637              		.text
 638              	.Letext0:
 639              		.file 2 "/opt/nanovna/gcc-arm-none-eabi-8-2018-q4-major/lib/gcc/arm-none-eabi/8.2.1/include/stddef
 640              		.file 3 "/opt/nanovna/gcc-arm-none-eabi-8-2018-q4-major/arm-none-eabi/include/machine/_default_typ
 641              		.file 4 "/opt/nanovna/gcc-arm-none-eabi-8-2018-q4-major/arm-none-eabi/include/sys/_stdint.h"
 642              		.file 5 "ChibiOS/os/common/ports/ARMCMx/compilers/GCC/chtypes.h"
 643              		.file 6 "ChibiOS/os/rt/include/chsystypes.h"
 644              		.file 7 "ChibiOS/os/rt/include/chschd.h"
 645              		.file 8 "ChibiOS/os/common/ext/CMSIS/ST/STM32F0xx/stm32f072xb.h"
 646              		.file 9 "ChibiOS/os/common/ports/ARMCMx/chcore.h"
 647              		.file 10 "ChibiOS/os/common/ports/ARMCMx/chcore_v6m.h"
 648              		.file 11 "ChibiOS/os/hal/ports/STM32/LLD/TIMv1/stm32_tim.h"
 649              		.file 12 "ChibiOS/os/rt/include/chmtx.h"
 650              		.file 13 "ChibiOS/os/common/ext/CMSIS/ST/STM32F0xx/system_stm32f0xx.h"
 651              		.file 14 "ChibiOS/os/rt/include/chsys.h"
 652              		.file 15 "ChibiOS/os/rt/include/chregistry.h"
 653              		.file 16 "ChibiOS/os/rt/include/chevents.h"
 654              		.file 17 "ChibiOS/os/hal/ports/STM32/LLD/DMAv1/stm32_dma.h"
 655              		.file 18 "ChibiOS/os/hal/include/hal_queues.h"
 656              		.file 19 "ChibiOS/os/hal/ports/STM32/LLD/GPIOv2/hal_pal_lld.h"
 657              		.file 20 "ChibiOS/os/hal/include/hal_ext.h"
 658              		.file 21 "ChibiOS/os/hal/ports/STM32/LLD/EXTIv1/hal_ext_lld.h"
 659              		.file 22 "ChibiOS/os/hal/include/hal_gpt.h"
 660              		.file 23 "ChibiOS/os/hal/ports/STM32/LLD/TIMv1/hal_gpt_lld.h"
 661              		.file 24 "ChibiOS/os/hal/include/hal_i2c.h"
 662              		.file 25 "ChibiOS/os/hal/ports/STM32/LLD/I2Cv2/hal_i2c_lld.h"
 663              		.file 26 "ChibiOS/os/hal/include/hal_i2s.h"
 664              		.file 27 "ChibiOS/os/hal/ports/STM32/LLD/SPIv2/hal_i2s_lld.h"
 665              		.file 28 "/opt/nanovna/gcc-arm-none-eabi-8-2018-q4-major/arm-none-eabi/include/sys/lock.h"
 666              		.file 29 "/opt/nanovna/gcc-arm-none-eabi-8-2018-q4-major/arm-none-eabi/include/sys/_types.h"
 667              		.file 30 "/opt/nanovna/gcc-arm-none-eabi-8-2018-q4-major/arm-none-eabi/include/sys/reent.h"
 668              		.file 31 "/opt/nanovna/gcc-arm-none-eabi-8-2018-q4-major/arm-none-eabi/include/time.h"
 669              		.file 32 "ChibiOS/os/hal/include/hal_rtc.h"
 670              		.file 33 "ChibiOS/os/hal/ports/STM32/LLD/RTCv2/hal_rtc_lld.h"
 671              		.file 34 "ChibiOS/os/hal/include/hal_serial.h"
 672              		.file 35 "ChibiOS/os/hal/ports/STM32/LLD/USARTv2/hal_serial_lld.h"
 673              		.file 36 "ChibiOS/os/hal/include/hal_spi.h"
 674              		.file 37 "ChibiOS/os/hal/ports/STM32/LLD/SPIv2/hal_spi_lld.h"
 675              		.file 38 "ChibiOS/os/hal/include/hal_usb.h"
 676              		.file 39 "ChibiOS/os/hal/ports/STM32/LLD/USBv1/hal_usb_lld.h"