ARM GAS  /tmp/ccTxpxgR.s 			page 1


   1              		.cpu cortex-m0
   2              		.eabi_attribute 20, 1
   3              		.eabi_attribute 21, 1
   4              		.eabi_attribute 23, 3
   5              		.eabi_attribute 24, 1
   6              		.eabi_attribute 25, 1
   7              		.eabi_attribute 26, 1
   8              		.eabi_attribute 30, 2
   9              		.eabi_attribute 34, 0
  10              		.eabi_attribute 18, 4
  11              		.file	"hal_buffers.c"
  12              		.text
  13              	.Ltext0:
  14              		.cfi_sections	.debug_frame
  15              		.section	.text.ibqObjectInit,"ax",%progbits
  16              		.align	1
  17              		.p2align 4,,15
  18              		.global	ibqObjectInit
  19              		.arch armv6s-m
  20              		.syntax unified
  21              		.code	16
  22              		.thumb_func
  23              		.fpu softvfp
  24              		.type	ibqObjectInit, %function
  25              	ibqObjectInit:
  26              	.LVL0:
  27              	.LFB151:
  28              		.file 1 "ChibiOS/os/hal/src/hal_buffers.c"
  29              		.loc 1 77 49 view -0
  30              		.cfi_startproc
  31              		@ args = 8, pretend = 0, frame = 0
  32              		@ frame_needed = 0, uses_anonymous_args = 0
  33              		.loc 1 79 3 view .LVU1
  34              		.loc 1 79 3 view .LVU2
  35              		.loc 1 81 3 view .LVU3
  36              	.LBB287:
  37              	.LBI287:
  38              		.file 2 "ChibiOS/os/hal/osal/rt/osal.h"
  39              		.loc 2 753 20 view .LVU4
  40              	.LBE287:
  41              		.loc 2 755 3 view .LVU5
  42              	.LBB295:
  43              	.LBB288:
  44              	.LBI288:
  45              		.file 3 "ChibiOS/os/rt/include/chthreads.h"
  46              		.loc 3 395 20 view .LVU6
  47              	.LBE288:
  48              	.LBE295:
  49              		.loc 3 397 3 view .LVU7
  50              	.LBB296:
  51              	.LBB293:
  52              	.LBB289:
  53              	.LBI289:
  54              		.file 4 "ChibiOS/os/rt/include/chschd.h"
  55              		.loc 4 548 20 view .LVU8
  56              	.LBB290:
  57              		.loc 4 550 3 view .LVU9
ARM GAS  /tmp/ccTxpxgR.s 			page 2


  58              	.LBE290:
  59              	.LBE289:
  60              	.LBE293:
  61              	.LBE296:
  62              		.loc 1 77 49 is_stmt 0 view .LVU10
  63 0000 30B5     		push	{r4, r5, lr}
  64              		.cfi_def_cfa_offset 12
  65              		.cfi_offset 4, -12
  66              		.cfi_offset 5, -8
  67              		.cfi_offset 14, -4
  68              		.loc 1 85 51 view .LVU11
  69 0002 1D00     		movs	r5, r3
  70              		.loc 1 82 18 view .LVU12
  71 0004 0024     		movs	r4, #0
  72              		.loc 1 85 32 view .LVU13
  73 0006 0432     		adds	r2, r2, #4
  74              	.LVL1:
  75              		.loc 1 85 51 view .LVU14
  76 0008 5543     		muls	r5, r2
  77              		.loc 1 87 18 view .LVU15
  78 000a C361     		str	r3, [r0, #28]
  79              		.loc 1 91 18 view .LVU16
  80 000c 039B     		ldr	r3, [sp, #12]
  81              	.LVL2:
  82              		.loc 1 85 23 view .LVU17
  83 000e 4D19     		adds	r5, r1, r5
  84              		.loc 1 91 18 view .LVU18
  85 0010 C362     		str	r3, [r0, #44]
  86              		.loc 1 92 18 view .LVU19
  87 0012 049B     		ldr	r3, [sp, #16]
  88              		.loc 1 85 18 view .LVU20
  89 0014 4561     		str	r5, [r0, #20]
  90              	.LBB297:
  91              	.LBB294:
  92              	.LBB292:
  93              	.LBB291:
  94              		.loc 4 550 13 view .LVU21
  95 0016 0060     		str	r0, [r0]
  96              		.loc 4 551 3 is_stmt 1 view .LVU22
  97              		.loc 4 551 13 is_stmt 0 view .LVU23
  98 0018 4060     		str	r0, [r0, #4]
  99              	.LVL3:
 100              		.loc 4 551 13 view .LVU24
 101              	.LBE291:
 102              	.LBE292:
 103              	.LBE294:
 104              	.LBE297:
 105              		.loc 1 82 3 is_stmt 1 view .LVU25
 106              		.loc 1 82 18 is_stmt 0 view .LVU26
 107 001a 8460     		str	r4, [r0, #8]
 108              		.loc 1 83 3 is_stmt 1 view .LVU27
 109              		.loc 1 83 18 is_stmt 0 view .LVU28
 110 001c 0161     		str	r1, [r0, #16]
 111              		.loc 1 84 3 is_stmt 1 view .LVU29
 112              		.loc 1 84 18 is_stmt 0 view .LVU30
 113 001e C160     		str	r1, [r0, #12]
 114              		.loc 1 85 3 is_stmt 1 view .LVU31
ARM GAS  /tmp/ccTxpxgR.s 			page 3


 115              		.loc 1 86 3 view .LVU32
 116              		.loc 1 86 18 is_stmt 0 view .LVU33
 117 0020 8261     		str	r2, [r0, #24]
 118              		.loc 1 87 3 is_stmt 1 view .LVU34
 119              		.loc 1 88 3 view .LVU35
 120              		.loc 1 88 18 is_stmt 0 view .LVU36
 121 0022 0162     		str	r1, [r0, #32]
 122              		.loc 1 89 3 is_stmt 1 view .LVU37
 123              		.loc 1 89 18 is_stmt 0 view .LVU38
 124 0024 4462     		str	r4, [r0, #36]
 125              		.loc 1 90 3 is_stmt 1 view .LVU39
 126              		.loc 1 90 18 is_stmt 0 view .LVU40
 127 0026 8462     		str	r4, [r0, #40]
 128              		.loc 1 91 3 is_stmt 1 view .LVU41
 129              		.loc 1 92 3 view .LVU42
 130              		.loc 1 92 18 is_stmt 0 view .LVU43
 131 0028 0363     		str	r3, [r0, #48]
 132              		.loc 1 93 1 view .LVU44
 133              		@ sp needed
 134 002a 30BD     		pop	{r4, r5, pc}
 135              		.cfi_endproc
 136              	.LFE151:
 137              		.size	ibqObjectInit, .-ibqObjectInit
 138              		.section	.text.ibqResetI,"ax",%progbits
 139              		.align	1
 140              		.p2align 4,,15
 141              		.global	ibqResetI
 142              		.syntax unified
 143              		.code	16
 144              		.thumb_func
 145              		.fpu softvfp
 146              		.type	ibqResetI, %function
 147              	ibqResetI:
 148              	.LVL4:
 149              	.LFB152:
 150              		.loc 1 106 45 is_stmt 1 view -0
 151              		.cfi_startproc
 152              		@ args = 0, pretend = 0, frame = 0
 153              		@ frame_needed = 0, uses_anonymous_args = 0
 154              		.loc 1 108 23 view .LVU46
 155              		.loc 1 110 3 view .LVU47
 156              		.loc 1 110 18 is_stmt 0 view .LVU48
 157 0000 0023     		movs	r3, #0
 158              	.LBB298:
 159              	.LBB299:
 160              		.loc 2 810 3 view .LVU49
 161 0002 0221     		movs	r1, #2
 162              	.LBE299:
 163              	.LBE298:
 164              		.loc 1 106 45 view .LVU50
 165 0004 10B5     		push	{r4, lr}
 166              		.cfi_def_cfa_offset 8
 167              		.cfi_offset 4, -8
 168              		.cfi_offset 14, -4
 169              		.loc 1 111 24 view .LVU51
 170 0006 026A     		ldr	r2, [r0, #32]
 171              		.loc 1 110 18 view .LVU52
ARM GAS  /tmp/ccTxpxgR.s 			page 4


 172 0008 8360     		str	r3, [r0, #8]
 173              		.loc 1 111 3 is_stmt 1 view .LVU53
 174              		.loc 1 111 18 is_stmt 0 view .LVU54
 175 000a 0261     		str	r2, [r0, #16]
 176              		.loc 1 112 3 is_stmt 1 view .LVU55
 177              		.loc 1 112 18 is_stmt 0 view .LVU56
 178 000c C260     		str	r2, [r0, #12]
 179              		.loc 1 113 3 is_stmt 1 view .LVU57
 180              		.loc 1 113 18 is_stmt 0 view .LVU58
 181 000e 4362     		str	r3, [r0, #36]
 182              		.loc 1 114 3 is_stmt 1 view .LVU59
 183              		.loc 1 114 18 is_stmt 0 view .LVU60
 184 0010 8362     		str	r3, [r0, #40]
 185              		.loc 1 115 3 is_stmt 1 view .LVU61
 186              	.LVL5:
 187              	.LBB301:
 188              	.LBI298:
 189              		.loc 2 808 20 view .LVU62
 190              	.LBB300:
 191              		.loc 2 810 3 view .LVU63
 192 0012 4942     		rsbs	r1, r1, #0
 193 0014 FFF7FEFF 		bl	chThdDequeueAllI
 194              	.LVL6:
 195              		.loc 2 810 3 is_stmt 0 view .LVU64
 196              	.LBE300:
 197              	.LBE301:
 198              		.loc 1 116 1 view .LVU65
 199              		@ sp needed
 200 0018 10BD     		pop	{r4, pc}
 201              		.cfi_endproc
 202              	.LFE152:
 203              		.size	ibqResetI, .-ibqResetI
 204 001a C046     		.section	.text.ibqGetEmptyBufferI,"ax",%progbits
 205              		.align	1
 206              		.p2align 4,,15
 207              		.global	ibqGetEmptyBufferI
 208              		.syntax unified
 209              		.code	16
 210              		.thumb_func
 211              		.fpu softvfp
 212              		.type	ibqGetEmptyBufferI, %function
 213              	ibqGetEmptyBufferI:
 214              	.LVL7:
 215              	.LFB153:
 216              		.loc 1 128 58 is_stmt 1 view -0
 217              		.cfi_startproc
 218              		@ args = 0, pretend = 0, frame = 0
 219              		@ frame_needed = 0, uses_anonymous_args = 0
 220              		@ link register save eliminated.
 221              		.loc 1 130 23 view .LVU67
 222              		.loc 1 132 3 view .LVU68
 223              		.loc 1 132 7 is_stmt 0 view .LVU69
 224 0000 C368     		ldr	r3, [r0, #12]
 225 0002 0269     		ldr	r2, [r0, #16]
 226 0004 9342     		cmp	r3, r2
 227 0006 01D0     		beq	.L10
 228              	.LVL8:
ARM GAS  /tmp/ccTxpxgR.s 			page 5


 229              	.L5:
 230              		.loc 1 136 3 is_stmt 1 view .LVU70
 231              		.loc 1 136 23 is_stmt 0 view .LVU71
 232 0008 181D     		adds	r0, r3, #4
 233              	.L4:
 234              		.loc 1 137 1 view .LVU72
 235              		@ sp needed
 236 000a 7047     		bx	lr
 237              	.LVL9:
 238              	.L10:
 239              		.loc 1 132 7 discriminator 1 view .LVU73
 240 000c 8268     		ldr	r2, [r0, #8]
 241              		.loc 1 133 12 discriminator 1 view .LVU74
 242 000e 0020     		movs	r0, #0
 243              	.LVL10:
 244              		.loc 1 132 7 discriminator 1 view .LVU75
 245 0010 002A     		cmp	r2, #0
 246 0012 FAD1     		bne	.L4
 247 0014 F8E7     		b	.L5
 248              		.cfi_endproc
 249              	.LFE153:
 250              		.size	ibqGetEmptyBufferI, .-ibqGetEmptyBufferI
 251 0016 C046     		.section	.text.ibqPostFullBufferI,"ax",%progbits
 252              		.align	1
 253              		.p2align 4,,15
 254              		.global	ibqPostFullBufferI
 255              		.syntax unified
 256              		.code	16
 257              		.thumb_func
 258              		.fpu softvfp
 259              		.type	ibqPostFullBufferI, %function
 260              	ibqPostFullBufferI:
 261              	.LVL11:
 262              	.LFB154:
 263              		.loc 1 147 67 is_stmt 1 view -0
 264              		.cfi_startproc
 265              		@ args = 0, pretend = 0, frame = 0
 266              		@ frame_needed = 0, uses_anonymous_args = 0
 267              		.loc 1 149 23 view .LVU77
 268              		.loc 1 151 3 view .LVU78
 269              		.loc 1 151 3 view .LVU79
 270              		.loc 1 152 3 view .LVU80
 271              		.loc 1 152 3 view .LVU81
 272              		.loc 1 155 3 view .LVU82
 273              		.loc 1 155 19 is_stmt 0 view .LVU83
 274 0000 C368     		ldr	r3, [r0, #12]
 275              		.loc 1 147 67 view .LVU84
 276 0002 10B5     		push	{r4, lr}
 277              		.cfi_def_cfa_offset 8
 278              		.cfi_offset 4, -8
 279              		.cfi_offset 14, -4
 280              		.loc 1 155 29 view .LVU85
 281 0004 1960     		str	r1, [r3]
 282              		.loc 1 158 3 is_stmt 1 view .LVU86
 283              		.loc 1 158 7 is_stmt 0 view .LVU87
 284 0006 8268     		ldr	r2, [r0, #8]
 285              		.loc 1 158 17 view .LVU88
ARM GAS  /tmp/ccTxpxgR.s 			page 6


 286 0008 0132     		adds	r2, r2, #1
 287 000a 8260     		str	r2, [r0, #8]
 288              		.loc 1 159 3 is_stmt 1 view .LVU89
 289              		.loc 1 159 16 is_stmt 0 view .LVU90
 290 000c 8269     		ldr	r2, [r0, #24]
 291 000e 9446     		mov	ip, r2
 292              		.loc 1 160 6 view .LVU91
 293 0010 4269     		ldr	r2, [r0, #20]
 294              		.loc 1 159 16 view .LVU92
 295 0012 6344     		add	r3, r3, ip
 296 0014 C360     		str	r3, [r0, #12]
 297              		.loc 1 160 3 is_stmt 1 view .LVU93
 298              		.loc 1 160 6 is_stmt 0 view .LVU94
 299 0016 9342     		cmp	r3, r2
 300 0018 01D3     		bcc	.L12
 301              		.loc 1 161 5 is_stmt 1 view .LVU95
 302              		.loc 1 161 18 is_stmt 0 view .LVU96
 303 001a 036A     		ldr	r3, [r0, #32]
 304 001c C360     		str	r3, [r0, #12]
 305              	.L12:
 306              		.loc 1 165 3 is_stmt 1 view .LVU97
 307              	.LVL12:
 308              	.LBB302:
 309              	.LBI302:
 310              		.loc 2 795 20 view .LVU98
 311              	.LBB303:
 312              		.loc 2 797 3 view .LVU99
 313 001e 0021     		movs	r1, #0
 314              	.LVL13:
 315              		.loc 2 797 3 is_stmt 0 view .LVU100
 316 0020 FFF7FEFF 		bl	chThdDequeueNextI
 317              	.LVL14:
 318              		.loc 2 797 3 view .LVU101
 319              	.LBE303:
 320              	.LBE302:
 321              		.loc 1 166 1 view .LVU102
 322              		@ sp needed
 323 0024 10BD     		pop	{r4, pc}
 324              		.cfi_endproc
 325              	.LFE154:
 326              		.size	ibqPostFullBufferI, .-ibqPostFullBufferI
 327 0026 C046     		.section	.text.ibqGetFullBufferTimeoutS,"ax",%progbits
 328              		.align	1
 329              		.p2align 4,,15
 330              		.global	ibqGetFullBufferTimeoutS
 331              		.syntax unified
 332              		.code	16
 333              		.thumb_func
 334              		.fpu softvfp
 335              		.type	ibqGetFullBufferTimeoutS, %function
 336              	ibqGetFullBufferTimeoutS:
 337              	.LVL15:
 338              	.LFB156:
 339              		.loc 1 220 53 is_stmt 1 view -0
 340              		.cfi_startproc
 341              		@ args = 0, pretend = 0, frame = 0
 342              		@ frame_needed = 0, uses_anonymous_args = 0
ARM GAS  /tmp/ccTxpxgR.s 			page 7


 343              		.loc 1 220 53 is_stmt 0 view .LVU104
 344 0000 70B5     		push	{r4, r5, r6, lr}
 345              		.cfi_def_cfa_offset 16
 346              		.cfi_offset 4, -16
 347              		.cfi_offset 5, -12
 348              		.cfi_offset 6, -8
 349              		.cfi_offset 14, -4
 350              		.loc 1 220 53 view .LVU105
 351 0002 0400     		movs	r4, r0
 352              		.loc 1 222 23 is_stmt 1 view .LVU106
 353              		.loc 1 224 3 view .LVU107
 354              		.loc 1 220 53 is_stmt 0 view .LVU108
 355 0004 0D00     		movs	r5, r1
 356              		.loc 1 224 9 view .LVU109
 357 0006 05E0     		b	.L14
 358              	.LVL16:
 359              	.L16:
 360              	.LBB312:
 361              		.loc 1 225 5 is_stmt 1 view .LVU110
 362              	.LBB313:
 363              	.LBI313:
 364              		.loc 2 781 21 view .LVU111
 365              	.LBB314:
 366              		.loc 2 784 3 view .LVU112
 367              		.loc 2 784 10 is_stmt 0 view .LVU113
 368 0008 2900     		movs	r1, r5
 369 000a 2000     		movs	r0, r4
 370 000c FFF7FEFF 		bl	chThdEnqueueTimeoutS
 371              	.LVL17:
 372              		.loc 2 784 10 view .LVU114
 373              	.LBE314:
 374              	.LBE313:
 375              		.loc 1 226 5 is_stmt 1 view .LVU115
 376              		.loc 1 226 8 is_stmt 0 view .LVU116
 377 0010 0028     		cmp	r0, #0
 378 0012 09DB     		blt	.L13
 379              	.LVL18:
 380              	.L14:
 381              		.loc 1 226 8 view .LVU117
 382              	.LBE312:
 383              		.loc 1 224 10 view .LVU118
 384 0014 A368     		ldr	r3, [r4, #8]
 385              		.loc 1 224 9 view .LVU119
 386 0016 002B     		cmp	r3, #0
 387 0018 F6D0     		beq	.L16
 388              	.LVL19:
 389              	.LBB315:
 390              	.LBI315:
 391              		.loc 1 219 9 is_stmt 1 view .LVU120
 392              	.LBB316:
 393              		.loc 1 231 3 view .LVU121
 394              		.loc 1 231 3 view .LVU122
 395              		.loc 1 234 3 view .LVU123
 396              		.loc 1 235 13 is_stmt 0 view .LVU124
 397 001a 0020     		movs	r0, #0
 398              		.loc 1 234 19 view .LVU125
 399 001c 2269     		ldr	r2, [r4, #16]
ARM GAS  /tmp/ccTxpxgR.s 			page 8


 400              		.loc 1 234 28 view .LVU126
 401 001e 131D     		adds	r3, r2, #4
 402              		.loc 1 235 25 view .LVU127
 403 0020 1268     		ldr	r2, [r2]
 404              		.loc 1 234 13 view .LVU128
 405 0022 6362     		str	r3, [r4, #36]
 406              		.loc 1 235 3 is_stmt 1 view .LVU129
 407              		.loc 1 235 25 is_stmt 0 view .LVU130
 408 0024 9B18     		adds	r3, r3, r2
 409              		.loc 1 235 13 view .LVU131
 410 0026 A362     		str	r3, [r4, #40]
 411              		.loc 1 237 3 is_stmt 1 view .LVU132
 412              	.LVL20:
 413              	.L13:
 414              		.loc 1 237 3 is_stmt 0 view .LVU133
 415              	.LBE316:
 416              	.LBE315:
 417              		.loc 1 238 1 view .LVU134
 418              		@ sp needed
 419              	.LVL21:
 420              	.LVL22:
 421              		.loc 1 238 1 view .LVU135
 422 0028 70BD     		pop	{r4, r5, r6, pc}
 423              		.cfi_endproc
 424              	.LFE156:
 425              		.size	ibqGetFullBufferTimeoutS, .-ibqGetFullBufferTimeoutS
 426 002a C046     		.section	.text.ibqGetFullBufferTimeout,"ax",%progbits
 427              		.align	1
 428              		.p2align 4,,15
 429              		.global	ibqGetFullBufferTimeout
 430              		.syntax unified
 431              		.code	16
 432              		.thumb_func
 433              		.fpu softvfp
 434              		.type	ibqGetFullBufferTimeout, %function
 435              	ibqGetFullBufferTimeout:
 436              	.LVL23:
 437              	.LFB155:
 438              		.loc 1 189 50 is_stmt 1 view -0
 439              		.cfi_startproc
 440              		@ args = 0, pretend = 0, frame = 0
 441              		@ frame_needed = 0, uses_anonymous_args = 0
 442              		.loc 1 190 3 view .LVU137
 443              		.loc 1 192 3 view .LVU138
 444              	.LBB317:
 445              	.LBI317:
 446              		.loc 2 491 20 view .LVU139
 447              	.LBE317:
 448              		.loc 2 493 3 view .LVU140
 449              	.LBB329:
 450              	.LBB318:
 451              	.LBI318:
 452              		.file 5 "ChibiOS/os/rt/include/chsys.h"
 453              		.loc 5 374 20 view .LVU141
 454              	.LBE318:
 455              	.LBE329:
 456              		.loc 5 376 3 view .LVU142
ARM GAS  /tmp/ccTxpxgR.s 			page 9


 457              	.LBB330:
 458              	.LBB326:
 459              	.LBB319:
 460              	.LBI319:
 461              		.file 6 "ChibiOS/os/common/ports/ARMCMx/chcore_v6m.h"
 462              		.loc 6 371 20 view .LVU143
 463              	.LBE319:
 464              	.LBE326:
 465              	.LBE330:
 466              		.loc 6 373 3 view .LVU144
 467              	.LBB331:
 468              	.LBB327:
 469              	.LBB324:
 470              	.LBB320:
 471              	.LBI320:
 472              		.file 7 "ChibiOS/os/common/ext/CMSIS/include/core_cmFunc.h"
 473              		.loc 7 342 57 view .LVU145
 474              	.LBB321:
 475              		.loc 7 344 3 view .LVU146
 476              	.LBE321:
 477              	.LBE320:
 478              	.LBE324:
 479              	.LBE327:
 480              	.LBE331:
 481              		.loc 1 189 50 is_stmt 0 view .LVU147
 482 0000 10B5     		push	{r4, lr}
 483              		.cfi_def_cfa_offset 8
 484              		.cfi_offset 4, -8
 485              		.cfi_offset 14, -4
 486              	.LBB332:
 487              	.LBB328:
 488              	.LBB325:
 489              	.LBB323:
 490              	.LBB322:
 491              		.loc 7 344 3 view .LVU148
 492              		.syntax divided
 493              	@ 344 "ChibiOS/os/common/ext/CMSIS/include/core_cmFunc.h" 1
 494 0002 72B6     		cpsid i
 495              	@ 0 "" 2
 496              		.thumb
 497              		.syntax unified
 498              	.LBE322:
 499              	.LBE323:
 500              	.LBE325:
 501              	.LBE328:
 502              	.LBE332:
 503              		.loc 5 377 34 is_stmt 1 view .LVU149
 504              		.loc 5 378 20 view .LVU150
 505              		.loc 1 193 3 view .LVU151
 506              		.loc 1 193 9 is_stmt 0 view .LVU152
 507 0004 FFF7FEFF 		bl	ibqGetFullBufferTimeoutS
 508              	.LVL24:
 509              		.loc 1 194 3 is_stmt 1 view .LVU153
 510              	.LBB333:
 511              	.LBI333:
 512              		.loc 2 502 20 view .LVU154
 513              	.LBE333:
ARM GAS  /tmp/ccTxpxgR.s 			page 10


 514              		.loc 2 504 3 view .LVU155
 515              	.LBB342:
 516              	.LBB334:
 517              	.LBI334:
 518              		.loc 5 386 20 view .LVU156
 519              	.LBB335:
 520              		.loc 5 388 22 view .LVU157
 521              		.loc 5 389 33 view .LVU158
 522              		.loc 5 395 3 view .LVU159
 523              		.loc 5 395 3 view .LVU160
 524              		.loc 5 399 3 view .LVU161
 525              	.LBB336:
 526              	.LBI336:
 527              		.loc 6 380 20 view .LVU162
 528              	.LBE336:
 529              	.LBE335:
 530              	.LBE334:
 531              	.LBE342:
 532              		.loc 6 382 3 view .LVU163
 533              	.LBB343:
 534              	.LBB341:
 535              	.LBB340:
 536              	.LBB339:
 537              	.LBB337:
 538              	.LBI337:
 539              		.loc 7 331 57 view .LVU164
 540              	.LBB338:
 541              		.loc 7 333 3 view .LVU165
 542              		.syntax divided
 543              	@ 333 "ChibiOS/os/common/ext/CMSIS/include/core_cmFunc.h" 1
 544 0008 62B6     		cpsie i
 545              	@ 0 "" 2
 546              		.thumb
 547              		.syntax unified
 548              	.LBE338:
 549              	.LBE337:
 550              	.LBE339:
 551              	.LBE340:
 552              	.LBE341:
 553              	.LBE343:
 554              		.loc 1 196 3 view .LVU166
 555              		.loc 1 197 1 is_stmt 0 view .LVU167
 556              		@ sp needed
 557 000a 10BD     		pop	{r4, pc}
 558              		.cfi_endproc
 559              	.LFE155:
 560              		.size	ibqGetFullBufferTimeout, .-ibqGetFullBufferTimeout
 561              		.section	.text.ibqReleaseEmptyBuffer,"ax",%progbits
 562              		.align	1
 563              		.p2align 4,,15
 564              		.global	ibqReleaseEmptyBuffer
 565              		.syntax unified
 566              		.code	16
 567              		.thumb_func
 568              		.fpu softvfp
 569              		.type	ibqReleaseEmptyBuffer, %function
 570              	ibqReleaseEmptyBuffer:
ARM GAS  /tmp/ccTxpxgR.s 			page 11


 571              	.LVL25:
 572              	.LFB157:
 573              		.loc 1 248 57 is_stmt 1 view -0
 574              		.cfi_startproc
 575              		@ args = 0, pretend = 0, frame = 0
 576              		@ frame_needed = 0, uses_anonymous_args = 0
 577              		.loc 1 250 3 view .LVU169
 578              	.LBB344:
 579              	.LBI344:
 580              		.loc 2 491 20 view .LVU170
 581              	.LBE344:
 582              		.loc 2 493 3 view .LVU171
 583              	.LBB356:
 584              	.LBB345:
 585              	.LBI345:
 586              		.loc 5 374 20 view .LVU172
 587              	.LBE345:
 588              	.LBE356:
 589              		.loc 5 376 3 view .LVU173
 590              	.LBB357:
 591              	.LBB353:
 592              	.LBB346:
 593              	.LBI346:
 594              		.loc 6 371 20 view .LVU174
 595              	.LBE346:
 596              	.LBE353:
 597              	.LBE357:
 598              		.loc 6 373 3 view .LVU175
 599              	.LBB358:
 600              	.LBB354:
 601              	.LBB351:
 602              	.LBB347:
 603              	.LBI347:
 604              		.loc 7 342 57 view .LVU176
 605              	.LBB348:
 606              		.loc 7 344 3 view .LVU177
 607              	.LBE348:
 608              	.LBE347:
 609              	.LBE351:
 610              	.LBE354:
 611              	.LBE358:
 612              		.loc 1 248 57 is_stmt 0 view .LVU178
 613 0000 10B5     		push	{r4, lr}
 614              		.cfi_def_cfa_offset 8
 615              		.cfi_offset 4, -8
 616              		.cfi_offset 14, -4
 617              	.LBB359:
 618              	.LBB355:
 619              	.LBB352:
 620              	.LBB350:
 621              	.LBB349:
 622              		.loc 7 344 3 view .LVU179
 623              		.syntax divided
 624              	@ 344 "ChibiOS/os/common/ext/CMSIS/include/core_cmFunc.h" 1
 625 0002 72B6     		cpsid i
 626              	@ 0 "" 2
 627              		.thumb
ARM GAS  /tmp/ccTxpxgR.s 			page 12


 628              		.syntax unified
 629              	.LBE349:
 630              	.LBE350:
 631              	.LBE352:
 632              	.LBE355:
 633              	.LBE359:
 634              		.loc 5 377 34 is_stmt 1 view .LVU180
 635              		.loc 5 378 20 view .LVU181
 636              		.loc 1 251 3 view .LVU182
 637              	.LVL26:
 638              	.LBB360:
 639              	.LBI360:
 640              		.loc 1 263 8 view .LVU183
 641              	.LBB361:
 642              		.loc 1 265 23 view .LVU184
 643              		.loc 1 266 3 view .LVU185
 644              		.loc 1 266 3 view .LVU186
 645              		.loc 1 269 3 view .LVU187
 646              		.loc 1 270 16 is_stmt 0 view .LVU188
 647 0004 8269     		ldr	r2, [r0, #24]
 648              		.loc 1 269 7 view .LVU189
 649 0006 8368     		ldr	r3, [r0, #8]
 650              		.loc 1 270 16 view .LVU190
 651 0008 9446     		mov	ip, r2
 652              		.loc 1 269 17 view .LVU191
 653 000a 013B     		subs	r3, r3, #1
 654 000c 8360     		str	r3, [r0, #8]
 655              		.loc 1 270 3 is_stmt 1 view .LVU192
 656              		.loc 1 270 16 is_stmt 0 view .LVU193
 657 000e 0369     		ldr	r3, [r0, #16]
 658              		.loc 1 271 6 view .LVU194
 659 0010 4269     		ldr	r2, [r0, #20]
 660              		.loc 1 270 16 view .LVU195
 661 0012 6344     		add	r3, r3, ip
 662 0014 0361     		str	r3, [r0, #16]
 663              		.loc 1 271 3 is_stmt 1 view .LVU196
 664              		.loc 1 271 6 is_stmt 0 view .LVU197
 665 0016 9342     		cmp	r3, r2
 666 0018 01D3     		bcc	.L19
 667              		.loc 1 272 5 is_stmt 1 view .LVU198
 668              		.loc 1 272 18 is_stmt 0 view .LVU199
 669 001a 036A     		ldr	r3, [r0, #32]
 670 001c 0361     		str	r3, [r0, #16]
 671              	.L19:
 672              		.loc 1 276 3 is_stmt 1 view .LVU200
 673              		.loc 1 276 13 is_stmt 0 view .LVU201
 674 001e 0023     		movs	r3, #0
 675 0020 4362     		str	r3, [r0, #36]
 676              		.loc 1 279 3 is_stmt 1 view .LVU202
 677              		.loc 1 279 11 is_stmt 0 view .LVU203
 678 0022 C36A     		ldr	r3, [r0, #44]
 679              		.loc 1 279 6 view .LVU204
 680 0024 002B     		cmp	r3, #0
 681 0026 00D0     		beq	.L20
 682              		.loc 1 280 5 is_stmt 1 view .LVU205
 683 0028 9847     		blx	r3
 684              	.LVL27:
ARM GAS  /tmp/ccTxpxgR.s 			page 13


 685              	.L20:
 686              		.loc 1 280 5 is_stmt 0 view .LVU206
 687              	.LBE361:
 688              	.LBE360:
 689              		.loc 1 252 3 is_stmt 1 view .LVU207
 690              	.LBB362:
 691              	.LBI362:
 692              		.loc 2 502 20 view .LVU208
 693              	.LBE362:
 694              		.loc 2 504 3 view .LVU209
 695              	.LBB371:
 696              	.LBB363:
 697              	.LBI363:
 698              		.loc 5 386 20 view .LVU210
 699              	.LBB364:
 700              		.loc 5 388 22 view .LVU211
 701              		.loc 5 389 33 view .LVU212
 702              		.loc 5 395 3 view .LVU213
 703              		.loc 5 395 3 view .LVU214
 704              		.loc 5 399 3 view .LVU215
 705              	.LBB365:
 706              	.LBI365:
 707              		.loc 6 380 20 view .LVU216
 708              	.LBE365:
 709              	.LBE364:
 710              	.LBE363:
 711              	.LBE371:
 712              		.loc 6 382 3 view .LVU217
 713              	.LBB372:
 714              	.LBB370:
 715              	.LBB369:
 716              	.LBB368:
 717              	.LBB366:
 718              	.LBI366:
 719              		.loc 7 331 57 view .LVU218
 720              	.LBB367:
 721              		.loc 7 333 3 view .LVU219
 722              		.syntax divided
 723              	@ 333 "ChibiOS/os/common/ext/CMSIS/include/core_cmFunc.h" 1
 724 002a 62B6     		cpsie i
 725              	@ 0 "" 2
 726              		.thumb
 727              		.syntax unified
 728              	.LBE367:
 729              	.LBE366:
 730              	.LBE368:
 731              	.LBE369:
 732              	.LBE370:
 733              	.LBE372:
 734              		.loc 1 253 1 is_stmt 0 view .LVU220
 735              		@ sp needed
 736 002c 10BD     		pop	{r4, pc}
 737              		.cfi_endproc
 738              	.LFE157:
 739              		.size	ibqReleaseEmptyBuffer, .-ibqReleaseEmptyBuffer
 740 002e C046     		.section	.text.ibqReleaseEmptyBufferS,"ax",%progbits
 741              		.align	1
ARM GAS  /tmp/ccTxpxgR.s 			page 14


 742              		.p2align 4,,15
 743              		.global	ibqReleaseEmptyBufferS
 744              		.syntax unified
 745              		.code	16
 746              		.thumb_func
 747              		.fpu softvfp
 748              		.type	ibqReleaseEmptyBufferS, %function
 749              	ibqReleaseEmptyBufferS:
 750              	.LVL28:
 751              	.LFB158:
 752              		.loc 1 263 60 is_stmt 1 view -0
 753              		.cfi_startproc
 754              		@ args = 0, pretend = 0, frame = 0
 755              		@ frame_needed = 0, uses_anonymous_args = 0
 756              		.loc 1 265 23 view .LVU222
 757              		.loc 1 266 3 view .LVU223
 758              		.loc 1 266 3 view .LVU224
 759              		.loc 1 269 3 view .LVU225
 760              		.loc 1 270 16 is_stmt 0 view .LVU226
 761 0000 8269     		ldr	r2, [r0, #24]
 762              		.loc 1 269 7 view .LVU227
 763 0002 8368     		ldr	r3, [r0, #8]
 764              		.loc 1 270 16 view .LVU228
 765 0004 9446     		mov	ip, r2
 766              		.loc 1 269 17 view .LVU229
 767 0006 013B     		subs	r3, r3, #1
 768 0008 8360     		str	r3, [r0, #8]
 769              		.loc 1 270 3 is_stmt 1 view .LVU230
 770              		.loc 1 270 16 is_stmt 0 view .LVU231
 771 000a 0369     		ldr	r3, [r0, #16]
 772              		.loc 1 271 6 view .LVU232
 773 000c 4269     		ldr	r2, [r0, #20]
 774              		.loc 1 270 16 view .LVU233
 775 000e 6344     		add	r3, r3, ip
 776              		.loc 1 263 60 view .LVU234
 777 0010 10B5     		push	{r4, lr}
 778              		.cfi_def_cfa_offset 8
 779              		.cfi_offset 4, -8
 780              		.cfi_offset 14, -4
 781              		.loc 1 270 16 view .LVU235
 782 0012 0361     		str	r3, [r0, #16]
 783              		.loc 1 271 3 is_stmt 1 view .LVU236
 784              		.loc 1 271 6 is_stmt 0 view .LVU237
 785 0014 9342     		cmp	r3, r2
 786 0016 01D3     		bcc	.L25
 787              		.loc 1 272 5 is_stmt 1 view .LVU238
 788              		.loc 1 272 18 is_stmt 0 view .LVU239
 789 0018 036A     		ldr	r3, [r0, #32]
 790 001a 0361     		str	r3, [r0, #16]
 791              	.L25:
 792              		.loc 1 276 3 is_stmt 1 view .LVU240
 793              		.loc 1 276 13 is_stmt 0 view .LVU241
 794 001c 0023     		movs	r3, #0
 795 001e 4362     		str	r3, [r0, #36]
 796              		.loc 1 279 3 is_stmt 1 view .LVU242
 797              		.loc 1 279 11 is_stmt 0 view .LVU243
 798 0020 C36A     		ldr	r3, [r0, #44]
ARM GAS  /tmp/ccTxpxgR.s 			page 15


 799              		.loc 1 279 6 view .LVU244
 800 0022 002B     		cmp	r3, #0
 801 0024 00D0     		beq	.L24
 802              		.loc 1 280 5 is_stmt 1 view .LVU245
 803 0026 9847     		blx	r3
 804              	.LVL29:
 805              	.L24:
 806              		.loc 1 282 1 is_stmt 0 view .LVU246
 807              		@ sp needed
 808 0028 10BD     		pop	{r4, pc}
 809              		.cfi_endproc
 810              	.LFE158:
 811              		.size	ibqReleaseEmptyBufferS, .-ibqReleaseEmptyBufferS
 812 002a C046     		.section	.text.ibqGetTimeout,"ax",%progbits
 813              		.align	1
 814              		.p2align 4,,15
 815              		.global	ibqGetTimeout
 816              		.syntax unified
 817              		.code	16
 818              		.thumb_func
 819              		.fpu softvfp
 820              		.type	ibqGetTimeout, %function
 821              	ibqGetTimeout:
 822              	.LVL30:
 823              	.LFB159:
 824              		.loc 1 302 69 is_stmt 1 view -0
 825              		.cfi_startproc
 826              		@ args = 0, pretend = 0, frame = 0
 827              		@ frame_needed = 0, uses_anonymous_args = 0
 828              		.loc 1 303 3 view .LVU248
 829              		.loc 1 305 3 view .LVU249
 830              	.LBB373:
 831              	.LBI373:
 832              		.loc 2 491 20 view .LVU250
 833              	.LBE373:
 834              		.loc 2 493 3 view .LVU251
 835              	.LBB385:
 836              	.LBB374:
 837              	.LBI374:
 838              		.loc 5 374 20 view .LVU252
 839              	.LBE374:
 840              	.LBE385:
 841              		.loc 5 376 3 view .LVU253
 842              	.LBB386:
 843              	.LBB382:
 844              	.LBB375:
 845              	.LBI375:
 846              		.loc 6 371 20 view .LVU254
 847              	.LBE375:
 848              	.LBE382:
 849              	.LBE386:
 850              		.loc 6 373 3 view .LVU255
 851              	.LBB387:
 852              	.LBB383:
 853              	.LBB380:
 854              	.LBB376:
 855              	.LBI376:
ARM GAS  /tmp/ccTxpxgR.s 			page 16


 856              		.loc 7 342 57 view .LVU256
 857              	.LBB377:
 858              		.loc 7 344 3 view .LVU257
 859              	.LBE377:
 860              	.LBE376:
 861              	.LBE380:
 862              	.LBE383:
 863              	.LBE387:
 864              		.loc 1 302 69 is_stmt 0 view .LVU258
 865 0000 70B5     		push	{r4, r5, r6, lr}
 866              		.cfi_def_cfa_offset 16
 867              		.cfi_offset 4, -16
 868              		.cfi_offset 5, -12
 869              		.cfi_offset 6, -8
 870              		.cfi_offset 14, -4
 871              		.loc 1 302 69 view .LVU259
 872 0002 0400     		movs	r4, r0
 873              	.LBB388:
 874              	.LBB384:
 875              	.LBB381:
 876              	.LBB379:
 877              	.LBB378:
 878              		.loc 7 344 3 view .LVU260
 879              		.syntax divided
 880              	@ 344 "ChibiOS/os/common/ext/CMSIS/include/core_cmFunc.h" 1
 881 0004 72B6     		cpsid i
 882              	@ 0 "" 2
 883              		.thumb
 884              		.syntax unified
 885              	.LBE378:
 886              	.LBE379:
 887              	.LBE381:
 888              	.LBE384:
 889              	.LBE388:
 890              		.loc 5 377 34 is_stmt 1 view .LVU261
 891              		.loc 5 378 20 view .LVU262
 892              		.loc 1 308 3 view .LVU263
 893              		.loc 1 308 11 is_stmt 0 view .LVU264
 894 0006 436A     		ldr	r3, [r0, #36]
 895              		.loc 1 308 6 view .LVU265
 896 0008 002B     		cmp	r3, #0
 897 000a 1CD0     		beq	.L41
 898              	.LVL31:
 899              	.L31:
 900              		.loc 1 317 3 is_stmt 1 view .LVU266
 901              		.loc 1 322 6 is_stmt 0 view .LVU267
 902 000c A26A     		ldr	r2, [r4, #40]
 903              		.loc 1 317 7 view .LVU268
 904 000e 1D78     		ldrb	r5, [r3]
 905              	.LVL32:
 906              		.loc 1 318 3 is_stmt 1 view .LVU269
 907              		.loc 1 318 12 is_stmt 0 view .LVU270
 908 0010 0133     		adds	r3, r3, #1
 909 0012 6362     		str	r3, [r4, #36]
 910              		.loc 1 322 3 is_stmt 1 view .LVU271
 911              		.loc 1 322 6 is_stmt 0 view .LVU272
 912 0014 9342     		cmp	r3, r2
ARM GAS  /tmp/ccTxpxgR.s 			page 17


 913 0016 13D3     		bcc	.L35
 914              		.loc 1 323 5 is_stmt 1 view .LVU273
 915              	.LVL33:
 916              	.LBB389:
 917              	.LBI389:
 918              		.loc 1 263 8 view .LVU274
 919              	.LBB390:
 920              		.loc 1 265 23 view .LVU275
 921              		.loc 1 266 3 view .LVU276
 922              		.loc 1 266 3 view .LVU277
 923              		.loc 1 269 3 view .LVU278
 924              		.loc 1 270 16 is_stmt 0 view .LVU279
 925 0018 A269     		ldr	r2, [r4, #24]
 926              		.loc 1 269 7 view .LVU280
 927 001a A368     		ldr	r3, [r4, #8]
 928              		.loc 1 270 16 view .LVU281
 929 001c 9446     		mov	ip, r2
 930              		.loc 1 269 17 view .LVU282
 931 001e 013B     		subs	r3, r3, #1
 932 0020 A360     		str	r3, [r4, #8]
 933              		.loc 1 270 3 is_stmt 1 view .LVU283
 934              		.loc 1 270 16 is_stmt 0 view .LVU284
 935 0022 2369     		ldr	r3, [r4, #16]
 936              		.loc 1 271 6 view .LVU285
 937 0024 6269     		ldr	r2, [r4, #20]
 938              		.loc 1 270 16 view .LVU286
 939 0026 6344     		add	r3, r3, ip
 940 0028 2361     		str	r3, [r4, #16]
 941              		.loc 1 271 3 is_stmt 1 view .LVU287
 942              		.loc 1 271 6 is_stmt 0 view .LVU288
 943 002a 9342     		cmp	r3, r2
 944 002c 01D3     		bcc	.L36
 945              		.loc 1 272 5 is_stmt 1 view .LVU289
 946              		.loc 1 272 18 is_stmt 0 view .LVU290
 947 002e 236A     		ldr	r3, [r4, #32]
 948 0030 2361     		str	r3, [r4, #16]
 949              	.L36:
 950              		.loc 1 276 3 is_stmt 1 view .LVU291
 951              		.loc 1 276 13 is_stmt 0 view .LVU292
 952 0032 0023     		movs	r3, #0
 953 0034 6362     		str	r3, [r4, #36]
 954              		.loc 1 279 3 is_stmt 1 view .LVU293
 955              		.loc 1 279 11 is_stmt 0 view .LVU294
 956 0036 E36A     		ldr	r3, [r4, #44]
 957              		.loc 1 279 6 view .LVU295
 958 0038 002B     		cmp	r3, #0
 959 003a 01D0     		beq	.L35
 960              		.loc 1 280 5 is_stmt 1 view .LVU296
 961 003c 2000     		movs	r0, r4
 962 003e 9847     		blx	r3
 963              	.LVL34:
 964              	.L35:
 965              		.loc 1 280 5 is_stmt 0 view .LVU297
 966              	.LBE390:
 967              	.LBE389:
 968              		.loc 1 326 3 is_stmt 1 view .LVU298
 969              	.LBB391:
ARM GAS  /tmp/ccTxpxgR.s 			page 18


 970              	.LBI391:
 971              		.loc 2 502 20 view .LVU299
 972              	.LBE391:
 973              		.loc 2 504 3 view .LVU300
 974              	.LBB400:
 975              	.LBB392:
 976              	.LBI392:
 977              		.loc 5 386 20 view .LVU301
 978              	.LBB393:
 979              		.loc 5 388 22 view .LVU302
 980              		.loc 5 389 33 view .LVU303
 981              		.loc 5 395 3 view .LVU304
 982              		.loc 5 395 3 view .LVU305
 983              		.loc 5 399 3 view .LVU306
 984              	.LBB394:
 985              	.LBI394:
 986              		.loc 6 380 20 view .LVU307
 987              	.LBE394:
 988              	.LBE393:
 989              	.LBE392:
 990              	.LBE400:
 991              		.loc 6 382 3 view .LVU308
 992              	.LBB401:
 993              	.LBB399:
 994              	.LBB398:
 995              	.LBB397:
 996              	.LBB395:
 997              	.LBI395:
 998              		.loc 7 331 57 view .LVU309
 999              	.LBB396:
 1000              		.loc 7 333 3 view .LVU310
 1001              		.syntax divided
 1002              	@ 333 "ChibiOS/os/common/ext/CMSIS/include/core_cmFunc.h" 1
 1003 0040 62B6     		cpsie i
 1004              	@ 0 "" 2
 1005              		.thumb
 1006              		.syntax unified
 1007              	.LBE396:
 1008              	.LBE395:
 1009              	.LBE397:
 1010              	.LBE398:
 1011              	.LBE399:
 1012              	.LBE401:
 1013              		.loc 1 327 3 view .LVU311
 1014              		.loc 1 328 1 is_stmt 0 view .LVU312
 1015 0042 2800     		movs	r0, r5
 1016              		@ sp needed
 1017              	.LVL35:
 1018              	.LVL36:
 1019              		.loc 1 328 1 view .LVU313
 1020 0044 70BD     		pop	{r4, r5, r6, pc}
 1021              	.LVL37:
 1022              	.L41:
 1023              		.loc 1 309 5 is_stmt 1 view .LVU314
 1024              		.loc 1 309 11 is_stmt 0 view .LVU315
 1025 0046 FFF7FEFF 		bl	ibqGetFullBufferTimeoutS
 1026              	.LVL38:
ARM GAS  /tmp/ccTxpxgR.s 			page 19


 1027              		.loc 1 309 11 view .LVU316
 1028 004a 051E     		subs	r5, r0, #0
 1029              	.LVL39:
 1030              		.loc 1 310 5 is_stmt 1 view .LVU317
 1031              		.loc 1 310 8 is_stmt 0 view .LVU318
 1032 004c F8D1     		bne	.L35
 1033 004e 636A     		ldr	r3, [r4, #36]
 1034 0050 DCE7     		b	.L31
 1035              		.cfi_endproc
 1036              	.LFE159:
 1037              		.size	ibqGetTimeout, .-ibqGetTimeout
 1038 0052 C046     		.section	.text.ibqReadTimeout,"ax",%progbits
 1039              		.align	1
 1040              		.p2align 4,,15
 1041              		.global	ibqReadTimeout
 1042              		.syntax unified
 1043              		.code	16
 1044              		.thumb_func
 1045              		.fpu softvfp
 1046              		.type	ibqReadTimeout, %function
 1047              	ibqReadTimeout:
 1048              	.LVL40:
 1049              	.LFB160:
 1050              		.loc 1 352 52 is_stmt 1 view -0
 1051              		.cfi_startproc
 1052              		@ args = 0, pretend = 0, frame = 8
 1053              		@ frame_needed = 0, uses_anonymous_args = 0
 1054              		.loc 1 353 3 view .LVU320
 1055              		.loc 1 354 3 view .LVU321
 1056              		.loc 1 356 3 view .LVU322
 1057              		.loc 1 356 3 view .LVU323
 1058              		.loc 1 358 3 view .LVU324
 1059              	.LBB402:
 1060              	.LBI402:
 1061              		.loc 2 491 20 view .LVU325
 1062              	.LBE402:
 1063              		.loc 2 493 3 view .LVU326
 1064              	.LBB414:
 1065              	.LBB403:
 1066              	.LBI403:
 1067              		.loc 5 374 20 view .LVU327
 1068              	.LBE403:
 1069              	.LBE414:
 1070              		.loc 5 376 3 view .LVU328
 1071              	.LBB415:
 1072              	.LBB411:
 1073              	.LBB404:
 1074              	.LBI404:
 1075              		.loc 6 371 20 view .LVU329
 1076              	.LBE404:
 1077              	.LBE411:
 1078              	.LBE415:
 1079              		.loc 6 373 3 view .LVU330
 1080              	.LBB416:
 1081              	.LBB412:
 1082              	.LBB409:
 1083              	.LBB405:
ARM GAS  /tmp/ccTxpxgR.s 			page 20


 1084              	.LBI405:
 1085              		.loc 7 342 57 view .LVU331
 1086              	.LBB406:
 1087              		.loc 7 344 3 view .LVU332
 1088              	.LBE406:
 1089              	.LBE405:
 1090              	.LBE409:
 1091              	.LBE412:
 1092              	.LBE416:
 1093              		.loc 1 352 52 is_stmt 0 view .LVU333
 1094 0000 F0B5     		push	{r4, r5, r6, r7, lr}
 1095              		.cfi_def_cfa_offset 20
 1096              		.cfi_offset 4, -20
 1097              		.cfi_offset 5, -16
 1098              		.cfi_offset 6, -12
 1099              		.cfi_offset 7, -8
 1100              		.cfi_offset 14, -4
 1101 0002 5746     		mov	r7, r10
 1102 0004 4546     		mov	r5, r8
 1103 0006 DE46     		mov	lr, fp
 1104 0008 4E46     		mov	r6, r9
 1105 000a E0B5     		push	{r5, r6, r7, lr}
 1106              		.cfi_def_cfa_offset 36
 1107              		.cfi_offset 8, -36
 1108              		.cfi_offset 9, -32
 1109              		.cfi_offset 10, -28
 1110              		.cfi_offset 11, -24
 1111 000c 0400     		movs	r4, r0
 1112 000e 83B0     		sub	sp, sp, #12
 1113              		.cfi_def_cfa_offset 48
 1114              		.loc 1 352 52 view .LVU334
 1115 0010 0F00     		movs	r7, r1
 1116 0012 9046     		mov	r8, r2
 1117 0014 9A46     		mov	r10, r3
 1118              	.LBB417:
 1119              	.LBB413:
 1120              	.LBB410:
 1121              	.LBB408:
 1122              	.LBB407:
 1123              		.loc 7 344 3 view .LVU335
 1124              		.syntax divided
 1125              	@ 344 "ChibiOS/os/common/ext/CMSIS/include/core_cmFunc.h" 1
 1126 0016 72B6     		cpsid i
 1127              	@ 0 "" 2
 1128              		.thumb
 1129              		.syntax unified
 1130              	.LBE407:
 1131              	.LBE408:
 1132              	.LBE410:
 1133              	.LBE413:
 1134              	.LBE417:
 1135              		.loc 5 377 34 is_stmt 1 view .LVU336
 1136              		.loc 5 378 20 view .LVU337
 1137              		.loc 1 361 3 view .LVU338
 1138              	.LBB418:
 1139              	.LBI418:
 1140              		.loc 2 616 25 view .LVU339
ARM GAS  /tmp/ccTxpxgR.s 			page 21


 1141              	.LBE418:
 1142              		.loc 2 618 3 view .LVU340
 1143              	.LBB426:
 1144              	.LBB419:
 1145              	.LBI419:
 1146              		.file 8 "ChibiOS/os/rt/include/chvt.h"
 1147              		.loc 8 228 25 view .LVU341
 1148              	.LBE419:
 1149              	.LBE426:
 1150              		.loc 8 233 3 view .LVU342
 1151              	.LBB427:
 1152              	.LBB424:
 1153              	.LBB420:
 1154              	.LBI420:
 1155              		.file 9 "ChibiOS/os/common/ports/ARMCMx/chcore_timer.h"
 1156              		.loc 9 105 25 view .LVU343
 1157              	.LBE420:
 1158              	.LBE424:
 1159              	.LBE427:
 1160              		.loc 9 107 3 view .LVU344
 1161              	.LBB428:
 1162              	.LBB425:
 1163              	.LBB423:
 1164              	.LBB421:
 1165              	.LBI421:
 1166              		.file 10 "ChibiOS/os/hal/ports/STM32/LLD/TIMv1/hal_st_lld.h"
 1167              		.loc 10 139 25 view .LVU345
 1168              	.LBB422:
 1169              		.loc 10 141 3 view .LVU346
 1170              		.loc 10 141 10 is_stmt 0 view .LVU347
 1171 0018 8023     		movs	r3, #128
 1172              	.LVL41:
 1173              		.loc 10 141 10 view .LVU348
 1174 001a DB05     		lsls	r3, r3, #23
 1175 001c 5A6A     		ldr	r2, [r3, #36]
 1176              	.LVL42:
 1177              		.loc 10 141 10 view .LVU349
 1178              	.LBE422:
 1179              	.LBE421:
 1180              	.LBE423:
 1181              	.LBE425:
 1182              	.LBE428:
 1183              	.LBB429:
 1184              	.LBB430:
 1185              	.LBB431:
 1186              	.LBB432:
 1187              	.LBB433:
 1188              	.LBB434:
 1189              	.LBB435:
 1190              	.LBB436:
 1191 001e 9B46     		mov	fp, r3
 1192              	.LBE436:
 1193              	.LBE435:
 1194              	.LBE434:
 1195              	.LBE433:
 1196              	.LBE432:
 1197              	.LBE431:
ARM GAS  /tmp/ccTxpxgR.s 			page 22


 1198              	.LBE430:
 1199              	.LBE429:
 1200              		.loc 1 361 12 view .LVU350
 1201 0020 5244     		add	r2, r2, r10
 1202 0022 0192     		str	r2, [sp, #4]
 1203              	.LVL43:
 1204              	.LBB500:
 1205              	.LBB463:
 1206              		.loc 1 372 38 view .LVU351
 1207 0024 5246     		mov	r2, r10
 1208              	.LVL44:
 1209              		.loc 1 372 38 view .LVU352
 1210              	.LBE463:
 1211              	.LBB464:
 1212              	.LBB465:
 1213              		.loc 1 276 13 view .LVU353
 1214 0026 0023     		movs	r3, #0
 1215              	.LBE465:
 1216              	.LBE464:
 1217              	.LBB468:
 1218              		.loc 1 372 38 view .LVU354
 1219 0028 013A     		subs	r2, r2, #1
 1220              	.LBE468:
 1221              	.LBE500:
 1222              		.loc 1 353 10 view .LVU355
 1223 002a 0026     		movs	r6, #0
 1224              	.LBB501:
 1225              	.LBB469:
 1226              		.loc 1 372 38 view .LVU356
 1227 002c 0092     		str	r2, [sp]
 1228              	.LBE469:
 1229              	.LBB470:
 1230              	.LBB466:
 1231              		.loc 1 276 13 view .LVU357
 1232 002e 9946     		mov	r9, r3
 1233 0030 23E0     		b	.L56
 1234              	.LVL45:
 1235              	.L62:
 1236              		.loc 1 276 13 view .LVU358
 1237              	.LBE466:
 1238              	.LBE470:
 1239              		.loc 1 405 7 is_stmt 1 view .LVU359
 1240 0032 3800     		movs	r0, r7
 1241 0034 4022     		movs	r2, #64
 1242              	.LVL46:
 1243              		.loc 1 405 7 is_stmt 0 view .LVU360
 1244 0036 FFF7FEFF 		bl	memcpy
 1245              	.LVL47:
 1246              		.loc 1 406 7 is_stmt 1 view .LVU361
 1247              		.loc 1 407 17 is_stmt 0 view .LVU362
 1248 003a 636A     		ldr	r3, [r4, #36]
 1249              		.loc 1 406 17 view .LVU363
 1250 003c 4037     		adds	r7, r7, #64
 1251              	.LVL48:
 1252              		.loc 1 407 7 is_stmt 1 view .LVU364
 1253              		.loc 1 407 17 is_stmt 0 view .LVU365
 1254 003e 4033     		adds	r3, r3, #64
ARM GAS  /tmp/ccTxpxgR.s 			page 23


 1255 0040 6362     		str	r3, [r4, #36]
 1256              		.loc 1 408 7 is_stmt 1 view .LVU366
 1257              		.loc 1 408 17 is_stmt 0 view .LVU367
 1258 0042 4036     		adds	r6, r6, #64
 1259              	.LVL49:
 1260              	.L51:
 1261              		.loc 1 418 5 is_stmt 1 view .LVU368
 1262              		.loc 1 418 8 is_stmt 0 view .LVU369
 1263 0044 A26A     		ldr	r2, [r4, #40]
 1264 0046 9A42     		cmp	r2, r3
 1265 0048 13D8     		bhi	.L53
 1266              		.loc 1 419 7 is_stmt 1 view .LVU370
 1267              	.LVL50:
 1268              	.LBB471:
 1269              	.LBI464:
 1270              		.loc 1 263 8 view .LVU371
 1271              	.LBB467:
 1272              		.loc 1 265 23 view .LVU372
 1273              		.loc 1 266 3 view .LVU373
 1274              		.loc 1 266 3 view .LVU374
 1275              		.loc 1 269 3 view .LVU375
 1276              		.loc 1 270 16 is_stmt 0 view .LVU376
 1277 004a A269     		ldr	r2, [r4, #24]
 1278              		.loc 1 269 7 view .LVU377
 1279 004c A368     		ldr	r3, [r4, #8]
 1280              		.loc 1 270 16 view .LVU378
 1281 004e 9446     		mov	ip, r2
 1282              		.loc 1 269 17 view .LVU379
 1283 0050 013B     		subs	r3, r3, #1
 1284 0052 A360     		str	r3, [r4, #8]
 1285              		.loc 1 270 3 is_stmt 1 view .LVU380
 1286              		.loc 1 270 16 is_stmt 0 view .LVU381
 1287 0054 2369     		ldr	r3, [r4, #16]
 1288              		.loc 1 271 6 view .LVU382
 1289 0056 6269     		ldr	r2, [r4, #20]
 1290              		.loc 1 270 16 view .LVU383
 1291 0058 6344     		add	r3, r3, ip
 1292 005a 2361     		str	r3, [r4, #16]
 1293              		.loc 1 271 3 is_stmt 1 view .LVU384
 1294              		.loc 1 271 6 is_stmt 0 view .LVU385
 1295 005c 9342     		cmp	r3, r2
 1296 005e 01D3     		bcc	.L54
 1297              		.loc 1 272 5 is_stmt 1 view .LVU386
 1298              		.loc 1 272 18 is_stmt 0 view .LVU387
 1299 0060 236A     		ldr	r3, [r4, #32]
 1300 0062 2361     		str	r3, [r4, #16]
 1301              	.L54:
 1302              		.loc 1 276 3 is_stmt 1 view .LVU388
 1303              		.loc 1 276 13 is_stmt 0 view .LVU389
 1304 0064 4B46     		mov	r3, r9
 1305 0066 6362     		str	r3, [r4, #36]
 1306              		.loc 1 279 3 is_stmt 1 view .LVU390
 1307              		.loc 1 279 11 is_stmt 0 view .LVU391
 1308 0068 E36A     		ldr	r3, [r4, #44]
 1309              		.loc 1 279 6 view .LVU392
 1310 006a 002B     		cmp	r3, #0
 1311 006c 01D0     		beq	.L53
ARM GAS  /tmp/ccTxpxgR.s 			page 24


 1312              		.loc 1 280 5 is_stmt 1 view .LVU393
 1313 006e 2000     		movs	r0, r4
 1314 0070 9847     		blx	r3
 1315              	.LVL51:
 1316              	.L53:
 1317              		.loc 1 280 5 is_stmt 0 view .LVU394
 1318              	.LBE467:
 1319              	.LBE471:
 1320              		.loc 1 423 5 is_stmt 1 view .LVU395
 1321              	.LBB472:
 1322              	.LBI472:
 1323              		.loc 2 502 20 view .LVU396
 1324              	.LBE472:
 1325              	.LBE501:
 1326              		.loc 2 504 3 view .LVU397
 1327              	.LBB502:
 1328              	.LBB481:
 1329              	.LBB473:
 1330              	.LBI473:
 1331              		.loc 5 386 20 view .LVU398
 1332              	.LBB474:
 1333              		.loc 5 388 22 view .LVU399
 1334              		.loc 5 389 33 view .LVU400
 1335              		.loc 5 395 3 view .LVU401
 1336              		.loc 5 395 3 view .LVU402
 1337              		.loc 5 399 3 view .LVU403
 1338              	.LBB475:
 1339              	.LBI475:
 1340              		.loc 6 380 20 view .LVU404
 1341              	.LBE475:
 1342              	.LBE474:
 1343              	.LBE473:
 1344              	.LBE481:
 1345              	.LBE502:
 1346              		.loc 6 382 3 view .LVU405
 1347              	.LBB503:
 1348              	.LBB482:
 1349              	.LBB480:
 1350              	.LBB479:
 1351              	.LBB478:
 1352              	.LBB476:
 1353              	.LBI476:
 1354              		.loc 7 331 57 view .LVU406
 1355              	.LBB477:
 1356              		.loc 7 333 3 view .LVU407
 1357              		.syntax divided
 1358              	@ 333 "ChibiOS/os/common/ext/CMSIS/include/core_cmFunc.h" 1
 1359 0072 62B6     		cpsie i
 1360              	@ 0 "" 2
 1361              		.thumb
 1362              		.syntax unified
 1363              	.LBE477:
 1364              	.LBE476:
 1365              	.LBE478:
 1366              	.LBE479:
 1367              	.LBE480:
 1368              	.LBE482:
ARM GAS  /tmp/ccTxpxgR.s 			page 25


 1369              		.loc 1 424 5 view .LVU408
 1370              		.loc 1 424 8 is_stmt 0 view .LVU409
 1371 0074 4645     		cmp	r6, r8
 1372 0076 2DD2     		bcs	.L42
 1373              		.loc 1 427 5 is_stmt 1 view .LVU410
 1374              	.LBB483:
 1375              	.LBI483:
 1376              		.loc 2 491 20 view .LVU411
 1377              	.LBE483:
 1378              	.LBE503:
 1379              		.loc 2 493 3 view .LVU412
 1380              	.LBB504:
 1381              	.LBB491:
 1382              	.LBB484:
 1383              	.LBI484:
 1384              		.loc 5 374 20 view .LVU413
 1385              	.LBE484:
 1386              	.LBE491:
 1387              	.LBE504:
 1388              		.loc 5 376 3 view .LVU414
 1389              	.LBB505:
 1390              	.LBB492:
 1391              	.LBB489:
 1392              	.LBB485:
 1393              	.LBI485:
 1394              		.loc 6 371 20 view .LVU415
 1395              	.LBE485:
 1396              	.LBE489:
 1397              	.LBE492:
 1398              	.LBE505:
 1399              		.loc 6 373 3 view .LVU416
 1400              	.LBB506:
 1401              	.LBB493:
 1402              	.LBB490:
 1403              	.LBB488:
 1404              	.LBB486:
 1405              	.LBI486:
 1406              		.loc 7 342 57 view .LVU417
 1407              	.LBB487:
 1408              		.loc 7 344 3 view .LVU418
 1409              		.syntax divided
 1410              	@ 344 "ChibiOS/os/common/ext/CMSIS/include/core_cmFunc.h" 1
 1411 0078 72B6     		cpsid i
 1412              	@ 0 "" 2
 1413              		.thumb
 1414              		.syntax unified
 1415              	.LBE487:
 1416              	.LBE486:
 1417              	.LBE488:
 1418              	.LBE490:
 1419              	.LBE493:
 1420              	.LBE506:
 1421              		.loc 5 377 34 view .LVU419
 1422              		.loc 5 378 20 view .LVU420
 1423              	.LVL52:
 1424              	.L56:
 1425              		.loc 1 363 3 view .LVU421
ARM GAS  /tmp/ccTxpxgR.s 			page 26


 1426              	.LBB507:
 1427              		.loc 1 364 5 view .LVU422
 1428              		.loc 1 367 5 view .LVU423
 1429              		.loc 1 367 13 is_stmt 0 view .LVU424
 1430 007a 616A     		ldr	r1, [r4, #36]
 1431              		.loc 1 367 8 view .LVU425
 1432 007c 0029     		cmp	r1, #0
 1433 007e 12D0     		beq	.L61
 1434              	.L43:
 1435              		.loc 1 396 5 is_stmt 1 view .LVU426
 1436              		.loc 1 397 19 is_stmt 0 view .LVU427
 1437 0080 4246     		mov	r2, r8
 1438              		.loc 1 396 10 view .LVU428
 1439 0082 A36A     		ldr	r3, [r4, #40]
 1440              		.loc 1 397 19 view .LVU429
 1441 0084 951B     		subs	r5, r2, r6
 1442              		.loc 1 396 10 view .LVU430
 1443 0086 5B1A     		subs	r3, r3, r1
 1444              	.LVL53:
 1445              		.loc 1 397 5 is_stmt 1 view .LVU431
 1446 0088 9D42     		cmp	r5, r3
 1447 008a 00D9     		bls	.L49
 1448              	.LVL54:
 1449              		.loc 1 397 5 is_stmt 0 view .LVU432
 1450 008c 1D00     		movs	r5, r3
 1451              	.L49:
 1452              	.LVL55:
 1453              		.loc 1 403 5 is_stmt 1 view .LVU433
 1454              		.loc 1 403 8 is_stmt 0 view .LVU434
 1455 008e 402D     		cmp	r5, #64
 1456 0090 CFD8     		bhi	.L62
 1457              		.loc 1 411 7 is_stmt 1 view .LVU435
 1458 0092 3800     		movs	r0, r7
 1459 0094 2A00     		movs	r2, r5
 1460              	.LVL56:
 1461              		.loc 1 411 7 is_stmt 0 view .LVU436
 1462 0096 FFF7FEFF 		bl	memcpy
 1463              	.LVL57:
 1464              		.loc 1 412 7 is_stmt 1 view .LVU437
 1465              		.loc 1 413 17 is_stmt 0 view .LVU438
 1466 009a 636A     		ldr	r3, [r4, #36]
 1467              		.loc 1 412 17 view .LVU439
 1468 009c 7F19     		adds	r7, r7, r5
 1469              	.LVL58:
 1470              		.loc 1 413 7 is_stmt 1 view .LVU440
 1471              		.loc 1 413 17 is_stmt 0 view .LVU441
 1472 009e 5B19     		adds	r3, r3, r5
 1473 00a0 6362     		str	r3, [r4, #36]
 1474              		.loc 1 414 7 is_stmt 1 view .LVU442
 1475              		.loc 1 414 17 is_stmt 0 view .LVU443
 1476 00a2 7619     		adds	r6, r6, r5
 1477              	.LVL59:
 1478              		.loc 1 414 17 view .LVU444
 1479 00a4 CEE7     		b	.L51
 1480              	.LVL60:
 1481              	.L61:
 1482              	.LBB494:
ARM GAS  /tmp/ccTxpxgR.s 			page 27


 1483              		.loc 1 368 7 is_stmt 1 view .LVU445
 1484              		.loc 1 372 7 view .LVU446
 1485              		.loc 1 372 10 is_stmt 0 view .LVU447
 1486 00a6 009B     		ldr	r3, [sp]
 1487 00a8 0333     		adds	r3, r3, #3
 1488 00aa 0CD8     		bhi	.L63
 1489              	.LBB448:
 1490              		.loc 1 376 9 is_stmt 1 view .LVU448
 1491              	.LBB444:
 1492              	.LBI432:
 1493              		.loc 2 616 25 view .LVU449
 1494              	.LBE444:
 1495              	.LBE448:
 1496              	.LBE494:
 1497              	.LBE507:
 1498              		.loc 2 618 3 view .LVU450
 1499              	.LBB508:
 1500              	.LBB495:
 1501              	.LBB449:
 1502              	.LBB445:
 1503              	.LBB441:
 1504              	.LBI433:
 1505              		.loc 8 228 25 view .LVU451
 1506              	.LBE441:
 1507              	.LBE445:
 1508              	.LBE449:
 1509              	.LBE495:
 1510              	.LBE508:
 1511              		.loc 8 233 3 view .LVU452
 1512              	.LBB509:
 1513              	.LBB496:
 1514              	.LBB450:
 1515              	.LBB446:
 1516              	.LBB442:
 1517              	.LBB439:
 1518              	.LBI434:
 1519              		.loc 9 105 25 view .LVU453
 1520              	.LBE439:
 1521              	.LBE442:
 1522              	.LBE446:
 1523              	.LBE450:
 1524              	.LBE496:
 1525              	.LBE509:
 1526              		.loc 9 107 3 view .LVU454
 1527              	.LBB510:
 1528              	.LBB497:
 1529              	.LBB451:
 1530              	.LBB447:
 1531              	.LBB443:
 1532              	.LBB440:
 1533              	.LBB438:
 1534              	.LBI435:
 1535              		.loc 10 139 25 view .LVU455
 1536              	.LBB437:
 1537              		.loc 10 141 3 view .LVU456
 1538              		.loc 10 141 10 is_stmt 0 view .LVU457
 1539 00ac 5B46     		mov	r3, fp
ARM GAS  /tmp/ccTxpxgR.s 			page 28


 1540 00ae 596A     		ldr	r1, [r3, #36]
 1541              	.LBE437:
 1542              	.LBE438:
 1543              	.LBE440:
 1544              	.LBE443:
 1545              	.LBE447:
 1546              		.loc 1 376 19 view .LVU458
 1547 00b0 019B     		ldr	r3, [sp, #4]
 1548 00b2 591A     		subs	r1, r3, r1
 1549              	.LVL61:
 1550              		.loc 1 381 9 is_stmt 1 view .LVU459
 1551              		.loc 1 381 12 is_stmt 0 view .LVU460
 1552 00b4 8A45     		cmp	r10, r1
 1553 00b6 0CD3     		bcc	.L48
 1554              		.loc 1 385 9 is_stmt 1 view .LVU461
 1555              		.loc 1 385 15 is_stmt 0 view .LVU462
 1556 00b8 2000     		movs	r0, r4
 1557 00ba FFF7FEFF 		bl	ibqGetFullBufferTimeoutS
 1558              	.LVL62:
 1559              		.loc 1 385 15 view .LVU463
 1560              	.LBE451:
 1561              		.loc 1 389 7 is_stmt 1 view .LVU464
 1562              		.loc 1 389 10 is_stmt 0 view .LVU465
 1563 00be 0028     		cmp	r0, #0
 1564 00c0 07D1     		bne	.L48
 1565              	.L64:
 1566              		.loc 1 389 10 view .LVU466
 1567 00c2 616A     		ldr	r1, [r4, #36]
 1568 00c4 DCE7     		b	.L43
 1569              	.LVL63:
 1570              	.L63:
 1571              		.loc 1 373 9 is_stmt 1 view .LVU467
 1572              		.loc 1 373 15 is_stmt 0 view .LVU468
 1573 00c6 5146     		mov	r1, r10
 1574 00c8 2000     		movs	r0, r4
 1575 00ca FFF7FEFF 		bl	ibqGetFullBufferTimeoutS
 1576              	.LVL64:
 1577              		.loc 1 389 7 is_stmt 1 view .LVU469
 1578              		.loc 1 389 10 is_stmt 0 view .LVU470
 1579 00ce 0028     		cmp	r0, #0
 1580 00d0 F7D0     		beq	.L64
 1581              	.LVL65:
 1582              	.L48:
 1583              		.loc 1 390 9 is_stmt 1 view .LVU471
 1584              	.LBB452:
 1585              	.LBI452:
 1586              		.loc 2 502 20 view .LVU472
 1587              	.LBE452:
 1588              	.LBE497:
 1589              	.LBE510:
 1590              		.loc 2 504 3 view .LVU473
 1591              	.LBB511:
 1592              	.LBB498:
 1593              	.LBB461:
 1594              	.LBB453:
 1595              	.LBI453:
 1596              		.loc 5 386 20 view .LVU474
ARM GAS  /tmp/ccTxpxgR.s 			page 29


 1597              	.LBB454:
 1598              		.loc 5 388 22 view .LVU475
 1599              		.loc 5 389 33 view .LVU476
 1600              		.loc 5 395 3 view .LVU477
 1601              		.loc 5 395 3 view .LVU478
 1602              		.loc 5 399 3 view .LVU479
 1603              	.LBB455:
 1604              	.LBI455:
 1605              		.loc 6 380 20 view .LVU480
 1606              	.LBE455:
 1607              	.LBE454:
 1608              	.LBE453:
 1609              	.LBE461:
 1610              	.LBE498:
 1611              	.LBE511:
 1612              		.loc 6 382 3 view .LVU481
 1613              	.LBB512:
 1614              	.LBB499:
 1615              	.LBB462:
 1616              	.LBB460:
 1617              	.LBB459:
 1618              	.LBB458:
 1619              	.LBB456:
 1620              	.LBI456:
 1621              		.loc 7 331 57 view .LVU482
 1622              	.LBB457:
 1623              		.loc 7 333 3 view .LVU483
 1624              		.syntax divided
 1625              	@ 333 "ChibiOS/os/common/ext/CMSIS/include/core_cmFunc.h" 1
 1626 00d2 62B6     		cpsie i
 1627              	@ 0 "" 2
 1628              		.thumb
 1629              		.syntax unified
 1630              	.LBE457:
 1631              	.LBE456:
 1632              	.LBE458:
 1633              	.LBE459:
 1634              	.LBE460:
 1635              	.LBE462:
 1636              		.loc 1 391 9 view .LVU484
 1637              	.L42:
 1638              		.loc 1 391 9 is_stmt 0 view .LVU485
 1639              	.LBE499:
 1640              	.LBE512:
 1641              		.loc 1 429 1 view .LVU486
 1642 00d4 3000     		movs	r0, r6
 1643 00d6 03B0     		add	sp, sp, #12
 1644              		@ sp needed
 1645              	.LVL66:
 1646              	.LVL67:
 1647              	.LVL68:
 1648              	.LVL69:
 1649              	.LVL70:
 1650              		.loc 1 429 1 view .LVU487
 1651 00d8 3CBC     		pop	{r2, r3, r4, r5}
 1652 00da 9046     		mov	r8, r2
 1653 00dc 9946     		mov	r9, r3
ARM GAS  /tmp/ccTxpxgR.s 			page 30


 1654 00de A246     		mov	r10, r4
 1655 00e0 AB46     		mov	fp, r5
 1656 00e2 F0BD     		pop	{r4, r5, r6, r7, pc}
 1657              		.cfi_endproc
 1658              	.LFE160:
 1659              		.size	ibqReadTimeout, .-ibqReadTimeout
 1660              		.section	.text.obqObjectInit,"ax",%progbits
 1661              		.align	1
 1662              		.p2align 4,,15
 1663              		.global	obqObjectInit
 1664              		.syntax unified
 1665              		.code	16
 1666              		.thumb_func
 1667              		.fpu softvfp
 1668              		.type	obqObjectInit, %function
 1669              	obqObjectInit:
 1670              	.LVL71:
 1671              	.LFB161:
 1672              		.loc 1 445 49 is_stmt 1 view -0
 1673              		.cfi_startproc
 1674              		@ args = 8, pretend = 0, frame = 0
 1675              		@ frame_needed = 0, uses_anonymous_args = 0
 1676              		.loc 1 447 3 view .LVU489
 1677              		.loc 1 447 3 view .LVU490
 1678              		.loc 1 449 3 view .LVU491
 1679              	.LBB513:
 1680              	.LBI513:
 1681              		.loc 2 753 20 view .LVU492
 1682              	.LBE513:
 1683              		.loc 2 755 3 view .LVU493
 1684              	.LBB521:
 1685              	.LBB514:
 1686              	.LBI514:
 1687              		.loc 3 395 20 view .LVU494
 1688              	.LBE514:
 1689              	.LBE521:
 1690              		.loc 3 397 3 view .LVU495
 1691              	.LBB522:
 1692              	.LBB519:
 1693              	.LBB515:
 1694              	.LBI515:
 1695              		.loc 4 548 20 view .LVU496
 1696              	.LBB516:
 1697              		.loc 4 550 3 view .LVU497
 1698              	.LBE516:
 1699              	.LBE515:
 1700              	.LBE519:
 1701              	.LBE522:
 1702              		.loc 1 445 49 is_stmt 0 view .LVU498
 1703 0000 10B5     		push	{r4, lr}
 1704              		.cfi_def_cfa_offset 8
 1705              		.cfi_offset 4, -8
 1706              		.cfi_offset 14, -4
 1707              		.loc 1 453 51 view .LVU499
 1708 0002 1C00     		movs	r4, r3
 1709              		.loc 1 450 18 view .LVU500
 1710 0004 8360     		str	r3, [r0, #8]
ARM GAS  /tmp/ccTxpxgR.s 			page 31


 1711              		.loc 1 455 18 view .LVU501
 1712 0006 C361     		str	r3, [r0, #28]
 1713              		.loc 1 457 18 view .LVU502
 1714 0008 0023     		movs	r3, #0
 1715              	.LVL72:
 1716              		.loc 1 453 32 view .LVU503
 1717 000a 0432     		adds	r2, r2, #4
 1718              	.LVL73:
 1719              		.loc 1 453 51 view .LVU504
 1720 000c 5443     		muls	r4, r2
 1721              	.LVL74:
 1722              		.loc 1 457 18 view .LVU505
 1723 000e 4362     		str	r3, [r0, #36]
 1724              		.loc 1 458 18 view .LVU506
 1725 0010 8362     		str	r3, [r0, #40]
 1726              		.loc 1 459 18 view .LVU507
 1727 0012 029B     		ldr	r3, [sp, #8]
 1728              		.loc 1 453 23 view .LVU508
 1729 0014 0C19     		adds	r4, r1, r4
 1730              		.loc 1 459 18 view .LVU509
 1731 0016 C362     		str	r3, [r0, #44]
 1732              		.loc 1 460 18 view .LVU510
 1733 0018 039B     		ldr	r3, [sp, #12]
 1734              	.LBB523:
 1735              	.LBB520:
 1736              	.LBB518:
 1737              	.LBB517:
 1738              		.loc 4 550 13 view .LVU511
 1739 001a 0060     		str	r0, [r0]
 1740              		.loc 4 551 3 is_stmt 1 view .LVU512
 1741              		.loc 4 551 13 is_stmt 0 view .LVU513
 1742 001c 4060     		str	r0, [r0, #4]
 1743              	.LVL75:
 1744              		.loc 4 551 13 view .LVU514
 1745              	.LBE517:
 1746              	.LBE518:
 1747              	.LBE520:
 1748              	.LBE523:
 1749              		.loc 1 450 3 is_stmt 1 view .LVU515
 1750              		.loc 1 451 3 view .LVU516
 1751              		.loc 1 451 18 is_stmt 0 view .LVU517
 1752 001e 0161     		str	r1, [r0, #16]
 1753              		.loc 1 452 3 is_stmt 1 view .LVU518
 1754              		.loc 1 452 18 is_stmt 0 view .LVU519
 1755 0020 C160     		str	r1, [r0, #12]
 1756              		.loc 1 453 3 is_stmt 1 view .LVU520
 1757              		.loc 1 453 18 is_stmt 0 view .LVU521
 1758 0022 4461     		str	r4, [r0, #20]
 1759              		.loc 1 454 3 is_stmt 1 view .LVU522
 1760              		.loc 1 454 18 is_stmt 0 view .LVU523
 1761 0024 8261     		str	r2, [r0, #24]
 1762              		.loc 1 455 3 is_stmt 1 view .LVU524
 1763              		.loc 1 456 3 view .LVU525
 1764              		.loc 1 456 18 is_stmt 0 view .LVU526
 1765 0026 0162     		str	r1, [r0, #32]
 1766              		.loc 1 457 3 is_stmt 1 view .LVU527
 1767              		.loc 1 458 3 view .LVU528
ARM GAS  /tmp/ccTxpxgR.s 			page 32


 1768              		.loc 1 459 3 view .LVU529
 1769              		.loc 1 460 3 view .LVU530
 1770              		.loc 1 460 18 is_stmt 0 view .LVU531
 1771 0028 0363     		str	r3, [r0, #48]
 1772              		.loc 1 461 1 view .LVU532
 1773              		@ sp needed
 1774 002a 10BD     		pop	{r4, pc}
 1775              		.cfi_endproc
 1776              	.LFE161:
 1777              		.size	obqObjectInit, .-obqObjectInit
 1778              		.section	.text.obqResetI,"ax",%progbits
 1779              		.align	1
 1780              		.p2align 4,,15
 1781              		.global	obqResetI
 1782              		.syntax unified
 1783              		.code	16
 1784              		.thumb_func
 1785              		.fpu softvfp
 1786              		.type	obqResetI, %function
 1787              	obqResetI:
 1788              	.LVL76:
 1789              	.LFB162:
 1790              		.loc 1 474 46 is_stmt 1 view -0
 1791              		.cfi_startproc
 1792              		@ args = 0, pretend = 0, frame = 0
 1793              		@ frame_needed = 0, uses_anonymous_args = 0
 1794              		.loc 1 476 23 view .LVU534
 1795              		.loc 1 478 3 view .LVU535
 1796              		.loc 1 478 18 is_stmt 0 view .LVU536
 1797 0000 C369     		ldr	r3, [r0, #28]
 1798              	.LBB524:
 1799              	.LBB525:
 1800              		.loc 2 810 3 view .LVU537
 1801 0002 0221     		movs	r1, #2
 1802              	.LBE525:
 1803              	.LBE524:
 1804              		.loc 1 478 18 view .LVU538
 1805 0004 8360     		str	r3, [r0, #8]
 1806              		.loc 1 479 3 is_stmt 1 view .LVU539
 1807              		.loc 1 479 24 is_stmt 0 view .LVU540
 1808 0006 036A     		ldr	r3, [r0, #32]
 1809              		.loc 1 474 46 view .LVU541
 1810 0008 10B5     		push	{r4, lr}
 1811              		.cfi_def_cfa_offset 8
 1812              		.cfi_offset 4, -8
 1813              		.cfi_offset 14, -4
 1814              		.loc 1 479 18 view .LVU542
 1815 000a 0361     		str	r3, [r0, #16]
 1816              		.loc 1 480 3 is_stmt 1 view .LVU543
 1817              		.loc 1 480 18 is_stmt 0 view .LVU544
 1818 000c C360     		str	r3, [r0, #12]
 1819              		.loc 1 481 3 is_stmt 1 view .LVU545
 1820              		.loc 1 481 18 is_stmt 0 view .LVU546
 1821 000e 0023     		movs	r3, #0
 1822              	.LBB528:
 1823              	.LBB526:
 1824              		.loc 2 810 3 view .LVU547
ARM GAS  /tmp/ccTxpxgR.s 			page 33


 1825 0010 4942     		rsbs	r1, r1, #0
 1826              	.LBE526:
 1827              	.LBE528:
 1828              		.loc 1 481 18 view .LVU548
 1829 0012 4362     		str	r3, [r0, #36]
 1830              		.loc 1 482 3 is_stmt 1 view .LVU549
 1831              		.loc 1 482 18 is_stmt 0 view .LVU550
 1832 0014 8362     		str	r3, [r0, #40]
 1833              		.loc 1 483 3 is_stmt 1 view .LVU551
 1834              	.LVL77:
 1835              	.LBB529:
 1836              	.LBI524:
 1837              		.loc 2 808 20 view .LVU552
 1838              	.LBB527:
 1839              		.loc 2 810 3 view .LVU553
 1840 0016 FFF7FEFF 		bl	chThdDequeueAllI
 1841              	.LVL78:
 1842              		.loc 2 810 3 is_stmt 0 view .LVU554
 1843              	.LBE527:
 1844              	.LBE529:
 1845              		.loc 1 484 1 view .LVU555
 1846              		@ sp needed
 1847 001a 10BD     		pop	{r4, pc}
 1848              		.cfi_endproc
 1849              	.LFE162:
 1850              		.size	obqResetI, .-obqResetI
 1851              		.section	.text.obqGetFullBufferI,"ax",%progbits
 1852              		.align	1
 1853              		.p2align 4,,15
 1854              		.global	obqGetFullBufferI
 1855              		.syntax unified
 1856              		.code	16
 1857              		.thumb_func
 1858              		.fpu softvfp
 1859              		.type	obqGetFullBufferI, %function
 1860              	obqGetFullBufferI:
 1861              	.LVL79:
 1862              	.LFB163:
 1863              		.loc 1 498 43 is_stmt 1 view -0
 1864              		.cfi_startproc
 1865              		@ args = 0, pretend = 0, frame = 0
 1866              		@ frame_needed = 0, uses_anonymous_args = 0
 1867              		@ link register save eliminated.
 1868              		.loc 1 500 23 view .LVU557
 1869              		.loc 1 502 3 view .LVU558
 1870              		.loc 1 502 7 is_stmt 0 view .LVU559
 1871 0000 0369     		ldr	r3, [r0, #16]
 1872 0002 C268     		ldr	r2, [r0, #12]
 1873 0004 9A42     		cmp	r2, r3
 1874 0006 03D0     		beq	.L73
 1875              	.LVL80:
 1876              	.L68:
 1877              		.loc 1 507 3 is_stmt 1 view .LVU560
 1878              		.loc 1 507 12 is_stmt 0 view .LVU561
 1879 0008 1800     		movs	r0, r3
 1880 000a 08C8     		ldmia	r0!, {r3}
 1881              		.loc 1 507 10 view .LVU562
ARM GAS  /tmp/ccTxpxgR.s 			page 34


 1882 000c 0B60     		str	r3, [r1]
 1883              		.loc 1 509 3 is_stmt 1 view .LVU563
 1884              	.L67:
 1885              		.loc 1 510 1 is_stmt 0 view .LVU564
 1886              		@ sp needed
 1887 000e 7047     		bx	lr
 1888              	.LVL81:
 1889              	.L73:
 1890              		.loc 1 502 7 discriminator 1 view .LVU565
 1891 0010 8268     		ldr	r2, [r0, #8]
 1892              		.loc 1 503 12 discriminator 1 view .LVU566
 1893 0012 0020     		movs	r0, #0
 1894              	.LVL82:
 1895              		.loc 1 502 7 discriminator 1 view .LVU567
 1896 0014 002A     		cmp	r2, #0
 1897 0016 FAD1     		bne	.L67
 1898 0018 F6E7     		b	.L68
 1899              		.cfi_endproc
 1900              	.LFE163:
 1901              		.size	obqGetFullBufferI, .-obqGetFullBufferI
 1902 001a C046     		.section	.text.obqReleaseEmptyBufferI,"ax",%progbits
 1903              		.align	1
 1904              		.p2align 4,,15
 1905              		.global	obqReleaseEmptyBufferI
 1906              		.syntax unified
 1907              		.code	16
 1908              		.thumb_func
 1909              		.fpu softvfp
 1910              		.type	obqReleaseEmptyBufferI, %function
 1911              	obqReleaseEmptyBufferI:
 1912              	.LVL83:
 1913              	.LFB164:
 1914              		.loc 1 519 59 is_stmt 1 view -0
 1915              		.cfi_startproc
 1916              		@ args = 0, pretend = 0, frame = 0
 1917              		@ frame_needed = 0, uses_anonymous_args = 0
 1918              		.loc 1 521 23 view .LVU569
 1919              		.loc 1 522 3 view .LVU570
 1920              		.loc 1 522 3 view .LVU571
 1921              		.loc 1 525 3 view .LVU572
 1922              		.loc 1 526 16 is_stmt 0 view .LVU573
 1923 0000 8269     		ldr	r2, [r0, #24]
 1924              		.loc 1 525 7 view .LVU574
 1925 0002 8368     		ldr	r3, [r0, #8]
 1926              		.loc 1 526 16 view .LVU575
 1927 0004 9446     		mov	ip, r2
 1928              		.loc 1 525 17 view .LVU576
 1929 0006 0133     		adds	r3, r3, #1
 1930 0008 8360     		str	r3, [r0, #8]
 1931              		.loc 1 526 3 is_stmt 1 view .LVU577
 1932              		.loc 1 526 16 is_stmt 0 view .LVU578
 1933 000a 0369     		ldr	r3, [r0, #16]
 1934              		.loc 1 527 6 view .LVU579
 1935 000c 4269     		ldr	r2, [r0, #20]
 1936              		.loc 1 526 16 view .LVU580
 1937 000e 6344     		add	r3, r3, ip
 1938              		.loc 1 519 59 view .LVU581
ARM GAS  /tmp/ccTxpxgR.s 			page 35


 1939 0010 10B5     		push	{r4, lr}
 1940              		.cfi_def_cfa_offset 8
 1941              		.cfi_offset 4, -8
 1942              		.cfi_offset 14, -4
 1943              		.loc 1 526 16 view .LVU582
 1944 0012 0361     		str	r3, [r0, #16]
 1945              		.loc 1 527 3 is_stmt 1 view .LVU583
 1946              		.loc 1 527 6 is_stmt 0 view .LVU584
 1947 0014 9342     		cmp	r3, r2
 1948 0016 01D3     		bcc	.L75
 1949              		.loc 1 528 5 is_stmt 1 view .LVU585
 1950              		.loc 1 528 18 is_stmt 0 view .LVU586
 1951 0018 036A     		ldr	r3, [r0, #32]
 1952 001a 0361     		str	r3, [r0, #16]
 1953              	.L75:
 1954              		.loc 1 532 3 is_stmt 1 view .LVU587
 1955              	.LVL84:
 1956              	.LBB530:
 1957              	.LBI530:
 1958              		.loc 2 795 20 view .LVU588
 1959              	.LBB531:
 1960              		.loc 2 797 3 view .LVU589
 1961 001c 0021     		movs	r1, #0
 1962 001e FFF7FEFF 		bl	chThdDequeueNextI
 1963              	.LVL85:
 1964              		.loc 2 797 3 is_stmt 0 view .LVU590
 1965              	.LBE531:
 1966              	.LBE530:
 1967              		.loc 1 533 1 view .LVU591
 1968              		@ sp needed
 1969 0022 10BD     		pop	{r4, pc}
 1970              		.cfi_endproc
 1971              	.LFE164:
 1972              		.size	obqReleaseEmptyBufferI, .-obqReleaseEmptyBufferI
 1973              		.section	.text.obqGetEmptyBufferTimeoutS,"ax",%progbits
 1974              		.align	1
 1975              		.p2align 4,,15
 1976              		.global	obqGetEmptyBufferTimeoutS
 1977              		.syntax unified
 1978              		.code	16
 1979              		.thumb_func
 1980              		.fpu softvfp
 1981              		.type	obqGetEmptyBufferTimeoutS, %function
 1982              	obqGetEmptyBufferTimeoutS:
 1983              	.LVL86:
 1984              	.LFB166:
 1985              		.loc 1 587 54 is_stmt 1 view -0
 1986              		.cfi_startproc
 1987              		@ args = 0, pretend = 0, frame = 0
 1988              		@ frame_needed = 0, uses_anonymous_args = 0
 1989              		.loc 1 587 54 is_stmt 0 view .LVU593
 1990 0000 70B5     		push	{r4, r5, r6, lr}
 1991              		.cfi_def_cfa_offset 16
 1992              		.cfi_offset 4, -16
 1993              		.cfi_offset 5, -12
 1994              		.cfi_offset 6, -8
 1995              		.cfi_offset 14, -4
ARM GAS  /tmp/ccTxpxgR.s 			page 36


 1996              		.loc 1 587 54 view .LVU594
 1997 0002 0400     		movs	r4, r0
 1998              		.loc 1 589 23 is_stmt 1 view .LVU595
 1999              		.loc 1 591 3 view .LVU596
 2000              		.loc 1 587 54 is_stmt 0 view .LVU597
 2001 0004 0D00     		movs	r5, r1
 2002              		.loc 1 591 9 view .LVU598
 2003 0006 05E0     		b	.L77
 2004              	.LVL87:
 2005              	.L79:
 2006              	.LBB540:
 2007              		.loc 1 592 5 is_stmt 1 view .LVU599
 2008              	.LBB541:
 2009              	.LBI541:
 2010              		.loc 2 781 21 view .LVU600
 2011              	.LBB542:
 2012              		.loc 2 784 3 view .LVU601
 2013              		.loc 2 784 10 is_stmt 0 view .LVU602
 2014 0008 2900     		movs	r1, r5
 2015 000a 2000     		movs	r0, r4
 2016 000c FFF7FEFF 		bl	chThdEnqueueTimeoutS
 2017              	.LVL88:
 2018              		.loc 2 784 10 view .LVU603
 2019              	.LBE542:
 2020              	.LBE541:
 2021              		.loc 1 593 5 is_stmt 1 view .LVU604
 2022              		.loc 1 593 8 is_stmt 0 view .LVU605
 2023 0010 0028     		cmp	r0, #0
 2024 0012 0ADB     		blt	.L76
 2025              	.LVL89:
 2026              	.L77:
 2027              		.loc 1 593 8 view .LVU606
 2028              	.LBE540:
 2029              		.loc 1 591 10 view .LVU607
 2030 0014 A368     		ldr	r3, [r4, #8]
 2031              		.loc 1 591 9 view .LVU608
 2032 0016 002B     		cmp	r3, #0
 2033 0018 F6D0     		beq	.L79
 2034              	.LVL90:
 2035              	.LBB543:
 2036              	.LBI543:
 2037              		.loc 1 586 9 is_stmt 1 view .LVU609
 2038              	.LBB544:
 2039              		.loc 1 598 3 view .LVU610
 2040              		.loc 1 598 3 view .LVU611
 2041              		.loc 1 601 3 view .LVU612
 2042              		.loc 1 601 19 is_stmt 0 view .LVU613
 2043 001a E368     		ldr	r3, [r4, #12]
 2044              		.loc 1 602 13 view .LVU614
 2045 001c 0020     		movs	r0, #0
 2046              		.loc 1 601 28 view .LVU615
 2047 001e 1A1D     		adds	r2, r3, #4
 2048              		.loc 1 601 13 view .LVU616
 2049 0020 6262     		str	r2, [r4, #36]
 2050              		.loc 1 602 3 is_stmt 1 view .LVU617
 2051              		.loc 1 602 28 is_stmt 0 view .LVU618
 2052 0022 A269     		ldr	r2, [r4, #24]
ARM GAS  /tmp/ccTxpxgR.s 			page 37


 2053 0024 9446     		mov	ip, r2
 2054 0026 6344     		add	r3, r3, ip
 2055              		.loc 1 602 13 view .LVU619
 2056 0028 A362     		str	r3, [r4, #40]
 2057              		.loc 1 604 3 is_stmt 1 view .LVU620
 2058              	.LVL91:
 2059              	.L76:
 2060              		.loc 1 604 3 is_stmt 0 view .LVU621
 2061              	.LBE544:
 2062              	.LBE543:
 2063              		.loc 1 605 1 view .LVU622
 2064              		@ sp needed
 2065              	.LVL92:
 2066              	.LVL93:
 2067              		.loc 1 605 1 view .LVU623
 2068 002a 70BD     		pop	{r4, r5, r6, pc}
 2069              		.cfi_endproc
 2070              	.LFE166:
 2071              		.size	obqGetEmptyBufferTimeoutS, .-obqGetEmptyBufferTimeoutS
 2072              		.section	.text.obqGetEmptyBufferTimeout,"ax",%progbits
 2073              		.align	1
 2074              		.p2align 4,,15
 2075              		.global	obqGetEmptyBufferTimeout
 2076              		.syntax unified
 2077              		.code	16
 2078              		.thumb_func
 2079              		.fpu softvfp
 2080              		.type	obqGetEmptyBufferTimeout, %function
 2081              	obqGetEmptyBufferTimeout:
 2082              	.LVL94:
 2083              	.LFB165:
 2084              		.loc 1 556 52 is_stmt 1 view -0
 2085              		.cfi_startproc
 2086              		@ args = 0, pretend = 0, frame = 0
 2087              		@ frame_needed = 0, uses_anonymous_args = 0
 2088              		.loc 1 557 3 view .LVU625
 2089              		.loc 1 559 3 view .LVU626
 2090              	.LBB545:
 2091              	.LBI545:
 2092              		.loc 2 491 20 view .LVU627
 2093              	.LBE545:
 2094              		.loc 2 493 3 view .LVU628
 2095              	.LBB557:
 2096              	.LBB546:
 2097              	.LBI546:
 2098              		.loc 5 374 20 view .LVU629
 2099              	.LBE546:
 2100              	.LBE557:
 2101              		.loc 5 376 3 view .LVU630
 2102              	.LBB558:
 2103              	.LBB554:
 2104              	.LBB547:
 2105              	.LBI547:
 2106              		.loc 6 371 20 view .LVU631
 2107              	.LBE547:
 2108              	.LBE554:
 2109              	.LBE558:
ARM GAS  /tmp/ccTxpxgR.s 			page 38


 2110              		.loc 6 373 3 view .LVU632
 2111              	.LBB559:
 2112              	.LBB555:
 2113              	.LBB552:
 2114              	.LBB548:
 2115              	.LBI548:
 2116              		.loc 7 342 57 view .LVU633
 2117              	.LBB549:
 2118              		.loc 7 344 3 view .LVU634
 2119              	.LBE549:
 2120              	.LBE548:
 2121              	.LBE552:
 2122              	.LBE555:
 2123              	.LBE559:
 2124              		.loc 1 556 52 is_stmt 0 view .LVU635
 2125 0000 10B5     		push	{r4, lr}
 2126              		.cfi_def_cfa_offset 8
 2127              		.cfi_offset 4, -8
 2128              		.cfi_offset 14, -4
 2129              	.LBB560:
 2130              	.LBB556:
 2131              	.LBB553:
 2132              	.LBB551:
 2133              	.LBB550:
 2134              		.loc 7 344 3 view .LVU636
 2135              		.syntax divided
 2136              	@ 344 "ChibiOS/os/common/ext/CMSIS/include/core_cmFunc.h" 1
 2137 0002 72B6     		cpsid i
 2138              	@ 0 "" 2
 2139              		.thumb
 2140              		.syntax unified
 2141              	.LBE550:
 2142              	.LBE551:
 2143              	.LBE553:
 2144              	.LBE556:
 2145              	.LBE560:
 2146              		.loc 5 377 34 is_stmt 1 view .LVU637
 2147              		.loc 5 378 20 view .LVU638
 2148              		.loc 1 560 3 view .LVU639
 2149              		.loc 1 560 9 is_stmt 0 view .LVU640
 2150 0004 FFF7FEFF 		bl	obqGetEmptyBufferTimeoutS
 2151              	.LVL95:
 2152              		.loc 1 561 3 is_stmt 1 view .LVU641
 2153              	.LBB561:
 2154              	.LBI561:
 2155              		.loc 2 502 20 view .LVU642
 2156              	.LBE561:
 2157              		.loc 2 504 3 view .LVU643
 2158              	.LBB570:
 2159              	.LBB562:
 2160              	.LBI562:
 2161              		.loc 5 386 20 view .LVU644
 2162              	.LBB563:
 2163              		.loc 5 388 22 view .LVU645
 2164              		.loc 5 389 33 view .LVU646
 2165              		.loc 5 395 3 view .LVU647
 2166              		.loc 5 395 3 view .LVU648
ARM GAS  /tmp/ccTxpxgR.s 			page 39


 2167              		.loc 5 399 3 view .LVU649
 2168              	.LBB564:
 2169              	.LBI564:
 2170              		.loc 6 380 20 view .LVU650
 2171              	.LBE564:
 2172              	.LBE563:
 2173              	.LBE562:
 2174              	.LBE570:
 2175              		.loc 6 382 3 view .LVU651
 2176              	.LBB571:
 2177              	.LBB569:
 2178              	.LBB568:
 2179              	.LBB567:
 2180              	.LBB565:
 2181              	.LBI565:
 2182              		.loc 7 331 57 view .LVU652
 2183              	.LBB566:
 2184              		.loc 7 333 3 view .LVU653
 2185              		.syntax divided
 2186              	@ 333 "ChibiOS/os/common/ext/CMSIS/include/core_cmFunc.h" 1
 2187 0008 62B6     		cpsie i
 2188              	@ 0 "" 2
 2189              		.thumb
 2190              		.syntax unified
 2191              	.LBE566:
 2192              	.LBE565:
 2193              	.LBE567:
 2194              	.LBE568:
 2195              	.LBE569:
 2196              	.LBE571:
 2197              		.loc 1 563 3 view .LVU654
 2198              		.loc 1 564 1 is_stmt 0 view .LVU655
 2199              		@ sp needed
 2200 000a 10BD     		pop	{r4, pc}
 2201              		.cfi_endproc
 2202              	.LFE165:
 2203              		.size	obqGetEmptyBufferTimeout, .-obqGetEmptyBufferTimeout
 2204              		.section	.text.obqPostFullBuffer,"ax",%progbits
 2205              		.align	1
 2206              		.p2align 4,,15
 2207              		.global	obqPostFullBuffer
 2208              		.syntax unified
 2209              		.code	16
 2210              		.thumb_func
 2211              		.fpu softvfp
 2212              		.type	obqPostFullBuffer, %function
 2213              	obqPostFullBuffer:
 2214              	.LVL96:
 2215              	.LFB167:
 2216              		.loc 1 616 67 is_stmt 1 view -0
 2217              		.cfi_startproc
 2218              		@ args = 0, pretend = 0, frame = 0
 2219              		@ frame_needed = 0, uses_anonymous_args = 0
 2220              		.loc 1 618 3 view .LVU657
 2221              	.LBB572:
 2222              	.LBI572:
 2223              		.loc 2 491 20 view .LVU658
ARM GAS  /tmp/ccTxpxgR.s 			page 40


 2224              	.LBE572:
 2225              		.loc 2 493 3 view .LVU659
 2226              	.LBB584:
 2227              	.LBB573:
 2228              	.LBI573:
 2229              		.loc 5 374 20 view .LVU660
 2230              	.LBE573:
 2231              	.LBE584:
 2232              		.loc 5 376 3 view .LVU661
 2233              	.LBB585:
 2234              	.LBB581:
 2235              	.LBB574:
 2236              	.LBI574:
 2237              		.loc 6 371 20 view .LVU662
 2238              	.LBE574:
 2239              	.LBE581:
 2240              	.LBE585:
 2241              		.loc 6 373 3 view .LVU663
 2242              	.LBB586:
 2243              	.LBB582:
 2244              	.LBB579:
 2245              	.LBB575:
 2246              	.LBI575:
 2247              		.loc 7 342 57 view .LVU664
 2248              	.LBB576:
 2249              		.loc 7 344 3 view .LVU665
 2250              	.LBE576:
 2251              	.LBE575:
 2252              	.LBE579:
 2253              	.LBE582:
 2254              	.LBE586:
 2255              		.loc 1 616 67 is_stmt 0 view .LVU666
 2256 0000 10B5     		push	{r4, lr}
 2257              		.cfi_def_cfa_offset 8
 2258              		.cfi_offset 4, -8
 2259              		.cfi_offset 14, -4
 2260              	.LBB587:
 2261              	.LBB583:
 2262              	.LBB580:
 2263              	.LBB578:
 2264              	.LBB577:
 2265              		.loc 7 344 3 view .LVU667
 2266              		.syntax divided
 2267              	@ 344 "ChibiOS/os/common/ext/CMSIS/include/core_cmFunc.h" 1
 2268 0002 72B6     		cpsid i
 2269              	@ 0 "" 2
 2270              		.thumb
 2271              		.syntax unified
 2272              	.LBE577:
 2273              	.LBE578:
 2274              	.LBE580:
 2275              	.LBE583:
 2276              	.LBE587:
 2277              		.loc 5 377 34 is_stmt 1 view .LVU668
 2278              		.loc 5 378 20 view .LVU669
 2279              		.loc 1 619 3 view .LVU670
 2280              	.LVL97:
ARM GAS  /tmp/ccTxpxgR.s 			page 41


 2281              	.LBB588:
 2282              	.LBI588:
 2283              		.loc 1 632 6 view .LVU671
 2284              	.LBB589:
 2285              		.loc 1 634 23 view .LVU672
 2286              		.loc 1 635 3 view .LVU673
 2287              		.loc 1 635 3 view .LVU674
 2288              		.loc 1 636 3 view .LVU675
 2289              		.loc 1 636 3 view .LVU676
 2290              		.loc 1 639 3 view .LVU677
 2291              		.loc 1 639 19 is_stmt 0 view .LVU678
 2292 0004 C368     		ldr	r3, [r0, #12]
 2293              		.loc 1 639 29 view .LVU679
 2294 0006 1960     		str	r1, [r3]
 2295              		.loc 1 642 3 is_stmt 1 view .LVU680
 2296              		.loc 1 642 7 is_stmt 0 view .LVU681
 2297 0008 8268     		ldr	r2, [r0, #8]
 2298              		.loc 1 642 17 view .LVU682
 2299 000a 013A     		subs	r2, r2, #1
 2300 000c 8260     		str	r2, [r0, #8]
 2301              		.loc 1 643 3 is_stmt 1 view .LVU683
 2302              		.loc 1 643 16 is_stmt 0 view .LVU684
 2303 000e 8269     		ldr	r2, [r0, #24]
 2304 0010 9446     		mov	ip, r2
 2305              		.loc 1 644 6 view .LVU685
 2306 0012 4269     		ldr	r2, [r0, #20]
 2307              		.loc 1 643 16 view .LVU686
 2308 0014 6344     		add	r3, r3, ip
 2309 0016 C360     		str	r3, [r0, #12]
 2310              		.loc 1 644 3 is_stmt 1 view .LVU687
 2311              		.loc 1 644 6 is_stmt 0 view .LVU688
 2312 0018 9342     		cmp	r3, r2
 2313 001a 01D3     		bcc	.L82
 2314              		.loc 1 645 5 is_stmt 1 view .LVU689
 2315              		.loc 1 645 18 is_stmt 0 view .LVU690
 2316 001c 036A     		ldr	r3, [r0, #32]
 2317 001e C360     		str	r3, [r0, #12]
 2318              	.L82:
 2319              		.loc 1 649 3 is_stmt 1 view .LVU691
 2320              		.loc 1 649 13 is_stmt 0 view .LVU692
 2321 0020 0023     		movs	r3, #0
 2322 0022 4362     		str	r3, [r0, #36]
 2323              		.loc 1 652 3 is_stmt 1 view .LVU693
 2324              		.loc 1 652 11 is_stmt 0 view .LVU694
 2325 0024 C36A     		ldr	r3, [r0, #44]
 2326              		.loc 1 652 6 view .LVU695
 2327 0026 002B     		cmp	r3, #0
 2328 0028 00D0     		beq	.L83
 2329              		.loc 1 653 5 is_stmt 1 view .LVU696
 2330 002a 9847     		blx	r3
 2331              	.LVL98:
 2332              	.L83:
 2333              		.loc 1 653 5 is_stmt 0 view .LVU697
 2334              	.LBE589:
 2335              	.LBE588:
 2336              		.loc 1 620 3 is_stmt 1 view .LVU698
 2337              	.LBB590:
ARM GAS  /tmp/ccTxpxgR.s 			page 42


 2338              	.LBI590:
 2339              		.loc 2 502 20 view .LVU699
 2340              	.LBE590:
 2341              		.loc 2 504 3 view .LVU700
 2342              	.LBB599:
 2343              	.LBB591:
 2344              	.LBI591:
 2345              		.loc 5 386 20 view .LVU701
 2346              	.LBB592:
 2347              		.loc 5 388 22 view .LVU702
 2348              		.loc 5 389 33 view .LVU703
 2349              		.loc 5 395 3 view .LVU704
 2350              		.loc 5 395 3 view .LVU705
 2351              		.loc 5 399 3 view .LVU706
 2352              	.LBB593:
 2353              	.LBI593:
 2354              		.loc 6 380 20 view .LVU707
 2355              	.LBE593:
 2356              	.LBE592:
 2357              	.LBE591:
 2358              	.LBE599:
 2359              		.loc 6 382 3 view .LVU708
 2360              	.LBB600:
 2361              	.LBB598:
 2362              	.LBB597:
 2363              	.LBB596:
 2364              	.LBB594:
 2365              	.LBI594:
 2366              		.loc 7 331 57 view .LVU709
 2367              	.LBB595:
 2368              		.loc 7 333 3 view .LVU710
 2369              		.syntax divided
 2370              	@ 333 "ChibiOS/os/common/ext/CMSIS/include/core_cmFunc.h" 1
 2371 002c 62B6     		cpsie i
 2372              	@ 0 "" 2
 2373              		.thumb
 2374              		.syntax unified
 2375              	.LBE595:
 2376              	.LBE594:
 2377              	.LBE596:
 2378              	.LBE597:
 2379              	.LBE598:
 2380              	.LBE600:
 2381              		.loc 1 621 1 is_stmt 0 view .LVU711
 2382              		@ sp needed
 2383 002e 10BD     		pop	{r4, pc}
 2384              		.cfi_endproc
 2385              	.LFE167:
 2386              		.size	obqPostFullBuffer, .-obqPostFullBuffer
 2387              		.section	.text.obqPostFullBufferS,"ax",%progbits
 2388              		.align	1
 2389              		.p2align 4,,15
 2390              		.global	obqPostFullBufferS
 2391              		.syntax unified
 2392              		.code	16
 2393              		.thumb_func
 2394              		.fpu softvfp
ARM GAS  /tmp/ccTxpxgR.s 			page 43


 2395              		.type	obqPostFullBufferS, %function
 2396              	obqPostFullBufferS:
 2397              	.LVL99:
 2398              	.LFB168:
 2399              		.loc 1 632 68 is_stmt 1 view -0
 2400              		.cfi_startproc
 2401              		@ args = 0, pretend = 0, frame = 0
 2402              		@ frame_needed = 0, uses_anonymous_args = 0
 2403              		.loc 1 634 23 view .LVU713
 2404              		.loc 1 635 3 view .LVU714
 2405              		.loc 1 635 3 view .LVU715
 2406              		.loc 1 636 3 view .LVU716
 2407              		.loc 1 636 3 view .LVU717
 2408              		.loc 1 639 3 view .LVU718
 2409              		.loc 1 639 19 is_stmt 0 view .LVU719
 2410 0000 C368     		ldr	r3, [r0, #12]
 2411              		.loc 1 632 68 view .LVU720
 2412 0002 10B5     		push	{r4, lr}
 2413              		.cfi_def_cfa_offset 8
 2414              		.cfi_offset 4, -8
 2415              		.cfi_offset 14, -4
 2416              		.loc 1 639 29 view .LVU721
 2417 0004 1960     		str	r1, [r3]
 2418              		.loc 1 642 3 is_stmt 1 view .LVU722
 2419              		.loc 1 642 7 is_stmt 0 view .LVU723
 2420 0006 8268     		ldr	r2, [r0, #8]
 2421              		.loc 1 642 17 view .LVU724
 2422 0008 013A     		subs	r2, r2, #1
 2423 000a 8260     		str	r2, [r0, #8]
 2424              		.loc 1 643 3 is_stmt 1 view .LVU725
 2425              		.loc 1 643 16 is_stmt 0 view .LVU726
 2426 000c 8269     		ldr	r2, [r0, #24]
 2427 000e 9446     		mov	ip, r2
 2428              		.loc 1 644 6 view .LVU727
 2429 0010 4269     		ldr	r2, [r0, #20]
 2430              		.loc 1 643 16 view .LVU728
 2431 0012 6344     		add	r3, r3, ip
 2432 0014 C360     		str	r3, [r0, #12]
 2433              		.loc 1 644 3 is_stmt 1 view .LVU729
 2434              		.loc 1 644 6 is_stmt 0 view .LVU730
 2435 0016 9342     		cmp	r3, r2
 2436 0018 01D3     		bcc	.L88
 2437              		.loc 1 645 5 is_stmt 1 view .LVU731
 2438              		.loc 1 645 18 is_stmt 0 view .LVU732
 2439 001a 036A     		ldr	r3, [r0, #32]
 2440 001c C360     		str	r3, [r0, #12]
 2441              	.L88:
 2442              		.loc 1 649 3 is_stmt 1 view .LVU733
 2443              		.loc 1 649 13 is_stmt 0 view .LVU734
 2444 001e 0023     		movs	r3, #0
 2445 0020 4362     		str	r3, [r0, #36]
 2446              		.loc 1 652 3 is_stmt 1 view .LVU735
 2447              		.loc 1 652 11 is_stmt 0 view .LVU736
 2448 0022 C36A     		ldr	r3, [r0, #44]
 2449              		.loc 1 652 6 view .LVU737
 2450 0024 002B     		cmp	r3, #0
 2451 0026 00D0     		beq	.L87
ARM GAS  /tmp/ccTxpxgR.s 			page 44


 2452              		.loc 1 653 5 is_stmt 1 view .LVU738
 2453 0028 9847     		blx	r3
 2454              	.LVL100:
 2455              	.L87:
 2456              		.loc 1 655 1 is_stmt 0 view .LVU739
 2457              		@ sp needed
 2458 002a 10BD     		pop	{r4, pc}
 2459              		.cfi_endproc
 2460              	.LFE168:
 2461              		.size	obqPostFullBufferS, .-obqPostFullBufferS
 2462              		.section	.text.obqPutTimeout,"ax",%progbits
 2463              		.align	1
 2464              		.p2align 4,,15
 2465              		.global	obqPutTimeout
 2466              		.syntax unified
 2467              		.code	16
 2468              		.thumb_func
 2469              		.fpu softvfp
 2470              		.type	obqPutTimeout, %function
 2471              	obqPutTimeout:
 2472              	.LVL101:
 2473              	.LFB169:
 2474              		.loc 1 677 40 is_stmt 1 view -0
 2475              		.cfi_startproc
 2476              		@ args = 0, pretend = 0, frame = 0
 2477              		@ frame_needed = 0, uses_anonymous_args = 0
 2478              		.loc 1 678 3 view .LVU741
 2479              		.loc 1 680 3 view .LVU742
 2480              	.LBB601:
 2481              	.LBI601:
 2482              		.loc 2 491 20 view .LVU743
 2483              	.LBE601:
 2484              		.loc 2 493 3 view .LVU744
 2485              	.LBB613:
 2486              	.LBB602:
 2487              	.LBI602:
 2488              		.loc 5 374 20 view .LVU745
 2489              	.LBE602:
 2490              	.LBE613:
 2491              		.loc 5 376 3 view .LVU746
 2492              	.LBB614:
 2493              	.LBB610:
 2494              	.LBB603:
 2495              	.LBI603:
 2496              		.loc 6 371 20 view .LVU747
 2497              	.LBE603:
 2498              	.LBE610:
 2499              	.LBE614:
 2500              		.loc 6 373 3 view .LVU748
 2501              	.LBB615:
 2502              	.LBB611:
 2503              	.LBB608:
 2504              	.LBB604:
 2505              	.LBI604:
 2506              		.loc 7 342 57 view .LVU749
 2507              	.LBB605:
 2508              		.loc 7 344 3 view .LVU750
ARM GAS  /tmp/ccTxpxgR.s 			page 45


 2509              	.LBE605:
 2510              	.LBE604:
 2511              	.LBE608:
 2512              	.LBE611:
 2513              	.LBE615:
 2514              		.loc 1 677 40 is_stmt 0 view .LVU751
 2515 0000 70B5     		push	{r4, r5, r6, lr}
 2516              		.cfi_def_cfa_offset 16
 2517              		.cfi_offset 4, -16
 2518              		.cfi_offset 5, -12
 2519              		.cfi_offset 6, -8
 2520              		.cfi_offset 14, -4
 2521              		.loc 1 677 40 view .LVU752
 2522 0002 0400     		movs	r4, r0
 2523 0004 0D00     		movs	r5, r1
 2524              	.LBB616:
 2525              	.LBB612:
 2526              	.LBB609:
 2527              	.LBB607:
 2528              	.LBB606:
 2529              		.loc 7 344 3 view .LVU753
 2530              		.syntax divided
 2531              	@ 344 "ChibiOS/os/common/ext/CMSIS/include/core_cmFunc.h" 1
 2532 0006 72B6     		cpsid i
 2533              	@ 0 "" 2
 2534              		.thumb
 2535              		.syntax unified
 2536              	.LBE606:
 2537              	.LBE607:
 2538              	.LBE609:
 2539              	.LBE612:
 2540              	.LBE616:
 2541              		.loc 5 377 34 is_stmt 1 view .LVU754
 2542              		.loc 5 378 20 view .LVU755
 2543              		.loc 1 683 3 view .LVU756
 2544              		.loc 1 683 11 is_stmt 0 view .LVU757
 2545 0008 436A     		ldr	r3, [r0, #36]
 2546              		.loc 1 683 6 view .LVU758
 2547 000a 002B     		cmp	r3, #0
 2548 000c 20D0     		beq	.L104
 2549              	.LVL102:
 2550              	.L94:
 2551              		.loc 1 692 3 is_stmt 1 view .LVU759
 2552              		.loc 1 692 14 is_stmt 0 view .LVU760
 2553 000e 1D70     		strb	r5, [r3]
 2554              		.loc 1 693 3 is_stmt 1 view .LVU761
 2555              		.loc 1 693 12 is_stmt 0 view .LVU762
 2556 0010 636A     		ldr	r3, [r4, #36]
 2557              		.loc 1 697 6 view .LVU763
 2558 0012 A26A     		ldr	r2, [r4, #40]
 2559              		.loc 1 693 12 view .LVU764
 2560 0014 0133     		adds	r3, r3, #1
 2561 0016 6362     		str	r3, [r4, #36]
 2562              		.loc 1 697 3 is_stmt 1 view .LVU765
 2563              		.loc 1 697 6 is_stmt 0 view .LVU766
 2564 0018 9342     		cmp	r3, r2
 2565 001a 16D3     		bcc	.L98
ARM GAS  /tmp/ccTxpxgR.s 			page 46


 2566              		.loc 1 698 5 is_stmt 1 view .LVU767
 2567              	.LVL103:
 2568              	.LBB617:
 2569              	.LBI617:
 2570              		.loc 1 632 6 view .LVU768
 2571              	.LBB618:
 2572              		.loc 1 634 23 view .LVU769
 2573              		.loc 1 635 3 view .LVU770
 2574              		.loc 1 635 3 view .LVU771
 2575              		.loc 1 636 3 view .LVU772
 2576              		.loc 1 636 3 view .LVU773
 2577              		.loc 1 639 3 view .LVU774
 2578              	.LBE618:
 2579              	.LBE617:
 2580              		.loc 1 698 5 is_stmt 0 view .LVU775
 2581 001c A269     		ldr	r2, [r4, #24]
 2582              	.LBB621:
 2583              	.LBB619:
 2584              		.loc 1 639 19 view .LVU776
 2585 001e E368     		ldr	r3, [r4, #12]
 2586              	.LBE619:
 2587              	.LBE621:
 2588              		.loc 1 698 5 view .LVU777
 2589 0020 043A     		subs	r2, r2, #4
 2590              	.LVL104:
 2591              	.LBB622:
 2592              	.LBB620:
 2593              		.loc 1 639 29 view .LVU778
 2594 0022 1A60     		str	r2, [r3]
 2595              		.loc 1 642 3 is_stmt 1 view .LVU779
 2596              		.loc 1 642 7 is_stmt 0 view .LVU780
 2597 0024 A268     		ldr	r2, [r4, #8]
 2598              	.LVL105:
 2599              		.loc 1 642 17 view .LVU781
 2600 0026 013A     		subs	r2, r2, #1
 2601 0028 A260     		str	r2, [r4, #8]
 2602              	.LVL106:
 2603              		.loc 1 643 3 is_stmt 1 view .LVU782
 2604              		.loc 1 643 16 is_stmt 0 view .LVU783
 2605 002a A269     		ldr	r2, [r4, #24]
 2606 002c 9446     		mov	ip, r2
 2607              		.loc 1 644 6 view .LVU784
 2608 002e 6269     		ldr	r2, [r4, #20]
 2609              		.loc 1 643 16 view .LVU785
 2610 0030 6344     		add	r3, r3, ip
 2611 0032 E360     		str	r3, [r4, #12]
 2612              		.loc 1 644 3 is_stmt 1 view .LVU786
 2613              		.loc 1 644 6 is_stmt 0 view .LVU787
 2614 0034 9342     		cmp	r3, r2
 2615 0036 01D3     		bcc	.L99
 2616              		.loc 1 645 5 is_stmt 1 view .LVU788
 2617              		.loc 1 645 18 is_stmt 0 view .LVU789
 2618 0038 236A     		ldr	r3, [r4, #32]
 2619 003a E360     		str	r3, [r4, #12]
 2620              	.L99:
 2621              		.loc 1 649 3 is_stmt 1 view .LVU790
 2622              		.loc 1 649 13 is_stmt 0 view .LVU791
ARM GAS  /tmp/ccTxpxgR.s 			page 47


 2623 003c 0023     		movs	r3, #0
 2624 003e 6362     		str	r3, [r4, #36]
 2625              		.loc 1 652 3 is_stmt 1 view .LVU792
 2626              		.loc 1 652 11 is_stmt 0 view .LVU793
 2627 0040 E36A     		ldr	r3, [r4, #44]
 2628              		.loc 1 652 6 view .LVU794
 2629 0042 002B     		cmp	r3, #0
 2630 0044 01D0     		beq	.L98
 2631              		.loc 1 653 5 is_stmt 1 view .LVU795
 2632 0046 2000     		movs	r0, r4
 2633 0048 9847     		blx	r3
 2634              	.LVL107:
 2635              	.L98:
 2636              		.loc 1 653 5 is_stmt 0 view .LVU796
 2637              	.LBE620:
 2638              	.LBE622:
 2639              		.loc 1 701 3 is_stmt 1 view .LVU797
 2640              	.LBB623:
 2641              	.LBI623:
 2642              		.loc 2 502 20 view .LVU798
 2643              	.LBE623:
 2644              		.loc 2 504 3 view .LVU799
 2645              	.LBB632:
 2646              	.LBB624:
 2647              	.LBI624:
 2648              		.loc 5 386 20 view .LVU800
 2649              	.LBB625:
 2650              		.loc 5 388 22 view .LVU801
 2651              		.loc 5 389 33 view .LVU802
 2652              		.loc 5 395 3 view .LVU803
 2653              		.loc 5 395 3 view .LVU804
 2654              		.loc 5 399 3 view .LVU805
 2655              	.LBB626:
 2656              	.LBI626:
 2657              		.loc 6 380 20 view .LVU806
 2658              	.LBE626:
 2659              	.LBE625:
 2660              	.LBE624:
 2661              	.LBE632:
 2662              		.loc 6 382 3 view .LVU807
 2663              	.LBB633:
 2664              	.LBB631:
 2665              	.LBB630:
 2666              	.LBB629:
 2667              	.LBB627:
 2668              	.LBI627:
 2669              		.loc 7 331 57 view .LVU808
 2670              	.LBB628:
 2671              		.loc 7 333 3 view .LVU809
 2672              		.syntax divided
 2673              	@ 333 "ChibiOS/os/common/ext/CMSIS/include/core_cmFunc.h" 1
 2674 004a 62B6     		cpsie i
 2675              	@ 0 "" 2
 2676              		.thumb
 2677              		.syntax unified
 2678              	.LBE628:
 2679              	.LBE627:
ARM GAS  /tmp/ccTxpxgR.s 			page 48


 2680              	.LBE629:
 2681              	.LBE630:
 2682              	.LBE631:
 2683              	.LBE633:
 2684              		.loc 1 702 3 view .LVU810
 2685              		.loc 1 702 10 is_stmt 0 view .LVU811
 2686 004c 0020     		movs	r0, #0
 2687              	.L93:
 2688              		.loc 1 703 1 view .LVU812
 2689              		@ sp needed
 2690              	.LVL108:
 2691              		.loc 1 703 1 view .LVU813
 2692 004e 70BD     		pop	{r4, r5, r6, pc}
 2693              	.LVL109:
 2694              	.L104:
 2695              		.loc 1 684 5 is_stmt 1 view .LVU814
 2696              		.loc 1 684 11 is_stmt 0 view .LVU815
 2697 0050 1100     		movs	r1, r2
 2698              	.LVL110:
 2699              		.loc 1 684 11 view .LVU816
 2700 0052 FFF7FEFF 		bl	obqGetEmptyBufferTimeoutS
 2701              	.LVL111:
 2702              		.loc 1 685 5 is_stmt 1 view .LVU817
 2703              		.loc 1 685 8 is_stmt 0 view .LVU818
 2704 0056 0028     		cmp	r0, #0
 2705 0058 01D1     		bne	.L95
 2706 005a 636A     		ldr	r3, [r4, #36]
 2707 005c D7E7     		b	.L94
 2708              	.L95:
 2709              		.loc 1 686 7 is_stmt 1 view .LVU819
 2710              	.LBB634:
 2711              	.LBI634:
 2712              		.loc 2 502 20 view .LVU820
 2713              	.LBE634:
 2714              		.loc 2 504 3 view .LVU821
 2715              	.LBB643:
 2716              	.LBB635:
 2717              	.LBI635:
 2718              		.loc 5 386 20 view .LVU822
 2719              	.LBB636:
 2720              		.loc 5 388 22 view .LVU823
 2721              		.loc 5 389 33 view .LVU824
 2722              		.loc 5 395 3 view .LVU825
 2723              		.loc 5 395 3 view .LVU826
 2724              		.loc 5 399 3 view .LVU827
 2725              	.LBB637:
 2726              	.LBI637:
 2727              		.loc 6 380 20 view .LVU828
 2728              	.LBE637:
 2729              	.LBE636:
 2730              	.LBE635:
 2731              	.LBE643:
 2732              		.loc 6 382 3 view .LVU829
 2733              	.LBB644:
 2734              	.LBB642:
 2735              	.LBB641:
 2736              	.LBB640:
ARM GAS  /tmp/ccTxpxgR.s 			page 49


 2737              	.LBB638:
 2738              	.LBI638:
 2739              		.loc 7 331 57 view .LVU830
 2740              	.LBB639:
 2741              		.loc 7 333 3 view .LVU831
 2742              		.syntax divided
 2743              	@ 333 "ChibiOS/os/common/ext/CMSIS/include/core_cmFunc.h" 1
 2744 005e 62B6     		cpsie i
 2745              	@ 0 "" 2
 2746              		.thumb
 2747              		.syntax unified
 2748              	.LBE639:
 2749              	.LBE638:
 2750              	.LBE640:
 2751              	.LBE641:
 2752              	.LBE642:
 2753              	.LBE644:
 2754              		.loc 1 687 7 view .LVU832
 2755              		.loc 1 687 14 is_stmt 0 view .LVU833
 2756 0060 F5E7     		b	.L93
 2757              		.cfi_endproc
 2758              	.LFE169:
 2759              		.size	obqPutTimeout, .-obqPutTimeout
 2760 0062 C046     		.section	.text.obqWriteTimeout,"ax",%progbits
 2761              		.align	1
 2762              		.p2align 4,,15
 2763              		.global	obqWriteTimeout
 2764              		.syntax unified
 2765              		.code	16
 2766              		.thumb_func
 2767              		.fpu softvfp
 2768              		.type	obqWriteTimeout, %function
 2769              	obqWriteTimeout:
 2770              	.LVL112:
 2771              	.LFB170:
 2772              		.loc 1 727 53 is_stmt 1 view -0
 2773              		.cfi_startproc
 2774              		@ args = 0, pretend = 0, frame = 8
 2775              		@ frame_needed = 0, uses_anonymous_args = 0
 2776              		.loc 1 728 3 view .LVU835
 2777              		.loc 1 729 3 view .LVU836
 2778              		.loc 1 731 3 view .LVU837
 2779              		.loc 1 731 3 view .LVU838
 2780              		.loc 1 733 3 view .LVU839
 2781              	.LBB645:
 2782              	.LBI645:
 2783              		.loc 2 491 20 view .LVU840
 2784              	.LBE645:
 2785              		.loc 2 493 3 view .LVU841
 2786              	.LBB657:
 2787              	.LBB646:
 2788              	.LBI646:
 2789              		.loc 5 374 20 view .LVU842
 2790              	.LBE646:
 2791              	.LBE657:
 2792              		.loc 5 376 3 view .LVU843
 2793              	.LBB658:
ARM GAS  /tmp/ccTxpxgR.s 			page 50


 2794              	.LBB654:
 2795              	.LBB647:
 2796              	.LBI647:
 2797              		.loc 6 371 20 view .LVU844
 2798              	.LBE647:
 2799              	.LBE654:
 2800              	.LBE658:
 2801              		.loc 6 373 3 view .LVU845
 2802              	.LBB659:
 2803              	.LBB655:
 2804              	.LBB652:
 2805              	.LBB648:
 2806              	.LBI648:
 2807              		.loc 7 342 57 view .LVU846
 2808              	.LBB649:
 2809              		.loc 7 344 3 view .LVU847
 2810              	.LBE649:
 2811              	.LBE648:
 2812              	.LBE652:
 2813              	.LBE655:
 2814              	.LBE659:
 2815              		.loc 1 727 53 is_stmt 0 view .LVU848
 2816 0000 F0B5     		push	{r4, r5, r6, r7, lr}
 2817              		.cfi_def_cfa_offset 20
 2818              		.cfi_offset 4, -20
 2819              		.cfi_offset 5, -16
 2820              		.cfi_offset 6, -12
 2821              		.cfi_offset 7, -8
 2822              		.cfi_offset 14, -4
 2823 0002 5746     		mov	r7, r10
 2824 0004 4546     		mov	r5, r8
 2825 0006 DE46     		mov	lr, fp
 2826 0008 4E46     		mov	r6, r9
 2827 000a E0B5     		push	{r5, r6, r7, lr}
 2828              		.cfi_def_cfa_offset 36
 2829              		.cfi_offset 8, -36
 2830              		.cfi_offset 9, -32
 2831              		.cfi_offset 10, -28
 2832              		.cfi_offset 11, -24
 2833 000c 0400     		movs	r4, r0
 2834 000e 83B0     		sub	sp, sp, #12
 2835              		.cfi_def_cfa_offset 48
 2836              		.loc 1 727 53 view .LVU849
 2837 0010 0F00     		movs	r7, r1
 2838 0012 9046     		mov	r8, r2
 2839 0014 9A46     		mov	r10, r3
 2840              	.LBB660:
 2841              	.LBB656:
 2842              	.LBB653:
 2843              	.LBB651:
 2844              	.LBB650:
 2845              		.loc 7 344 3 view .LVU850
 2846              		.syntax divided
 2847              	@ 344 "ChibiOS/os/common/ext/CMSIS/include/core_cmFunc.h" 1
 2848 0016 72B6     		cpsid i
 2849              	@ 0 "" 2
 2850              		.thumb
ARM GAS  /tmp/ccTxpxgR.s 			page 51


 2851              		.syntax unified
 2852              	.LBE650:
 2853              	.LBE651:
 2854              	.LBE653:
 2855              	.LBE656:
 2856              	.LBE660:
 2857              		.loc 5 377 34 is_stmt 1 view .LVU851
 2858              		.loc 5 378 20 view .LVU852
 2859              		.loc 1 736 3 view .LVU853
 2860              	.LBB661:
 2861              	.LBI661:
 2862              		.loc 2 616 25 view .LVU854
 2863              	.LBE661:
 2864              		.loc 2 618 3 view .LVU855
 2865              	.LBB669:
 2866              	.LBB662:
 2867              	.LBI662:
 2868              		.loc 8 228 25 view .LVU856
 2869              	.LBE662:
 2870              	.LBE669:
 2871              		.loc 8 233 3 view .LVU857
 2872              	.LBB670:
 2873              	.LBB667:
 2874              	.LBB663:
 2875              	.LBI663:
 2876              		.loc 9 105 25 view .LVU858
 2877              	.LBE663:
 2878              	.LBE667:
 2879              	.LBE670:
 2880              		.loc 9 107 3 view .LVU859
 2881              	.LBB671:
 2882              	.LBB668:
 2883              	.LBB666:
 2884              	.LBB664:
 2885              	.LBI664:
 2886              		.loc 10 139 25 view .LVU860
 2887              	.LBB665:
 2888              		.loc 10 141 3 view .LVU861
 2889              		.loc 10 141 10 is_stmt 0 view .LVU862
 2890 0018 8023     		movs	r3, #128
 2891              	.LVL113:
 2892              		.loc 10 141 10 view .LVU863
 2893 001a DB05     		lsls	r3, r3, #23
 2894 001c 5A6A     		ldr	r2, [r3, #36]
 2895              	.LVL114:
 2896              		.loc 10 141 10 view .LVU864
 2897              	.LBE665:
 2898              	.LBE664:
 2899              	.LBE666:
 2900              	.LBE668:
 2901              	.LBE671:
 2902              	.LBB672:
 2903              	.LBB673:
 2904              	.LBB674:
 2905              	.LBB675:
 2906              	.LBB676:
 2907              	.LBB677:
ARM GAS  /tmp/ccTxpxgR.s 			page 52


 2908              	.LBB678:
 2909              	.LBB679:
 2910 001e 9B46     		mov	fp, r3
 2911              	.LBE679:
 2912              	.LBE678:
 2913              	.LBE677:
 2914              	.LBE676:
 2915              	.LBE675:
 2916              	.LBE674:
 2917              	.LBE673:
 2918              	.LBE672:
 2919              		.loc 1 736 12 view .LVU865
 2920 0020 5244     		add	r2, r2, r10
 2921 0022 0192     		str	r2, [sp, #4]
 2922              	.LVL115:
 2923              	.LBB747:
 2924              	.LBB706:
 2925              		.loc 1 747 38 view .LVU866
 2926 0024 5246     		mov	r2, r10
 2927              	.LVL116:
 2928              		.loc 1 747 38 view .LVU867
 2929              	.LBE706:
 2930              	.LBB707:
 2931              	.LBB708:
 2932              		.loc 1 649 13 view .LVU868
 2933 0026 0023     		movs	r3, #0
 2934              	.LBE708:
 2935              	.LBE707:
 2936              	.LBB713:
 2937              		.loc 1 747 38 view .LVU869
 2938 0028 013A     		subs	r2, r2, #1
 2939              	.LBE713:
 2940              	.LBE747:
 2941              		.loc 1 728 10 view .LVU870
 2942 002a 0026     		movs	r6, #0
 2943              	.LBB748:
 2944              	.LBB714:
 2945              		.loc 1 747 38 view .LVU871
 2946 002c 0092     		str	r2, [sp]
 2947              	.LBE714:
 2948              	.LBB715:
 2949              	.LBB709:
 2950              		.loc 1 649 13 view .LVU872
 2951 002e 9946     		mov	r9, r3
 2952 0030 26E0     		b	.L119
 2953              	.LVL117:
 2954              	.L125:
 2955              		.loc 1 649 13 view .LVU873
 2956              	.LBE709:
 2957              	.LBE715:
 2958              		.loc 1 780 7 is_stmt 1 view .LVU874
 2959 0032 3900     		movs	r1, r7
 2960 0034 4022     		movs	r2, #64
 2961              	.LVL118:
 2962              		.loc 1 780 7 is_stmt 0 view .LVU875
 2963 0036 FFF7FEFF 		bl	memcpy
 2964              	.LVL119:
ARM GAS  /tmp/ccTxpxgR.s 			page 53


 2965              		.loc 1 781 7 is_stmt 1 view .LVU876
 2966              		.loc 1 782 17 is_stmt 0 view .LVU877
 2967 003a 636A     		ldr	r3, [r4, #36]
 2968              		.loc 1 781 17 view .LVU878
 2969 003c 4037     		adds	r7, r7, #64
 2970              	.LVL120:
 2971              		.loc 1 782 7 is_stmt 1 view .LVU879
 2972              		.loc 1 782 17 is_stmt 0 view .LVU880
 2973 003e 4033     		adds	r3, r3, #64
 2974 0040 6362     		str	r3, [r4, #36]
 2975              		.loc 1 783 7 is_stmt 1 view .LVU881
 2976              		.loc 1 783 17 is_stmt 0 view .LVU882
 2977 0042 4036     		adds	r6, r6, #64
 2978              	.LVL121:
 2979              	.L114:
 2980              		.loc 1 793 5 is_stmt 1 view .LVU883
 2981              		.loc 1 793 8 is_stmt 0 view .LVU884
 2982 0044 A26A     		ldr	r2, [r4, #40]
 2983 0046 9A42     		cmp	r2, r3
 2984 0048 16D8     		bhi	.L116
 2985              		.loc 1 794 7 is_stmt 1 view .LVU885
 2986              	.LVL122:
 2987              	.LBB716:
 2988              	.LBI707:
 2989              		.loc 1 632 6 view .LVU886
 2990              	.LBB710:
 2991              		.loc 1 634 23 view .LVU887
 2992              		.loc 1 635 3 view .LVU888
 2993              		.loc 1 635 3 view .LVU889
 2994              		.loc 1 636 3 view .LVU890
 2995              		.loc 1 636 3 view .LVU891
 2996              		.loc 1 639 3 view .LVU892
 2997              	.LBE710:
 2998              	.LBE716:
 2999              		.loc 1 794 7 is_stmt 0 view .LVU893
 3000 004a A269     		ldr	r2, [r4, #24]
 3001              	.LBB717:
 3002              	.LBB711:
 3003              		.loc 1 639 19 view .LVU894
 3004 004c E368     		ldr	r3, [r4, #12]
 3005              	.LBE711:
 3006              	.LBE717:
 3007              		.loc 1 794 7 view .LVU895
 3008 004e 043A     		subs	r2, r2, #4
 3009              	.LVL123:
 3010              	.LBB718:
 3011              	.LBB712:
 3012              		.loc 1 639 29 view .LVU896
 3013 0050 1A60     		str	r2, [r3]
 3014              		.loc 1 642 3 is_stmt 1 view .LVU897
 3015              		.loc 1 642 7 is_stmt 0 view .LVU898
 3016 0052 A268     		ldr	r2, [r4, #8]
 3017              	.LVL124:
 3018              		.loc 1 642 17 view .LVU899
 3019 0054 013A     		subs	r2, r2, #1
 3020 0056 A260     		str	r2, [r4, #8]
 3021              	.LVL125:
ARM GAS  /tmp/ccTxpxgR.s 			page 54


 3022              		.loc 1 643 3 is_stmt 1 view .LVU900
 3023              		.loc 1 643 16 is_stmt 0 view .LVU901
 3024 0058 A269     		ldr	r2, [r4, #24]
 3025 005a 9446     		mov	ip, r2
 3026              		.loc 1 644 6 view .LVU902
 3027 005c 6269     		ldr	r2, [r4, #20]
 3028              		.loc 1 643 16 view .LVU903
 3029 005e 6344     		add	r3, r3, ip
 3030 0060 E360     		str	r3, [r4, #12]
 3031              		.loc 1 644 3 is_stmt 1 view .LVU904
 3032              		.loc 1 644 6 is_stmt 0 view .LVU905
 3033 0062 9342     		cmp	r3, r2
 3034 0064 01D3     		bcc	.L117
 3035              		.loc 1 645 5 is_stmt 1 view .LVU906
 3036              		.loc 1 645 18 is_stmt 0 view .LVU907
 3037 0066 236A     		ldr	r3, [r4, #32]
 3038 0068 E360     		str	r3, [r4, #12]
 3039              	.L117:
 3040              		.loc 1 649 3 is_stmt 1 view .LVU908
 3041              		.loc 1 649 13 is_stmt 0 view .LVU909
 3042 006a 4B46     		mov	r3, r9
 3043 006c 6362     		str	r3, [r4, #36]
 3044              		.loc 1 652 3 is_stmt 1 view .LVU910
 3045              		.loc 1 652 11 is_stmt 0 view .LVU911
 3046 006e E36A     		ldr	r3, [r4, #44]
 3047              		.loc 1 652 6 view .LVU912
 3048 0070 002B     		cmp	r3, #0
 3049 0072 01D0     		beq	.L116
 3050              		.loc 1 653 5 is_stmt 1 view .LVU913
 3051 0074 2000     		movs	r0, r4
 3052 0076 9847     		blx	r3
 3053              	.LVL126:
 3054              	.L116:
 3055              		.loc 1 653 5 is_stmt 0 view .LVU914
 3056              	.LBE712:
 3057              	.LBE718:
 3058              		.loc 1 798 5 is_stmt 1 view .LVU915
 3059              	.LBB719:
 3060              	.LBI719:
 3061              		.loc 2 502 20 view .LVU916
 3062              	.LBE719:
 3063              	.LBE748:
 3064              		.loc 2 504 3 view .LVU917
 3065              	.LBB749:
 3066              	.LBB728:
 3067              	.LBB720:
 3068              	.LBI720:
 3069              		.loc 5 386 20 view .LVU918
 3070              	.LBB721:
 3071              		.loc 5 388 22 view .LVU919
 3072              		.loc 5 389 33 view .LVU920
 3073              		.loc 5 395 3 view .LVU921
 3074              		.loc 5 395 3 view .LVU922
 3075              		.loc 5 399 3 view .LVU923
 3076              	.LBB722:
 3077              	.LBI722:
 3078              		.loc 6 380 20 view .LVU924
ARM GAS  /tmp/ccTxpxgR.s 			page 55


 3079              	.LBE722:
 3080              	.LBE721:
 3081              	.LBE720:
 3082              	.LBE728:
 3083              	.LBE749:
 3084              		.loc 6 382 3 view .LVU925
 3085              	.LBB750:
 3086              	.LBB729:
 3087              	.LBB727:
 3088              	.LBB726:
 3089              	.LBB725:
 3090              	.LBB723:
 3091              	.LBI723:
 3092              		.loc 7 331 57 view .LVU926
 3093              	.LBB724:
 3094              		.loc 7 333 3 view .LVU927
 3095              		.syntax divided
 3096              	@ 333 "ChibiOS/os/common/ext/CMSIS/include/core_cmFunc.h" 1
 3097 0078 62B6     		cpsie i
 3098              	@ 0 "" 2
 3099              		.thumb
 3100              		.syntax unified
 3101              	.LBE724:
 3102              	.LBE723:
 3103              	.LBE725:
 3104              	.LBE726:
 3105              	.LBE727:
 3106              	.LBE729:
 3107              		.loc 1 799 5 view .LVU928
 3108              		.loc 1 799 8 is_stmt 0 view .LVU929
 3109 007a 4645     		cmp	r6, r8
 3110 007c 2DD2     		bcs	.L105
 3111              		.loc 1 802 5 is_stmt 1 view .LVU930
 3112              	.LBB730:
 3113              	.LBI730:
 3114              		.loc 2 491 20 view .LVU931
 3115              	.LBE730:
 3116              	.LBE750:
 3117              		.loc 2 493 3 view .LVU932
 3118              	.LBB751:
 3119              	.LBB738:
 3120              	.LBB731:
 3121              	.LBI731:
 3122              		.loc 5 374 20 view .LVU933
 3123              	.LBE731:
 3124              	.LBE738:
 3125              	.LBE751:
 3126              		.loc 5 376 3 view .LVU934
 3127              	.LBB752:
 3128              	.LBB739:
 3129              	.LBB736:
 3130              	.LBB732:
 3131              	.LBI732:
 3132              		.loc 6 371 20 view .LVU935
 3133              	.LBE732:
 3134              	.LBE736:
 3135              	.LBE739:
ARM GAS  /tmp/ccTxpxgR.s 			page 56


 3136              	.LBE752:
 3137              		.loc 6 373 3 view .LVU936
 3138              	.LBB753:
 3139              	.LBB740:
 3140              	.LBB737:
 3141              	.LBB735:
 3142              	.LBB733:
 3143              	.LBI733:
 3144              		.loc 7 342 57 view .LVU937
 3145              	.LBB734:
 3146              		.loc 7 344 3 view .LVU938
 3147              		.syntax divided
 3148              	@ 344 "ChibiOS/os/common/ext/CMSIS/include/core_cmFunc.h" 1
 3149 007e 72B6     		cpsid i
 3150              	@ 0 "" 2
 3151              		.thumb
 3152              		.syntax unified
 3153              	.LBE734:
 3154              	.LBE733:
 3155              	.LBE735:
 3156              	.LBE737:
 3157              	.LBE740:
 3158              	.LBE753:
 3159              		.loc 5 377 34 view .LVU939
 3160              		.loc 5 378 20 view .LVU940
 3161              	.LVL127:
 3162              	.L119:
 3163              		.loc 1 738 3 view .LVU941
 3164              	.LBB754:
 3165              		.loc 1 739 5 view .LVU942
 3166              		.loc 1 742 5 view .LVU943
 3167              		.loc 1 742 13 is_stmt 0 view .LVU944
 3168 0080 606A     		ldr	r0, [r4, #36]
 3169              		.loc 1 742 8 view .LVU945
 3170 0082 0028     		cmp	r0, #0
 3171 0084 12D0     		beq	.L124
 3172              	.L106:
 3173              		.loc 1 771 5 is_stmt 1 view .LVU946
 3174              		.loc 1 772 19 is_stmt 0 view .LVU947
 3175 0086 4246     		mov	r2, r8
 3176              		.loc 1 771 10 view .LVU948
 3177 0088 A36A     		ldr	r3, [r4, #40]
 3178              		.loc 1 772 19 view .LVU949
 3179 008a 951B     		subs	r5, r2, r6
 3180              		.loc 1 771 10 view .LVU950
 3181 008c 1B1A     		subs	r3, r3, r0
 3182              	.LVL128:
 3183              		.loc 1 772 5 is_stmt 1 view .LVU951
 3184 008e 9D42     		cmp	r5, r3
 3185 0090 00D9     		bls	.L112
 3186              	.LVL129:
 3187              		.loc 1 772 5 is_stmt 0 view .LVU952
 3188 0092 1D00     		movs	r5, r3
 3189              	.L112:
 3190              	.LVL130:
 3191              		.loc 1 778 5 is_stmt 1 view .LVU953
 3192              		.loc 1 778 8 is_stmt 0 view .LVU954
ARM GAS  /tmp/ccTxpxgR.s 			page 57


 3193 0094 402D     		cmp	r5, #64
 3194 0096 CCD8     		bhi	.L125
 3195              		.loc 1 786 7 is_stmt 1 view .LVU955
 3196 0098 3900     		movs	r1, r7
 3197 009a 2A00     		movs	r2, r5
 3198              	.LVL131:
 3199              		.loc 1 786 7 is_stmt 0 view .LVU956
 3200 009c FFF7FEFF 		bl	memcpy
 3201              	.LVL132:
 3202              		.loc 1 787 7 is_stmt 1 view .LVU957
 3203              		.loc 1 788 17 is_stmt 0 view .LVU958
 3204 00a0 636A     		ldr	r3, [r4, #36]
 3205              		.loc 1 787 17 view .LVU959
 3206 00a2 7F19     		adds	r7, r7, r5
 3207              	.LVL133:
 3208              		.loc 1 788 7 is_stmt 1 view .LVU960
 3209              		.loc 1 788 17 is_stmt 0 view .LVU961
 3210 00a4 5B19     		adds	r3, r3, r5
 3211 00a6 6362     		str	r3, [r4, #36]
 3212              		.loc 1 789 7 is_stmt 1 view .LVU962
 3213              		.loc 1 789 17 is_stmt 0 view .LVU963
 3214 00a8 7619     		adds	r6, r6, r5
 3215              	.LVL134:
 3216              		.loc 1 789 17 view .LVU964
 3217 00aa CBE7     		b	.L114
 3218              	.LVL135:
 3219              	.L124:
 3220              	.LBB741:
 3221              		.loc 1 743 7 is_stmt 1 view .LVU965
 3222              		.loc 1 747 7 view .LVU966
 3223              		.loc 1 747 10 is_stmt 0 view .LVU967
 3224 00ac 009B     		ldr	r3, [sp]
 3225 00ae 0333     		adds	r3, r3, #3
 3226 00b0 0CD8     		bhi	.L126
 3227              	.LBB691:
 3228              		.loc 1 751 9 is_stmt 1 view .LVU968
 3229              	.LBB687:
 3230              	.LBI675:
 3231              		.loc 2 616 25 view .LVU969
 3232              	.LBE687:
 3233              	.LBE691:
 3234              	.LBE741:
 3235              	.LBE754:
 3236              		.loc 2 618 3 view .LVU970
 3237              	.LBB755:
 3238              	.LBB742:
 3239              	.LBB692:
 3240              	.LBB688:
 3241              	.LBB684:
 3242              	.LBI676:
 3243              		.loc 8 228 25 view .LVU971
 3244              	.LBE684:
 3245              	.LBE688:
 3246              	.LBE692:
 3247              	.LBE742:
 3248              	.LBE755:
 3249              		.loc 8 233 3 view .LVU972
ARM GAS  /tmp/ccTxpxgR.s 			page 58


 3250              	.LBB756:
 3251              	.LBB743:
 3252              	.LBB693:
 3253              	.LBB689:
 3254              	.LBB685:
 3255              	.LBB682:
 3256              	.LBI677:
 3257              		.loc 9 105 25 view .LVU973
 3258              	.LBE682:
 3259              	.LBE685:
 3260              	.LBE689:
 3261              	.LBE693:
 3262              	.LBE743:
 3263              	.LBE756:
 3264              		.loc 9 107 3 view .LVU974
 3265              	.LBB757:
 3266              	.LBB744:
 3267              	.LBB694:
 3268              	.LBB690:
 3269              	.LBB686:
 3270              	.LBB683:
 3271              	.LBB681:
 3272              	.LBI678:
 3273              		.loc 10 139 25 view .LVU975
 3274              	.LBB680:
 3275              		.loc 10 141 3 view .LVU976
 3276              		.loc 10 141 10 is_stmt 0 view .LVU977
 3277 00b2 5B46     		mov	r3, fp
 3278 00b4 596A     		ldr	r1, [r3, #36]
 3279              	.LBE680:
 3280              	.LBE681:
 3281              	.LBE683:
 3282              	.LBE686:
 3283              	.LBE690:
 3284              		.loc 1 751 19 view .LVU978
 3285 00b6 019B     		ldr	r3, [sp, #4]
 3286 00b8 591A     		subs	r1, r3, r1
 3287              	.LVL136:
 3288              		.loc 1 756 9 is_stmt 1 view .LVU979
 3289              		.loc 1 756 12 is_stmt 0 view .LVU980
 3290 00ba 8A45     		cmp	r10, r1
 3291 00bc 0CD3     		bcc	.L111
 3292              		.loc 1 760 9 is_stmt 1 view .LVU981
 3293              		.loc 1 760 15 is_stmt 0 view .LVU982
 3294 00be 2000     		movs	r0, r4
 3295 00c0 FFF7FEFF 		bl	obqGetEmptyBufferTimeoutS
 3296              	.LVL137:
 3297              		.loc 1 760 15 view .LVU983
 3298              	.LBE694:
 3299              		.loc 1 764 7 is_stmt 1 view .LVU984
 3300              		.loc 1 764 10 is_stmt 0 view .LVU985
 3301 00c4 0028     		cmp	r0, #0
 3302 00c6 07D1     		bne	.L111
 3303              	.L127:
 3304              		.loc 1 764 10 view .LVU986
 3305 00c8 606A     		ldr	r0, [r4, #36]
 3306              	.LVL138:
ARM GAS  /tmp/ccTxpxgR.s 			page 59


 3307              		.loc 1 764 10 view .LVU987
 3308 00ca DCE7     		b	.L106
 3309              	.L126:
 3310              		.loc 1 748 9 is_stmt 1 view .LVU988
 3311              		.loc 1 748 15 is_stmt 0 view .LVU989
 3312 00cc 5146     		mov	r1, r10
 3313 00ce 2000     		movs	r0, r4
 3314 00d0 FFF7FEFF 		bl	obqGetEmptyBufferTimeoutS
 3315              	.LVL139:
 3316              		.loc 1 764 7 is_stmt 1 view .LVU990
 3317              		.loc 1 764 10 is_stmt 0 view .LVU991
 3318 00d4 0028     		cmp	r0, #0
 3319 00d6 F7D0     		beq	.L127
 3320              	.LVL140:
 3321              	.L111:
 3322              		.loc 1 765 9 is_stmt 1 view .LVU992
 3323              	.LBB695:
 3324              	.LBI695:
 3325              		.loc 2 502 20 view .LVU993
 3326              	.LBE695:
 3327              	.LBE744:
 3328              	.LBE757:
 3329              		.loc 2 504 3 view .LVU994
 3330              	.LBB758:
 3331              	.LBB745:
 3332              	.LBB704:
 3333              	.LBB696:
 3334              	.LBI696:
 3335              		.loc 5 386 20 view .LVU995
 3336              	.LBB697:
 3337              		.loc 5 388 22 view .LVU996
 3338              		.loc 5 389 33 view .LVU997
 3339              		.loc 5 395 3 view .LVU998
 3340              		.loc 5 395 3 view .LVU999
 3341              		.loc 5 399 3 view .LVU1000
 3342              	.LBB698:
 3343              	.LBI698:
 3344              		.loc 6 380 20 view .LVU1001
 3345              	.LBE698:
 3346              	.LBE697:
 3347              	.LBE696:
 3348              	.LBE704:
 3349              	.LBE745:
 3350              	.LBE758:
 3351              		.loc 6 382 3 view .LVU1002
 3352              	.LBB759:
 3353              	.LBB746:
 3354              	.LBB705:
 3355              	.LBB703:
 3356              	.LBB702:
 3357              	.LBB701:
 3358              	.LBB699:
 3359              	.LBI699:
 3360              		.loc 7 331 57 view .LVU1003
 3361              	.LBB700:
 3362              		.loc 7 333 3 view .LVU1004
 3363              		.syntax divided
ARM GAS  /tmp/ccTxpxgR.s 			page 60


 3364              	@ 333 "ChibiOS/os/common/ext/CMSIS/include/core_cmFunc.h" 1
 3365 00d8 62B6     		cpsie i
 3366              	@ 0 "" 2
 3367              		.thumb
 3368              		.syntax unified
 3369              	.LBE700:
 3370              	.LBE699:
 3371              	.LBE701:
 3372              	.LBE702:
 3373              	.LBE703:
 3374              	.LBE705:
 3375              		.loc 1 766 9 view .LVU1005
 3376              	.L105:
 3377              		.loc 1 766 9 is_stmt 0 view .LVU1006
 3378              	.LBE746:
 3379              	.LBE759:
 3380              		.loc 1 804 1 view .LVU1007
 3381 00da 3000     		movs	r0, r6
 3382 00dc 03B0     		add	sp, sp, #12
 3383              		@ sp needed
 3384              	.LVL141:
 3385              	.LVL142:
 3386              	.LVL143:
 3387              	.LVL144:
 3388              	.LVL145:
 3389              		.loc 1 804 1 view .LVU1008
 3390 00de 3CBC     		pop	{r2, r3, r4, r5}
 3391 00e0 9046     		mov	r8, r2
 3392 00e2 9946     		mov	r9, r3
 3393 00e4 A246     		mov	r10, r4
 3394 00e6 AB46     		mov	fp, r5
 3395 00e8 F0BD     		pop	{r4, r5, r6, r7, pc}
 3396              		.cfi_endproc
 3397              	.LFE170:
 3398              		.size	obqWriteTimeout, .-obqWriteTimeout
 3399 00ea C046     		.section	.text.obqTryFlushI,"ax",%progbits
 3400              		.align	1
 3401              		.p2align 4,,15
 3402              		.global	obqTryFlushI
 3403              		.syntax unified
 3404              		.code	16
 3405              		.thumb_func
 3406              		.fpu softvfp
 3407              		.type	obqTryFlushI, %function
 3408              	obqTryFlushI:
 3409              	.LVL146:
 3410              	.LFB171:
 3411              		.loc 1 819 49 is_stmt 1 view -0
 3412              		.cfi_startproc
 3413              		@ args = 0, pretend = 0, frame = 0
 3414              		@ frame_needed = 0, uses_anonymous_args = 0
 3415              		@ link register save eliminated.
 3416              		.loc 1 821 23 view .LVU1010
 3417              		.loc 1 825 3 view .LVU1011
 3418              		.loc 1 819 49 is_stmt 0 view .LVU1012
 3419 0000 0300     		movs	r3, r0
 3420              		.loc 1 825 7 view .LVU1013
ARM GAS  /tmp/ccTxpxgR.s 			page 61


 3421 0002 C268     		ldr	r2, [r0, #12]
 3422 0004 1969     		ldr	r1, [r3, #16]
 3423              		.loc 1 846 10 view .LVU1014
 3424 0006 0020     		movs	r0, #0
 3425              	.LVL147:
 3426              		.loc 1 825 7 view .LVU1015
 3427 0008 8A42     		cmp	r2, r1
 3428 000a 00D0     		beq	.L137
 3429              	.L135:
 3430              		.loc 1 847 1 view .LVU1016
 3431              		@ sp needed
 3432 000c 7047     		bx	lr
 3433              	.L137:
 3434              		.loc 1 825 7 discriminator 1 view .LVU1017
 3435 000e 9968     		ldr	r1, [r3, #8]
 3436 0010 0029     		cmp	r1, #0
 3437 0012 FBD0     		beq	.L135
 3438              		.loc 1 825 33 view .LVU1018
 3439 0014 596A     		ldr	r1, [r3, #36]
 3440              		.loc 1 825 25 view .LVU1019
 3441 0016 0029     		cmp	r1, #0
 3442 0018 F8D0     		beq	.L135
 3443              	.LBB760:
 3444              		.loc 1 826 5 is_stmt 1 view .LVU1020
 3445              		.loc 1 826 12 is_stmt 0 view .LVU1021
 3446 001a 0439     		subs	r1, r1, #4
 3447 001c 891A     		subs	r1, r1, r2
 3448              	.LVL148:
 3449              		.loc 1 828 5 is_stmt 1 view .LVU1022
 3450              		.loc 1 828 8 is_stmt 0 view .LVU1023
 3451 001e F5D0     		beq	.L135
 3452              		.loc 1 831 7 is_stmt 1 view .LVU1024
 3453              		.loc 1 831 33 is_stmt 0 view .LVU1025
 3454 0020 1160     		str	r1, [r2]
 3455              		.loc 1 834 7 is_stmt 1 view .LVU1026
 3456              		.loc 1 834 11 is_stmt 0 view .LVU1027
 3457 0022 9968     		ldr	r1, [r3, #8]
 3458              	.LVL149:
 3459              		.loc 1 834 21 view .LVU1028
 3460 0024 0139     		subs	r1, r1, #1
 3461 0026 9960     		str	r1, [r3, #8]
 3462              	.LVL150:
 3463              		.loc 1 835 7 is_stmt 1 view .LVU1029
 3464              		.loc 1 835 20 is_stmt 0 view .LVU1030
 3465 0028 9969     		ldr	r1, [r3, #24]
 3466 002a 8C46     		mov	ip, r1
 3467              		.loc 1 836 10 view .LVU1031
 3468 002c 5969     		ldr	r1, [r3, #20]
 3469              		.loc 1 835 20 view .LVU1032
 3470 002e 6244     		add	r2, r2, ip
 3471              	.LVL151:
 3472              		.loc 1 835 20 view .LVU1033
 3473 0030 DA60     		str	r2, [r3, #12]
 3474              	.LVL152:
 3475              		.loc 1 836 7 is_stmt 1 view .LVU1034
 3476              		.loc 1 836 10 is_stmt 0 view .LVU1035
 3477 0032 8A42     		cmp	r2, r1
ARM GAS  /tmp/ccTxpxgR.s 			page 62


 3478 0034 01D3     		bcc	.L131
 3479              		.loc 1 837 9 is_stmt 1 view .LVU1036
 3480              		.loc 1 837 22 is_stmt 0 view .LVU1037
 3481 0036 1A6A     		ldr	r2, [r3, #32]
 3482 0038 DA60     		str	r2, [r3, #12]
 3483              	.L131:
 3484              		.loc 1 841 7 is_stmt 1 view .LVU1038
 3485              		.loc 1 841 17 is_stmt 0 view .LVU1039
 3486 003a 0022     		movs	r2, #0
 3487              		.loc 1 843 14 view .LVU1040
 3488 003c 0120     		movs	r0, #1
 3489              		.loc 1 841 17 view .LVU1041
 3490 003e 5A62     		str	r2, [r3, #36]
 3491              		.loc 1 843 7 is_stmt 1 view .LVU1042
 3492              		.loc 1 843 14 is_stmt 0 view .LVU1043
 3493 0040 E4E7     		b	.L135
 3494              	.LBE760:
 3495              		.cfi_endproc
 3496              	.LFE171:
 3497              		.size	obqTryFlushI, .-obqTryFlushI
 3498 0042 C046     		.section	.text.obqFlush,"ax",%progbits
 3499              		.align	1
 3500              		.p2align 4,,15
 3501              		.global	obqFlush
 3502              		.syntax unified
 3503              		.code	16
 3504              		.thumb_func
 3505              		.fpu softvfp
 3506              		.type	obqFlush, %function
 3507              	obqFlush:
 3508              	.LVL153:
 3509              	.LFB172:
 3510              		.loc 1 856 45 is_stmt 1 view -0
 3511              		.cfi_startproc
 3512              		@ args = 0, pretend = 0, frame = 0
 3513              		@ frame_needed = 0, uses_anonymous_args = 0
 3514              		.loc 1 858 3 view .LVU1045
 3515              	.LBB761:
 3516              	.LBI761:
 3517              		.loc 2 491 20 view .LVU1046
 3518              	.LBE761:
 3519              		.loc 2 493 3 view .LVU1047
 3520              	.LBB773:
 3521              	.LBB762:
 3522              	.LBI762:
 3523              		.loc 5 374 20 view .LVU1048
 3524              	.LBE762:
 3525              	.LBE773:
 3526              		.loc 5 376 3 view .LVU1049
 3527              	.LBB774:
 3528              	.LBB770:
 3529              	.LBB763:
 3530              	.LBI763:
 3531              		.loc 6 371 20 view .LVU1050
 3532              	.LBE763:
 3533              	.LBE770:
 3534              	.LBE774:
ARM GAS  /tmp/ccTxpxgR.s 			page 63


 3535              		.loc 6 373 3 view .LVU1051
 3536              	.LBB775:
 3537              	.LBB771:
 3538              	.LBB768:
 3539              	.LBB764:
 3540              	.LBI764:
 3541              		.loc 7 342 57 view .LVU1052
 3542              	.LBB765:
 3543              		.loc 7 344 3 view .LVU1053
 3544              	.LBE765:
 3545              	.LBE764:
 3546              	.LBE768:
 3547              	.LBE771:
 3548              	.LBE775:
 3549              		.loc 1 856 45 is_stmt 0 view .LVU1054
 3550 0000 10B5     		push	{r4, lr}
 3551              		.cfi_def_cfa_offset 8
 3552              		.cfi_offset 4, -8
 3553              		.cfi_offset 14, -4
 3554              	.LBB776:
 3555              	.LBB772:
 3556              	.LBB769:
 3557              	.LBB767:
 3558              	.LBB766:
 3559              		.loc 7 344 3 view .LVU1055
 3560              		.syntax divided
 3561              	@ 344 "ChibiOS/os/common/ext/CMSIS/include/core_cmFunc.h" 1
 3562 0002 72B6     		cpsid i
 3563              	@ 0 "" 2
 3564              		.thumb
 3565              		.syntax unified
 3566              	.LBE766:
 3567              	.LBE767:
 3568              	.LBE769:
 3569              	.LBE772:
 3570              	.LBE776:
 3571              		.loc 5 377 34 is_stmt 1 view .LVU1056
 3572              		.loc 5 378 20 view .LVU1057
 3573              		.loc 1 861 3 view .LVU1058
 3574              		.loc 1 861 11 is_stmt 0 view .LVU1059
 3575 0004 436A     		ldr	r3, [r0, #36]
 3576              		.loc 1 861 6 view .LVU1060
 3577 0006 002B     		cmp	r3, #0
 3578 0008 14D0     		beq	.L140
 3579              	.LBB777:
 3580              		.loc 1 862 5 is_stmt 1 view .LVU1061
 3581              		.loc 1 862 51 is_stmt 0 view .LVU1062
 3582 000a C268     		ldr	r2, [r0, #12]
 3583              		.loc 1 862 12 view .LVU1063
 3584 000c 043B     		subs	r3, r3, #4
 3585 000e 9B1A     		subs	r3, r3, r2
 3586              	.LVL154:
 3587              		.loc 1 864 5 is_stmt 1 view .LVU1064
 3588              		.loc 1 864 8 is_stmt 0 view .LVU1065
 3589 0010 10D0     		beq	.L140
 3590              		.loc 1 865 7 is_stmt 1 view .LVU1066
 3591              	.LVL155:
ARM GAS  /tmp/ccTxpxgR.s 			page 64


 3592              	.LBB778:
 3593              	.LBI778:
 3594              		.loc 1 632 6 view .LVU1067
 3595              	.LBB779:
 3596              		.loc 1 634 23 view .LVU1068
 3597              		.loc 1 635 3 view .LVU1069
 3598              		.loc 1 635 3 view .LVU1070
 3599              		.loc 1 636 3 view .LVU1071
 3600              		.loc 1 636 3 view .LVU1072
 3601              		.loc 1 639 3 view .LVU1073
 3602              		.loc 1 639 29 is_stmt 0 view .LVU1074
 3603 0012 1360     		str	r3, [r2]
 3604              		.loc 1 642 3 is_stmt 1 view .LVU1075
 3605              		.loc 1 642 7 is_stmt 0 view .LVU1076
 3606 0014 8368     		ldr	r3, [r0, #8]
 3607              	.LVL156:
 3608              		.loc 1 642 17 view .LVU1077
 3609 0016 013B     		subs	r3, r3, #1
 3610 0018 8360     		str	r3, [r0, #8]
 3611              	.LVL157:
 3612              		.loc 1 643 3 is_stmt 1 view .LVU1078
 3613              		.loc 1 643 16 is_stmt 0 view .LVU1079
 3614 001a 8369     		ldr	r3, [r0, #24]
 3615 001c 9C46     		mov	ip, r3
 3616              		.loc 1 644 6 view .LVU1080
 3617 001e 4369     		ldr	r3, [r0, #20]
 3618              		.loc 1 643 16 view .LVU1081
 3619 0020 6244     		add	r2, r2, ip
 3620              	.LVL158:
 3621              		.loc 1 643 16 view .LVU1082
 3622 0022 C260     		str	r2, [r0, #12]
 3623              	.LVL159:
 3624              		.loc 1 644 3 is_stmt 1 view .LVU1083
 3625              		.loc 1 644 6 is_stmt 0 view .LVU1084
 3626 0024 9A42     		cmp	r2, r3
 3627 0026 07D2     		bcs	.L149
 3628              	.L142:
 3629              		.loc 1 649 3 is_stmt 1 view .LVU1085
 3630              		.loc 1 649 13 is_stmt 0 view .LVU1086
 3631 0028 0023     		movs	r3, #0
 3632 002a 4362     		str	r3, [r0, #36]
 3633              		.loc 1 652 3 is_stmt 1 view .LVU1087
 3634              		.loc 1 652 11 is_stmt 0 view .LVU1088
 3635 002c C36A     		ldr	r3, [r0, #44]
 3636              		.loc 1 652 6 view .LVU1089
 3637 002e 002B     		cmp	r3, #0
 3638 0030 00D0     		beq	.L140
 3639              		.loc 1 653 5 is_stmt 1 view .LVU1090
 3640 0032 9847     		blx	r3
 3641              	.LVL160:
 3642              	.L140:
 3643              		.loc 1 653 5 is_stmt 0 view .LVU1091
 3644              	.LBE779:
 3645              	.LBE778:
 3646              	.LBE777:
 3647              		.loc 1 869 3 is_stmt 1 view .LVU1092
 3648              	.LBB782:
ARM GAS  /tmp/ccTxpxgR.s 			page 65


 3649              	.LBI782:
 3650              		.loc 2 502 20 view .LVU1093
 3651              	.LBE782:
 3652              		.loc 2 504 3 view .LVU1094
 3653              	.LBB791:
 3654              	.LBB783:
 3655              	.LBI783:
 3656              		.loc 5 386 20 view .LVU1095
 3657              	.LBB784:
 3658              		.loc 5 388 22 view .LVU1096
 3659              		.loc 5 389 33 view .LVU1097
 3660              		.loc 5 395 3 view .LVU1098
 3661              		.loc 5 395 3 view .LVU1099
 3662              		.loc 5 399 3 view .LVU1100
 3663              	.LBB785:
 3664              	.LBI785:
 3665              		.loc 6 380 20 view .LVU1101
 3666              	.LBE785:
 3667              	.LBE784:
 3668              	.LBE783:
 3669              	.LBE791:
 3670              		.loc 6 382 3 view .LVU1102
 3671              	.LBB792:
 3672              	.LBB790:
 3673              	.LBB789:
 3674              	.LBB788:
 3675              	.LBB786:
 3676              	.LBI786:
 3677              		.loc 7 331 57 view .LVU1103
 3678              	.LBB787:
 3679              		.loc 7 333 3 view .LVU1104
 3680              		.syntax divided
 3681              	@ 333 "ChibiOS/os/common/ext/CMSIS/include/core_cmFunc.h" 1
 3682 0034 62B6     		cpsie i
 3683              	@ 0 "" 2
 3684              		.thumb
 3685              		.syntax unified
 3686              	.LBE787:
 3687              	.LBE786:
 3688              	.LBE788:
 3689              	.LBE789:
 3690              	.LBE790:
 3691              	.LBE792:
 3692              		.loc 1 870 1 is_stmt 0 view .LVU1105
 3693              		@ sp needed
 3694 0036 10BD     		pop	{r4, pc}
 3695              	.LVL161:
 3696              	.L149:
 3697              	.LBB793:
 3698              	.LBB781:
 3699              	.LBB780:
 3700              		.loc 1 645 5 is_stmt 1 view .LVU1106
 3701              		.loc 1 645 18 is_stmt 0 view .LVU1107
 3702 0038 036A     		ldr	r3, [r0, #32]
 3703 003a C360     		str	r3, [r0, #12]
 3704 003c F4E7     		b	.L142
 3705              	.LBE780:
ARM GAS  /tmp/ccTxpxgR.s 			page 66


 3706              	.LBE781:
 3707              	.LBE793:
 3708              		.cfi_endproc
 3709              	.LFE172:
 3710              		.size	obqFlush, .-obqFlush
 3711              		.text
 3712              	.Letext0:
 3713              		.file 11 "/opt/nanovna/gcc-arm-none-eabi-8-2018-q4-major/lib/gcc/arm-none-eabi/8.2.1/include/stdde
 3714              		.file 12 "/opt/nanovna/gcc-arm-none-eabi-8-2018-q4-major/arm-none-eabi/include/machine/_default_ty
 3715              		.file 13 "/opt/nanovna/gcc-arm-none-eabi-8-2018-q4-major/arm-none-eabi/include/sys/lock.h"
 3716              		.file 14 "/opt/nanovna/gcc-arm-none-eabi-8-2018-q4-major/arm-none-eabi/include/sys/_types.h"
 3717              		.file 15 "/opt/nanovna/gcc-arm-none-eabi-8-2018-q4-major/arm-none-eabi/include/sys/reent.h"
 3718              		.file 16 "/opt/nanovna/gcc-arm-none-eabi-8-2018-q4-major/arm-none-eabi/include/sys/_stdint.h"
 3719              		.file 17 "ChibiOS/os/common/ports/ARMCMx/compilers/GCC/chtypes.h"
 3720              		.file 18 "ChibiOS/os/rt/include/chsystypes.h"
 3721              		.file 19 "ChibiOS/os/common/ext/CMSIS/ST/STM32F0xx/system_stm32f0xx.h"
 3722              		.file 20 "ChibiOS/os/common/ext/CMSIS/ST/STM32F0xx/stm32f072xb.h"
 3723              		.file 21 "ChibiOS/os/common/ports/ARMCMx/chcore.h"
 3724              		.file 22 "ChibiOS/os/hal/ports/STM32/LLD/TIMv1/stm32_tim.h"
 3725              		.file 23 "ChibiOS/os/rt/include/chmtx.h"
 3726              		.file 24 "ChibiOS/os/rt/include/chregistry.h"
 3727              		.file 25 "ChibiOS/os/rt/include/chevents.h"
 3728              		.file 26 "ChibiOS/os/hal/ports/STM32/LLD/DMAv1/stm32_dma.h"
 3729              		.file 27 "ChibiOS/os/hal/include/hal_buffers.h"
 3730              		.file 28 "ChibiOS/os/hal/include/hal_queues.h"
 3731              		.file 29 "ChibiOS/os/hal/ports/STM32/LLD/GPIOv2/hal_pal_lld.h"
 3732              		.file 30 "ChibiOS/os/hal/include/hal_ext.h"
 3733              		.file 31 "ChibiOS/os/hal/ports/STM32/LLD/EXTIv1/hal_ext_lld.h"
 3734              		.file 32 "ChibiOS/os/hal/include/hal_gpt.h"
 3735              		.file 33 "ChibiOS/os/hal/ports/STM32/LLD/TIMv1/hal_gpt_lld.h"
 3736              		.file 34 "ChibiOS/os/hal/include/hal_i2c.h"
 3737              		.file 35 "ChibiOS/os/hal/ports/STM32/LLD/I2Cv2/hal_i2c_lld.h"
 3738              		.file 36 "ChibiOS/os/hal/include/hal_i2s.h"
 3739              		.file 37 "ChibiOS/os/hal/ports/STM32/LLD/SPIv2/hal_i2s_lld.h"
 3740              		.file 38 "/opt/nanovna/gcc-arm-none-eabi-8-2018-q4-major/arm-none-eabi/include/time.h"
 3741              		.file 39 "ChibiOS/os/hal/include/hal_rtc.h"
 3742              		.file 40 "ChibiOS/os/hal/ports/STM32/LLD/RTCv2/hal_rtc_lld.h"
 3743              		.file 41 "ChibiOS/os/hal/include/hal_serial.h"
 3744              		.file 42 "ChibiOS/os/hal/ports/STM32/LLD/USARTv2/hal_serial_lld.h"
 3745              		.file 43 "ChibiOS/os/hal/include/hal_spi.h"
 3746              		.file 44 "ChibiOS/os/hal/ports/STM32/LLD/SPIv2/hal_spi_lld.h"
 3747              		.file 45 "ChibiOS/os/hal/include/hal_usb.h"
 3748              		.file 46 "ChibiOS/os/hal/ports/STM32/LLD/USBv1/hal_usb_lld.h"
 3749              		.file 47 "<built-in>"
 3750              		.section	.debug_info,"",%progbits
 3751              	.Ldebug_info0:
 3752 0000 21420000 		.4byte	0x4221
 3753 0004 0400     		.2byte	0x4
 3754 0006 00000000 		.4byte	.Ldebug_abbrev0
 3755 000a 04       		.byte	0x4
 3756 000b 01       		.uleb128 0x1
 3757 000c 23070000 		.4byte	.LASF576
 3758 0010 0C       		.byte	0xc
 3759 0011 B50C0000 		.4byte	.LASF577
 3760 0015 67060000 		.4byte	.LASF578
 3761 0019 18080000 		.4byte	.Ldebug_ranges0+0x818
 3762 001d 00000000 		.4byte	0
ARM GAS  /tmp/ccTxpxgR.s 			page 67


 3763 0021 00000000 		.4byte	.Ldebug_line0
 3764 0025 02       		.uleb128 0x2
 3765 0026 04       		.byte	0x4
 3766 0027 05       		.byte	0x5
 3767 0028 696E7400 		.ascii	"int\000"
 3768 002c 03       		.uleb128 0x3
 3769 002d 1B000000 		.4byte	.LASF4
 3770 0031 0B       		.byte	0xb
 3771 0032 D8       		.byte	0xd8
 3772 0033 17       		.byte	0x17
 3773 0034 3D000000 		.4byte	0x3d
 3774 0038 04       		.uleb128 0x4
 3775 0039 2C000000 		.4byte	0x2c
 3776 003d 05       		.uleb128 0x5
 3777 003e 04       		.byte	0x4
 3778 003f 07       		.byte	0x7
 3779 0040 180E0000 		.4byte	.LASF0
 3780 0044 05       		.uleb128 0x5
 3781 0045 08       		.byte	0x8
 3782 0046 05       		.byte	0x5
 3783 0047 3C0C0000 		.4byte	.LASF1
 3784 004b 05       		.uleb128 0x5
 3785 004c 08       		.byte	0x8
 3786 004d 04       		.byte	0x4
 3787 004e 4E100000 		.4byte	.LASF2
 3788 0052 05       		.uleb128 0x5
 3789 0053 01       		.byte	0x1
 3790 0054 06       		.byte	0x6
 3791 0055 3A040000 		.4byte	.LASF3
 3792 0059 03       		.uleb128 0x3
 3793 005a 9D020000 		.4byte	.LASF5
 3794 005e 0C       		.byte	0xc
 3795 005f 2B       		.byte	0x2b
 3796 0060 18       		.byte	0x18
 3797 0061 65000000 		.4byte	0x65
 3798 0065 05       		.uleb128 0x5
 3799 0066 01       		.byte	0x1
 3800 0067 08       		.byte	0x8
 3801 0068 A5040000 		.4byte	.LASF6
 3802 006c 03       		.uleb128 0x3
 3803 006d CF120000 		.4byte	.LASF7
 3804 0071 0C       		.byte	0xc
 3805 0072 37       		.byte	0x37
 3806 0073 18       		.byte	0x18
 3807 0074 78000000 		.4byte	0x78
 3808 0078 05       		.uleb128 0x5
 3809 0079 02       		.byte	0x2
 3810 007a 05       		.byte	0x5
 3811 007b 3B140000 		.4byte	.LASF8
 3812 007f 03       		.uleb128 0x3
 3813 0080 20060000 		.4byte	.LASF9
 3814 0084 0C       		.byte	0xc
 3815 0085 39       		.byte	0x39
 3816 0086 19       		.byte	0x19
 3817 0087 8B000000 		.4byte	0x8b
 3818 008b 05       		.uleb128 0x5
 3819 008c 02       		.byte	0x2
ARM GAS  /tmp/ccTxpxgR.s 			page 68


 3820 008d 07       		.byte	0x7
 3821 008e A0160000 		.4byte	.LASF10
 3822 0092 03       		.uleb128 0x3
 3823 0093 62170000 		.4byte	.LASF11
 3824 0097 0C       		.byte	0xc
 3825 0098 4D       		.byte	0x4d
 3826 0099 18       		.byte	0x18
 3827 009a 9E000000 		.4byte	0x9e
 3828 009e 05       		.uleb128 0x5
 3829 009f 04       		.byte	0x4
 3830 00a0 05       		.byte	0x5
 3831 00a1 15030000 		.4byte	.LASF12
 3832 00a5 03       		.uleb128 0x3
 3833 00a6 040C0000 		.4byte	.LASF13
 3834 00aa 0C       		.byte	0xc
 3835 00ab 4F       		.byte	0x4f
 3836 00ac 19       		.byte	0x19
 3837 00ad B1000000 		.4byte	0xb1
 3838 00b1 05       		.uleb128 0x5
 3839 00b2 04       		.byte	0x4
 3840 00b3 07       		.byte	0x7
 3841 00b4 C2090000 		.4byte	.LASF14
 3842 00b8 03       		.uleb128 0x3
 3843 00b9 7A090000 		.4byte	.LASF15
 3844 00bd 0C       		.byte	0xc
 3845 00be 69       		.byte	0x69
 3846 00bf 19       		.byte	0x19
 3847 00c0 C4000000 		.4byte	0xc4
 3848 00c4 05       		.uleb128 0x5
 3849 00c5 08       		.byte	0x8
 3850 00c6 07       		.byte	0x7
 3851 00c7 43110000 		.4byte	.LASF16
 3852 00cb 03       		.uleb128 0x3
 3853 00cc 52150000 		.4byte	.LASF17
 3854 00d0 0D       		.byte	0xd
 3855 00d1 22       		.byte	0x22
 3856 00d2 19       		.byte	0x19
 3857 00d3 D7000000 		.4byte	0xd7
 3858 00d7 06       		.uleb128 0x6
 3859 00d8 04       		.byte	0x4
 3860 00d9 DD000000 		.4byte	0xdd
 3861 00dd 07       		.uleb128 0x7
 3862 00de F1080000 		.4byte	.LASF122
 3863 00e2 03       		.uleb128 0x3
 3864 00e3 6D160000 		.4byte	.LASF18
 3865 00e7 0E       		.byte	0xe
 3866 00e8 2C       		.byte	0x2c
 3867 00e9 0E       		.byte	0xe
 3868 00ea 9E000000 		.4byte	0x9e
 3869 00ee 03       		.uleb128 0x3
 3870 00ef D5100000 		.4byte	.LASF19
 3871 00f3 0E       		.byte	0xe
 3872 00f4 72       		.byte	0x72
 3873 00f5 0E       		.byte	0xe
 3874 00f6 9E000000 		.4byte	0x9e
 3875 00fa 08       		.uleb128 0x8
 3876 00fb FB120000 		.4byte	.LASF20
ARM GAS  /tmp/ccTxpxgR.s 			page 69


 3877 00ff 0B       		.byte	0xb
 3878 0100 6501     		.2byte	0x165
 3879 0102 17       		.byte	0x17
 3880 0103 3D000000 		.4byte	0x3d
 3881 0107 09       		.uleb128 0x9
 3882 0108 04       		.byte	0x4
 3883 0109 0E       		.byte	0xe
 3884 010a A6       		.byte	0xa6
 3885 010b 03       		.byte	0x3
 3886 010c 29010000 		.4byte	0x129
 3887 0110 0A       		.uleb128 0xa
 3888 0111 78020000 		.4byte	.LASF21
 3889 0115 0E       		.byte	0xe
 3890 0116 A8       		.byte	0xa8
 3891 0117 0C       		.byte	0xc
 3892 0118 FA000000 		.4byte	0xfa
 3893 011c 0A       		.uleb128 0xa
 3894 011d DD100000 		.4byte	.LASF22
 3895 0121 0E       		.byte	0xe
 3896 0122 A9       		.byte	0xa9
 3897 0123 13       		.byte	0x13
 3898 0124 29010000 		.4byte	0x129
 3899 0128 00       		.byte	0
 3900 0129 0B       		.uleb128 0xb
 3901 012a 65000000 		.4byte	0x65
 3902 012e 39010000 		.4byte	0x139
 3903 0132 0C       		.uleb128 0xc
 3904 0133 3D000000 		.4byte	0x3d
 3905 0137 03       		.byte	0x3
 3906 0138 00       		.byte	0
 3907 0139 0D       		.uleb128 0xd
 3908 013a 08       		.byte	0x8
 3909 013b 0E       		.byte	0xe
 3910 013c A3       		.byte	0xa3
 3911 013d 09       		.byte	0x9
 3912 013e 5D010000 		.4byte	0x15d
 3913 0142 0E       		.uleb128 0xe
 3914 0143 F10F0000 		.4byte	.LASF23
 3915 0147 0E       		.byte	0xe
 3916 0148 A5       		.byte	0xa5
 3917 0149 07       		.byte	0x7
 3918 014a 25000000 		.4byte	0x25
 3919 014e 00       		.byte	0
 3920 014f 0E       		.uleb128 0xe
 3921 0150 3B000000 		.4byte	.LASF24
 3922 0154 0E       		.byte	0xe
 3923 0155 AA       		.byte	0xaa
 3924 0156 05       		.byte	0x5
 3925 0157 07010000 		.4byte	0x107
 3926 015b 04       		.byte	0x4
 3927 015c 00       		.byte	0
 3928 015d 03       		.uleb128 0x3
 3929 015e D9120000 		.4byte	.LASF25
 3930 0162 0E       		.byte	0xe
 3931 0163 AB       		.byte	0xab
 3932 0164 03       		.byte	0x3
 3933 0165 39010000 		.4byte	0x139
ARM GAS  /tmp/ccTxpxgR.s 			page 70


 3934 0169 03       		.uleb128 0x3
 3935 016a AC120000 		.4byte	.LASF26
 3936 016e 0E       		.byte	0xe
 3937 016f AF       		.byte	0xaf
 3938 0170 1B       		.byte	0x1b
 3939 0171 CB000000 		.4byte	0xcb
 3940 0175 0F       		.uleb128 0xf
 3941 0176 04       		.byte	0x4
 3942 0177 06       		.uleb128 0x6
 3943 0178 04       		.byte	0x4
 3944 0179 7D010000 		.4byte	0x17d
 3945 017d 05       		.uleb128 0x5
 3946 017e 01       		.byte	0x1
 3947 017f 08       		.byte	0x8
 3948 0180 CF050000 		.4byte	.LASF27
 3949 0184 10       		.uleb128 0x10
 3950 0185 7D010000 		.4byte	0x17d
 3951 0189 03       		.uleb128 0x3
 3952 018a D3150000 		.4byte	.LASF28
 3953 018e 0F       		.byte	0xf
 3954 018f 16       		.byte	0x16
 3955 0190 19       		.byte	0x19
 3956 0191 B1000000 		.4byte	0xb1
 3957 0195 11       		.uleb128 0x11
 3958 0196 520B0000 		.4byte	.LASF33
 3959 019a 18       		.byte	0x18
 3960 019b 0F       		.byte	0xf
 3961 019c 2F       		.byte	0x2f
 3962 019d 08       		.byte	0x8
 3963 019e EF010000 		.4byte	0x1ef
 3964 01a2 0E       		.uleb128 0xe
 3965 01a3 3F130000 		.4byte	.LASF29
 3966 01a7 0F       		.byte	0xf
 3967 01a8 31       		.byte	0x31
 3968 01a9 13       		.byte	0x13
 3969 01aa EF010000 		.4byte	0x1ef
 3970 01ae 00       		.byte	0
 3971 01af 12       		.uleb128 0x12
 3972 01b0 5F6B00   		.ascii	"_k\000"
 3973 01b3 0F       		.byte	0xf
 3974 01b4 32       		.byte	0x32
 3975 01b5 07       		.byte	0x7
 3976 01b6 25000000 		.4byte	0x25
 3977 01ba 04       		.byte	0x4
 3978 01bb 0E       		.uleb128 0xe
 3979 01bc 700B0000 		.4byte	.LASF30
 3980 01c0 0F       		.byte	0xf
 3981 01c1 32       		.byte	0x32
 3982 01c2 0B       		.byte	0xb
 3983 01c3 25000000 		.4byte	0x25
 3984 01c7 08       		.byte	0x8
 3985 01c8 0E       		.uleb128 0xe
 3986 01c9 620D0000 		.4byte	.LASF31
 3987 01cd 0F       		.byte	0xf
 3988 01ce 32       		.byte	0x32
 3989 01cf 14       		.byte	0x14
 3990 01d0 25000000 		.4byte	0x25
ARM GAS  /tmp/ccTxpxgR.s 			page 71


 3991 01d4 0C       		.byte	0xc
 3992 01d5 0E       		.uleb128 0xe
 3993 01d6 D3080000 		.4byte	.LASF32
 3994 01da 0F       		.byte	0xf
 3995 01db 32       		.byte	0x32
 3996 01dc 1B       		.byte	0x1b
 3997 01dd 25000000 		.4byte	0x25
 3998 01e1 10       		.byte	0x10
 3999 01e2 12       		.uleb128 0x12
 4000 01e3 5F7800   		.ascii	"_x\000"
 4001 01e6 0F       		.byte	0xf
 4002 01e7 33       		.byte	0x33
 4003 01e8 0B       		.byte	0xb
 4004 01e9 F5010000 		.4byte	0x1f5
 4005 01ed 14       		.byte	0x14
 4006 01ee 00       		.byte	0
 4007 01ef 06       		.uleb128 0x6
 4008 01f0 04       		.byte	0x4
 4009 01f1 95010000 		.4byte	0x195
 4010 01f5 0B       		.uleb128 0xb
 4011 01f6 89010000 		.4byte	0x189
 4012 01fa 05020000 		.4byte	0x205
 4013 01fe 0C       		.uleb128 0xc
 4014 01ff 3D000000 		.4byte	0x3d
 4015 0203 00       		.byte	0
 4016 0204 00       		.byte	0
 4017 0205 11       		.uleb128 0x11
 4018 0206 3B010000 		.4byte	.LASF34
 4019 020a 24       		.byte	0x24
 4020 020b 0F       		.byte	0xf
 4021 020c 37       		.byte	0x37
 4022 020d 08       		.byte	0x8
 4023 020e 88020000 		.4byte	0x288
 4024 0212 0E       		.uleb128 0xe
 4025 0213 57010000 		.4byte	.LASF35
 4026 0217 0F       		.byte	0xf
 4027 0218 39       		.byte	0x39
 4028 0219 09       		.byte	0x9
 4029 021a 25000000 		.4byte	0x25
 4030 021e 00       		.byte	0
 4031 021f 0E       		.uleb128 0xe
 4032 0220 05180000 		.4byte	.LASF36
 4033 0224 0F       		.byte	0xf
 4034 0225 3A       		.byte	0x3a
 4035 0226 09       		.byte	0x9
 4036 0227 25000000 		.4byte	0x25
 4037 022b 04       		.byte	0x4
 4038 022c 0E       		.uleb128 0xe
 4039 022d B3160000 		.4byte	.LASF37
 4040 0231 0F       		.byte	0xf
 4041 0232 3B       		.byte	0x3b
 4042 0233 09       		.byte	0x9
 4043 0234 25000000 		.4byte	0x25
 4044 0238 08       		.byte	0x8
 4045 0239 0E       		.uleb128 0xe
 4046 023a D90E0000 		.4byte	.LASF38
 4047 023e 0F       		.byte	0xf
ARM GAS  /tmp/ccTxpxgR.s 			page 72


 4048 023f 3C       		.byte	0x3c
 4049 0240 09       		.byte	0x9
 4050 0241 25000000 		.4byte	0x25
 4051 0245 0C       		.byte	0xc
 4052 0246 0E       		.uleb128 0xe
 4053 0247 CC030000 		.4byte	.LASF39
 4054 024b 0F       		.byte	0xf
 4055 024c 3D       		.byte	0x3d
 4056 024d 09       		.byte	0x9
 4057 024e 25000000 		.4byte	0x25
 4058 0252 10       		.byte	0x10
 4059 0253 0E       		.uleb128 0xe
 4060 0254 A6140000 		.4byte	.LASF40
 4061 0258 0F       		.byte	0xf
 4062 0259 3E       		.byte	0x3e
 4063 025a 09       		.byte	0x9
 4064 025b 25000000 		.4byte	0x25
 4065 025f 14       		.byte	0x14
 4066 0260 0E       		.uleb128 0xe
 4067 0261 18100000 		.4byte	.LASF41
 4068 0265 0F       		.byte	0xf
 4069 0266 3F       		.byte	0x3f
 4070 0267 09       		.byte	0x9
 4071 0268 25000000 		.4byte	0x25
 4072 026c 18       		.byte	0x18
 4073 026d 0E       		.uleb128 0xe
 4074 026e 6E100000 		.4byte	.LASF42
 4075 0272 0F       		.byte	0xf
 4076 0273 40       		.byte	0x40
 4077 0274 09       		.byte	0x9
 4078 0275 25000000 		.4byte	0x25
 4079 0279 1C       		.byte	0x1c
 4080 027a 0E       		.uleb128 0xe
 4081 027b C0170000 		.4byte	.LASF43
 4082 027f 0F       		.byte	0xf
 4083 0280 41       		.byte	0x41
 4084 0281 09       		.byte	0x9
 4085 0282 25000000 		.4byte	0x25
 4086 0286 20       		.byte	0x20
 4087 0287 00       		.byte	0
 4088 0288 13       		.uleb128 0x13
 4089 0289 B3020000 		.4byte	.LASF44
 4090 028d 0801     		.2byte	0x108
 4091 028f 0F       		.byte	0xf
 4092 0290 4A       		.byte	0x4a
 4093 0291 08       		.byte	0x8
 4094 0292 CD020000 		.4byte	0x2cd
 4095 0296 0E       		.uleb128 0xe
 4096 0297 B2170000 		.4byte	.LASF45
 4097 029b 0F       		.byte	0xf
 4098 029c 4B       		.byte	0x4b
 4099 029d 0A       		.byte	0xa
 4100 029e CD020000 		.4byte	0x2cd
 4101 02a2 00       		.byte	0
 4102 02a3 0E       		.uleb128 0xe
 4103 02a4 9A110000 		.4byte	.LASF46
 4104 02a8 0F       		.byte	0xf
ARM GAS  /tmp/ccTxpxgR.s 			page 73


 4105 02a9 4C       		.byte	0x4c
 4106 02aa 09       		.byte	0x9
 4107 02ab CD020000 		.4byte	0x2cd
 4108 02af 80       		.byte	0x80
 4109 02b0 14       		.uleb128 0x14
 4110 02b1 8D140000 		.4byte	.LASF47
 4111 02b5 0F       		.byte	0xf
 4112 02b6 4E       		.byte	0x4e
 4113 02b7 0A       		.byte	0xa
 4114 02b8 89010000 		.4byte	0x189
 4115 02bc 0001     		.2byte	0x100
 4116 02be 14       		.uleb128 0x14
 4117 02bf 4A150000 		.4byte	.LASF48
 4118 02c3 0F       		.byte	0xf
 4119 02c4 51       		.byte	0x51
 4120 02c5 0A       		.byte	0xa
 4121 02c6 89010000 		.4byte	0x189
 4122 02ca 0401     		.2byte	0x104
 4123 02cc 00       		.byte	0
 4124 02cd 0B       		.uleb128 0xb
 4125 02ce 75010000 		.4byte	0x175
 4126 02d2 DD020000 		.4byte	0x2dd
 4127 02d6 0C       		.uleb128 0xc
 4128 02d7 3D000000 		.4byte	0x3d
 4129 02db 1F       		.byte	0x1f
 4130 02dc 00       		.byte	0
 4131 02dd 11       		.uleb128 0x11
 4132 02de 8E0F0000 		.4byte	.LASF49
 4133 02e2 8C       		.byte	0x8c
 4134 02e3 0F       		.byte	0xf
 4135 02e4 55       		.byte	0x55
 4136 02e5 08       		.byte	0x8
 4137 02e6 1F030000 		.4byte	0x31f
 4138 02ea 0E       		.uleb128 0xe
 4139 02eb 3F130000 		.4byte	.LASF29
 4140 02ef 0F       		.byte	0xf
 4141 02f0 56       		.byte	0x56
 4142 02f1 12       		.byte	0x12
 4143 02f2 1F030000 		.4byte	0x31f
 4144 02f6 00       		.byte	0
 4145 02f7 0E       		.uleb128 0xe
 4146 02f8 36150000 		.4byte	.LASF50
 4147 02fc 0F       		.byte	0xf
 4148 02fd 57       		.byte	0x57
 4149 02fe 06       		.byte	0x6
 4150 02ff 25000000 		.4byte	0x25
 4151 0303 04       		.byte	0x4
 4152 0304 0E       		.uleb128 0xe
 4153 0305 D4050000 		.4byte	.LASF51
 4154 0309 0F       		.byte	0xf
 4155 030a 58       		.byte	0x58
 4156 030b 09       		.byte	0x9
 4157 030c 25030000 		.4byte	0x325
 4158 0310 08       		.byte	0x8
 4159 0311 0E       		.uleb128 0xe
 4160 0312 6A0C0000 		.4byte	.LASF52
 4161 0316 0F       		.byte	0xf
ARM GAS  /tmp/ccTxpxgR.s 			page 74


 4162 0317 59       		.byte	0x59
 4163 0318 20       		.byte	0x20
 4164 0319 3C030000 		.4byte	0x33c
 4165 031d 88       		.byte	0x88
 4166 031e 00       		.byte	0
 4167 031f 06       		.uleb128 0x6
 4168 0320 04       		.byte	0x4
 4169 0321 DD020000 		.4byte	0x2dd
 4170 0325 0B       		.uleb128 0xb
 4171 0326 35030000 		.4byte	0x335
 4172 032a 35030000 		.4byte	0x335
 4173 032e 0C       		.uleb128 0xc
 4174 032f 3D000000 		.4byte	0x3d
 4175 0333 1F       		.byte	0x1f
 4176 0334 00       		.byte	0
 4177 0335 06       		.uleb128 0x6
 4178 0336 04       		.byte	0x4
 4179 0337 3B030000 		.4byte	0x33b
 4180 033b 15       		.uleb128 0x15
 4181 033c 06       		.uleb128 0x6
 4182 033d 04       		.byte	0x4
 4183 033e 88020000 		.4byte	0x288
 4184 0342 11       		.uleb128 0x11
 4185 0343 43150000 		.4byte	.LASF53
 4186 0347 08       		.byte	0x8
 4187 0348 0F       		.byte	0xf
 4188 0349 75       		.byte	0x75
 4189 034a 08       		.byte	0x8
 4190 034b 6A030000 		.4byte	0x36a
 4191 034f 0E       		.uleb128 0xe
 4192 0350 28120000 		.4byte	.LASF54
 4193 0354 0F       		.byte	0xf
 4194 0355 76       		.byte	0x76
 4195 0356 11       		.byte	0x11
 4196 0357 6A030000 		.4byte	0x36a
 4197 035b 00       		.byte	0
 4198 035c 0E       		.uleb128 0xe
 4199 035d 53030000 		.4byte	.LASF55
 4200 0361 0F       		.byte	0xf
 4201 0362 77       		.byte	0x77
 4202 0363 06       		.byte	0x6
 4203 0364 25000000 		.4byte	0x25
 4204 0368 04       		.byte	0x4
 4205 0369 00       		.byte	0
 4206 036a 06       		.uleb128 0x6
 4207 036b 04       		.byte	0x4
 4208 036c 65000000 		.4byte	0x65
 4209 0370 11       		.uleb128 0x11
 4210 0371 BF080000 		.4byte	.LASF56
 4211 0375 20       		.byte	0x20
 4212 0376 0F       		.byte	0xf
 4213 0377 99       		.byte	0x99
 4214 0378 08       		.byte	0x8
 4215 0379 E3030000 		.4byte	0x3e3
 4216 037d 12       		.uleb128 0x12
 4217 037e 5F7000   		.ascii	"_p\000"
 4218 0381 0F       		.byte	0xf
ARM GAS  /tmp/ccTxpxgR.s 			page 75


 4219 0382 9A       		.byte	0x9a
 4220 0383 12       		.byte	0x12
 4221 0384 6A030000 		.4byte	0x36a
 4222 0388 00       		.byte	0
 4223 0389 12       		.uleb128 0x12
 4224 038a 5F7200   		.ascii	"_r\000"
 4225 038d 0F       		.byte	0xf
 4226 038e 9B       		.byte	0x9b
 4227 038f 07       		.byte	0x7
 4228 0390 25000000 		.4byte	0x25
 4229 0394 04       		.byte	0x4
 4230 0395 12       		.uleb128 0x12
 4231 0396 5F7700   		.ascii	"_w\000"
 4232 0399 0F       		.byte	0xf
 4233 039a 9C       		.byte	0x9c
 4234 039b 07       		.byte	0x7
 4235 039c 25000000 		.4byte	0x25
 4236 03a0 08       		.byte	0x8
 4237 03a1 0E       		.uleb128 0xe
 4238 03a2 5F0F0000 		.4byte	.LASF57
 4239 03a6 0F       		.byte	0xf
 4240 03a7 9D       		.byte	0x9d
 4241 03a8 09       		.byte	0x9
 4242 03a9 78000000 		.4byte	0x78
 4243 03ad 0C       		.byte	0xc
 4244 03ae 0E       		.uleb128 0xe
 4245 03af AD020000 		.4byte	.LASF58
 4246 03b3 0F       		.byte	0xf
 4247 03b4 9E       		.byte	0x9e
 4248 03b5 09       		.byte	0x9
 4249 03b6 78000000 		.4byte	0x78
 4250 03ba 0E       		.byte	0xe
 4251 03bb 12       		.uleb128 0x12
 4252 03bc 5F626600 		.ascii	"_bf\000"
 4253 03c0 0F       		.byte	0xf
 4254 03c1 9F       		.byte	0x9f
 4255 03c2 11       		.byte	0x11
 4256 03c3 42030000 		.4byte	0x342
 4257 03c7 10       		.byte	0x10
 4258 03c8 0E       		.uleb128 0xe
 4259 03c9 21150000 		.4byte	.LASF59
 4260 03cd 0F       		.byte	0xf
 4261 03ce A0       		.byte	0xa0
 4262 03cf 07       		.byte	0x7
 4263 03d0 25000000 		.4byte	0x25
 4264 03d4 18       		.byte	0x18
 4265 03d5 0E       		.uleb128 0xe
 4266 03d6 4B130000 		.4byte	.LASF60
 4267 03da 0F       		.byte	0xf
 4268 03db A2       		.byte	0xa2
 4269 03dc 12       		.byte	0x12
 4270 03dd 2B050000 		.4byte	0x52b
 4271 03e1 1C       		.byte	0x1c
 4272 03e2 00       		.byte	0
 4273 03e3 10       		.uleb128 0x10
 4274 03e4 70030000 		.4byte	0x370
 4275 03e8 16       		.uleb128 0x16
ARM GAS  /tmp/ccTxpxgR.s 			page 76


 4276 03e9 35050000 		.4byte	.LASF61
 4277 03ed 60       		.byte	0x60
 4278 03ee 0F       		.byte	0xf
 4279 03ef 7401     		.2byte	0x174
 4280 03f1 08       		.byte	0x8
 4281 03f2 2B050000 		.4byte	0x52b
 4282 03f6 17       		.uleb128 0x17
 4283 03f7 C20A0000 		.4byte	.LASF62
 4284 03fb 0F       		.byte	0xf
 4285 03fc 7801     		.2byte	0x178
 4286 03fe 07       		.byte	0x7
 4287 03ff 25000000 		.4byte	0x25
 4288 0403 00       		.byte	0
 4289 0404 17       		.uleb128 0x17
 4290 0405 41060000 		.4byte	.LASF63
 4291 0409 0F       		.byte	0xf
 4292 040a 7D01     		.2byte	0x17d
 4293 040c 0B       		.byte	0xb
 4294 040d 76070000 		.4byte	0x776
 4295 0411 04       		.byte	0x4
 4296 0412 17       		.uleb128 0x17
 4297 0413 E9110000 		.4byte	.LASF64
 4298 0417 0F       		.byte	0xf
 4299 0418 7D01     		.2byte	0x17d
 4300 041a 14       		.byte	0x14
 4301 041b 76070000 		.4byte	0x776
 4302 041f 08       		.byte	0x8
 4303 0420 17       		.uleb128 0x17
 4304 0421 0F0F0000 		.4byte	.LASF65
 4305 0425 0F       		.byte	0xf
 4306 0426 7D01     		.2byte	0x17d
 4307 0428 1E       		.byte	0x1e
 4308 0429 76070000 		.4byte	0x776
 4309 042d 0C       		.byte	0xc
 4310 042e 17       		.uleb128 0x17
 4311 042f 31150000 		.4byte	.LASF66
 4312 0433 0F       		.byte	0xf
 4313 0434 7F01     		.2byte	0x17f
 4314 0436 08       		.byte	0x8
 4315 0437 25000000 		.4byte	0x25
 4316 043b 10       		.byte	0x10
 4317 043c 17       		.uleb128 0x17
 4318 043d 0F0C0000 		.4byte	.LASF67
 4319 0441 0F       		.byte	0xf
 4320 0442 8101     		.2byte	0x181
 4321 0444 09       		.byte	0x9
 4322 0445 77010000 		.4byte	0x177
 4323 0449 14       		.byte	0x14
 4324 044a 17       		.uleb128 0x17
 4325 044b 170A0000 		.4byte	.LASF68
 4326 044f 0F       		.byte	0xf
 4327 0450 8301     		.2byte	0x183
 4328 0452 07       		.byte	0x7
 4329 0453 25000000 		.4byte	0x25
 4330 0457 18       		.byte	0x18
 4331 0458 17       		.uleb128 0x17
 4332 0459 0F050000 		.4byte	.LASF69
ARM GAS  /tmp/ccTxpxgR.s 			page 77


 4333 045d 0F       		.byte	0xf
 4334 045e 8501     		.2byte	0x185
 4335 0460 07       		.byte	0x7
 4336 0461 25000000 		.4byte	0x25
 4337 0465 1C       		.byte	0x1c
 4338 0466 17       		.uleb128 0x17
 4339 0467 CB150000 		.4byte	.LASF70
 4340 046b 0F       		.byte	0xf
 4341 046c 8601     		.2byte	0x186
 4342 046e 16       		.byte	0x16
 4343 046f DE080000 		.4byte	0x8de
 4344 0473 20       		.byte	0x20
 4345 0474 18       		.uleb128 0x18
 4346 0475 5F6D7000 		.ascii	"_mp\000"
 4347 0479 0F       		.byte	0xf
 4348 047a 8801     		.2byte	0x188
 4349 047c 12       		.byte	0x12
 4350 047d E4080000 		.4byte	0x8e4
 4351 0481 24       		.byte	0x24
 4352 0482 17       		.uleb128 0x17
 4353 0483 B30B0000 		.4byte	.LASF71
 4354 0487 0F       		.byte	0xf
 4355 0488 8A01     		.2byte	0x18a
 4356 048a 0A       		.byte	0xa
 4357 048b F5080000 		.4byte	0x8f5
 4358 048f 28       		.byte	0x28
 4359 0490 17       		.uleb128 0x17
 4360 0491 EE0C0000 		.4byte	.LASF72
 4361 0495 0F       		.byte	0xf
 4362 0496 8C01     		.2byte	0x18c
 4363 0498 07       		.byte	0x7
 4364 0499 25000000 		.4byte	0x25
 4365 049d 2C       		.byte	0x2c
 4366 049e 17       		.uleb128 0x17
 4367 049f D4000000 		.4byte	.LASF73
 4368 04a3 0F       		.byte	0xf
 4369 04a4 8F01     		.2byte	0x18f
 4370 04a6 07       		.byte	0x7
 4371 04a7 25000000 		.4byte	0x25
 4372 04ab 30       		.byte	0x30
 4373 04ac 17       		.uleb128 0x17
 4374 04ad 39090000 		.4byte	.LASF74
 4375 04b1 0F       		.byte	0xf
 4376 04b2 9001     		.2byte	0x190
 4377 04b4 09       		.byte	0x9
 4378 04b5 77010000 		.4byte	0x177
 4379 04b9 34       		.byte	0x34
 4380 04ba 17       		.uleb128 0x17
 4381 04bb E4120000 		.4byte	.LASF75
 4382 04bf 0F       		.byte	0xf
 4383 04c0 9201     		.2byte	0x192
 4384 04c2 13       		.byte	0x13
 4385 04c3 FB080000 		.4byte	0x8fb
 4386 04c7 38       		.byte	0x38
 4387 04c8 17       		.uleb128 0x17
 4388 04c9 5E030000 		.4byte	.LASF76
 4389 04cd 0F       		.byte	0xf
ARM GAS  /tmp/ccTxpxgR.s 			page 78


 4390 04ce 9301     		.2byte	0x193
 4391 04d0 10       		.byte	0x10
 4392 04d1 01090000 		.4byte	0x901
 4393 04d5 3C       		.byte	0x3c
 4394 04d6 17       		.uleb128 0x17
 4395 04d7 C7000000 		.4byte	.LASF77
 4396 04db 0F       		.byte	0xf
 4397 04dc 9401     		.2byte	0x194
 4398 04de 09       		.byte	0x9
 4399 04df 77010000 		.4byte	0x177
 4400 04e3 40       		.byte	0x40
 4401 04e4 17       		.uleb128 0x17
 4402 04e5 F8080000 		.4byte	.LASF78
 4403 04e9 0F       		.byte	0xf
 4404 04ea 9701     		.2byte	0x197
 4405 04ec 0C       		.byte	0xc
 4406 04ed 12090000 		.4byte	0x912
 4407 04f1 44       		.byte	0x44
 4408 04f2 17       		.uleb128 0x17
 4409 04f3 9E0C0000 		.4byte	.LASF79
 4410 04f7 0F       		.byte	0xf
 4411 04f8 9F01     		.2byte	0x19f
 4412 04fa 10       		.byte	0x10
 4413 04fb 37070000 		.4byte	0x737
 4414 04ff 48       		.byte	0x48
 4415 0500 17       		.uleb128 0x17
 4416 0501 63000000 		.4byte	.LASF80
 4417 0505 0F       		.byte	0xf
 4418 0506 A001     		.2byte	0x1a0
 4419 0508 0B       		.byte	0xb
 4420 0509 76070000 		.4byte	0x776
 4421 050d 54       		.byte	0x54
 4422 050e 17       		.uleb128 0x17
 4423 050f BB150000 		.4byte	.LASF81
 4424 0513 0F       		.byte	0xf
 4425 0514 A101     		.2byte	0x1a1
 4426 0516 17       		.byte	0x17
 4427 0517 1E090000 		.4byte	0x91e
 4428 051b 58       		.byte	0x58
 4429 051c 17       		.uleb128 0x17
 4430 051d 000B0000 		.4byte	.LASF82
 4431 0521 0F       		.byte	0xf
 4432 0522 A201     		.2byte	0x1a2
 4433 0524 09       		.byte	0x9
 4434 0525 77010000 		.4byte	0x177
 4435 0529 5C       		.byte	0x5c
 4436 052a 00       		.byte	0
 4437 052b 06       		.uleb128 0x6
 4438 052c 04       		.byte	0x4
 4439 052d E8030000 		.4byte	0x3e8
 4440 0531 10       		.uleb128 0x10
 4441 0532 2B050000 		.4byte	0x52b
 4442 0536 11       		.uleb128 0x11
 4443 0537 0F0A0000 		.4byte	.LASF83
 4444 053b 68       		.byte	0x68
 4445 053c 0F       		.byte	0xf
 4446 053d B5       		.byte	0xb5
ARM GAS  /tmp/ccTxpxgR.s 			page 79


 4447 053e 08       		.byte	0x8
 4448 053f 79060000 		.4byte	0x679
 4449 0543 12       		.uleb128 0x12
 4450 0544 5F7000   		.ascii	"_p\000"
 4451 0547 0F       		.byte	0xf
 4452 0548 B6       		.byte	0xb6
 4453 0549 12       		.byte	0x12
 4454 054a 6A030000 		.4byte	0x36a
 4455 054e 00       		.byte	0
 4456 054f 12       		.uleb128 0x12
 4457 0550 5F7200   		.ascii	"_r\000"
 4458 0553 0F       		.byte	0xf
 4459 0554 B7       		.byte	0xb7
 4460 0555 07       		.byte	0x7
 4461 0556 25000000 		.4byte	0x25
 4462 055a 04       		.byte	0x4
 4463 055b 12       		.uleb128 0x12
 4464 055c 5F7700   		.ascii	"_w\000"
 4465 055f 0F       		.byte	0xf
 4466 0560 B8       		.byte	0xb8
 4467 0561 07       		.byte	0x7
 4468 0562 25000000 		.4byte	0x25
 4469 0566 08       		.byte	0x8
 4470 0567 0E       		.uleb128 0xe
 4471 0568 5F0F0000 		.4byte	.LASF57
 4472 056c 0F       		.byte	0xf
 4473 056d B9       		.byte	0xb9
 4474 056e 09       		.byte	0x9
 4475 056f 78000000 		.4byte	0x78
 4476 0573 0C       		.byte	0xc
 4477 0574 0E       		.uleb128 0xe
 4478 0575 AD020000 		.4byte	.LASF58
 4479 0579 0F       		.byte	0xf
 4480 057a BA       		.byte	0xba
 4481 057b 09       		.byte	0x9
 4482 057c 78000000 		.4byte	0x78
 4483 0580 0E       		.byte	0xe
 4484 0581 12       		.uleb128 0x12
 4485 0582 5F626600 		.ascii	"_bf\000"
 4486 0586 0F       		.byte	0xf
 4487 0587 BB       		.byte	0xbb
 4488 0588 11       		.byte	0x11
 4489 0589 42030000 		.4byte	0x342
 4490 058d 10       		.byte	0x10
 4491 058e 0E       		.uleb128 0xe
 4492 058f 21150000 		.4byte	.LASF59
 4493 0593 0F       		.byte	0xf
 4494 0594 BC       		.byte	0xbc
 4495 0595 07       		.byte	0x7
 4496 0596 25000000 		.4byte	0x25
 4497 059a 18       		.byte	0x18
 4498 059b 0E       		.uleb128 0xe
 4499 059c 4B130000 		.4byte	.LASF60
 4500 05a0 0F       		.byte	0xf
 4501 05a1 BF       		.byte	0xbf
 4502 05a2 12       		.byte	0x12
 4503 05a3 2B050000 		.4byte	0x52b
ARM GAS  /tmp/ccTxpxgR.s 			page 80


 4504 05a7 1C       		.byte	0x1c
 4505 05a8 0E       		.uleb128 0xe
 4506 05a9 B1080000 		.4byte	.LASF84
 4507 05ad 0F       		.byte	0xf
 4508 05ae C3       		.byte	0xc3
 4509 05af 0A       		.byte	0xa
 4510 05b0 75010000 		.4byte	0x175
 4511 05b4 20       		.byte	0x20
 4512 05b5 0E       		.uleb128 0xe
 4513 05b6 76000000 		.4byte	.LASF85
 4514 05ba 0F       		.byte	0xf
 4515 05bb C5       		.byte	0xc5
 4516 05bc 1D       		.byte	0x1d
 4517 05bd 97060000 		.4byte	0x697
 4518 05c1 24       		.byte	0x24
 4519 05c2 0E       		.uleb128 0xe
 4520 05c3 A0000000 		.4byte	.LASF86
 4521 05c7 0F       		.byte	0xf
 4522 05c8 C7       		.byte	0xc7
 4523 05c9 1D       		.byte	0x1d
 4524 05ca C6060000 		.4byte	0x6c6
 4525 05ce 28       		.byte	0x28
 4526 05cf 0E       		.uleb128 0xe
 4527 05d0 BF100000 		.4byte	.LASF87
 4528 05d4 0F       		.byte	0xf
 4529 05d5 CA       		.byte	0xca
 4530 05d6 0D       		.byte	0xd
 4531 05d7 EA060000 		.4byte	0x6ea
 4532 05db 2C       		.byte	0x2c
 4533 05dc 0E       		.uleb128 0xe
 4534 05dd EB050000 		.4byte	.LASF88
 4535 05e1 0F       		.byte	0xf
 4536 05e2 CB       		.byte	0xcb
 4537 05e3 09       		.byte	0x9
 4538 05e4 04070000 		.4byte	0x704
 4539 05e8 30       		.byte	0x30
 4540 05e9 12       		.uleb128 0x12
 4541 05ea 5F756200 		.ascii	"_ub\000"
 4542 05ee 0F       		.byte	0xf
 4543 05ef CE       		.byte	0xce
 4544 05f0 11       		.byte	0x11
 4545 05f1 42030000 		.4byte	0x342
 4546 05f5 34       		.byte	0x34
 4547 05f6 12       		.uleb128 0x12
 4548 05f7 5F757000 		.ascii	"_up\000"
 4549 05fb 0F       		.byte	0xf
 4550 05fc CF       		.byte	0xcf
 4551 05fd 12       		.byte	0x12
 4552 05fe 6A030000 		.4byte	0x36a
 4553 0602 3C       		.byte	0x3c
 4554 0603 12       		.uleb128 0x12
 4555 0604 5F757200 		.ascii	"_ur\000"
 4556 0608 0F       		.byte	0xf
 4557 0609 D0       		.byte	0xd0
 4558 060a 07       		.byte	0x7
 4559 060b 25000000 		.4byte	0x25
 4560 060f 40       		.byte	0x40
ARM GAS  /tmp/ccTxpxgR.s 			page 81


 4561 0610 0E       		.uleb128 0xe
 4562 0611 040F0000 		.4byte	.LASF89
 4563 0615 0F       		.byte	0xf
 4564 0616 D3       		.byte	0xd3
 4565 0617 11       		.byte	0x11
 4566 0618 0A070000 		.4byte	0x70a
 4567 061c 44       		.byte	0x44
 4568 061d 0E       		.uleb128 0xe
 4569 061e 51010000 		.4byte	.LASF90
 4570 0622 0F       		.byte	0xf
 4571 0623 D4       		.byte	0xd4
 4572 0624 11       		.byte	0x11
 4573 0625 1A070000 		.4byte	0x71a
 4574 0629 47       		.byte	0x47
 4575 062a 12       		.uleb128 0x12
 4576 062b 5F6C6200 		.ascii	"_lb\000"
 4577 062f 0F       		.byte	0xf
 4578 0630 D7       		.byte	0xd7
 4579 0631 11       		.byte	0x11
 4580 0632 42030000 		.4byte	0x342
 4581 0636 48       		.byte	0x48
 4582 0637 0E       		.uleb128 0xe
 4583 0638 10120000 		.4byte	.LASF91
 4584 063c 0F       		.byte	0xf
 4585 063d DA       		.byte	0xda
 4586 063e 07       		.byte	0x7
 4587 063f 25000000 		.4byte	0x25
 4588 0643 50       		.byte	0x50
 4589 0644 0E       		.uleb128 0xe
 4590 0645 24090000 		.4byte	.LASF92
 4591 0649 0F       		.byte	0xf
 4592 064a DB       		.byte	0xdb
 4593 064b 0A       		.byte	0xa
 4594 064c E2000000 		.4byte	0xe2
 4595 0650 54       		.byte	0x54
 4596 0651 0E       		.uleb128 0xe
 4597 0652 BD010000 		.4byte	.LASF93
 4598 0656 0F       		.byte	0xf
 4599 0657 E2       		.byte	0xe2
 4600 0658 0C       		.byte	0xc
 4601 0659 69010000 		.4byte	0x169
 4602 065d 58       		.byte	0x58
 4603 065e 0E       		.uleb128 0xe
 4604 065f 3C0F0000 		.4byte	.LASF94
 4605 0663 0F       		.byte	0xf
 4606 0664 E4       		.byte	0xe4
 4607 0665 0E       		.byte	0xe
 4608 0666 5D010000 		.4byte	0x15d
 4609 066a 5C       		.byte	0x5c
 4610 066b 0E       		.uleb128 0xe
 4611 066c 220A0000 		.4byte	.LASF95
 4612 0670 0F       		.byte	0xf
 4613 0671 E5       		.byte	0xe5
 4614 0672 09       		.byte	0x9
 4615 0673 25000000 		.4byte	0x25
 4616 0677 64       		.byte	0x64
 4617 0678 00       		.byte	0
ARM GAS  /tmp/ccTxpxgR.s 			page 82


 4618 0679 19       		.uleb128 0x19
 4619 067a 25000000 		.4byte	0x25
 4620 067e 97060000 		.4byte	0x697
 4621 0682 1A       		.uleb128 0x1a
 4622 0683 2B050000 		.4byte	0x52b
 4623 0687 1A       		.uleb128 0x1a
 4624 0688 75010000 		.4byte	0x175
 4625 068c 1A       		.uleb128 0x1a
 4626 068d 77010000 		.4byte	0x177
 4627 0691 1A       		.uleb128 0x1a
 4628 0692 25000000 		.4byte	0x25
 4629 0696 00       		.byte	0
 4630 0697 06       		.uleb128 0x6
 4631 0698 04       		.byte	0x4
 4632 0699 79060000 		.4byte	0x679
 4633 069d 19       		.uleb128 0x19
 4634 069e 25000000 		.4byte	0x25
 4635 06a2 BB060000 		.4byte	0x6bb
 4636 06a6 1A       		.uleb128 0x1a
 4637 06a7 2B050000 		.4byte	0x52b
 4638 06ab 1A       		.uleb128 0x1a
 4639 06ac 75010000 		.4byte	0x175
 4640 06b0 1A       		.uleb128 0x1a
 4641 06b1 BB060000 		.4byte	0x6bb
 4642 06b5 1A       		.uleb128 0x1a
 4643 06b6 25000000 		.4byte	0x25
 4644 06ba 00       		.byte	0
 4645 06bb 06       		.uleb128 0x6
 4646 06bc 04       		.byte	0x4
 4647 06bd 84010000 		.4byte	0x184
 4648 06c1 04       		.uleb128 0x4
 4649 06c2 BB060000 		.4byte	0x6bb
 4650 06c6 06       		.uleb128 0x6
 4651 06c7 04       		.byte	0x4
 4652 06c8 9D060000 		.4byte	0x69d
 4653 06cc 19       		.uleb128 0x19
 4654 06cd EE000000 		.4byte	0xee
 4655 06d1 EA060000 		.4byte	0x6ea
 4656 06d5 1A       		.uleb128 0x1a
 4657 06d6 2B050000 		.4byte	0x52b
 4658 06da 1A       		.uleb128 0x1a
 4659 06db 75010000 		.4byte	0x175
 4660 06df 1A       		.uleb128 0x1a
 4661 06e0 EE000000 		.4byte	0xee
 4662 06e4 1A       		.uleb128 0x1a
 4663 06e5 25000000 		.4byte	0x25
 4664 06e9 00       		.byte	0
 4665 06ea 06       		.uleb128 0x6
 4666 06eb 04       		.byte	0x4
 4667 06ec CC060000 		.4byte	0x6cc
 4668 06f0 19       		.uleb128 0x19
 4669 06f1 25000000 		.4byte	0x25
 4670 06f5 04070000 		.4byte	0x704
 4671 06f9 1A       		.uleb128 0x1a
 4672 06fa 2B050000 		.4byte	0x52b
 4673 06fe 1A       		.uleb128 0x1a
 4674 06ff 75010000 		.4byte	0x175
ARM GAS  /tmp/ccTxpxgR.s 			page 83


 4675 0703 00       		.byte	0
 4676 0704 06       		.uleb128 0x6
 4677 0705 04       		.byte	0x4
 4678 0706 F0060000 		.4byte	0x6f0
 4679 070a 0B       		.uleb128 0xb
 4680 070b 65000000 		.4byte	0x65
 4681 070f 1A070000 		.4byte	0x71a
 4682 0713 0C       		.uleb128 0xc
 4683 0714 3D000000 		.4byte	0x3d
 4684 0718 02       		.byte	0x2
 4685 0719 00       		.byte	0
 4686 071a 0B       		.uleb128 0xb
 4687 071b 65000000 		.4byte	0x65
 4688 071f 2A070000 		.4byte	0x72a
 4689 0723 0C       		.uleb128 0xc
 4690 0724 3D000000 		.4byte	0x3d
 4691 0728 00       		.byte	0
 4692 0729 00       		.byte	0
 4693 072a 08       		.uleb128 0x8
 4694 072b C8120000 		.4byte	.LASF96
 4695 072f 0F       		.byte	0xf
 4696 0730 1F01     		.2byte	0x11f
 4697 0732 1A       		.byte	0x1a
 4698 0733 36050000 		.4byte	0x536
 4699 0737 16       		.uleb128 0x16
 4700 0738 570D0000 		.4byte	.LASF97
 4701 073c 0C       		.byte	0xc
 4702 073d 0F       		.byte	0xf
 4703 073e 2301     		.2byte	0x123
 4704 0740 08       		.byte	0x8
 4705 0741 70070000 		.4byte	0x770
 4706 0745 17       		.uleb128 0x17
 4707 0746 3F130000 		.4byte	.LASF29
 4708 074a 0F       		.byte	0xf
 4709 074b 2501     		.2byte	0x125
 4710 074d 11       		.byte	0x11
 4711 074e 70070000 		.4byte	0x770
 4712 0752 00       		.byte	0
 4713 0753 17       		.uleb128 0x17
 4714 0754 8C0C0000 		.4byte	.LASF98
 4715 0758 0F       		.byte	0xf
 4716 0759 2601     		.2byte	0x126
 4717 075b 07       		.byte	0x7
 4718 075c 25000000 		.4byte	0x25
 4719 0760 04       		.byte	0x4
 4720 0761 17       		.uleb128 0x17
 4721 0762 400D0000 		.4byte	.LASF99
 4722 0766 0F       		.byte	0xf
 4723 0767 2701     		.2byte	0x127
 4724 0769 0B       		.byte	0xb
 4725 076a 76070000 		.4byte	0x776
 4726 076e 08       		.byte	0x8
 4727 076f 00       		.byte	0
 4728 0770 06       		.uleb128 0x6
 4729 0771 04       		.byte	0x4
 4730 0772 37070000 		.4byte	0x737
 4731 0776 06       		.uleb128 0x6
ARM GAS  /tmp/ccTxpxgR.s 			page 84


 4732 0777 04       		.byte	0x4
 4733 0778 2A070000 		.4byte	0x72a
 4734 077c 16       		.uleb128 0x16
 4735 077d CF110000 		.4byte	.LASF100
 4736 0781 18       		.byte	0x18
 4737 0782 0F       		.byte	0xf
 4738 0783 3F01     		.2byte	0x13f
 4739 0785 08       		.byte	0x8
 4740 0786 C3070000 		.4byte	0x7c3
 4741 078a 17       		.uleb128 0x17
 4742 078b B9100000 		.4byte	.LASF101
 4743 078f 0F       		.byte	0xf
 4744 0790 4001     		.2byte	0x140
 4745 0792 12       		.byte	0x12
 4746 0793 C3070000 		.4byte	0x7c3
 4747 0797 00       		.byte	0
 4748 0798 17       		.uleb128 0x17
 4749 0799 E3010000 		.4byte	.LASF102
 4750 079d 0F       		.byte	0xf
 4751 079e 4101     		.2byte	0x141
 4752 07a0 12       		.byte	0x12
 4753 07a1 C3070000 		.4byte	0x7c3
 4754 07a5 06       		.byte	0x6
 4755 07a6 17       		.uleb128 0x17
 4756 07a7 8A160000 		.4byte	.LASF103
 4757 07ab 0F       		.byte	0xf
 4758 07ac 4201     		.2byte	0x142
 4759 07ae 12       		.byte	0x12
 4760 07af 8B000000 		.4byte	0x8b
 4761 07b3 0C       		.byte	0xc
 4762 07b4 17       		.uleb128 0x17
 4763 07b5 4D0F0000 		.4byte	.LASF104
 4764 07b9 0F       		.byte	0xf
 4765 07ba 4501     		.2byte	0x145
 4766 07bc 24       		.byte	0x24
 4767 07bd C4000000 		.4byte	0xc4
 4768 07c1 10       		.byte	0x10
 4769 07c2 00       		.byte	0
 4770 07c3 0B       		.uleb128 0xb
 4771 07c4 8B000000 		.4byte	0x8b
 4772 07c8 D3070000 		.4byte	0x7d3
 4773 07cc 0C       		.uleb128 0xc
 4774 07cd 3D000000 		.4byte	0x3d
 4775 07d1 02       		.byte	0x2
 4776 07d2 00       		.byte	0
 4777 07d3 16       		.uleb128 0x16
 4778 07d4 AD150000 		.4byte	.LASF105
 4779 07d8 10       		.byte	0x10
 4780 07d9 0F       		.byte	0xf
 4781 07da 5801     		.2byte	0x158
 4782 07dc 08       		.byte	0x8
 4783 07dd 1A080000 		.4byte	0x81a
 4784 07e1 17       		.uleb128 0x17
 4785 07e2 1D160000 		.4byte	.LASF106
 4786 07e6 0F       		.byte	0xf
 4787 07e7 5B01     		.2byte	0x15b
 4788 07e9 13       		.byte	0x13
ARM GAS  /tmp/ccTxpxgR.s 			page 85


 4789 07ea EF010000 		.4byte	0x1ef
 4790 07ee 00       		.byte	0
 4791 07ef 17       		.uleb128 0x17
 4792 07f0 49030000 		.4byte	.LASF107
 4793 07f4 0F       		.byte	0xf
 4794 07f5 5C01     		.2byte	0x15c
 4795 07f7 07       		.byte	0x7
 4796 07f8 25000000 		.4byte	0x25
 4797 07fc 04       		.byte	0x4
 4798 07fd 17       		.uleb128 0x17
 4799 07fe BD090000 		.4byte	.LASF108
 4800 0802 0F       		.byte	0xf
 4801 0803 5D01     		.2byte	0x15d
 4802 0805 13       		.byte	0x13
 4803 0806 EF010000 		.4byte	0x1ef
 4804 080a 08       		.byte	0x8
 4805 080b 17       		.uleb128 0x17
 4806 080c 260D0000 		.4byte	.LASF109
 4807 0810 0F       		.byte	0xf
 4808 0811 5E01     		.2byte	0x15e
 4809 0813 14       		.byte	0x14
 4810 0814 1A080000 		.4byte	0x81a
 4811 0818 0C       		.byte	0xc
 4812 0819 00       		.byte	0
 4813 081a 06       		.uleb128 0x6
 4814 081b 04       		.byte	0x4
 4815 081c EF010000 		.4byte	0x1ef
 4816 0820 16       		.uleb128 0x16
 4817 0821 F3030000 		.4byte	.LASF110
 4818 0825 50       		.byte	0x50
 4819 0826 0F       		.byte	0xf
 4820 0827 6201     		.2byte	0x162
 4821 0829 08       		.byte	0x8
 4822 082a C9080000 		.4byte	0x8c9
 4823 082e 17       		.uleb128 0x17
 4824 082f 3B120000 		.4byte	.LASF111
 4825 0833 0F       		.byte	0xf
 4826 0834 6501     		.2byte	0x165
 4827 0836 09       		.byte	0x9
 4828 0837 77010000 		.4byte	0x177
 4829 083b 00       		.byte	0
 4830 083c 17       		.uleb128 0x17
 4831 083d 19140000 		.4byte	.LASF112
 4832 0841 0F       		.byte	0xf
 4833 0842 6601     		.2byte	0x166
 4834 0844 0E       		.byte	0xe
 4835 0845 5D010000 		.4byte	0x15d
 4836 0849 04       		.byte	0x4
 4837 084a 17       		.uleb128 0x17
 4838 084b 2E0F0000 		.4byte	.LASF113
 4839 084f 0F       		.byte	0xf
 4840 0850 6701     		.2byte	0x167
 4841 0852 0E       		.byte	0xe
 4842 0853 5D010000 		.4byte	0x15d
 4843 0857 0C       		.byte	0xc
 4844 0858 17       		.uleb128 0x17
 4845 0859 0E110000 		.4byte	.LASF114
ARM GAS  /tmp/ccTxpxgR.s 			page 86


 4846 085d 0F       		.byte	0xf
 4847 085e 6801     		.2byte	0x168
 4848 0860 0E       		.byte	0xe
 4849 0861 5D010000 		.4byte	0x15d
 4850 0865 14       		.byte	0x14
 4851 0866 17       		.uleb128 0x17
 4852 0867 60010000 		.4byte	.LASF115
 4853 086b 0F       		.byte	0xf
 4854 086c 6901     		.2byte	0x169
 4855 086e 08       		.byte	0x8
 4856 086f C9080000 		.4byte	0x8c9
 4857 0873 1C       		.byte	0x1c
 4858 0874 17       		.uleb128 0x17
 4859 0875 22180000 		.4byte	.LASF116
 4860 0879 0F       		.byte	0xf
 4861 087a 6A01     		.2byte	0x16a
 4862 087c 07       		.byte	0x7
 4863 087d 25000000 		.4byte	0x25
 4864 0881 24       		.byte	0x24
 4865 0882 17       		.uleb128 0x17
 4866 0883 07030000 		.4byte	.LASF117
 4867 0887 0F       		.byte	0xf
 4868 0888 6B01     		.2byte	0x16b
 4869 088a 0E       		.byte	0xe
 4870 088b 5D010000 		.4byte	0x15d
 4871 088f 28       		.byte	0x28
 4872 0890 17       		.uleb128 0x17
 4873 0891 5A120000 		.4byte	.LASF118
 4874 0895 0F       		.byte	0xf
 4875 0896 6C01     		.2byte	0x16c
 4876 0898 0E       		.byte	0xe
 4877 0899 5D010000 		.4byte	0x15d
 4878 089d 30       		.byte	0x30
 4879 089e 17       		.uleb128 0x17
 4880 089f 2B170000 		.4byte	.LASF119
 4881 08a3 0F       		.byte	0xf
 4882 08a4 6D01     		.2byte	0x16d
 4883 08a6 0E       		.byte	0xe
 4884 08a7 5D010000 		.4byte	0x15d
 4885 08ab 38       		.byte	0x38
 4886 08ac 17       		.uleb128 0x17
 4887 08ad B80E0000 		.4byte	.LASF120
 4888 08b1 0F       		.byte	0xf
 4889 08b2 6E01     		.2byte	0x16e
 4890 08b4 0E       		.byte	0xe
 4891 08b5 5D010000 		.4byte	0x15d
 4892 08b9 40       		.byte	0x40
 4893 08ba 17       		.uleb128 0x17
 4894 08bb 40010000 		.4byte	.LASF121
 4895 08bf 0F       		.byte	0xf
 4896 08c0 6F01     		.2byte	0x16f
 4897 08c2 0E       		.byte	0xe
 4898 08c3 5D010000 		.4byte	0x15d
 4899 08c7 48       		.byte	0x48
 4900 08c8 00       		.byte	0
 4901 08c9 0B       		.uleb128 0xb
 4902 08ca 7D010000 		.4byte	0x17d
ARM GAS  /tmp/ccTxpxgR.s 			page 87


 4903 08ce D9080000 		.4byte	0x8d9
 4904 08d2 0C       		.uleb128 0xc
 4905 08d3 3D000000 		.4byte	0x3d
 4906 08d7 07       		.byte	0x7
 4907 08d8 00       		.byte	0
 4908 08d9 07       		.uleb128 0x7
 4909 08da 2B000000 		.4byte	.LASF123
 4910 08de 06       		.uleb128 0x6
 4911 08df 04       		.byte	0x4
 4912 08e0 D9080000 		.4byte	0x8d9
 4913 08e4 06       		.uleb128 0x6
 4914 08e5 04       		.byte	0x4
 4915 08e6 D3070000 		.4byte	0x7d3
 4916 08ea 1B       		.uleb128 0x1b
 4917 08eb F5080000 		.4byte	0x8f5
 4918 08ef 1A       		.uleb128 0x1a
 4919 08f0 2B050000 		.4byte	0x52b
 4920 08f4 00       		.byte	0
 4921 08f5 06       		.uleb128 0x6
 4922 08f6 04       		.byte	0x4
 4923 08f7 EA080000 		.4byte	0x8ea
 4924 08fb 06       		.uleb128 0x6
 4925 08fc 04       		.byte	0x4
 4926 08fd 7C070000 		.4byte	0x77c
 4927 0901 06       		.uleb128 0x6
 4928 0902 04       		.byte	0x4
 4929 0903 05020000 		.4byte	0x205
 4930 0907 1B       		.uleb128 0x1b
 4931 0908 12090000 		.4byte	0x912
 4932 090c 1A       		.uleb128 0x1a
 4933 090d 25000000 		.4byte	0x25
 4934 0911 00       		.byte	0
 4935 0912 06       		.uleb128 0x6
 4936 0913 04       		.byte	0x4
 4937 0914 18090000 		.4byte	0x918
 4938 0918 06       		.uleb128 0x6
 4939 0919 04       		.byte	0x4
 4940 091a 07090000 		.4byte	0x907
 4941 091e 06       		.uleb128 0x6
 4942 091f 04       		.byte	0x4
 4943 0920 20080000 		.4byte	0x820
 4944 0924 1C       		.uleb128 0x1c
 4945 0925 5A040000 		.4byte	.LASF124
 4946 0929 0F       		.byte	0xf
 4947 092a CA01     		.2byte	0x1ca
 4948 092c 22       		.byte	0x22
 4949 092d E3030000 		.4byte	0x3e3
 4950 0931 1C       		.uleb128 0x1c
 4951 0932 E40D0000 		.4byte	.LASF125
 4952 0936 0F       		.byte	0xf
 4953 0937 CB01     		.2byte	0x1cb
 4954 0939 22       		.byte	0x22
 4955 093a E3030000 		.4byte	0x3e3
 4956 093e 1C       		.uleb128 0x1c
 4957 093f 9E0A0000 		.4byte	.LASF126
 4958 0943 0F       		.byte	0xf
 4959 0944 CC01     		.2byte	0x1cc
ARM GAS  /tmp/ccTxpxgR.s 			page 88


 4960 0946 22       		.byte	0x22
 4961 0947 E3030000 		.4byte	0x3e3
 4962 094b 1C       		.uleb128 0x1c
 4963 094c 35030000 		.4byte	.LASF127
 4964 0950 0F       		.byte	0xf
 4965 0951 2E03     		.2byte	0x32e
 4966 0953 17       		.byte	0x17
 4967 0954 2B050000 		.4byte	0x52b
 4968 0958 1C       		.uleb128 0x1c
 4969 0959 3C050000 		.4byte	.LASF128
 4970 095d 0F       		.byte	0xf
 4971 095e 2F03     		.2byte	0x32f
 4972 0960 1D       		.byte	0x1d
 4973 0961 31050000 		.4byte	0x531
 4974 0965 1C       		.uleb128 0x1c
 4975 0966 F5000000 		.4byte	.LASF129
 4976 096a 0F       		.byte	0xf
 4977 096b 4103     		.2byte	0x341
 4978 096d 18       		.byte	0x18
 4979 096e 1F030000 		.4byte	0x31f
 4980 0972 03       		.uleb128 0x3
 4981 0973 4D040000 		.4byte	.LASF130
 4982 0977 10       		.byte	0x10
 4983 0978 18       		.byte	0x18
 4984 0979 13       		.byte	0x13
 4985 097a 59000000 		.4byte	0x59
 4986 097e 10       		.uleb128 0x10
 4987 097f 72090000 		.4byte	0x972
 4988 0983 03       		.uleb128 0x3
 4989 0984 7E140000 		.4byte	.LASF131
 4990 0988 10       		.byte	0x10
 4991 0989 20       		.byte	0x20
 4992 098a 13       		.byte	0x13
 4993 098b 6C000000 		.4byte	0x6c
 4994 098f 03       		.uleb128 0x3
 4995 0990 88110000 		.4byte	.LASF132
 4996 0994 10       		.byte	0x10
 4997 0995 24       		.byte	0x24
 4998 0996 14       		.byte	0x14
 4999 0997 7F000000 		.4byte	0x7f
 5000 099b 04       		.uleb128 0x4
 5001 099c 8F090000 		.4byte	0x98f
 5002 09a0 03       		.uleb128 0x3
 5003 09a1 A7000000 		.4byte	.LASF133
 5004 09a5 10       		.byte	0x10
 5005 09a6 2C       		.byte	0x2c
 5006 09a7 13       		.byte	0x13
 5007 09a8 92000000 		.4byte	0x92
 5008 09ac 03       		.uleb128 0x3
 5009 09ad 06160000 		.4byte	.LASF134
 5010 09b1 10       		.byte	0x10
 5011 09b2 30       		.byte	0x30
 5012 09b3 14       		.byte	0x14
 5013 09b4 A5000000 		.4byte	0xa5
 5014 09b8 04       		.uleb128 0x4
 5015 09b9 AC090000 		.4byte	0x9ac
 5016 09bd 03       		.uleb128 0x3
ARM GAS  /tmp/ccTxpxgR.s 			page 89


 5017 09be 52140000 		.4byte	.LASF135
 5018 09c2 10       		.byte	0x10
 5019 09c3 3C       		.byte	0x3c
 5020 09c4 14       		.byte	0x14
 5021 09c5 B8000000 		.4byte	0xb8
 5022 09c9 03       		.uleb128 0x3
 5023 09ca 74130000 		.4byte	.LASF136
 5024 09ce 11       		.byte	0x11
 5025 09cf 3C       		.byte	0x3c
 5026 09d0 1D       		.byte	0x1d
 5027 09d1 72090000 		.4byte	0x972
 5028 09d5 03       		.uleb128 0x3
 5029 09d6 7E030000 		.4byte	.LASF137
 5030 09da 11       		.byte	0x11
 5031 09db 3D       		.byte	0x3d
 5032 09dc 1D       		.byte	0x1d
 5033 09dd 72090000 		.4byte	0x972
 5034 09e1 03       		.uleb128 0x3
 5035 09e2 6D150000 		.4byte	.LASF138
 5036 09e6 11       		.byte	0x11
 5037 09e7 3E       		.byte	0x3e
 5038 09e8 1D       		.byte	0x1d
 5039 09e9 72090000 		.4byte	0x972
 5040 09ed 03       		.uleb128 0x3
 5041 09ee 7C000000 		.4byte	.LASF139
 5042 09f2 11       		.byte	0x11
 5043 09f3 40       		.byte	0x40
 5044 09f4 1D       		.byte	0x1d
 5045 09f5 AC090000 		.4byte	0x9ac
 5046 09f9 03       		.uleb128 0x3
 5047 09fa A6110000 		.4byte	.LASF140
 5048 09fe 11       		.byte	0x11
 5049 09ff 41       		.byte	0x41
 5050 0a00 1D       		.byte	0x1d
 5051 0a01 A0090000 		.4byte	0x9a0
 5052 0a05 03       		.uleb128 0x3
 5053 0a06 7C040000 		.4byte	.LASF141
 5054 0a0a 11       		.byte	0x11
 5055 0a0b 43       		.byte	0x43
 5056 0a0c 1D       		.byte	0x1d
 5057 0a0d AC090000 		.4byte	0x9ac
 5058 0a11 03       		.uleb128 0x3
 5059 0a12 D7110000 		.4byte	.LASF142
 5060 0a16 11       		.byte	0x11
 5061 0a17 44       		.byte	0x44
 5062 0a18 1D       		.byte	0x1d
 5063 0a19 AC090000 		.4byte	0x9ac
 5064 0a1d 03       		.uleb128 0x3
 5065 0a1e 80080000 		.4byte	.LASF143
 5066 0a22 11       		.byte	0x11
 5067 0a23 45       		.byte	0x45
 5068 0a24 1D       		.byte	0x1d
 5069 0a25 A0090000 		.4byte	0x9a0
 5070 0a29 03       		.uleb128 0x3
 5071 0a2a 43000000 		.4byte	.LASF144
 5072 0a2e 12       		.byte	0x12
 5073 0a2f 33       		.byte	0x33
ARM GAS  /tmp/ccTxpxgR.s 			page 90


 5074 0a30 12       		.byte	0x12
 5075 0a31 AC090000 		.4byte	0x9ac
 5076 0a35 03       		.uleb128 0x3
 5077 0a36 35100000 		.4byte	.LASF145
 5078 0a3a 12       		.byte	0x12
 5079 0a3b 3F       		.byte	0x3f
 5080 0a3c 1A       		.byte	0x1a
 5081 0a3d 410A0000 		.4byte	0xa41
 5082 0a41 11       		.uleb128 0x11
 5083 0a42 610A0000 		.4byte	.LASF146
 5084 0a46 38       		.byte	0x38
 5085 0a47 04       		.byte	0x4
 5086 0a48 9A       		.byte	0x9a
 5087 0a49 08       		.byte	0x8
 5088 0a4a 150B0000 		.4byte	0xb15
 5089 0a4e 0E       		.uleb128 0xe
 5090 0a4f 2E120000 		.4byte	.LASF147
 5091 0a53 04       		.byte	0x4
 5092 0a54 9B       		.byte	0x9b
 5093 0a55 19       		.byte	0x19
 5094 0a56 4E0B0000 		.4byte	0xb4e
 5095 0a5a 00       		.byte	0
 5096 0a5b 0E       		.uleb128 0xe
 5097 0a5c 34020000 		.4byte	.LASF148
 5098 0a60 04       		.byte	0x4
 5099 0a61 9C       		.byte	0x9c
 5100 0a62 19       		.byte	0x19
 5101 0a63 ED090000 		.4byte	0x9ed
 5102 0a67 08       		.byte	0x8
 5103 0a68 12       		.uleb128 0x12
 5104 0a69 63747800 		.ascii	"ctx\000"
 5105 0a6d 04       		.byte	0x4
 5106 0a6e 9D       		.byte	0x9d
 5107 0a6f 19       		.byte	0x19
 5108 0a70 97110000 		.4byte	0x1197
 5109 0a74 0C       		.byte	0xc
 5110 0a75 0E       		.uleb128 0xe
 5111 0a76 DB150000 		.4byte	.LASF149
 5112 0a7a 04       		.byte	0x4
 5113 0a7b 9F       		.byte	0x9f
 5114 0a7c 1A       		.byte	0x1a
 5115 0a7d 210B0000 		.4byte	0xb21
 5116 0a81 10       		.byte	0x10
 5117 0a82 0E       		.uleb128 0xe
 5118 0a83 FA0A0000 		.4byte	.LASF150
 5119 0a87 04       		.byte	0x4
 5120 0a88 A0       		.byte	0xa0
 5121 0a89 1A       		.byte	0x1a
 5122 0a8a 210B0000 		.4byte	0xb21
 5123 0a8e 14       		.byte	0x14
 5124 0a8f 0E       		.uleb128 0xe
 5125 0a90 D7130000 		.4byte	.LASF151
 5126 0a94 04       		.byte	0x4
 5127 0a95 A7       		.byte	0xa7
 5128 0a96 1A       		.byte	0x1a
 5129 0a97 BB060000 		.4byte	0x6bb
 5130 0a9b 18       		.byte	0x18
ARM GAS  /tmp/ccTxpxgR.s 			page 91


 5131 0a9c 0E       		.uleb128 0xe
 5132 0a9d E9120000 		.4byte	.LASF152
 5133 0aa1 04       		.byte	0x4
 5134 0aa2 B0       		.byte	0xb0
 5135 0aa3 1A       		.byte	0x1a
 5136 0aa4 03140000 		.4byte	0x1403
 5137 0aa8 1C       		.byte	0x1c
 5138 0aa9 0E       		.uleb128 0xe
 5139 0aaa A8010000 		.4byte	.LASF153
 5140 0aae 04       		.byte	0x4
 5141 0aaf B5       		.byte	0xb5
 5142 0ab0 19       		.byte	0x19
 5143 0ab1 D5090000 		.4byte	0x9d5
 5144 0ab5 20       		.byte	0x20
 5145 0ab6 0E       		.uleb128 0xe
 5146 0ab7 7E060000 		.4byte	.LASF154
 5147 0abb 04       		.byte	0x4
 5148 0abc B9       		.byte	0xb9
 5149 0abd 19       		.byte	0x19
 5150 0abe C9090000 		.4byte	0x9c9
 5151 0ac2 21       		.byte	0x21
 5152 0ac3 0E       		.uleb128 0xe
 5153 0ac4 610E0000 		.4byte	.LASF155
 5154 0ac8 04       		.byte	0x4
 5155 0ac9 BE       		.byte	0xbe
 5156 0aca 19       		.byte	0x19
 5157 0acb E1090000 		.4byte	0x9e1
 5158 0acf 22       		.byte	0x22
 5159 0ad0 18       		.uleb128 0x18
 5160 0ad1 7500     		.ascii	"u\000"
 5161 0ad3 04       		.byte	0x4
 5162 0ad4 0F01     		.2byte	0x10f
 5163 0ad6 19       		.byte	0x19
 5164 0ad7 61130000 		.4byte	0x1361
 5165 0adb 24       		.byte	0x24
 5166 0adc 17       		.uleb128 0x17
 5167 0add 3B150000 		.4byte	.LASF156
 5168 0ae1 04       		.byte	0x4
 5169 0ae2 1401     		.2byte	0x114
 5170 0ae4 19       		.byte	0x19
 5171 0ae5 270B0000 		.4byte	0xb27
 5172 0ae9 28       		.byte	0x28
 5173 0aea 17       		.uleb128 0x17
 5174 0aeb 87030000 		.4byte	.LASF157
 5175 0aef 04       		.byte	0x4
 5176 0af0 2001     		.2byte	0x120
 5177 0af2 19       		.byte	0x19
 5178 0af3 050A0000 		.4byte	0xa05
 5179 0af7 2C       		.byte	0x2c
 5180 0af8 17       		.uleb128 0x17
 5181 0af9 230C0000 		.4byte	.LASF158
 5182 0afd 04       		.byte	0x4
 5183 0afe 2701     		.2byte	0x127
 5184 0b00 1A       		.byte	0x1a
 5185 0b01 FD130000 		.4byte	0x13fd
 5186 0b05 30       		.byte	0x30
 5187 0b06 17       		.uleb128 0x17
ARM GAS  /tmp/ccTxpxgR.s 			page 92


 5188 0b07 110B0000 		.4byte	.LASF159
 5189 0b0b 04       		.byte	0x4
 5190 0b0c 2B01     		.2byte	0x12b
 5191 0b0e 19       		.byte	0x19
 5192 0b0f ED090000 		.4byte	0x9ed
 5193 0b13 34       		.byte	0x34
 5194 0b14 00       		.byte	0
 5195 0b15 03       		.uleb128 0x3
 5196 0b16 7B0F0000 		.4byte	.LASF160
 5197 0b1a 12       		.byte	0x12
 5198 0b1b 44       		.byte	0x44
 5199 0b1c 14       		.byte	0x14
 5200 0b1d 210B0000 		.4byte	0xb21
 5201 0b21 06       		.uleb128 0x6
 5202 0b22 04       		.byte	0x4
 5203 0b23 350A0000 		.4byte	0xa35
 5204 0b27 03       		.uleb128 0x3
 5205 0b28 82150000 		.4byte	.LASF161
 5206 0b2c 12       		.byte	0x12
 5207 0b2d 49       		.byte	0x49
 5208 0b2e 20       		.byte	0x20
 5209 0b2f 330B0000 		.4byte	0xb33
 5210 0b33 11       		.uleb128 0x11
 5211 0b34 600B0000 		.4byte	.LASF162
 5212 0b38 04       		.byte	0x4
 5213 0b39 04       		.byte	0x4
 5214 0b3a 88       		.byte	0x88
 5215 0b3b 08       		.byte	0x8
 5216 0b3c 4E0B0000 		.4byte	0xb4e
 5217 0b40 0E       		.uleb128 0xe
 5218 0b41 EF170000 		.4byte	.LASF163
 5219 0b45 04       		.byte	0x4
 5220 0b46 89       		.byte	0x89
 5221 0b47 1A       		.byte	0x1a
 5222 0b48 210B0000 		.4byte	0xb21
 5223 0b4c 00       		.byte	0
 5224 0b4d 00       		.byte	0
 5225 0b4e 03       		.uleb128 0x3
 5226 0b4f 90030000 		.4byte	.LASF164
 5227 0b53 12       		.byte	0x12
 5228 0b54 50       		.byte	0x50
 5229 0b55 21       		.byte	0x21
 5230 0b56 5A0B0000 		.4byte	0xb5a
 5231 0b5a 11       		.uleb128 0x11
 5232 0b5b AC110000 		.4byte	.LASF165
 5233 0b5f 08       		.byte	0x8
 5234 0b60 04       		.byte	0x4
 5235 0b61 8F       		.byte	0x8f
 5236 0b62 08       		.byte	0x8
 5237 0b63 820B0000 		.4byte	0xb82
 5238 0b67 0E       		.uleb128 0xe
 5239 0b68 EF170000 		.4byte	.LASF163
 5240 0b6c 04       		.byte	0x4
 5241 0b6d 90       		.byte	0x90
 5242 0b6e 1A       		.byte	0x1a
 5243 0b6f 210B0000 		.4byte	0xb21
 5244 0b73 00       		.byte	0
ARM GAS  /tmp/ccTxpxgR.s 			page 93


 5245 0b74 0E       		.uleb128 0xe
 5246 0b75 4B170000 		.4byte	.LASF166
 5247 0b79 04       		.byte	0x4
 5248 0b7a 91       		.byte	0x91
 5249 0b7b 1A       		.byte	0x1a
 5250 0b7c 210B0000 		.4byte	0xb21
 5251 0b80 04       		.byte	0x4
 5252 0b81 00       		.byte	0
 5253 0b82 03       		.uleb128 0x3
 5254 0b83 ED0A0000 		.4byte	.LASF167
 5255 0b87 12       		.byte	0x12
 5256 0b88 57       		.byte	0x57
 5257 0b89 1E       		.byte	0x1e
 5258 0b8a 8E0B0000 		.4byte	0xb8e
 5259 0b8e 16       		.uleb128 0x16
 5260 0b8f E3080000 		.4byte	.LASF168
 5261 0b93 1C       		.byte	0x1c
 5262 0b94 04       		.byte	0x4
 5263 0b95 6A01     		.2byte	0x16a
 5264 0b97 08       		.byte	0x8
 5265 0b98 F10B0000 		.4byte	0xbf1
 5266 0b9c 17       		.uleb128 0x17
 5267 0b9d 2E120000 		.4byte	.LASF147
 5268 0ba1 04       		.byte	0x4
 5269 0ba2 6B01     		.2byte	0x16b
 5270 0ba4 19       		.byte	0x19
 5271 0ba5 4E0B0000 		.4byte	0xb4e
 5272 0ba9 00       		.byte	0
 5273 0baa 17       		.uleb128 0x17
 5274 0bab 34020000 		.4byte	.LASF148
 5275 0baf 04       		.byte	0x4
 5276 0bb0 6C01     		.2byte	0x16c
 5277 0bb2 19       		.byte	0x19
 5278 0bb3 ED090000 		.4byte	0x9ed
 5279 0bb7 08       		.byte	0x8
 5280 0bb8 18       		.uleb128 0x18
 5281 0bb9 63747800 		.ascii	"ctx\000"
 5282 0bbd 04       		.byte	0x4
 5283 0bbe 6E01     		.2byte	0x16e
 5284 0bc0 19       		.byte	0x19
 5285 0bc1 97110000 		.4byte	0x1197
 5286 0bc5 0C       		.byte	0xc
 5287 0bc6 17       		.uleb128 0x17
 5288 0bc7 DB150000 		.4byte	.LASF149
 5289 0bcb 04       		.byte	0x4
 5290 0bcc 7101     		.2byte	0x171
 5291 0bce 1A       		.byte	0x1a
 5292 0bcf 210B0000 		.4byte	0xb21
 5293 0bd3 10       		.byte	0x10
 5294 0bd4 17       		.uleb128 0x17
 5295 0bd5 FA0A0000 		.4byte	.LASF150
 5296 0bd9 04       		.byte	0x4
 5297 0bda 7201     		.2byte	0x172
 5298 0bdc 1A       		.byte	0x1a
 5299 0bdd 210B0000 		.4byte	0xb21
 5300 0be1 14       		.byte	0x14
 5301 0be2 17       		.uleb128 0x17
ARM GAS  /tmp/ccTxpxgR.s 			page 94


 5302 0be3 450F0000 		.4byte	.LASF169
 5303 0be7 04       		.byte	0x4
 5304 0be8 7501     		.2byte	0x175
 5305 0bea 1A       		.byte	0x1a
 5306 0beb 210B0000 		.4byte	0xb21
 5307 0bef 18       		.byte	0x18
 5308 0bf0 00       		.byte	0
 5309 0bf1 03       		.uleb128 0x3
 5310 0bf2 E7000000 		.4byte	.LASF170
 5311 0bf6 12       		.byte	0x12
 5312 0bf7 5C       		.byte	0x5c
 5313 0bf8 10       		.byte	0x10
 5314 0bf9 FD0B0000 		.4byte	0xbfd
 5315 0bfd 06       		.uleb128 0x6
 5316 0bfe 04       		.byte	0x4
 5317 0bff 030C0000 		.4byte	0xc03
 5318 0c03 1B       		.uleb128 0x1b
 5319 0c04 0E0C0000 		.4byte	0xc0e
 5320 0c08 1A       		.uleb128 0x1a
 5321 0c09 75010000 		.4byte	0x175
 5322 0c0d 00       		.byte	0
 5323 0c0e 03       		.uleb128 0x3
 5324 0c0f DD0A0000 		.4byte	.LASF171
 5325 0c13 12       		.byte	0x12
 5326 0c14 61       		.byte	0x61
 5327 0c15 21       		.byte	0x21
 5328 0c16 1A0C0000 		.4byte	0xc1a
 5329 0c1a 16       		.uleb128 0x16
 5330 0c1b FD100000 		.4byte	.LASF172
 5331 0c1f 14       		.byte	0x14
 5332 0c20 04       		.byte	0x4
 5333 0c21 4501     		.2byte	0x145
 5334 0c23 08       		.byte	0x8
 5335 0c24 6F0C0000 		.4byte	0xc6f
 5336 0c28 17       		.uleb128 0x17
 5337 0c29 EF170000 		.4byte	.LASF163
 5338 0c2d 04       		.byte	0x4
 5339 0c2e 4601     		.2byte	0x146
 5340 0c30 1A       		.byte	0x1a
 5341 0c31 09140000 		.4byte	0x1409
 5342 0c35 00       		.byte	0
 5343 0c36 17       		.uleb128 0x17
 5344 0c37 4B170000 		.4byte	.LASF166
 5345 0c3b 04       		.byte	0x4
 5346 0c3c 4701     		.2byte	0x147
 5347 0c3e 1A       		.byte	0x1a
 5348 0c3f 09140000 		.4byte	0x1409
 5349 0c43 04       		.byte	0x4
 5350 0c44 17       		.uleb128 0x17
 5351 0c45 FB110000 		.4byte	.LASF173
 5352 0c49 04       		.byte	0x4
 5353 0c4a 4801     		.2byte	0x148
 5354 0c4c 19       		.byte	0x19
 5355 0c4d 290A0000 		.4byte	0xa29
 5356 0c51 08       		.byte	0x8
 5357 0c52 17       		.uleb128 0x17
 5358 0c53 60140000 		.4byte	.LASF174
ARM GAS  /tmp/ccTxpxgR.s 			page 95


 5359 0c57 04       		.byte	0x4
 5360 0c58 4901     		.2byte	0x149
 5361 0c5a 19       		.byte	0x19
 5362 0c5b F10B0000 		.4byte	0xbf1
 5363 0c5f 0C       		.byte	0xc
 5364 0c60 18       		.uleb128 0x18
 5365 0c61 70617200 		.ascii	"par\000"
 5366 0c65 04       		.byte	0x4
 5367 0c66 4B01     		.2byte	0x14b
 5368 0c68 1A       		.byte	0x1a
 5369 0c69 75010000 		.4byte	0x175
 5370 0c6d 10       		.byte	0x10
 5371 0c6e 00       		.byte	0
 5372 0c6f 03       		.uleb128 0x3
 5373 0c70 760A0000 		.4byte	.LASF175
 5374 0c74 12       		.byte	0x12
 5375 0c75 66       		.byte	0x66
 5376 0c76 28       		.byte	0x28
 5377 0c77 7B0C0000 		.4byte	0xc7b
 5378 0c7b 16       		.uleb128 0x16
 5379 0c7c 04010000 		.4byte	.LASF176
 5380 0c80 10       		.byte	0x10
 5381 0c81 04       		.byte	0x4
 5382 0c82 5501     		.2byte	0x155
 5383 0c84 08       		.byte	0x8
 5384 0c85 C20C0000 		.4byte	0xcc2
 5385 0c89 17       		.uleb128 0x17
 5386 0c8a EF170000 		.4byte	.LASF163
 5387 0c8e 04       		.byte	0x4
 5388 0c8f 5601     		.2byte	0x156
 5389 0c91 1A       		.byte	0x1a
 5390 0c92 09140000 		.4byte	0x1409
 5391 0c96 00       		.byte	0
 5392 0c97 17       		.uleb128 0x17
 5393 0c98 4B170000 		.4byte	.LASF166
 5394 0c9c 04       		.byte	0x4
 5395 0c9d 5801     		.2byte	0x158
 5396 0c9f 1A       		.byte	0x1a
 5397 0ca0 09140000 		.4byte	0x1409
 5398 0ca4 04       		.byte	0x4
 5399 0ca5 17       		.uleb128 0x17
 5400 0ca6 FB110000 		.4byte	.LASF173
 5401 0caa 04       		.byte	0x4
 5402 0cab 5A01     		.2byte	0x15a
 5403 0cad 19       		.byte	0x19
 5404 0cae 290A0000 		.4byte	0xa29
 5405 0cb2 08       		.byte	0x8
 5406 0cb3 17       		.uleb128 0x17
 5407 0cb4 CE040000 		.4byte	.LASF177
 5408 0cb8 04       		.byte	0x4
 5409 0cb9 6201     		.2byte	0x162
 5410 0cbb 19       		.byte	0x19
 5411 0cbc 290A0000 		.4byte	0xa29
 5412 0cc0 0C       		.byte	0xc
 5413 0cc1 00       		.byte	0
 5414 0cc2 03       		.uleb128 0x3
 5415 0cc3 62050000 		.4byte	.LASF178
ARM GAS  /tmp/ccTxpxgR.s 			page 96


 5416 0cc7 12       		.byte	0x12
 5417 0cc8 6B       		.byte	0x6b
 5418 0cc9 20       		.byte	0x20
 5419 0cca CE0C0000 		.4byte	0xcce
 5420 0cce 16       		.uleb128 0x16
 5421 0ccf 96140000 		.4byte	.LASF179
 5422 0cd3 04       		.byte	0x4
 5423 0cd4 04       		.byte	0x4
 5424 0cd5 7C01     		.2byte	0x17c
 5425 0cd7 08       		.byte	0x8
 5426 0cd8 EB0C0000 		.4byte	0xceb
 5427 0cdc 17       		.uleb128 0x17
 5428 0cdd 05050000 		.4byte	.LASF180
 5429 0ce1 04       		.byte	0x4
 5430 0ce2 8401     		.2byte	0x184
 5431 0ce4 24       		.byte	0x24
 5432 0ce5 C1060000 		.4byte	0x6c1
 5433 0ce9 00       		.byte	0
 5434 0cea 00       		.byte	0
 5435 0ceb 03       		.uleb128 0x3
 5436 0cec EB160000 		.4byte	.LASF181
 5437 0cf0 12       		.byte	0x12
 5438 0cf1 70       		.byte	0x70
 5439 0cf2 1A       		.byte	0x1a
 5440 0cf3 F70C0000 		.4byte	0xcf7
 5441 0cf7 16       		.uleb128 0x16
 5442 0cf8 C1150000 		.4byte	.LASF182
 5443 0cfc 68       		.byte	0x68
 5444 0cfd 04       		.byte	0x4
 5445 0cfe 9C01     		.2byte	0x19c
 5446 0d00 08       		.byte	0x8
 5447 0d01 3E0D0000 		.4byte	0xd3e
 5448 0d05 17       		.uleb128 0x17
 5449 0d06 6E130000 		.4byte	.LASF183
 5450 0d0a 04       		.byte	0x4
 5451 0d0b A001     		.2byte	0x1a0
 5452 0d0d 19       		.byte	0x19
 5453 0d0e 820B0000 		.4byte	0xb82
 5454 0d12 00       		.byte	0
 5455 0d13 17       		.uleb128 0x17
 5456 0d14 2A150000 		.4byte	.LASF184
 5457 0d18 04       		.byte	0x4
 5458 0d19 A401     		.2byte	0x1a4
 5459 0d1b 19       		.byte	0x19
 5460 0d1c 6F0C0000 		.4byte	0xc6f
 5461 0d20 1C       		.byte	0x1c
 5462 0d21 18       		.uleb128 0x18
 5463 0d22 64626700 		.ascii	"dbg\000"
 5464 0d26 04       		.byte	0x4
 5465 0d27 A801     		.2byte	0x1a8
 5466 0d29 19       		.byte	0x19
 5467 0d2a C20C0000 		.4byte	0xcc2
 5468 0d2e 2C       		.byte	0x2c
 5469 0d2f 17       		.uleb128 0x17
 5470 0d30 80120000 		.4byte	.LASF185
 5471 0d34 04       		.byte	0x4
 5472 0d35 AC01     		.2byte	0x1ac
ARM GAS  /tmp/ccTxpxgR.s 			page 97


 5473 0d37 19       		.byte	0x19
 5474 0d38 350A0000 		.4byte	0xa35
 5475 0d3c 30       		.byte	0x30
 5476 0d3d 00       		.byte	0
 5477 0d3e 0B       		.uleb128 0xb
 5478 0d3f B8090000 		.4byte	0x9b8
 5479 0d43 4E0D0000 		.4byte	0xd4e
 5480 0d47 0C       		.uleb128 0xc
 5481 0d48 3D000000 		.4byte	0x3d
 5482 0d4c 01       		.byte	0x1
 5483 0d4d 00       		.byte	0
 5484 0d4e 04       		.uleb128 0x4
 5485 0d4f 3E0D0000 		.4byte	0xd3e
 5486 0d53 1D       		.uleb128 0x1d
 5487 0d54 390A0000 		.4byte	.LASF186
 5488 0d58 13       		.byte	0x13
 5489 0d59 4C       		.byte	0x4c
 5490 0d5a 11       		.byte	0x11
 5491 0d5b AC090000 		.4byte	0x9ac
 5492 0d5f 1E       		.uleb128 0x1e
 5493 0d60 10       		.byte	0x10
 5494 0d61 14       		.byte	0x14
 5495 0d62 3C01     		.2byte	0x13c
 5496 0d64 09       		.byte	0x9
 5497 0d65 A20D0000 		.4byte	0xda2
 5498 0d69 18       		.uleb128 0x18
 5499 0d6a 43435200 		.ascii	"CCR\000"
 5500 0d6e 14       		.byte	0x14
 5501 0d6f 3E01     		.2byte	0x13e
 5502 0d71 11       		.byte	0x11
 5503 0d72 B8090000 		.4byte	0x9b8
 5504 0d76 00       		.byte	0
 5505 0d77 17       		.uleb128 0x17
 5506 0d78 DD010000 		.4byte	.LASF187
 5507 0d7c 14       		.byte	0x14
 5508 0d7d 3F01     		.2byte	0x13f
 5509 0d7f 11       		.byte	0x11
 5510 0d80 B8090000 		.4byte	0x9b8
 5511 0d84 04       		.byte	0x4
 5512 0d85 17       		.uleb128 0x17
 5513 0d86 11040000 		.4byte	.LASF188
 5514 0d8a 14       		.byte	0x14
 5515 0d8b 4001     		.2byte	0x140
 5516 0d8d 11       		.byte	0x11
 5517 0d8e B8090000 		.4byte	0x9b8
 5518 0d92 08       		.byte	0x8
 5519 0d93 17       		.uleb128 0x17
 5520 0d94 0A0F0000 		.4byte	.LASF189
 5521 0d98 14       		.byte	0x14
 5522 0d99 4101     		.2byte	0x141
 5523 0d9b 11       		.byte	0x11
 5524 0d9c B8090000 		.4byte	0x9b8
 5525 0da0 0C       		.byte	0xc
 5526 0da1 00       		.byte	0
 5527 0da2 08       		.uleb128 0x8
 5528 0da3 E4100000 		.4byte	.LASF190
 5529 0da7 14       		.byte	0x14
ARM GAS  /tmp/ccTxpxgR.s 			page 98


 5530 0da8 4201     		.2byte	0x142
 5531 0daa 02       		.byte	0x2
 5532 0dab 5F0D0000 		.4byte	0xd5f
 5533 0daf 1E       		.uleb128 0x1e
 5534 0db0 08       		.byte	0x8
 5535 0db1 14       		.byte	0x14
 5536 0db2 4401     		.2byte	0x144
 5537 0db4 09       		.byte	0x9
 5538 0db5 D60D0000 		.4byte	0xdd6
 5539 0db9 18       		.uleb128 0x18
 5540 0dba 49535200 		.ascii	"ISR\000"
 5541 0dbe 14       		.byte	0x14
 5542 0dbf 4601     		.2byte	0x146
 5543 0dc1 11       		.byte	0x11
 5544 0dc2 B8090000 		.4byte	0x9b8
 5545 0dc6 00       		.byte	0
 5546 0dc7 17       		.uleb128 0x17
 5547 0dc8 F7050000 		.4byte	.LASF191
 5548 0dcc 14       		.byte	0x14
 5549 0dcd 4701     		.2byte	0x147
 5550 0dcf 11       		.byte	0x11
 5551 0dd0 B8090000 		.4byte	0x9b8
 5552 0dd4 04       		.byte	0x4
 5553 0dd5 00       		.byte	0
 5554 0dd6 08       		.uleb128 0x8
 5555 0dd7 F9040000 		.4byte	.LASF192
 5556 0ddb 14       		.byte	0x14
 5557 0ddc 4801     		.2byte	0x148
 5558 0dde 02       		.byte	0x2
 5559 0ddf AF0D0000 		.4byte	0xdaf
 5560 0de3 0B       		.uleb128 0xb
 5561 0de4 B8090000 		.4byte	0x9b8
 5562 0de8 F30D0000 		.4byte	0xdf3
 5563 0dec 0C       		.uleb128 0xc
 5564 0ded 3D000000 		.4byte	0x3d
 5565 0df1 03       		.byte	0x3
 5566 0df2 00       		.byte	0
 5567 0df3 04       		.uleb128 0x4
 5568 0df4 E30D0000 		.4byte	0xde3
 5569 0df8 1E       		.uleb128 0x1e
 5570 0df9 2C       		.byte	0x2c
 5571 0dfa 14       		.byte	0x14
 5572 0dfb 9A01     		.2byte	0x19a
 5573 0dfd 09       		.byte	0x9
 5574 0dfe 9D0E0000 		.4byte	0xe9d
 5575 0e02 18       		.uleb128 0x18
 5576 0e03 43523100 		.ascii	"CR1\000"
 5577 0e07 14       		.byte	0x14
 5578 0e08 9C01     		.2byte	0x19c
 5579 0e0a 11       		.byte	0x11
 5580 0e0b B8090000 		.4byte	0x9b8
 5581 0e0f 00       		.byte	0
 5582 0e10 18       		.uleb128 0x18
 5583 0e11 43523200 		.ascii	"CR2\000"
 5584 0e15 14       		.byte	0x14
 5585 0e16 9D01     		.2byte	0x19d
 5586 0e18 11       		.byte	0x11
ARM GAS  /tmp/ccTxpxgR.s 			page 99


 5587 0e19 B8090000 		.4byte	0x9b8
 5588 0e1d 04       		.byte	0x4
 5589 0e1e 17       		.uleb128 0x17
 5590 0e1f 82130000 		.4byte	.LASF193
 5591 0e23 14       		.byte	0x14
 5592 0e24 9E01     		.2byte	0x19e
 5593 0e26 11       		.byte	0x11
 5594 0e27 B8090000 		.4byte	0x9b8
 5595 0e2b 08       		.byte	0x8
 5596 0e2c 17       		.uleb128 0x17
 5597 0e2d 87130000 		.4byte	.LASF194
 5598 0e31 14       		.byte	0x14
 5599 0e32 9F01     		.2byte	0x19f
 5600 0e34 11       		.byte	0x11
 5601 0e35 B8090000 		.4byte	0x9b8
 5602 0e39 0C       		.byte	0xc
 5603 0e3a 17       		.uleb128 0x17
 5604 0e3b 48180000 		.4byte	.LASF195
 5605 0e3f 14       		.byte	0x14
 5606 0e40 A001     		.2byte	0x1a0
 5607 0e42 11       		.byte	0x11
 5608 0e43 B8090000 		.4byte	0x9b8
 5609 0e47 10       		.byte	0x10
 5610 0e48 17       		.uleb128 0x17
 5611 0e49 170F0000 		.4byte	.LASF196
 5612 0e4d 14       		.byte	0x14
 5613 0e4e A101     		.2byte	0x1a1
 5614 0e50 11       		.byte	0x11
 5615 0e51 B8090000 		.4byte	0x9b8
 5616 0e55 14       		.byte	0x14
 5617 0e56 18       		.uleb128 0x18
 5618 0e57 49535200 		.ascii	"ISR\000"
 5619 0e5b 14       		.byte	0x14
 5620 0e5c A201     		.2byte	0x1a2
 5621 0e5e 11       		.byte	0x11
 5622 0e5f B8090000 		.4byte	0x9b8
 5623 0e63 18       		.byte	0x18
 5624 0e64 18       		.uleb128 0x18
 5625 0e65 49435200 		.ascii	"ICR\000"
 5626 0e69 14       		.byte	0x14
 5627 0e6a A301     		.2byte	0x1a3
 5628 0e6c 11       		.byte	0x11
 5629 0e6d B8090000 		.4byte	0x9b8
 5630 0e71 1C       		.byte	0x1c
 5631 0e72 17       		.uleb128 0x17
 5632 0e73 B00F0000 		.4byte	.LASF197
 5633 0e77 14       		.byte	0x14
 5634 0e78 A401     		.2byte	0x1a4
 5635 0e7a 11       		.byte	0x11
 5636 0e7b B8090000 		.4byte	0x9b8
 5637 0e7f 20       		.byte	0x20
 5638 0e80 17       		.uleb128 0x17
 5639 0e81 E40B0000 		.4byte	.LASF198
 5640 0e85 14       		.byte	0x14
 5641 0e86 A501     		.2byte	0x1a5
 5642 0e88 11       		.byte	0x11
 5643 0e89 B8090000 		.4byte	0x9b8
ARM GAS  /tmp/ccTxpxgR.s 			page 100


 5644 0e8d 24       		.byte	0x24
 5645 0e8e 17       		.uleb128 0x17
 5646 0e8f 4A0C0000 		.4byte	.LASF199
 5647 0e93 14       		.byte	0x14
 5648 0e94 A601     		.2byte	0x1a6
 5649 0e96 11       		.byte	0x11
 5650 0e97 B8090000 		.4byte	0x9b8
 5651 0e9b 28       		.byte	0x28
 5652 0e9c 00       		.byte	0
 5653 0e9d 08       		.uleb128 0x8
 5654 0e9e 4E120000 		.4byte	.LASF200
 5655 0ea2 14       		.byte	0x14
 5656 0ea3 A701     		.2byte	0x1a7
 5657 0ea5 02       		.byte	0x2
 5658 0ea6 F80D0000 		.4byte	0xdf8
 5659 0eaa 1E       		.uleb128 0x1e
 5660 0eab 64       		.byte	0x64
 5661 0eac 14       		.byte	0x14
 5662 0ead D901     		.2byte	0x1d9
 5663 0eaf 09       		.byte	0x9
 5664 0eb0 10100000 		.4byte	0x1010
 5665 0eb4 18       		.uleb128 0x18
 5666 0eb5 545200   		.ascii	"TR\000"
 5667 0eb8 14       		.byte	0x14
 5668 0eb9 DB01     		.2byte	0x1db
 5669 0ebb 11       		.byte	0x11
 5670 0ebc B8090000 		.4byte	0x9b8
 5671 0ec0 00       		.byte	0
 5672 0ec1 18       		.uleb128 0x18
 5673 0ec2 445200   		.ascii	"DR\000"
 5674 0ec5 14       		.byte	0x14
 5675 0ec6 DC01     		.2byte	0x1dc
 5676 0ec8 11       		.byte	0x11
 5677 0ec9 B8090000 		.4byte	0x9b8
 5678 0ecd 04       		.byte	0x4
 5679 0ece 18       		.uleb128 0x18
 5680 0ecf 435200   		.ascii	"CR\000"
 5681 0ed2 14       		.byte	0x14
 5682 0ed3 DD01     		.2byte	0x1dd
 5683 0ed5 11       		.byte	0x11
 5684 0ed6 B8090000 		.4byte	0x9b8
 5685 0eda 08       		.byte	0x8
 5686 0edb 18       		.uleb128 0x18
 5687 0edc 49535200 		.ascii	"ISR\000"
 5688 0ee0 14       		.byte	0x14
 5689 0ee1 DE01     		.2byte	0x1de
 5690 0ee3 11       		.byte	0x11
 5691 0ee4 B8090000 		.4byte	0x9b8
 5692 0ee8 0C       		.byte	0xc
 5693 0ee9 17       		.uleb128 0x17
 5694 0eea 4F060000 		.4byte	.LASF201
 5695 0eee 14       		.byte	0x14
 5696 0eef DF01     		.2byte	0x1df
 5697 0ef1 11       		.byte	0x11
 5698 0ef2 B8090000 		.4byte	0x9b8
 5699 0ef6 10       		.byte	0x10
 5700 0ef7 17       		.uleb128 0x17
ARM GAS  /tmp/ccTxpxgR.s 			page 101


 5701 0ef8 BD160000 		.4byte	.LASF202
 5702 0efc 14       		.byte	0x14
 5703 0efd E001     		.2byte	0x1e0
 5704 0eff 11       		.byte	0x11
 5705 0f00 B8090000 		.4byte	0x9b8
 5706 0f04 14       		.byte	0x14
 5707 0f05 17       		.uleb128 0x17
 5708 0f06 9B040000 		.4byte	.LASF203
 5709 0f0a 14       		.byte	0x14
 5710 0f0b E101     		.2byte	0x1e1
 5711 0f0d 11       		.byte	0x11
 5712 0f0e AC090000 		.4byte	0x9ac
 5713 0f12 18       		.byte	0x18
 5714 0f13 17       		.uleb128 0x17
 5715 0f14 2B0C0000 		.4byte	.LASF204
 5716 0f18 14       		.byte	0x14
 5717 0f19 E201     		.2byte	0x1e2
 5718 0f1b 11       		.byte	0x11
 5719 0f1c B8090000 		.4byte	0x9b8
 5720 0f20 1C       		.byte	0x1c
 5721 0f21 17       		.uleb128 0x17
 5722 0f22 A0050000 		.4byte	.LASF205
 5723 0f26 14       		.byte	0x14
 5724 0f27 E301     		.2byte	0x1e3
 5725 0f29 11       		.byte	0x11
 5726 0f2a AC090000 		.4byte	0x9ac
 5727 0f2e 20       		.byte	0x20
 5728 0f2f 18       		.uleb128 0x18
 5729 0f30 57505200 		.ascii	"WPR\000"
 5730 0f34 14       		.byte	0x14
 5731 0f35 E401     		.2byte	0x1e4
 5732 0f37 11       		.byte	0x11
 5733 0f38 B8090000 		.4byte	0x9b8
 5734 0f3c 24       		.byte	0x24
 5735 0f3d 18       		.uleb128 0x18
 5736 0f3e 53535200 		.ascii	"SSR\000"
 5737 0f42 14       		.byte	0x14
 5738 0f43 E501     		.2byte	0x1e5
 5739 0f45 11       		.byte	0x11
 5740 0f46 B8090000 		.4byte	0x9b8
 5741 0f4a 28       		.byte	0x28
 5742 0f4b 17       		.uleb128 0x17
 5743 0f4c EF130000 		.4byte	.LASF206
 5744 0f50 14       		.byte	0x14
 5745 0f51 E601     		.2byte	0x1e6
 5746 0f53 11       		.byte	0x11
 5747 0f54 B8090000 		.4byte	0x9b8
 5748 0f58 2C       		.byte	0x2c
 5749 0f59 17       		.uleb128 0x17
 5750 0f5a 36000000 		.4byte	.LASF207
 5751 0f5e 14       		.byte	0x14
 5752 0f5f E701     		.2byte	0x1e7
 5753 0f61 11       		.byte	0x11
 5754 0f62 B8090000 		.4byte	0x9b8
 5755 0f66 30       		.byte	0x30
 5756 0f67 17       		.uleb128 0x17
 5757 0f68 FF0B0000 		.4byte	.LASF208
ARM GAS  /tmp/ccTxpxgR.s 			page 102


 5758 0f6c 14       		.byte	0x14
 5759 0f6d E801     		.2byte	0x1e8
 5760 0f6f 11       		.byte	0x11
 5761 0f70 B8090000 		.4byte	0x9b8
 5762 0f74 34       		.byte	0x34
 5763 0f75 17       		.uleb128 0x17
 5764 0f76 BA170000 		.4byte	.LASF209
 5765 0f7a 14       		.byte	0x14
 5766 0f7b E901     		.2byte	0x1e9
 5767 0f7d 11       		.byte	0x11
 5768 0f7e B8090000 		.4byte	0x9b8
 5769 0f82 38       		.byte	0x38
 5770 0f83 17       		.uleb128 0x17
 5771 0f84 5D0D0000 		.4byte	.LASF210
 5772 0f88 14       		.byte	0x14
 5773 0f89 EA01     		.2byte	0x1ea
 5774 0f8b 11       		.byte	0x11
 5775 0f8c B8090000 		.4byte	0x9b8
 5776 0f90 3C       		.byte	0x3c
 5777 0f91 17       		.uleb128 0x17
 5778 0f92 48120000 		.4byte	.LASF211
 5779 0f96 14       		.byte	0x14
 5780 0f97 EB01     		.2byte	0x1eb
 5781 0f99 11       		.byte	0x11
 5782 0f9a B8090000 		.4byte	0x9b8
 5783 0f9e 40       		.byte	0x40
 5784 0f9f 17       		.uleb128 0x17
 5785 0fa0 0E180000 		.4byte	.LASF212
 5786 0fa4 14       		.byte	0x14
 5787 0fa5 EC01     		.2byte	0x1ec
 5788 0fa7 11       		.byte	0x11
 5789 0fa8 B8090000 		.4byte	0x9b8
 5790 0fac 44       		.byte	0x44
 5791 0fad 17       		.uleb128 0x17
 5792 0fae B3040000 		.4byte	.LASF213
 5793 0fb2 14       		.byte	0x14
 5794 0fb3 ED01     		.2byte	0x1ed
 5795 0fb5 11       		.byte	0x11
 5796 0fb6 AC090000 		.4byte	0x9ac
 5797 0fba 48       		.byte	0x48
 5798 0fbb 17       		.uleb128 0x17
 5799 0fbc BD040000 		.4byte	.LASF214
 5800 0fc0 14       		.byte	0x14
 5801 0fc1 EE01     		.2byte	0x1ee
 5802 0fc3 11       		.byte	0x11
 5803 0fc4 AC090000 		.4byte	0x9ac
 5804 0fc8 4C       		.byte	0x4c
 5805 0fc9 17       		.uleb128 0x17
 5806 0fca 9C170000 		.4byte	.LASF215
 5807 0fce 14       		.byte	0x14
 5808 0fcf EF01     		.2byte	0x1ef
 5809 0fd1 11       		.byte	0x11
 5810 0fd2 B8090000 		.4byte	0x9b8
 5811 0fd6 50       		.byte	0x50
 5812 0fd7 17       		.uleb128 0x17
 5813 0fd8 50180000 		.4byte	.LASF216
 5814 0fdc 14       		.byte	0x14
ARM GAS  /tmp/ccTxpxgR.s 			page 103


 5815 0fdd F001     		.2byte	0x1f0
 5816 0fdf 11       		.byte	0x11
 5817 0fe0 B8090000 		.4byte	0x9b8
 5818 0fe4 54       		.byte	0x54
 5819 0fe5 17       		.uleb128 0x17
 5820 0fe6 9A000000 		.4byte	.LASF217
 5821 0fea 14       		.byte	0x14
 5822 0feb F101     		.2byte	0x1f1
 5823 0fed 11       		.byte	0x11
 5824 0fee B8090000 		.4byte	0x9b8
 5825 0ff2 58       		.byte	0x58
 5826 0ff3 17       		.uleb128 0x17
 5827 0ff4 70010000 		.4byte	.LASF218
 5828 0ff8 14       		.byte	0x14
 5829 0ff9 F201     		.2byte	0x1f2
 5830 0ffb 11       		.byte	0x11
 5831 0ffc B8090000 		.4byte	0x9b8
 5832 1000 5C       		.byte	0x5c
 5833 1001 17       		.uleb128 0x17
 5834 1002 E9010000 		.4byte	.LASF219
 5835 1006 14       		.byte	0x14
 5836 1007 F301     		.2byte	0x1f3
 5837 1009 11       		.byte	0x11
 5838 100a B8090000 		.4byte	0x9b8
 5839 100e 60       		.byte	0x60
 5840 100f 00       		.byte	0
 5841 1010 08       		.uleb128 0x8
 5842 1011 030A0000 		.4byte	.LASF220
 5843 1015 14       		.byte	0x14
 5844 1016 F401     		.2byte	0x1f4
 5845 1018 02       		.byte	0x2
 5846 1019 AA0E0000 		.4byte	0xeaa
 5847 101d 1E       		.uleb128 0x1e
 5848 101e 24       		.byte	0x24
 5849 101f 14       		.byte	0x14
 5850 1020 FA01     		.2byte	0x1fa
 5851 1022 09       		.byte	0x9
 5852 1023 A4100000 		.4byte	0x10a4
 5853 1027 18       		.uleb128 0x18
 5854 1028 43523100 		.ascii	"CR1\000"
 5855 102c 14       		.byte	0x14
 5856 102d FC01     		.2byte	0x1fc
 5857 102f 11       		.byte	0x11
 5858 1030 B8090000 		.4byte	0x9b8
 5859 1034 00       		.byte	0
 5860 1035 18       		.uleb128 0x18
 5861 1036 43523200 		.ascii	"CR2\000"
 5862 103a 14       		.byte	0x14
 5863 103b FD01     		.2byte	0x1fd
 5864 103d 11       		.byte	0x11
 5865 103e B8090000 		.4byte	0x9b8
 5866 1042 04       		.byte	0x4
 5867 1043 18       		.uleb128 0x18
 5868 1044 535200   		.ascii	"SR\000"
 5869 1047 14       		.byte	0x14
 5870 1048 FE01     		.2byte	0x1fe
 5871 104a 11       		.byte	0x11
ARM GAS  /tmp/ccTxpxgR.s 			page 104


 5872 104b B8090000 		.4byte	0x9b8
 5873 104f 08       		.byte	0x8
 5874 1050 18       		.uleb128 0x18
 5875 1051 445200   		.ascii	"DR\000"
 5876 1054 14       		.byte	0x14
 5877 1055 FF01     		.2byte	0x1ff
 5878 1057 11       		.byte	0x11
 5879 1058 B8090000 		.4byte	0x9b8
 5880 105c 0C       		.byte	0xc
 5881 105d 17       		.uleb128 0x17
 5882 105e 7C130000 		.4byte	.LASF221
 5883 1062 14       		.byte	0x14
 5884 1063 0002     		.2byte	0x200
 5885 1065 11       		.byte	0x11
 5886 1066 B8090000 		.4byte	0x9b8
 5887 106a 10       		.byte	0x10
 5888 106b 17       		.uleb128 0x17
 5889 106c 680D0000 		.4byte	.LASF222
 5890 1070 14       		.byte	0x14
 5891 1071 0102     		.2byte	0x201
 5892 1073 11       		.byte	0x11
 5893 1074 B8090000 		.4byte	0x9b8
 5894 1078 14       		.byte	0x14
 5895 1079 17       		.uleb128 0x17
 5896 107a 5B130000 		.4byte	.LASF223
 5897 107e 14       		.byte	0x14
 5898 107f 0202     		.2byte	0x202
 5899 1081 11       		.byte	0x11
 5900 1082 B8090000 		.4byte	0x9b8
 5901 1086 18       		.byte	0x18
 5902 1087 17       		.uleb128 0x17
 5903 1088 87020000 		.4byte	.LASF224
 5904 108c 14       		.byte	0x14
 5905 108d 0302     		.2byte	0x203
 5906 108f 11       		.byte	0x11
 5907 1090 B8090000 		.4byte	0x9b8
 5908 1094 1C       		.byte	0x1c
 5909 1095 17       		.uleb128 0x17
 5910 1096 17160000 		.4byte	.LASF225
 5911 109a 14       		.byte	0x14
 5912 109b 0402     		.2byte	0x204
 5913 109d 11       		.byte	0x11
 5914 109e B8090000 		.4byte	0x9b8
 5915 10a2 20       		.byte	0x20
 5916 10a3 00       		.byte	0
 5917 10a4 08       		.uleb128 0x8
 5918 10a5 62130000 		.4byte	.LASF226
 5919 10a9 14       		.byte	0x14
 5920 10aa 0502     		.2byte	0x205
 5921 10ac 02       		.byte	0x2
 5922 10ad 1D100000 		.4byte	0x101d
 5923 10b1 1E       		.uleb128 0x1e
 5924 10b2 2C       		.byte	0x2c
 5925 10b3 14       		.byte	0x14
 5926 10b4 3C02     		.2byte	0x23c
 5927 10b6 09       		.byte	0x9
 5928 10b7 72110000 		.4byte	0x1172
ARM GAS  /tmp/ccTxpxgR.s 			page 105


 5929 10bb 18       		.uleb128 0x18
 5930 10bc 43523100 		.ascii	"CR1\000"
 5931 10c0 14       		.byte	0x14
 5932 10c1 3E02     		.2byte	0x23e
 5933 10c3 11       		.byte	0x11
 5934 10c4 B8090000 		.4byte	0x9b8
 5935 10c8 00       		.byte	0
 5936 10c9 18       		.uleb128 0x18
 5937 10ca 43523200 		.ascii	"CR2\000"
 5938 10ce 14       		.byte	0x14
 5939 10cf 3F02     		.2byte	0x23f
 5940 10d1 11       		.byte	0x11
 5941 10d2 B8090000 		.4byte	0x9b8
 5942 10d6 04       		.byte	0x4
 5943 10d7 18       		.uleb128 0x18
 5944 10d8 43523300 		.ascii	"CR3\000"
 5945 10dc 14       		.byte	0x14
 5946 10dd 4002     		.2byte	0x240
 5947 10df 11       		.byte	0x11
 5948 10e0 B8090000 		.4byte	0x9b8
 5949 10e4 08       		.byte	0x8
 5950 10e5 18       		.uleb128 0x18
 5951 10e6 42525200 		.ascii	"BRR\000"
 5952 10ea 14       		.byte	0x14
 5953 10eb 4102     		.2byte	0x241
 5954 10ed 11       		.byte	0x11
 5955 10ee B8090000 		.4byte	0x9b8
 5956 10f2 0C       		.byte	0xc
 5957 10f3 17       		.uleb128 0x17
 5958 10f4 E90C0000 		.4byte	.LASF227
 5959 10f8 14       		.byte	0x14
 5960 10f9 4202     		.2byte	0x242
 5961 10fb 11       		.byte	0x11
 5962 10fc B8090000 		.4byte	0x9b8
 5963 1100 10       		.byte	0x10
 5964 1101 17       		.uleb128 0x17
 5965 1102 F0000000 		.4byte	.LASF228
 5966 1106 14       		.byte	0x14
 5967 1107 4302     		.2byte	0x243
 5968 1109 11       		.byte	0x11
 5969 110a B8090000 		.4byte	0x9b8
 5970 110e 14       		.byte	0x14
 5971 110f 18       		.uleb128 0x18
 5972 1110 52515200 		.ascii	"RQR\000"
 5973 1114 14       		.byte	0x14
 5974 1115 4402     		.2byte	0x244
 5975 1117 11       		.byte	0x11
 5976 1118 B8090000 		.4byte	0x9b8
 5977 111c 18       		.byte	0x18
 5978 111d 18       		.uleb128 0x18
 5979 111e 49535200 		.ascii	"ISR\000"
 5980 1122 14       		.byte	0x14
 5981 1123 4502     		.2byte	0x245
 5982 1125 11       		.byte	0x11
 5983 1126 B8090000 		.4byte	0x9b8
 5984 112a 1C       		.byte	0x1c
 5985 112b 18       		.uleb128 0x18
ARM GAS  /tmp/ccTxpxgR.s 			page 106


 5986 112c 49435200 		.ascii	"ICR\000"
 5987 1130 14       		.byte	0x14
 5988 1131 4602     		.2byte	0x246
 5989 1133 11       		.byte	0x11
 5990 1134 B8090000 		.4byte	0x9b8
 5991 1138 20       		.byte	0x20
 5992 1139 18       		.uleb128 0x18
 5993 113a 52445200 		.ascii	"RDR\000"
 5994 113e 14       		.byte	0x14
 5995 113f 4702     		.2byte	0x247
 5996 1141 11       		.byte	0x11
 5997 1142 9B090000 		.4byte	0x99b
 5998 1146 24       		.byte	0x24
 5999 1147 17       		.uleb128 0x17
 6000 1148 9B040000 		.4byte	.LASF203
 6001 114c 14       		.byte	0x14
 6002 114d 4802     		.2byte	0x248
 6003 114f 0D       		.byte	0xd
 6004 1150 8F090000 		.4byte	0x98f
 6005 1154 26       		.byte	0x26
 6006 1155 18       		.uleb128 0x18
 6007 1156 54445200 		.ascii	"TDR\000"
 6008 115a 14       		.byte	0x14
 6009 115b 4902     		.2byte	0x249
 6010 115d 11       		.byte	0x11
 6011 115e 9B090000 		.4byte	0x99b
 6012 1162 28       		.byte	0x28
 6013 1163 17       		.uleb128 0x17
 6014 1164 A0050000 		.4byte	.LASF205
 6015 1168 14       		.byte	0x14
 6016 1169 4A02     		.2byte	0x24a
 6017 116b 0D       		.byte	0xd
 6018 116c 8F090000 		.4byte	0x98f
 6019 1170 2A       		.byte	0x2a
 6020 1171 00       		.byte	0
 6021 1172 08       		.uleb128 0x8
 6022 1173 AD060000 		.4byte	.LASF229
 6023 1177 14       		.byte	0x14
 6024 1178 4B02     		.2byte	0x24b
 6025 117a 02       		.byte	0x2
 6026 117b B1100000 		.4byte	0x10b1
 6027 117f 03       		.uleb128 0x3
 6028 1180 AD030000 		.4byte	.LASF230
 6029 1184 15       		.byte	0x15
 6030 1185 65       		.byte	0x65
 6031 1186 0F       		.byte	0xf
 6032 1187 75010000 		.4byte	0x175
 6033 118b 03       		.uleb128 0x3
 6034 118c A2060000 		.4byte	.LASF231
 6035 1190 15       		.byte	0x15
 6036 1191 6D       		.byte	0x6d
 6037 1192 12       		.byte	0x12
 6038 1193 BD090000 		.4byte	0x9bd
 6039 1197 11       		.uleb128 0x11
 6040 1198 75150000 		.4byte	.LASF232
 6041 119c 04       		.byte	0x4
 6042 119d 15       		.byte	0x15
ARM GAS  /tmp/ccTxpxgR.s 			page 107


 6043 119e 89       		.byte	0x89
 6044 119f 08       		.byte	0x8
 6045 11a0 B1110000 		.4byte	0x11b1
 6046 11a4 12       		.uleb128 0x12
 6047 11a5 737000   		.ascii	"sp\000"
 6048 11a8 15       		.byte	0x15
 6049 11a9 8A       		.byte	0x8a
 6050 11aa 17       		.byte	0x17
 6051 11ab 2D120000 		.4byte	0x122d
 6052 11af 00       		.byte	0
 6053 11b0 00       		.byte	0
 6054 11b1 11       		.uleb128 0x11
 6055 11b2 AD100000 		.4byte	.LASF233
 6056 11b6 24       		.byte	0x24
 6057 11b7 06       		.byte	0x6
 6058 11b8 C3       		.byte	0xc3
 6059 11b9 08       		.byte	0x8
 6060 11ba 2D120000 		.4byte	0x122d
 6061 11be 12       		.uleb128 0x12
 6062 11bf 723800   		.ascii	"r8\000"
 6063 11c2 06       		.byte	0x6
 6064 11c3 C4       		.byte	0xc4
 6065 11c4 11       		.byte	0x11
 6066 11c5 7F110000 		.4byte	0x117f
 6067 11c9 00       		.byte	0
 6068 11ca 12       		.uleb128 0x12
 6069 11cb 723900   		.ascii	"r9\000"
 6070 11ce 06       		.byte	0x6
 6071 11cf C5       		.byte	0xc5
 6072 11d0 11       		.byte	0x11
 6073 11d1 7F110000 		.4byte	0x117f
 6074 11d5 04       		.byte	0x4
 6075 11d6 12       		.uleb128 0x12
 6076 11d7 72313000 		.ascii	"r10\000"
 6077 11db 06       		.byte	0x6
 6078 11dc C6       		.byte	0xc6
 6079 11dd 11       		.byte	0x11
 6080 11de 7F110000 		.4byte	0x117f
 6081 11e2 08       		.byte	0x8
 6082 11e3 12       		.uleb128 0x12
 6083 11e4 72313100 		.ascii	"r11\000"
 6084 11e8 06       		.byte	0x6
 6085 11e9 C7       		.byte	0xc7
 6086 11ea 11       		.byte	0x11
 6087 11eb 7F110000 		.4byte	0x117f
 6088 11ef 0C       		.byte	0xc
 6089 11f0 12       		.uleb128 0x12
 6090 11f1 723400   		.ascii	"r4\000"
 6091 11f4 06       		.byte	0x6
 6092 11f5 C8       		.byte	0xc8
 6093 11f6 11       		.byte	0x11
 6094 11f7 7F110000 		.4byte	0x117f
 6095 11fb 10       		.byte	0x10
 6096 11fc 12       		.uleb128 0x12
 6097 11fd 723500   		.ascii	"r5\000"
 6098 1200 06       		.byte	0x6
 6099 1201 C9       		.byte	0xc9
ARM GAS  /tmp/ccTxpxgR.s 			page 108


 6100 1202 11       		.byte	0x11
 6101 1203 7F110000 		.4byte	0x117f
 6102 1207 14       		.byte	0x14
 6103 1208 12       		.uleb128 0x12
 6104 1209 723600   		.ascii	"r6\000"
 6105 120c 06       		.byte	0x6
 6106 120d CA       		.byte	0xca
 6107 120e 11       		.byte	0x11
 6108 120f 7F110000 		.4byte	0x117f
 6109 1213 18       		.byte	0x18
 6110 1214 12       		.uleb128 0x12
 6111 1215 723700   		.ascii	"r7\000"
 6112 1218 06       		.byte	0x6
 6113 1219 CB       		.byte	0xcb
 6114 121a 11       		.byte	0x11
 6115 121b 7F110000 		.4byte	0x117f
 6116 121f 1C       		.byte	0x1c
 6117 1220 12       		.uleb128 0x12
 6118 1221 6C7200   		.ascii	"lr\000"
 6119 1224 06       		.byte	0x6
 6120 1225 CC       		.byte	0xcc
 6121 1226 11       		.byte	0x11
 6122 1227 7F110000 		.4byte	0x117f
 6123 122b 20       		.byte	0x20
 6124 122c 00       		.byte	0
 6125 122d 06       		.uleb128 0x6
 6126 122e 04       		.byte	0x4
 6127 122f B1110000 		.4byte	0x11b1
 6128 1233 1E       		.uleb128 0x1e
 6129 1234 60       		.byte	0x60
 6130 1235 16       		.byte	0x16
 6131 1236 A101     		.2byte	0x1a1
 6132 1238 09       		.byte	0x9
 6133 1239 54130000 		.4byte	0x1354
 6134 123d 18       		.uleb128 0x18
 6135 123e 43523100 		.ascii	"CR1\000"
 6136 1242 16       		.byte	0x16
 6137 1243 A201     		.2byte	0x1a2
 6138 1245 19       		.byte	0x19
 6139 1246 B8090000 		.4byte	0x9b8
 6140 124a 00       		.byte	0
 6141 124b 18       		.uleb128 0x18
 6142 124c 43523200 		.ascii	"CR2\000"
 6143 1250 16       		.byte	0x16
 6144 1251 A301     		.2byte	0x1a3
 6145 1253 19       		.byte	0x19
 6146 1254 B8090000 		.4byte	0x9b8
 6147 1258 04       		.byte	0x4
 6148 1259 17       		.uleb128 0x17
 6149 125a 55040000 		.4byte	.LASF234
 6150 125e 16       		.byte	0x16
 6151 125f A401     		.2byte	0x1a4
 6152 1261 19       		.byte	0x19
 6153 1262 B8090000 		.4byte	0x9b8
 6154 1266 08       		.byte	0x8
 6155 1267 17       		.uleb128 0x17
 6156 1268 56090000 		.4byte	.LASF235
ARM GAS  /tmp/ccTxpxgR.s 			page 109


 6157 126c 16       		.byte	0x16
 6158 126d A501     		.2byte	0x1a5
 6159 126f 19       		.byte	0x19
 6160 1270 B8090000 		.4byte	0x9b8
 6161 1274 0C       		.byte	0xc
 6162 1275 18       		.uleb128 0x18
 6163 1276 535200   		.ascii	"SR\000"
 6164 1279 16       		.byte	0x16
 6165 127a A601     		.2byte	0x1a6
 6166 127c 19       		.byte	0x19
 6167 127d B8090000 		.4byte	0x9b8
 6168 1281 10       		.byte	0x10
 6169 1282 18       		.uleb128 0x18
 6170 1283 45475200 		.ascii	"EGR\000"
 6171 1287 16       		.byte	0x16
 6172 1288 A701     		.2byte	0x1a7
 6173 128a 19       		.byte	0x19
 6174 128b B8090000 		.4byte	0x9b8
 6175 128f 14       		.byte	0x14
 6176 1290 17       		.uleb128 0x17
 6177 1291 BD050000 		.4byte	.LASF236
 6178 1295 16       		.byte	0x16
 6179 1296 A801     		.2byte	0x1a8
 6180 1298 19       		.byte	0x19
 6181 1299 B8090000 		.4byte	0x9b8
 6182 129d 18       		.byte	0x18
 6183 129e 17       		.uleb128 0x17
 6184 129f C3050000 		.4byte	.LASF237
 6185 12a3 16       		.byte	0x16
 6186 12a4 A901     		.2byte	0x1a9
 6187 12a6 19       		.byte	0x19
 6188 12a7 B8090000 		.4byte	0x9b8
 6189 12ab 1C       		.byte	0x1c
 6190 12ac 17       		.uleb128 0x17
 6191 12ad E4110000 		.4byte	.LASF238
 6192 12b1 16       		.byte	0x16
 6193 12b2 AA01     		.2byte	0x1aa
 6194 12b4 19       		.byte	0x19
 6195 12b5 B8090000 		.4byte	0x9b8
 6196 12b9 20       		.byte	0x20
 6197 12ba 18       		.uleb128 0x18
 6198 12bb 434E5400 		.ascii	"CNT\000"
 6199 12bf 16       		.byte	0x16
 6200 12c0 AB01     		.2byte	0x1ab
 6201 12c2 19       		.byte	0x19
 6202 12c3 B8090000 		.4byte	0x9b8
 6203 12c7 24       		.byte	0x24
 6204 12c8 18       		.uleb128 0x18
 6205 12c9 50534300 		.ascii	"PSC\000"
 6206 12cd 16       		.byte	0x16
 6207 12ce AC01     		.2byte	0x1ac
 6208 12d0 19       		.byte	0x19
 6209 12d1 B8090000 		.4byte	0x9b8
 6210 12d5 28       		.byte	0x28
 6211 12d6 18       		.uleb128 0x18
 6212 12d7 41525200 		.ascii	"ARR\000"
 6213 12db 16       		.byte	0x16
ARM GAS  /tmp/ccTxpxgR.s 			page 110


 6214 12dc AD01     		.2byte	0x1ad
 6215 12de 19       		.byte	0x19
 6216 12df B8090000 		.4byte	0x9b8
 6217 12e3 2C       		.byte	0x2c
 6218 12e4 18       		.uleb128 0x18
 6219 12e5 52435200 		.ascii	"RCR\000"
 6220 12e9 16       		.byte	0x16
 6221 12ea AE01     		.2byte	0x1ae
 6222 12ec 19       		.byte	0x19
 6223 12ed B8090000 		.4byte	0x9b8
 6224 12f1 30       		.byte	0x30
 6225 12f2 18       		.uleb128 0x18
 6226 12f3 43435200 		.ascii	"CCR\000"
 6227 12f7 16       		.byte	0x16
 6228 12f8 AF01     		.2byte	0x1af
 6229 12fa 19       		.byte	0x19
 6230 12fb F30D0000 		.4byte	0xdf3
 6231 12ff 34       		.byte	0x34
 6232 1300 17       		.uleb128 0x17
 6233 1301 E1150000 		.4byte	.LASF239
 6234 1305 16       		.byte	0x16
 6235 1306 B001     		.2byte	0x1b0
 6236 1308 19       		.byte	0x19
 6237 1309 B8090000 		.4byte	0x9b8
 6238 130d 44       		.byte	0x44
 6239 130e 18       		.uleb128 0x18
 6240 130f 44435200 		.ascii	"DCR\000"
 6241 1313 16       		.byte	0x16
 6242 1314 B101     		.2byte	0x1b1
 6243 1316 19       		.byte	0x19
 6244 1317 B8090000 		.4byte	0x9b8
 6245 131b 48       		.byte	0x48
 6246 131c 17       		.uleb128 0x17
 6247 131d EF010000 		.4byte	.LASF240
 6248 1321 16       		.byte	0x16
 6249 1322 B201     		.2byte	0x1b2
 6250 1324 19       		.byte	0x19
 6251 1325 B8090000 		.4byte	0x9b8
 6252 1329 4C       		.byte	0x4c
 6253 132a 18       		.uleb128 0x18
 6254 132b 4F5200   		.ascii	"OR\000"
 6255 132e 16       		.byte	0x16
 6256 132f B301     		.2byte	0x1b3
 6257 1331 19       		.byte	0x19
 6258 1332 B8090000 		.4byte	0x9b8
 6259 1336 50       		.byte	0x50
 6260 1337 17       		.uleb128 0x17
 6261 1338 C9050000 		.4byte	.LASF241
 6262 133c 16       		.byte	0x16
 6263 133d B401     		.2byte	0x1b4
 6264 133f 19       		.byte	0x19
 6265 1340 B8090000 		.4byte	0x9b8
 6266 1344 54       		.byte	0x54
 6267 1345 17       		.uleb128 0x17
 6268 1346 3C080000 		.4byte	.LASF242
 6269 134a 16       		.byte	0x16
 6270 134b B501     		.2byte	0x1b5
ARM GAS  /tmp/ccTxpxgR.s 			page 111


 6271 134d 19       		.byte	0x19
 6272 134e 4E0D0000 		.4byte	0xd4e
 6273 1352 58       		.byte	0x58
 6274 1353 00       		.byte	0
 6275 1354 08       		.uleb128 0x8
 6276 1355 1A0B0000 		.4byte	.LASF243
 6277 1359 16       		.byte	0x16
 6278 135a B601     		.2byte	0x1b6
 6279 135c 03       		.byte	0x3
 6280 135d 33120000 		.4byte	0x1233
 6281 1361 09       		.uleb128 0x9
 6282 1362 04       		.byte	0x4
 6283 1363 04       		.byte	0x4
 6284 1364 D2       		.byte	0xd2
 6285 1365 03       		.byte	0x3
 6286 1366 B5130000 		.4byte	0x13b5
 6287 136a 0A       		.uleb128 0xa
 6288 136b 83160000 		.4byte	.LASF244
 6289 136f 04       		.byte	0x4
 6290 1370 D9       		.byte	0xd9
 6291 1371 19       		.byte	0x19
 6292 1372 F9090000 		.4byte	0x9f9
 6293 1376 0A       		.uleb128 0xa
 6294 1377 7E020000 		.4byte	.LASF245
 6295 137b 04       		.byte	0x4
 6296 137c E0       		.byte	0xe0
 6297 137d 19       		.byte	0x19
 6298 137e F9090000 		.4byte	0x9f9
 6299 1382 0A       		.uleb128 0xa
 6300 1383 3A060000 		.4byte	.LASF246
 6301 1387 04       		.byte	0x4
 6302 1388 E7       		.byte	0xe7
 6303 1389 1A       		.byte	0x1a
 6304 138a 75010000 		.4byte	0x175
 6305 138e 0A       		.uleb128 0xa
 6306 138f 8F040000 		.4byte	.LASF247
 6307 1393 04       		.byte	0x4
 6308 1394 EE       		.byte	0xee
 6309 1395 1A       		.byte	0x1a
 6310 1396 B5130000 		.4byte	0x13b5
 6311 139a 1F       		.uleb128 0x1f
 6312 139b CC080000 		.4byte	.LASF248
 6313 139f 04       		.byte	0x4
 6314 13a0 0501     		.2byte	0x105
 6315 13a2 1A       		.byte	0x1a
 6316 13a3 FD130000 		.4byte	0x13fd
 6317 13a7 1F       		.uleb128 0x1f
 6318 13a8 46040000 		.4byte	.LASF249
 6319 13ac 04       		.byte	0x4
 6320 13ad 0D01     		.2byte	0x10d
 6321 13af 19       		.byte	0x19
 6322 13b0 050A0000 		.4byte	0xa05
 6323 13b4 00       		.byte	0
 6324 13b5 06       		.uleb128 0x6
 6325 13b6 04       		.byte	0x4
 6326 13b7 150B0000 		.4byte	0xb15
 6327 13bb 11       		.uleb128 0x11
ARM GAS  /tmp/ccTxpxgR.s 			page 112


 6328 13bc 65140000 		.4byte	.LASF250
 6329 13c0 14       		.byte	0x14
 6330 13c1 17       		.byte	0x17
 6331 13c2 39       		.byte	0x39
 6332 13c3 08       		.byte	0x8
 6333 13c4 FD130000 		.4byte	0x13fd
 6334 13c8 0E       		.uleb128 0xe
 6335 13c9 2E120000 		.4byte	.LASF147
 6336 13cd 17       		.byte	0x17
 6337 13ce 3A       		.byte	0x3a
 6338 13cf 19       		.byte	0x19
 6339 13d0 4E0B0000 		.4byte	0xb4e
 6340 13d4 00       		.byte	0
 6341 13d5 0E       		.uleb128 0xe
 6342 13d6 70000000 		.4byte	.LASF251
 6343 13da 17       		.byte	0x17
 6344 13db 3C       		.byte	0x3c
 6345 13dc 1A       		.byte	0x1a
 6346 13dd 210B0000 		.4byte	0xb21
 6347 13e1 08       		.byte	0x8
 6348 13e2 0E       		.uleb128 0xe
 6349 13e3 EF170000 		.4byte	.LASF163
 6350 13e7 17       		.byte	0x17
 6351 13e8 3E       		.byte	0x3e
 6352 13e9 1A       		.byte	0x1a
 6353 13ea 60150000 		.4byte	0x1560
 6354 13ee 0C       		.byte	0xc
 6355 13ef 12       		.uleb128 0x12
 6356 13f0 636E7400 		.ascii	"cnt\000"
 6357 13f4 17       		.byte	0x17
 6358 13f5 41       		.byte	0x41
 6359 13f6 19       		.byte	0x19
 6360 13f7 1D0A0000 		.4byte	0xa1d
 6361 13fb 10       		.byte	0x10
 6362 13fc 00       		.byte	0
 6363 13fd 06       		.uleb128 0x6
 6364 13fe 04       		.byte	0x4
 6365 13ff BB130000 		.4byte	0x13bb
 6366 1403 06       		.uleb128 0x6
 6367 1404 04       		.byte	0x4
 6368 1405 8B110000 		.4byte	0x118b
 6369 1409 06       		.uleb128 0x6
 6370 140a 04       		.byte	0x4
 6371 140b 0E0C0000 		.4byte	0xc0e
 6372 140f 20       		.uleb128 0x20
 6373 1410 636800   		.ascii	"ch\000"
 6374 1413 04       		.byte	0x4
 6375 1414 D201     		.2byte	0x1d2
 6376 1416 14       		.byte	0x14
 6377 1417 EB0C0000 		.4byte	0xceb
 6378 141b 0B       		.uleb128 0xb
 6379 141c 8B110000 		.4byte	0x118b
 6380 1420 26140000 		.4byte	0x1426
 6381 1424 21       		.uleb128 0x21
 6382 1425 00       		.byte	0
 6383 1426 1C       		.uleb128 0x1c
 6384 1427 8C0A0000 		.4byte	.LASF252
ARM GAS  /tmp/ccTxpxgR.s 			page 113


 6385 142b 05       		.byte	0x5
 6386 142c 2B01     		.2byte	0x12b
 6387 142e 13       		.byte	0x13
 6388 142f 1B140000 		.4byte	0x141b
 6389 1433 0D       		.uleb128 0xd
 6390 1434 16       		.byte	0x16
 6391 1435 18       		.byte	0x18
 6392 1436 34       		.byte	0x34
 6393 1437 09       		.byte	0x9
 6394 1438 27150000 		.4byte	0x1527
 6395 143c 0E       		.uleb128 0xe
 6396 143d 17180000 		.4byte	.LASF253
 6397 1441 18       		.byte	0x18
 6398 1442 35       		.byte	0x35
 6399 1443 0D       		.byte	0xd
 6400 1444 27150000 		.4byte	0x1527
 6401 1448 00       		.byte	0
 6402 1449 0E       		.uleb128 0xe
 6403 144a 59030000 		.4byte	.LASF254
 6404 144e 18       		.byte	0x18
 6405 144f 36       		.byte	0x36
 6406 1450 0D       		.byte	0xd
 6407 1451 72090000 		.4byte	0x972
 6408 1455 04       		.byte	0x4
 6409 1456 0E       		.uleb128 0xe
 6410 1457 3E110000 		.4byte	.LASF255
 6411 145b 18       		.byte	0x18
 6412 145c 37       		.byte	0x37
 6413 145d 0D       		.byte	0xd
 6414 145e 72090000 		.4byte	0x972
 6415 1462 05       		.byte	0x5
 6416 1463 0E       		.uleb128 0xe
 6417 1464 C0120000 		.4byte	.LASF256
 6418 1468 18       		.byte	0x18
 6419 1469 38       		.byte	0x38
 6420 146a 0D       		.byte	0xd
 6421 146b 8F090000 		.4byte	0x98f
 6422 146f 06       		.byte	0x6
 6423 1470 0E       		.uleb128 0xe
 6424 1471 2E080000 		.4byte	.LASF257
 6425 1475 18       		.byte	0x18
 6426 1476 39       		.byte	0x39
 6427 1477 0D       		.byte	0xd
 6428 1478 72090000 		.4byte	0x972
 6429 147c 08       		.byte	0x8
 6430 147d 0E       		.uleb128 0xe
 6431 147e 50170000 		.4byte	.LASF258
 6432 1482 18       		.byte	0x18
 6433 1483 3A       		.byte	0x3a
 6434 1484 0D       		.byte	0xd
 6435 1485 72090000 		.4byte	0x972
 6436 1489 09       		.byte	0x9
 6437 148a 0E       		.uleb128 0xe
 6438 148b D4090000 		.4byte	.LASF259
 6439 148f 18       		.byte	0x18
 6440 1490 3B       		.byte	0x3b
 6441 1491 0D       		.byte	0xd
ARM GAS  /tmp/ccTxpxgR.s 			page 114


 6442 1492 72090000 		.4byte	0x972
 6443 1496 0A       		.byte	0xa
 6444 1497 0E       		.uleb128 0xe
 6445 1498 22000000 		.4byte	.LASF260
 6446 149c 18       		.byte	0x18
 6447 149d 3C       		.byte	0x3c
 6448 149e 0D       		.byte	0xd
 6449 149f 72090000 		.4byte	0x972
 6450 14a3 0B       		.byte	0xb
 6451 14a4 0E       		.uleb128 0xe
 6452 14a5 00000000 		.4byte	.LASF261
 6453 14a9 18       		.byte	0x18
 6454 14aa 3D       		.byte	0x3d
 6455 14ab 0D       		.byte	0xd
 6456 14ac 72090000 		.4byte	0x972
 6457 14b0 0C       		.byte	0xc
 6458 14b1 0E       		.uleb128 0xe
 6459 14b2 040E0000 		.4byte	.LASF262
 6460 14b6 18       		.byte	0x18
 6461 14b7 3E       		.byte	0x3e
 6462 14b8 0D       		.byte	0xd
 6463 14b9 72090000 		.4byte	0x972
 6464 14bd 0D       		.byte	0xd
 6465 14be 0E       		.uleb128 0xe
 6466 14bf 2A020000 		.4byte	.LASF263
 6467 14c3 18       		.byte	0x18
 6468 14c4 3F       		.byte	0x3f
 6469 14c5 0D       		.byte	0xd
 6470 14c6 72090000 		.4byte	0x972
 6471 14ca 0E       		.byte	0xe
 6472 14cb 0E       		.uleb128 0xe
 6473 14cc 91110000 		.4byte	.LASF264
 6474 14d0 18       		.byte	0x18
 6475 14d1 40       		.byte	0x40
 6476 14d2 0D       		.byte	0xd
 6477 14d3 72090000 		.4byte	0x972
 6478 14d7 0F       		.byte	0xf
 6479 14d8 0E       		.uleb128 0xe
 6480 14d9 3C0B0000 		.4byte	.LASF265
 6481 14dd 18       		.byte	0x18
 6482 14de 41       		.byte	0x41
 6483 14df 0D       		.byte	0xd
 6484 14e0 72090000 		.4byte	0x972
 6485 14e4 10       		.byte	0x10
 6486 14e5 0E       		.uleb128 0xe
 6487 14e6 90090000 		.4byte	.LASF266
 6488 14ea 18       		.byte	0x18
 6489 14eb 42       		.byte	0x42
 6490 14ec 0D       		.byte	0xd
 6491 14ed 72090000 		.4byte	0x972
 6492 14f1 11       		.byte	0x11
 6493 14f2 0E       		.uleb128 0xe
 6494 14f3 A2170000 		.4byte	.LASF267
 6495 14f7 18       		.byte	0x18
 6496 14f8 43       		.byte	0x43
 6497 14f9 0D       		.byte	0xd
 6498 14fa 72090000 		.4byte	0x972
ARM GAS  /tmp/ccTxpxgR.s 			page 115


 6499 14fe 12       		.byte	0x12
 6500 14ff 0E       		.uleb128 0xe
 6501 1500 5D160000 		.4byte	.LASF268
 6502 1504 18       		.byte	0x18
 6503 1505 44       		.byte	0x44
 6504 1506 0D       		.byte	0xd
 6505 1507 72090000 		.4byte	0x972
 6506 150b 13       		.byte	0x13
 6507 150c 0E       		.uleb128 0xe
 6508 150d 4D000000 		.4byte	.LASF269
 6509 1511 18       		.byte	0x18
 6510 1512 45       		.byte	0x45
 6511 1513 0D       		.byte	0xd
 6512 1514 72090000 		.4byte	0x972
 6513 1518 14       		.byte	0x14
 6514 1519 0E       		.uleb128 0xe
 6515 151a 6E080000 		.4byte	.LASF270
 6516 151e 18       		.byte	0x18
 6517 151f 46       		.byte	0x46
 6518 1520 0D       		.byte	0xd
 6519 1521 72090000 		.4byte	0x972
 6520 1525 15       		.byte	0x15
 6521 1526 00       		.byte	0
 6522 1527 0B       		.uleb128 0xb
 6523 1528 7D010000 		.4byte	0x17d
 6524 152c 37150000 		.4byte	0x1537
 6525 1530 0C       		.uleb128 0xc
 6526 1531 3D000000 		.4byte	0x3d
 6527 1535 03       		.byte	0x3
 6528 1536 00       		.byte	0
 6529 1537 03       		.uleb128 0x3
 6530 1538 F7160000 		.4byte	.LASF271
 6531 153c 18       		.byte	0x18
 6532 153d 47       		.byte	0x47
 6533 153e 03       		.byte	0x3
 6534 153f 33140000 		.4byte	0x1433
 6535 1543 10       		.uleb128 0x10
 6536 1544 37150000 		.4byte	0x1537
 6537 1548 1D       		.uleb128 0x1d
 6538 1549 84000000 		.4byte	.LASF272
 6539 154d 18       		.byte	0x18
 6540 154e 6C       		.byte	0x6c
 6541 154f 1D       		.byte	0x1d
 6542 1550 43150000 		.4byte	0x1543
 6543 1554 03       		.uleb128 0x3
 6544 1555 5A150000 		.4byte	.LASF273
 6545 1559 17       		.byte	0x17
 6546 155a 34       		.byte	0x34
 6547 155b 19       		.byte	0x19
 6548 155c BB130000 		.4byte	0x13bb
 6549 1560 06       		.uleb128 0x6
 6550 1561 04       		.byte	0x4
 6551 1562 54150000 		.4byte	0x1554
 6552 1566 03       		.uleb128 0x3
 6553 1567 8B120000 		.4byte	.LASF274
 6554 156b 19       		.byte	0x19
 6555 156c 34       		.byte	0x34
ARM GAS  /tmp/ccTxpxgR.s 			page 116


 6556 156d 1F       		.byte	0x1f
 6557 156e 72150000 		.4byte	0x1572
 6558 1572 11       		.uleb128 0x11
 6559 1573 74160000 		.4byte	.LASF275
 6560 1577 14       		.byte	0x14
 6561 1578 19       		.byte	0x19
 6562 1579 39       		.byte	0x39
 6563 157a 08       		.byte	0x8
 6564 157b C1150000 		.4byte	0x15c1
 6565 157f 0E       		.uleb128 0xe
 6566 1580 EF170000 		.4byte	.LASF163
 6567 1584 19       		.byte	0x19
 6568 1585 3A       		.byte	0x3a
 6569 1586 1A       		.byte	0x1a
 6570 1587 C1150000 		.4byte	0x15c1
 6571 158b 00       		.byte	0
 6572 158c 0E       		.uleb128 0xe
 6573 158d E6130000 		.4byte	.LASF276
 6574 1591 19       		.byte	0x19
 6575 1592 3D       		.byte	0x3d
 6576 1593 1A       		.byte	0x1a
 6577 1594 210B0000 		.4byte	0xb21
 6578 1598 04       		.byte	0x4
 6579 1599 0E       		.uleb128 0xe
 6580 159a E8170000 		.4byte	.LASF277
 6581 159e 19       		.byte	0x19
 6582 159f 3F       		.byte	0x3f
 6583 15a0 19       		.byte	0x19
 6584 15a1 050A0000 		.4byte	0xa05
 6585 15a5 08       		.byte	0x8
 6586 15a6 0E       		.uleb128 0xe
 6587 15a7 7E060000 		.4byte	.LASF154
 6588 15ab 19       		.byte	0x19
 6589 15ac 41       		.byte	0x41
 6590 15ad 19       		.byte	0x19
 6591 15ae 110A0000 		.4byte	0xa11
 6592 15b2 0C       		.byte	0xc
 6593 15b3 0E       		.uleb128 0xe
 6594 15b4 67100000 		.4byte	.LASF278
 6595 15b8 19       		.byte	0x19
 6596 15b9 43       		.byte	0x43
 6597 15ba 19       		.byte	0x19
 6598 15bb 110A0000 		.4byte	0xa11
 6599 15bf 10       		.byte	0x10
 6600 15c0 00       		.byte	0
 6601 15c1 06       		.uleb128 0x6
 6602 15c2 04       		.byte	0x4
 6603 15c3 66150000 		.4byte	0x1566
 6604 15c7 11       		.uleb128 0x11
 6605 15c8 45140000 		.4byte	.LASF279
 6606 15cc 04       		.byte	0x4
 6607 15cd 19       		.byte	0x19
 6608 15ce 4A       		.byte	0x4a
 6609 15cf 10       		.byte	0x10
 6610 15d0 E2150000 		.4byte	0x15e2
 6611 15d4 0E       		.uleb128 0xe
 6612 15d5 EF170000 		.4byte	.LASF163
ARM GAS  /tmp/ccTxpxgR.s 			page 117


 6613 15d9 19       		.byte	0x19
 6614 15da 4B       		.byte	0x4b
 6615 15db 1A       		.byte	0x1a
 6616 15dc C1150000 		.4byte	0x15c1
 6617 15e0 00       		.byte	0
 6618 15e1 00       		.byte	0
 6619 15e2 03       		.uleb128 0x3
 6620 15e3 070D0000 		.4byte	.LASF280
 6621 15e7 19       		.byte	0x19
 6622 15e8 4E       		.byte	0x4e
 6623 15e9 03       		.byte	0x3
 6624 15ea C7150000 		.4byte	0x15c7
 6625 15ee 0D       		.uleb128 0xd
 6626 15ef 14       		.byte	0x14
 6627 15f0 1A       		.byte	0x1a
 6628 15f1 E4       		.byte	0xe4
 6629 15f2 09       		.byte	0x9
 6630 15f3 53160000 		.4byte	0x1653
 6631 15f7 12       		.uleb128 0x12
 6632 15f8 646D6100 		.ascii	"dma\000"
 6633 15fc 1A       		.byte	0x1a
 6634 15fd E5       		.byte	0xe5
 6635 15fe 1A       		.byte	0x1a
 6636 15ff 53160000 		.4byte	0x1653
 6637 1603 00       		.byte	0
 6638 1604 0E       		.uleb128 0xe
 6639 1605 590A0000 		.4byte	.LASF281
 6640 1609 1A       		.byte	0x1a
 6641 160a E6       		.byte	0xe6
 6642 160b 1A       		.byte	0x1a
 6643 160c 59160000 		.4byte	0x1659
 6644 1610 04       		.byte	0x4
 6645 1611 0E       		.uleb128 0xe
 6646 1612 C5100000 		.4byte	.LASF282
 6647 1616 1A       		.byte	0x1a
 6648 1617 E7       		.byte	0xe7
 6649 1618 19       		.byte	0x19
 6650 1619 AC090000 		.4byte	0x9ac
 6651 161d 08       		.byte	0x8
 6652 161e 0E       		.uleb128 0xe
 6653 161f E5050000 		.4byte	.LASF283
 6654 1623 1A       		.byte	0x1a
 6655 1624 E9       		.byte	0xe9
 6656 1625 1A       		.byte	0x1a
 6657 1626 5F160000 		.4byte	0x165f
 6658 162a 0C       		.byte	0xc
 6659 162b 0E       		.uleb128 0xe
 6660 162c 490A0000 		.4byte	.LASF284
 6661 1630 1A       		.byte	0x1a
 6662 1631 EA       		.byte	0xea
 6663 1632 19       		.byte	0x19
 6664 1633 72090000 		.4byte	0x972
 6665 1637 10       		.byte	0x10
 6666 1638 0E       		.uleb128 0xe
 6667 1639 0E0E0000 		.4byte	.LASF285
 6668 163d 1A       		.byte	0x1a
 6669 163e EC       		.byte	0xec
ARM GAS  /tmp/ccTxpxgR.s 			page 118


 6670 163f 19       		.byte	0x19
 6671 1640 72090000 		.4byte	0x972
 6672 1644 11       		.byte	0x11
 6673 1645 0E       		.uleb128 0xe
 6674 1646 34120000 		.4byte	.LASF286
 6675 164a 1A       		.byte	0x1a
 6676 164b ED       		.byte	0xed
 6677 164c 19       		.byte	0x19
 6678 164d 72090000 		.4byte	0x972
 6679 1651 12       		.byte	0x12
 6680 1652 00       		.byte	0
 6681 1653 06       		.uleb128 0x6
 6682 1654 04       		.byte	0x4
 6683 1655 D60D0000 		.4byte	0xdd6
 6684 1659 06       		.uleb128 0x6
 6685 165a 04       		.byte	0x4
 6686 165b A20D0000 		.4byte	0xda2
 6687 165f 06       		.uleb128 0x6
 6688 1660 04       		.byte	0x4
 6689 1661 B8090000 		.4byte	0x9b8
 6690 1665 03       		.uleb128 0x3
 6691 1666 08000000 		.4byte	.LASF287
 6692 166a 1A       		.byte	0x1a
 6693 166b EE       		.byte	0xee
 6694 166c 03       		.byte	0x3
 6695 166d EE150000 		.4byte	0x15ee
 6696 1671 10       		.uleb128 0x10
 6697 1672 65160000 		.4byte	0x1665
 6698 1676 03       		.uleb128 0x3
 6699 1677 9F0E0000 		.4byte	.LASF288
 6700 167b 1A       		.byte	0x1a
 6701 167c F7       		.byte	0xf7
 6702 167d 10       		.byte	0x10
 6703 167e 82160000 		.4byte	0x1682
 6704 1682 06       		.uleb128 0x6
 6705 1683 04       		.byte	0x4
 6706 1684 88160000 		.4byte	0x1688
 6707 1688 1B       		.uleb128 0x1b
 6708 1689 98160000 		.4byte	0x1698
 6709 168d 1A       		.uleb128 0x1a
 6710 168e 75010000 		.4byte	0x175
 6711 1692 1A       		.uleb128 0x1a
 6712 1693 AC090000 		.4byte	0x9ac
 6713 1697 00       		.byte	0
 6714 1698 0D       		.uleb128 0xd
 6715 1699 08       		.byte	0x8
 6716 169a 1A       		.byte	0x1a
 6717 169b FC       		.byte	0xfc
 6718 169c 09       		.byte	0x9
 6719 169d BC160000 		.4byte	0x16bc
 6720 16a1 0E       		.uleb128 0xe
 6721 16a2 77080000 		.4byte	.LASF289
 6722 16a6 1A       		.byte	0x1a
 6723 16a7 FD       		.byte	0xfd
 6724 16a8 19       		.byte	0x19
 6725 16a9 76160000 		.4byte	0x1676
 6726 16ad 00       		.byte	0
ARM GAS  /tmp/ccTxpxgR.s 			page 119


 6727 16ae 0E       		.uleb128 0xe
 6728 16af FB140000 		.4byte	.LASF290
 6729 16b3 1A       		.byte	0x1a
 6730 16b4 FE       		.byte	0xfe
 6731 16b5 1A       		.byte	0x1a
 6732 16b6 75010000 		.4byte	0x175
 6733 16ba 04       		.byte	0x4
 6734 16bb 00       		.byte	0
 6735 16bc 03       		.uleb128 0x3
 6736 16bd 08100000 		.4byte	.LASF291
 6737 16c1 1A       		.byte	0x1a
 6738 16c2 FF       		.byte	0xff
 6739 16c3 03       		.byte	0x3
 6740 16c4 98160000 		.4byte	0x1698
 6741 16c8 0B       		.uleb128 0xb
 6742 16c9 71160000 		.4byte	0x1671
 6743 16cd D8160000 		.4byte	0x16d8
 6744 16d1 0C       		.uleb128 0xc
 6745 16d2 3D000000 		.4byte	0x3d
 6746 16d6 06       		.byte	0x6
 6747 16d7 00       		.byte	0
 6748 16d8 10       		.uleb128 0x10
 6749 16d9 C8160000 		.4byte	0x16c8
 6750 16dd 1C       		.uleb128 0x1c
 6751 16de AF0A0000 		.4byte	.LASF292
 6752 16e2 1A       		.byte	0x1a
 6753 16e3 CD01     		.2byte	0x1cd
 6754 16e5 21       		.byte	0x21
 6755 16e6 D8160000 		.4byte	0x16d8
 6756 16ea 0B       		.uleb128 0xb
 6757 16eb BC160000 		.4byte	0x16bc
 6758 16ef FA160000 		.4byte	0x16fa
 6759 16f3 0C       		.uleb128 0xc
 6760 16f4 3D000000 		.4byte	0x3d
 6761 16f8 06       		.byte	0x6
 6762 16f9 00       		.byte	0
 6763 16fa 1C       		.uleb128 0x1c
 6764 16fb 26140000 		.4byte	.LASF293
 6765 16ff 1A       		.byte	0x1a
 6766 1700 CE01     		.2byte	0x1ce
 6767 1702 18       		.byte	0x18
 6768 1703 EA160000 		.4byte	0x16ea
 6769 1707 19       		.uleb128 0x19
 6770 1708 2C000000 		.4byte	0x2c
 6771 170c 20170000 		.4byte	0x1720
 6772 1710 1A       		.uleb128 0x1a
 6773 1711 75010000 		.4byte	0x175
 6774 1715 1A       		.uleb128 0x1a
 6775 1716 20170000 		.4byte	0x1720
 6776 171a 1A       		.uleb128 0x1a
 6777 171b 2C000000 		.4byte	0x2c
 6778 171f 00       		.byte	0
 6779 1720 06       		.uleb128 0x6
 6780 1721 04       		.byte	0x4
 6781 1722 7E090000 		.4byte	0x97e
 6782 1726 06       		.uleb128 0x6
 6783 1727 04       		.byte	0x4
ARM GAS  /tmp/ccTxpxgR.s 			page 120


 6784 1728 07170000 		.4byte	0x1707
 6785 172c 19       		.uleb128 0x19
 6786 172d 2C000000 		.4byte	0x2c
 6787 1731 45170000 		.4byte	0x1745
 6788 1735 1A       		.uleb128 0x1a
 6789 1736 75010000 		.4byte	0x175
 6790 173a 1A       		.uleb128 0x1a
 6791 173b 45170000 		.4byte	0x1745
 6792 173f 1A       		.uleb128 0x1a
 6793 1740 2C000000 		.4byte	0x2c
 6794 1744 00       		.byte	0
 6795 1745 06       		.uleb128 0x6
 6796 1746 04       		.byte	0x4
 6797 1747 72090000 		.4byte	0x972
 6798 174b 06       		.uleb128 0x6
 6799 174c 04       		.byte	0x4
 6800 174d 2C170000 		.4byte	0x172c
 6801 1751 19       		.uleb128 0x19
 6802 1752 F9090000 		.4byte	0x9f9
 6803 1756 65170000 		.4byte	0x1765
 6804 175a 1A       		.uleb128 0x1a
 6805 175b 75010000 		.4byte	0x175
 6806 175f 1A       		.uleb128 0x1a
 6807 1760 72090000 		.4byte	0x972
 6808 1764 00       		.byte	0
 6809 1765 06       		.uleb128 0x6
 6810 1766 04       		.byte	0x4
 6811 1767 51170000 		.4byte	0x1751
 6812 176b 19       		.uleb128 0x19
 6813 176c F9090000 		.4byte	0x9f9
 6814 1770 7A170000 		.4byte	0x177a
 6815 1774 1A       		.uleb128 0x1a
 6816 1775 75010000 		.4byte	0x175
 6817 1779 00       		.byte	0
 6818 177a 06       		.uleb128 0x6
 6819 177b 04       		.byte	0x4
 6820 177c 6B170000 		.4byte	0x176b
 6821 1780 19       		.uleb128 0x19
 6822 1781 F9090000 		.4byte	0x9f9
 6823 1785 99170000 		.4byte	0x1799
 6824 1789 1A       		.uleb128 0x1a
 6825 178a 75010000 		.4byte	0x175
 6826 178e 1A       		.uleb128 0x1a
 6827 178f 72090000 		.4byte	0x972
 6828 1793 1A       		.uleb128 0x1a
 6829 1794 290A0000 		.4byte	0xa29
 6830 1798 00       		.byte	0
 6831 1799 06       		.uleb128 0x6
 6832 179a 04       		.byte	0x4
 6833 179b 80170000 		.4byte	0x1780
 6834 179f 19       		.uleb128 0x19
 6835 17a0 F9090000 		.4byte	0x9f9
 6836 17a4 B3170000 		.4byte	0x17b3
 6837 17a8 1A       		.uleb128 0x1a
 6838 17a9 75010000 		.4byte	0x175
 6839 17ad 1A       		.uleb128 0x1a
 6840 17ae 290A0000 		.4byte	0xa29
ARM GAS  /tmp/ccTxpxgR.s 			page 121


 6841 17b2 00       		.byte	0
 6842 17b3 06       		.uleb128 0x6
 6843 17b4 04       		.byte	0x4
 6844 17b5 9F170000 		.4byte	0x179f
 6845 17b9 19       		.uleb128 0x19
 6846 17ba 2C000000 		.4byte	0x2c
 6847 17be D7170000 		.4byte	0x17d7
 6848 17c2 1A       		.uleb128 0x1a
 6849 17c3 75010000 		.4byte	0x175
 6850 17c7 1A       		.uleb128 0x1a
 6851 17c8 20170000 		.4byte	0x1720
 6852 17cc 1A       		.uleb128 0x1a
 6853 17cd 2C000000 		.4byte	0x2c
 6854 17d1 1A       		.uleb128 0x1a
 6855 17d2 290A0000 		.4byte	0xa29
 6856 17d6 00       		.byte	0
 6857 17d7 06       		.uleb128 0x6
 6858 17d8 04       		.byte	0x4
 6859 17d9 B9170000 		.4byte	0x17b9
 6860 17dd 19       		.uleb128 0x19
 6861 17de 2C000000 		.4byte	0x2c
 6862 17e2 FB170000 		.4byte	0x17fb
 6863 17e6 1A       		.uleb128 0x1a
 6864 17e7 75010000 		.4byte	0x175
 6865 17eb 1A       		.uleb128 0x1a
 6866 17ec 45170000 		.4byte	0x1745
 6867 17f0 1A       		.uleb128 0x1a
 6868 17f1 2C000000 		.4byte	0x2c
 6869 17f5 1A       		.uleb128 0x1a
 6870 17f6 290A0000 		.4byte	0xa29
 6871 17fa 00       		.byte	0
 6872 17fb 06       		.uleb128 0x6
 6873 17fc 04       		.byte	0x4
 6874 17fd DD170000 		.4byte	0x17dd
 6875 1801 05       		.uleb128 0x5
 6876 1802 01       		.byte	0x1
 6877 1803 02       		.byte	0x2
 6878 1804 9A050000 		.4byte	.LASF294
 6879 1808 03       		.uleb128 0x3
 6880 1809 0E150000 		.4byte	.LASF295
 6881 180d 1B       		.byte	0x1b
 6882 180e 2F       		.byte	0x2f
 6883 180f 21       		.byte	0x21
 6884 1810 14180000 		.4byte	0x1814
 6885 1814 11       		.uleb128 0x11
 6886 1815 9C150000 		.4byte	.LASF296
 6887 1819 34       		.byte	0x34
 6888 181a 1B       		.byte	0x1b
 6889 181b 3B       		.byte	0x3b
 6890 181c 08       		.byte	0x8
 6891 181d BD180000 		.4byte	0x18bd
 6892 1821 0E       		.uleb128 0xe
 6893 1822 3B150000 		.4byte	.LASF156
 6894 1826 1B       		.byte	0x1b
 6895 1827 3F       		.byte	0x3f
 6896 1828 19       		.byte	0x19
 6897 1829 4E0B0000 		.4byte	0xb4e
ARM GAS  /tmp/ccTxpxgR.s 			page 122


 6898 182d 00       		.byte	0
 6899 182e 0E       		.uleb128 0xe
 6900 182f 99060000 		.4byte	.LASF297
 6901 1833 1B       		.byte	0x1b
 6902 1834 43       		.byte	0x43
 6903 1835 19       		.byte	0x19
 6904 1836 38000000 		.4byte	0x38
 6905 183a 08       		.byte	0x8
 6906 183b 0E       		.uleb128 0xe
 6907 183c BA0F0000 		.4byte	.LASF298
 6908 1840 1B       		.byte	0x1b
 6909 1841 47       		.byte	0x47
 6910 1842 1A       		.byte	0x1a
 6911 1843 45170000 		.4byte	0x1745
 6912 1847 0C       		.byte	0xc
 6913 1848 0E       		.uleb128 0xe
 6914 1849 F7060000 		.4byte	.LASF299
 6915 184d 1B       		.byte	0x1b
 6916 184e 4B       		.byte	0x4b
 6917 184f 1A       		.byte	0x1a
 6918 1850 45170000 		.4byte	0x1745
 6919 1854 10       		.byte	0x10
 6920 1855 0E       		.uleb128 0xe
 6921 1856 30100000 		.4byte	.LASF300
 6922 185a 1B       		.byte	0x1b
 6923 185b 4F       		.byte	0x4f
 6924 185c 1A       		.byte	0x1a
 6925 185d 45170000 		.4byte	0x1745
 6926 1861 14       		.byte	0x14
 6927 1862 0E       		.uleb128 0xe
 6928 1863 70110000 		.4byte	.LASF301
 6929 1867 1B       		.byte	0x1b
 6930 1868 56       		.byte	0x56
 6931 1869 19       		.byte	0x19
 6932 186a 2C000000 		.4byte	0x2c
 6933 186e 18       		.byte	0x18
 6934 186f 12       		.uleb128 0x12
 6935 1870 626E00   		.ascii	"bn\000"
 6936 1873 1B       		.byte	0x1b
 6937 1874 5A       		.byte	0x5a
 6938 1875 19       		.byte	0x19
 6939 1876 2C000000 		.4byte	0x2c
 6940 187a 1C       		.byte	0x1c
 6941 187b 0E       		.uleb128 0xe
 6942 187c C70B0000 		.4byte	.LASF302
 6943 1880 1B       		.byte	0x1b
 6944 1881 5E       		.byte	0x5e
 6945 1882 1A       		.byte	0x1a
 6946 1883 45170000 		.4byte	0x1745
 6947 1887 20       		.byte	0x20
 6948 1888 12       		.uleb128 0x12
 6949 1889 70747200 		.ascii	"ptr\000"
 6950 188d 1B       		.byte	0x1b
 6951 188e 63       		.byte	0x63
 6952 188f 1A       		.byte	0x1a
 6953 1890 45170000 		.4byte	0x1745
 6954 1894 24       		.byte	0x24
ARM GAS  /tmp/ccTxpxgR.s 			page 123


 6955 1895 12       		.uleb128 0x12
 6956 1896 746F7000 		.ascii	"top\000"
 6957 189a 1B       		.byte	0x1b
 6958 189b 67       		.byte	0x67
 6959 189c 1A       		.byte	0x1a
 6960 189d 45170000 		.4byte	0x1745
 6961 18a1 28       		.byte	0x28
 6962 18a2 0E       		.uleb128 0xe
 6963 18a3 2F110000 		.4byte	.LASF303
 6964 18a7 1B       		.byte	0x1b
 6965 18a8 6B       		.byte	0x6b
 6966 18a9 19       		.byte	0x19
 6967 18aa BD180000 		.4byte	0x18bd
 6968 18ae 2C       		.byte	0x2c
 6969 18af 0E       		.uleb128 0xe
 6970 18b0 07060000 		.4byte	.LASF304
 6971 18b4 1B       		.byte	0x1b
 6972 18b5 6F       		.byte	0x6f
 6973 18b6 1A       		.byte	0x1a
 6974 18b7 75010000 		.4byte	0x175
 6975 18bb 30       		.byte	0x30
 6976 18bc 00       		.byte	0
 6977 18bd 03       		.uleb128 0x3
 6978 18be 8A0E0000 		.4byte	.LASF305
 6979 18c2 1B       		.byte	0x1b
 6980 18c3 36       		.byte	0x36
 6981 18c4 10       		.byte	0x10
 6982 18c5 C9180000 		.4byte	0x18c9
 6983 18c9 06       		.uleb128 0x6
 6984 18ca 04       		.byte	0x4
 6985 18cb CF180000 		.4byte	0x18cf
 6986 18cf 1B       		.uleb128 0x1b
 6987 18d0 DA180000 		.4byte	0x18da
 6988 18d4 1A       		.uleb128 0x1a
 6989 18d5 DA180000 		.4byte	0x18da
 6990 18d9 00       		.byte	0
 6991 18da 06       		.uleb128 0x6
 6992 18db 04       		.byte	0x4
 6993 18dc 08180000 		.4byte	0x1808
 6994 18e0 03       		.uleb128 0x3
 6995 18e1 4B0E0000 		.4byte	.LASF306
 6996 18e5 1B       		.byte	0x1b
 6997 18e6 75       		.byte	0x75
 6998 18e7 1C       		.byte	0x1c
 6999 18e8 08180000 		.4byte	0x1808
 7000 18ec 03       		.uleb128 0x3
 7001 18ed C2160000 		.4byte	.LASF307
 7002 18f1 1B       		.byte	0x1b
 7003 18f2 7A       		.byte	0x7a
 7004 18f3 1C       		.byte	0x1c
 7005 18f4 08180000 		.4byte	0x1808
 7006 18f8 03       		.uleb128 0x3
 7007 18f9 B0140000 		.4byte	.LASF308
 7008 18fd 1C       		.byte	0x1c
 7009 18fe 2A       		.byte	0x2a
 7010 18ff 19       		.byte	0x19
 7011 1900 04190000 		.4byte	0x1904
ARM GAS  /tmp/ccTxpxgR.s 			page 124


 7012 1904 11       		.uleb128 0x11
 7013 1905 DC030000 		.4byte	.LASF309
 7014 1909 24       		.byte	0x24
 7015 190a 1C       		.byte	0x1c
 7016 190b 3B       		.byte	0x3b
 7017 190c 08       		.byte	0x8
 7018 190d 7A190000 		.4byte	0x197a
 7019 1911 0E       		.uleb128 0xe
 7020 1912 51130000 		.4byte	.LASF310
 7021 1916 1C       		.byte	0x1c
 7022 1917 3C       		.byte	0x3c
 7023 1918 19       		.byte	0x19
 7024 1919 4E0B0000 		.4byte	0xb4e
 7025 191d 00       		.byte	0
 7026 191e 0E       		.uleb128 0xe
 7027 191f 6B090000 		.4byte	.LASF311
 7028 1923 1C       		.byte	0x1c
 7029 1924 3D       		.byte	0x3d
 7030 1925 19       		.byte	0x19
 7031 1926 38000000 		.4byte	0x38
 7032 192a 08       		.byte	0x8
 7033 192b 0E       		.uleb128 0xe
 7034 192c D1020000 		.4byte	.LASF312
 7035 1930 1C       		.byte	0x1c
 7036 1931 3E       		.byte	0x3e
 7037 1932 1A       		.byte	0x1a
 7038 1933 45170000 		.4byte	0x1745
 7039 1937 0C       		.byte	0xc
 7040 1938 0E       		.uleb128 0xe
 7041 1939 A7020000 		.4byte	.LASF313
 7042 193d 1C       		.byte	0x1c
 7043 193e 3F       		.byte	0x3f
 7044 193f 1A       		.byte	0x1a
 7045 1940 45170000 		.4byte	0x1745
 7046 1944 10       		.byte	0x10
 7047 1945 0E       		.uleb128 0xe
 7048 1946 8F160000 		.4byte	.LASF314
 7049 194a 1C       		.byte	0x1c
 7050 194b 41       		.byte	0x41
 7051 194c 1A       		.byte	0x1a
 7052 194d 45170000 		.4byte	0x1745
 7053 1951 14       		.byte	0x14
 7054 1952 0E       		.uleb128 0xe
 7055 1953 41030000 		.4byte	.LASF315
 7056 1957 1C       		.byte	0x1c
 7057 1958 42       		.byte	0x42
 7058 1959 1A       		.byte	0x1a
 7059 195a 45170000 		.4byte	0x1745
 7060 195e 18       		.byte	0x18
 7061 195f 0E       		.uleb128 0xe
 7062 1960 EC020000 		.4byte	.LASF316
 7063 1964 1C       		.byte	0x1c
 7064 1965 43       		.byte	0x43
 7065 1966 19       		.byte	0x19
 7066 1967 7A190000 		.4byte	0x197a
 7067 196b 1C       		.byte	0x1c
 7068 196c 0E       		.uleb128 0xe
ARM GAS  /tmp/ccTxpxgR.s 			page 125


 7069 196d C7040000 		.4byte	.LASF317
 7070 1971 1C       		.byte	0x1c
 7071 1972 44       		.byte	0x44
 7072 1973 1A       		.byte	0x1a
 7073 1974 75010000 		.4byte	0x175
 7074 1978 20       		.byte	0x20
 7075 1979 00       		.byte	0
 7076 197a 03       		.uleb128 0x3
 7077 197b AA0D0000 		.4byte	.LASF318
 7078 197f 1C       		.byte	0x1c
 7079 1980 31       		.byte	0x31
 7080 1981 10       		.byte	0x10
 7081 1982 86190000 		.4byte	0x1986
 7082 1986 06       		.uleb128 0x6
 7083 1987 04       		.byte	0x4
 7084 1988 8C190000 		.4byte	0x198c
 7085 198c 1B       		.uleb128 0x1b
 7086 198d 97190000 		.4byte	0x1997
 7087 1991 1A       		.uleb128 0x1a
 7088 1992 97190000 		.4byte	0x1997
 7089 1996 00       		.byte	0
 7090 1997 06       		.uleb128 0x6
 7091 1998 04       		.byte	0x4
 7092 1999 F8180000 		.4byte	0x18f8
 7093 199d 03       		.uleb128 0x3
 7094 199e 25160000 		.4byte	.LASF319
 7095 19a2 1C       		.byte	0x1c
 7096 19a3 7A       		.byte	0x7a
 7097 19a4 14       		.byte	0x14
 7098 19a5 F8180000 		.4byte	0x18f8
 7099 19a9 03       		.uleb128 0x3
 7100 19aa 3C170000 		.4byte	.LASF320
 7101 19ae 1C       		.byte	0x1c
 7102 19af CA       		.byte	0xca
 7103 19b0 14       		.byte	0x14
 7104 19b1 F8180000 		.4byte	0x18f8
 7105 19b5 0D       		.uleb128 0xd
 7106 19b6 04       		.byte	0x4
 7107 19b7 1D       		.byte	0x1d
 7108 19b8 E7       		.byte	0xe7
 7109 19b9 05       		.byte	0x5
 7110 19ba D9190000 		.4byte	0x19d9
 7111 19be 12       		.uleb128 0x12
 7112 19bf 73657400 		.ascii	"set\000"
 7113 19c3 1D       		.byte	0x1d
 7114 19c4 E8       		.byte	0xe8
 7115 19c5 19       		.byte	0x19
 7116 19c6 8F090000 		.4byte	0x98f
 7117 19ca 00       		.byte	0
 7118 19cb 0E       		.uleb128 0xe
 7119 19cc 16090000 		.4byte	.LASF321
 7120 19d0 1D       		.byte	0x1d
 7121 19d1 E9       		.byte	0xe9
 7122 19d2 19       		.byte	0x19
 7123 19d3 8F090000 		.4byte	0x98f
 7124 19d7 02       		.byte	0x2
 7125 19d8 00       		.byte	0
ARM GAS  /tmp/ccTxpxgR.s 			page 126


 7126 19d9 09       		.uleb128 0x9
 7127 19da 04       		.byte	0x4
 7128 19db 1D       		.byte	0x1d
 7129 19dc E5       		.byte	0xe5
 7130 19dd 0C       		.byte	0xc
 7131 19de F7190000 		.4byte	0x19f7
 7132 19e2 22       		.uleb128 0x22
 7133 19e3 5700     		.ascii	"W\000"
 7134 19e5 1D       		.byte	0x1d
 7135 19e6 E6       		.byte	0xe6
 7136 19e7 19       		.byte	0x19
 7137 19e8 AC090000 		.4byte	0x9ac
 7138 19ec 22       		.uleb128 0x22
 7139 19ed 4800     		.ascii	"H\000"
 7140 19ef 1D       		.byte	0x1d
 7141 19f0 EA       		.byte	0xea
 7142 19f1 07       		.byte	0x7
 7143 19f2 B5190000 		.4byte	0x19b5
 7144 19f6 00       		.byte	0
 7145 19f7 04       		.uleb128 0x4
 7146 19f8 D9190000 		.4byte	0x19d9
 7147 19fc 0D       		.uleb128 0xd
 7148 19fd 2C       		.byte	0x2c
 7149 19fe 1D       		.byte	0x1d
 7150 19ff DD       		.byte	0xdd
 7151 1a00 09       		.byte	0x9
 7152 1a01 951A0000 		.4byte	0x1a95
 7153 1a05 0E       		.uleb128 0xe
 7154 1a06 DE0D0000 		.4byte	.LASF322
 7155 1a0a 1D       		.byte	0x1d
 7156 1a0b DF       		.byte	0xdf
 7157 1a0c 19       		.byte	0x19
 7158 1a0d B8090000 		.4byte	0x9b8
 7159 1a11 00       		.byte	0
 7160 1a12 0E       		.uleb128 0xe
 7161 1a13 24130000 		.4byte	.LASF323
 7162 1a17 1D       		.byte	0x1d
 7163 1a18 E0       		.byte	0xe0
 7164 1a19 19       		.byte	0x19
 7165 1a1a B8090000 		.4byte	0x9b8
 7166 1a1e 04       		.byte	0x4
 7167 1a1f 0E       		.uleb128 0xe
 7168 1a20 68000000 		.4byte	.LASF324
 7169 1a24 1D       		.byte	0x1d
 7170 1a25 E1       		.byte	0xe1
 7171 1a26 19       		.byte	0x19
 7172 1a27 B8090000 		.4byte	0x9b8
 7173 1a2b 08       		.byte	0x8
 7174 1a2c 0E       		.uleb128 0xe
 7175 1a2d 7C0C0000 		.4byte	.LASF325
 7176 1a31 1D       		.byte	0x1d
 7177 1a32 E2       		.byte	0xe2
 7178 1a33 19       		.byte	0x19
 7179 1a34 B8090000 		.4byte	0x9b8
 7180 1a38 0C       		.byte	0xc
 7181 1a39 12       		.uleb128 0x12
 7182 1a3a 49445200 		.ascii	"IDR\000"
ARM GAS  /tmp/ccTxpxgR.s 			page 127


 7183 1a3e 1D       		.byte	0x1d
 7184 1a3f E3       		.byte	0xe3
 7185 1a40 19       		.byte	0x19
 7186 1a41 B8090000 		.4byte	0x9b8
 7187 1a45 10       		.byte	0x10
 7188 1a46 12       		.uleb128 0x12
 7189 1a47 4F445200 		.ascii	"ODR\000"
 7190 1a4b 1D       		.byte	0x1d
 7191 1a4c E4       		.byte	0xe4
 7192 1a4d 19       		.byte	0x19
 7193 1a4e B8090000 		.4byte	0x9b8
 7194 1a52 14       		.byte	0x14
 7195 1a53 0E       		.uleb128 0xe
 7196 1a54 CB140000 		.4byte	.LASF326
 7197 1a58 1D       		.byte	0x1d
 7198 1a59 EB       		.byte	0xeb
 7199 1a5a 05       		.byte	0x5
 7200 1a5b F7190000 		.4byte	0x19f7
 7201 1a5f 18       		.byte	0x18
 7202 1a60 0E       		.uleb128 0xe
 7203 1a61 0C0B0000 		.4byte	.LASF327
 7204 1a65 1D       		.byte	0x1d
 7205 1a66 EC       		.byte	0xec
 7206 1a67 19       		.byte	0x19
 7207 1a68 B8090000 		.4byte	0x9b8
 7208 1a6c 1C       		.byte	0x1c
 7209 1a6d 0E       		.uleb128 0xe
 7210 1a6e FF0D0000 		.4byte	.LASF328
 7211 1a72 1D       		.byte	0x1d
 7212 1a73 ED       		.byte	0xed
 7213 1a74 19       		.byte	0x19
 7214 1a75 B8090000 		.4byte	0x9b8
 7215 1a79 20       		.byte	0x20
 7216 1a7a 0E       		.uleb128 0xe
 7217 1a7b 23120000 		.4byte	.LASF329
 7218 1a7f 1D       		.byte	0x1d
 7219 1a80 EE       		.byte	0xee
 7220 1a81 19       		.byte	0x19
 7221 1a82 B8090000 		.4byte	0x9b8
 7222 1a86 24       		.byte	0x24
 7223 1a87 12       		.uleb128 0x12
 7224 1a88 42525200 		.ascii	"BRR\000"
 7225 1a8c 1D       		.byte	0x1d
 7226 1a8d EF       		.byte	0xef
 7227 1a8e 19       		.byte	0x19
 7228 1a8f B8090000 		.4byte	0x9b8
 7229 1a93 28       		.byte	0x28
 7230 1a94 00       		.byte	0
 7231 1a95 03       		.uleb128 0x3
 7232 1a96 D7040000 		.4byte	.LASF330
 7233 1a9a 1D       		.byte	0x1d
 7234 1a9b F0       		.byte	0xf0
 7235 1a9c 03       		.byte	0x3
 7236 1a9d FC190000 		.4byte	0x19fc
 7237 1aa1 0D       		.uleb128 0xd
 7238 1aa2 1C       		.byte	0x1c
 7239 1aa3 1D       		.byte	0x1d
ARM GAS  /tmp/ccTxpxgR.s 			page 128


 7240 1aa4 F5       		.byte	0xf5
 7241 1aa5 09       		.byte	0x9
 7242 1aa6 081B0000 		.4byte	0x1b08
 7243 1aaa 0E       		.uleb128 0xe
 7244 1aab DF050000 		.4byte	.LASF331
 7245 1aaf 1D       		.byte	0x1d
 7246 1ab0 F7       		.byte	0xf7
 7247 1ab1 19       		.byte	0x19
 7248 1ab2 AC090000 		.4byte	0x9ac
 7249 1ab6 00       		.byte	0
 7250 1ab7 0E       		.uleb128 0xe
 7251 1ab8 320A0000 		.4byte	.LASF332
 7252 1abc 1D       		.byte	0x1d
 7253 1abd F9       		.byte	0xf9
 7254 1abe 19       		.byte	0x19
 7255 1abf AC090000 		.4byte	0x9ac
 7256 1ac3 04       		.byte	0x4
 7257 1ac4 0E       		.uleb128 0xe
 7258 1ac5 1C090000 		.4byte	.LASF333
 7259 1ac9 1D       		.byte	0x1d
 7260 1aca FB       		.byte	0xfb
 7261 1acb 19       		.byte	0x19
 7262 1acc AC090000 		.4byte	0x9ac
 7263 1ad0 08       		.byte	0x8
 7264 1ad1 0E       		.uleb128 0xe
 7265 1ad2 95040000 		.4byte	.LASF334
 7266 1ad6 1D       		.byte	0x1d
 7267 1ad7 FD       		.byte	0xfd
 7268 1ad8 19       		.byte	0x19
 7269 1ad9 AC090000 		.4byte	0x9ac
 7270 1add 0C       		.byte	0xc
 7271 1ade 12       		.uleb128 0x12
 7272 1adf 6F647200 		.ascii	"odr\000"
 7273 1ae3 1D       		.byte	0x1d
 7274 1ae4 FF       		.byte	0xff
 7275 1ae5 19       		.byte	0x19
 7276 1ae6 AC090000 		.4byte	0x9ac
 7277 1aea 10       		.byte	0x10
 7278 1aeb 17       		.uleb128 0x17
 7279 1aec 03100000 		.4byte	.LASF335
 7280 1af0 1D       		.byte	0x1d
 7281 1af1 0101     		.2byte	0x101
 7282 1af3 19       		.byte	0x19
 7283 1af4 AC090000 		.4byte	0x9ac
 7284 1af8 14       		.byte	0x14
 7285 1af9 17       		.uleb128 0x17
 7286 1afa 75090000 		.4byte	.LASF336
 7287 1afe 1D       		.byte	0x1d
 7288 1aff 0301     		.2byte	0x103
 7289 1b01 19       		.byte	0x19
 7290 1b02 AC090000 		.4byte	0x9ac
 7291 1b06 18       		.byte	0x18
 7292 1b07 00       		.byte	0
 7293 1b08 08       		.uleb128 0x8
 7294 1b09 58020000 		.4byte	.LASF337
 7295 1b0d 1D       		.byte	0x1d
 7296 1b0e 0401     		.2byte	0x104
ARM GAS  /tmp/ccTxpxgR.s 			page 129


 7297 1b10 03       		.byte	0x3
 7298 1b11 A11A0000 		.4byte	0x1aa1
 7299 1b15 1E       		.uleb128 0x1e
 7300 1b16 A8       		.byte	0xa8
 7301 1b17 1D       		.byte	0x1d
 7302 1b18 0D01     		.2byte	0x10d
 7303 1b1a 09       		.byte	0x9
 7304 1b1b 741B0000 		.4byte	0x1b74
 7305 1b1f 17       		.uleb128 0x17
 7306 1b20 76110000 		.4byte	.LASF338
 7307 1b24 1D       		.byte	0x1d
 7308 1b25 1001     		.2byte	0x110
 7309 1b27 19       		.byte	0x19
 7310 1b28 081B0000 		.4byte	0x1b08
 7311 1b2c 00       		.byte	0
 7312 1b2d 17       		.uleb128 0x17
 7313 1b2e 790D0000 		.4byte	.LASF339
 7314 1b32 1D       		.byte	0x1d
 7315 1b33 1401     		.2byte	0x114
 7316 1b35 19       		.byte	0x19
 7317 1b36 081B0000 		.4byte	0x1b08
 7318 1b3a 1C       		.byte	0x1c
 7319 1b3b 17       		.uleb128 0x17
 7320 1b3c 41090000 		.4byte	.LASF340
 7321 1b40 1D       		.byte	0x1d
 7322 1b41 1801     		.2byte	0x118
 7323 1b43 19       		.byte	0x19
 7324 1b44 081B0000 		.4byte	0x1b08
 7325 1b48 38       		.byte	0x38
 7326 1b49 17       		.uleb128 0x17
 7327 1b4a F2040000 		.4byte	.LASF341
 7328 1b4e 1D       		.byte	0x1d
 7329 1b4f 1C01     		.2byte	0x11c
 7330 1b51 19       		.byte	0x19
 7331 1b52 081B0000 		.4byte	0x1b08
 7332 1b56 54       		.byte	0x54
 7333 1b57 17       		.uleb128 0x17
 7334 1b58 B6010000 		.4byte	.LASF342
 7335 1b5c 1D       		.byte	0x1d
 7336 1b5d 2001     		.2byte	0x120
 7337 1b5f 19       		.byte	0x19
 7338 1b60 081B0000 		.4byte	0x1b08
 7339 1b64 70       		.byte	0x70
 7340 1b65 17       		.uleb128 0x17
 7341 1b66 66160000 		.4byte	.LASF343
 7342 1b6a 1D       		.byte	0x1d
 7343 1b6b 2401     		.2byte	0x124
 7344 1b6d 19       		.byte	0x19
 7345 1b6e 081B0000 		.4byte	0x1b08
 7346 1b72 8C       		.byte	0x8c
 7347 1b73 00       		.byte	0
 7348 1b74 08       		.uleb128 0x8
 7349 1b75 E3140000 		.4byte	.LASF344
 7350 1b79 1D       		.byte	0x1d
 7351 1b7a 3A01     		.2byte	0x13a
 7352 1b7c 03       		.byte	0x3
 7353 1b7d 151B0000 		.4byte	0x1b15
ARM GAS  /tmp/ccTxpxgR.s 			page 130


 7354 1b81 10       		.uleb128 0x10
 7355 1b82 741B0000 		.4byte	0x1b74
 7356 1b86 08       		.uleb128 0x8
 7357 1b87 73030000 		.4byte	.LASF345
 7358 1b8b 1D       		.byte	0x1d
 7359 1b8c 5101     		.2byte	0x151
 7360 1b8e 18       		.byte	0x18
 7361 1b8f 931B0000 		.4byte	0x1b93
 7362 1b93 06       		.uleb128 0x6
 7363 1b94 04       		.byte	0x4
 7364 1b95 951A0000 		.4byte	0x1a95
 7365 1b99 1C       		.uleb128 0x1c
 7366 1b9a 1C040000 		.4byte	.LASF346
 7367 1b9e 1D       		.byte	0x1d
 7368 1b9f 1E02     		.2byte	0x21e
 7369 1ba1 18       		.byte	0x18
 7370 1ba2 811B0000 		.4byte	0x1b81
 7371 1ba6 23       		.uleb128 0x23
 7372 1ba7 07       		.byte	0x7
 7373 1ba8 01       		.byte	0x1
 7374 1ba9 65000000 		.4byte	0x65
 7375 1bad 1E       		.byte	0x1e
 7376 1bae 3F       		.byte	0x3f
 7377 1baf 0E       		.byte	0xe
 7378 1bb0 C71B0000 		.4byte	0x1bc7
 7379 1bb4 24       		.uleb128 0x24
 7380 1bb5 85090000 		.4byte	.LASF347
 7381 1bb9 00       		.byte	0
 7382 1bba 24       		.uleb128 0x24
 7383 1bbb 0D090000 		.4byte	.LASF348
 7384 1bbf 01       		.byte	0x1
 7385 1bc0 24       		.uleb128 0x24
 7386 1bc1 930C0000 		.4byte	.LASF349
 7387 1bc5 02       		.byte	0x2
 7388 1bc6 00       		.byte	0
 7389 1bc7 03       		.uleb128 0x3
 7390 1bc8 2F040000 		.4byte	.LASF350
 7391 1bcc 1E       		.byte	0x1e
 7392 1bcd 43       		.byte	0x43
 7393 1bce 03       		.byte	0x3
 7394 1bcf A61B0000 		.4byte	0x1ba6
 7395 1bd3 03       		.uleb128 0x3
 7396 1bd4 BD0B0000 		.4byte	.LASF351
 7397 1bd8 1E       		.byte	0x1e
 7398 1bd9 48       		.byte	0x48
 7399 1bda 1A       		.byte	0x1a
 7400 1bdb DF1B0000 		.4byte	0x1bdf
 7401 1bdf 11       		.uleb128 0x11
 7402 1be0 BD0B0000 		.4byte	.LASF351
 7403 1be4 08       		.byte	0x8
 7404 1be5 1F       		.byte	0x1f
 7405 1be6 73       		.byte	0x73
 7406 1be7 08       		.byte	0x8
 7407 1be8 071C0000 		.4byte	0x1c07
 7408 1bec 0E       		.uleb128 0xe
 7409 1bed A8010000 		.4byte	.LASF153
 7410 1bf1 1F       		.byte	0x1f
ARM GAS  /tmp/ccTxpxgR.s 			page 131


 7411 1bf2 77       		.byte	0x77
 7412 1bf3 1D       		.byte	0x1d
 7413 1bf4 C71B0000 		.4byte	0x1bc7
 7414 1bf8 00       		.byte	0
 7415 1bf9 0E       		.uleb128 0xe
 7416 1bfa A1010000 		.4byte	.LASF352
 7417 1bfe 1F       		.byte	0x1f
 7418 1bff 7B       		.byte	0x7b
 7419 1c00 1E       		.byte	0x1e
 7420 1c01 A31C0000 		.4byte	0x1ca3
 7421 1c05 04       		.byte	0x4
 7422 1c06 00       		.byte	0
 7423 1c07 03       		.uleb128 0x3
 7424 1c08 8C130000 		.4byte	.LASF353
 7425 1c0c 1F       		.byte	0x1f
 7426 1c0d 49       		.byte	0x49
 7427 1c0e 12       		.byte	0x12
 7428 1c0f AC090000 		.4byte	0x9ac
 7429 1c13 03       		.uleb128 0x3
 7430 1c14 22100000 		.4byte	.LASF354
 7431 1c18 1F       		.byte	0x1f
 7432 1c19 51       		.byte	0x51
 7433 1c1a 10       		.byte	0x10
 7434 1c1b 1F1C0000 		.4byte	0x1c1f
 7435 1c1f 06       		.uleb128 0x6
 7436 1c20 04       		.byte	0x4
 7437 1c21 251C0000 		.4byte	0x1c25
 7438 1c25 1B       		.uleb128 0x1b
 7439 1c26 351C0000 		.4byte	0x1c35
 7440 1c2a 1A       		.uleb128 0x1a
 7441 1c2b 351C0000 		.4byte	0x1c35
 7442 1c2f 1A       		.uleb128 0x1a
 7443 1c30 071C0000 		.4byte	0x1c07
 7444 1c34 00       		.byte	0
 7445 1c35 06       		.uleb128 0x6
 7446 1c36 04       		.byte	0x4
 7447 1c37 D31B0000 		.4byte	0x1bd3
 7448 1c3b 0D       		.uleb128 0xd
 7449 1c3c 08       		.byte	0x8
 7450 1c3d 1F       		.byte	0x1f
 7451 1c3e 56       		.byte	0x56
 7452 1c3f 09       		.byte	0x9
 7453 1c40 5E1C0000 		.4byte	0x1c5e
 7454 1c44 0E       		.uleb128 0xe
 7455 1c45 5B140000 		.4byte	.LASF355
 7456 1c49 1F       		.byte	0x1f
 7457 1c4a 5A       		.byte	0x5a
 7458 1c4b 19       		.byte	0x19
 7459 1c4c AC090000 		.4byte	0x9ac
 7460 1c50 00       		.byte	0
 7461 1c51 12       		.uleb128 0x12
 7462 1c52 636200   		.ascii	"cb\000"
 7463 1c55 1F       		.byte	0x1f
 7464 1c56 61       		.byte	0x61
 7465 1c57 19       		.byte	0x19
 7466 1c58 131C0000 		.4byte	0x1c13
 7467 1c5c 04       		.byte	0x4
ARM GAS  /tmp/ccTxpxgR.s 			page 132


 7468 1c5d 00       		.byte	0
 7469 1c5e 03       		.uleb128 0x3
 7470 1c5f F4010000 		.4byte	.LASF356
 7471 1c63 1F       		.byte	0x1f
 7472 1c64 62       		.byte	0x62
 7473 1c65 03       		.byte	0x3
 7474 1c66 3B1C0000 		.4byte	0x1c3b
 7475 1c6a 25       		.uleb128 0x25
 7476 1c6b 0001     		.2byte	0x100
 7477 1c6d 1F       		.byte	0x1f
 7478 1c6e 68       		.byte	0x68
 7479 1c6f 09       		.byte	0x9
 7480 1c70 821C0000 		.4byte	0x1c82
 7481 1c74 0E       		.uleb128 0xe
 7482 1c75 660E0000 		.4byte	.LASF357
 7483 1c79 1F       		.byte	0x1f
 7484 1c7a 6C       		.byte	0x6c
 7485 1c7b 19       		.byte	0x19
 7486 1c7c 821C0000 		.4byte	0x1c82
 7487 1c80 00       		.byte	0
 7488 1c81 00       		.byte	0
 7489 1c82 0B       		.uleb128 0xb
 7490 1c83 5E1C0000 		.4byte	0x1c5e
 7491 1c87 921C0000 		.4byte	0x1c92
 7492 1c8b 0C       		.uleb128 0xc
 7493 1c8c 3D000000 		.4byte	0x3d
 7494 1c90 1F       		.byte	0x1f
 7495 1c91 00       		.byte	0
 7496 1c92 03       		.uleb128 0x3
 7497 1c93 FD0C0000 		.4byte	.LASF358
 7498 1c97 1F       		.byte	0x1f
 7499 1c98 6E       		.byte	0x6e
 7500 1c99 03       		.byte	0x3
 7501 1c9a 6A1C0000 		.4byte	0x1c6a
 7502 1c9e 10       		.uleb128 0x10
 7503 1c9f 921C0000 		.4byte	0x1c92
 7504 1ca3 06       		.uleb128 0x6
 7505 1ca4 04       		.byte	0x4
 7506 1ca5 9E1C0000 		.4byte	0x1c9e
 7507 1ca9 1D       		.uleb128 0x1d
 7508 1caa 920D0000 		.4byte	.LASF359
 7509 1cae 1F       		.byte	0x1f
 7510 1caf 88       		.byte	0x88
 7511 1cb0 12       		.byte	0x12
 7512 1cb1 D31B0000 		.4byte	0x1bd3
 7513 1cb5 23       		.uleb128 0x23
 7514 1cb6 07       		.byte	0x7
 7515 1cb7 01       		.byte	0x1
 7516 1cb8 65000000 		.4byte	0x65
 7517 1cbc 20       		.byte	0x20
 7518 1cbd 31       		.byte	0x31
 7519 1cbe 0E       		.byte	0xe
 7520 1cbf E21C0000 		.4byte	0x1ce2
 7521 1cc3 24       		.uleb128 0x24
 7522 1cc4 FC050000 		.4byte	.LASF360
 7523 1cc8 00       		.byte	0
 7524 1cc9 24       		.uleb128 0x24
ARM GAS  /tmp/ccTxpxgR.s 			page 133


 7525 1cca 97160000 		.4byte	.LASF361
 7526 1cce 01       		.byte	0x1
 7527 1ccf 24       		.uleb128 0x24
 7528 1cd0 F1110000 		.4byte	.LASF362
 7529 1cd4 02       		.byte	0x2
 7530 1cd5 24       		.uleb128 0x24
 7531 1cd6 01120000 		.4byte	.LASF363
 7532 1cda 03       		.byte	0x3
 7533 1cdb 24       		.uleb128 0x24
 7534 1cdc B40D0000 		.4byte	.LASF364
 7535 1ce0 04       		.byte	0x4
 7536 1ce1 00       		.byte	0
 7537 1ce2 03       		.uleb128 0x3
 7538 1ce3 96010000 		.4byte	.LASF365
 7539 1ce7 20       		.byte	0x20
 7540 1ce8 37       		.byte	0x37
 7541 1ce9 03       		.byte	0x3
 7542 1cea B51C0000 		.4byte	0x1cb5
 7543 1cee 03       		.uleb128 0x3
 7544 1cef 820C0000 		.4byte	.LASF366
 7545 1cf3 20       		.byte	0x20
 7546 1cf4 3C       		.byte	0x3c
 7547 1cf5 1A       		.byte	0x1a
 7548 1cf6 FA1C0000 		.4byte	0x1cfa
 7549 1cfa 16       		.uleb128 0x16
 7550 1cfb 820C0000 		.4byte	.LASF366
 7551 1cff 10       		.byte	0x10
 7552 1d00 21       		.byte	0x21
 7553 1d01 F901     		.2byte	0x1f9
 7554 1d03 08       		.byte	0x8
 7555 1d04 411D0000 		.4byte	0x1d41
 7556 1d08 17       		.uleb128 0x17
 7557 1d09 A8010000 		.4byte	.LASF153
 7558 1d0d 21       		.byte	0x21
 7559 1d0e FD01     		.2byte	0x1fd
 7560 1d10 1D       		.byte	0x1d
 7561 1d11 E21C0000 		.4byte	0x1ce2
 7562 1d15 00       		.byte	0
 7563 1d16 17       		.uleb128 0x17
 7564 1d17 A1010000 		.4byte	.LASF352
 7565 1d1b 21       		.byte	0x21
 7566 1d1c 0102     		.2byte	0x201
 7567 1d1e 1E       		.byte	0x1e
 7568 1d1f C61D0000 		.4byte	0x1dc6
 7569 1d23 04       		.byte	0x4
 7570 1d24 17       		.uleb128 0x17
 7571 1d25 260B0000 		.4byte	.LASF367
 7572 1d29 21       		.byte	0x21
 7573 1d2a 0902     		.2byte	0x209
 7574 1d2c 1D       		.byte	0x1d
 7575 1d2d AC090000 		.4byte	0x9ac
 7576 1d31 08       		.byte	0x8
 7577 1d32 18       		.uleb128 0x18
 7578 1d33 74696D00 		.ascii	"tim\000"
 7579 1d37 21       		.byte	0x21
 7580 1d38 0D02     		.2byte	0x20d
 7581 1d3a 1E       		.byte	0x1e
ARM GAS  /tmp/ccTxpxgR.s 			page 134


 7582 1d3b CC1D0000 		.4byte	0x1dcc
 7583 1d3f 0C       		.byte	0xc
 7584 1d40 00       		.byte	0
 7585 1d41 03       		.uleb128 0x3
 7586 1d42 2F180000 		.4byte	.LASF368
 7587 1d46 20       		.byte	0x20
 7588 1d47 43       		.byte	0x43
 7589 1d48 10       		.byte	0x10
 7590 1d49 4D1D0000 		.4byte	0x1d4d
 7591 1d4d 06       		.uleb128 0x6
 7592 1d4e 04       		.byte	0x4
 7593 1d4f 531D0000 		.4byte	0x1d53
 7594 1d53 1B       		.uleb128 0x1b
 7595 1d54 5E1D0000 		.4byte	0x1d5e
 7596 1d58 1A       		.uleb128 0x1a
 7597 1d59 5E1D0000 		.4byte	0x1d5e
 7598 1d5d 00       		.byte	0
 7599 1d5e 06       		.uleb128 0x6
 7600 1d5f 04       		.byte	0x4
 7601 1d60 EE1C0000 		.4byte	0x1cee
 7602 1d64 08       		.uleb128 0x8
 7603 1d65 4F0A0000 		.4byte	.LASF369
 7604 1d69 21       		.byte	0x21
 7605 1d6a CF01     		.2byte	0x1cf
 7606 1d6c 12       		.byte	0x12
 7607 1d6d AC090000 		.4byte	0x9ac
 7608 1d71 1E       		.uleb128 0x1e
 7609 1d72 10       		.byte	0x10
 7610 1d73 21       		.byte	0x21
 7611 1d74 DA01     		.2byte	0x1da
 7612 1d76 09       		.byte	0x9
 7613 1d77 B41D0000 		.4byte	0x1db4
 7614 1d7b 17       		.uleb128 0x17
 7615 1d7c 6F0D0000 		.4byte	.LASF370
 7616 1d80 21       		.byte	0x21
 7617 1d81 E001     		.2byte	0x1e0
 7618 1d83 1D       		.byte	0x1d
 7619 1d84 641D0000 		.4byte	0x1d64
 7620 1d88 00       		.byte	0
 7621 1d89 17       		.uleb128 0x17
 7622 1d8a FE020000 		.4byte	.LASF371
 7623 1d8e 21       		.byte	0x21
 7624 1d8f E701     		.2byte	0x1e7
 7625 1d91 1D       		.byte	0x1d
 7626 1d92 411D0000 		.4byte	0x1d41
 7627 1d96 04       		.byte	0x4
 7628 1d97 18       		.uleb128 0x18
 7629 1d98 63723200 		.ascii	"cr2\000"
 7630 1d9c 21       		.byte	0x21
 7631 1d9d ED01     		.2byte	0x1ed
 7632 1d9f 1D       		.byte	0x1d
 7633 1da0 AC090000 		.4byte	0x9ac
 7634 1da4 08       		.byte	0x8
 7635 1da5 17       		.uleb128 0x17
 7636 1da6 25020000 		.4byte	.LASF372
 7637 1daa 21       		.byte	0x21
 7638 1dab F301     		.2byte	0x1f3
ARM GAS  /tmp/ccTxpxgR.s 			page 135


 7639 1dad 1D       		.byte	0x1d
 7640 1dae AC090000 		.4byte	0x9ac
 7641 1db2 0C       		.byte	0xc
 7642 1db3 00       		.byte	0
 7643 1db4 08       		.uleb128 0x8
 7644 1db5 2C0B0000 		.4byte	.LASF373
 7645 1db9 21       		.byte	0x21
 7646 1dba F401     		.2byte	0x1f4
 7647 1dbc 03       		.byte	0x3
 7648 1dbd 711D0000 		.4byte	0x1d71
 7649 1dc1 10       		.uleb128 0x10
 7650 1dc2 B41D0000 		.4byte	0x1db4
 7651 1dc6 06       		.uleb128 0x6
 7652 1dc7 04       		.byte	0x4
 7653 1dc8 C11D0000 		.4byte	0x1dc1
 7654 1dcc 06       		.uleb128 0x6
 7655 1dcd 04       		.byte	0x4
 7656 1dce 54130000 		.4byte	0x1354
 7657 1dd2 1C       		.uleb128 0x1c
 7658 1dd3 6D030000 		.4byte	.LASF374
 7659 1dd7 21       		.byte	0x21
 7660 1dd8 4802     		.2byte	0x248
 7661 1dda 12       		.byte	0x12
 7662 1ddb EE1C0000 		.4byte	0x1cee
 7663 1ddf 23       		.uleb128 0x23
 7664 1de0 07       		.byte	0x7
 7665 1de1 01       		.byte	0x1
 7666 1de2 65000000 		.4byte	0x65
 7667 1de6 22       		.byte	0x22
 7668 1de7 4C       		.byte	0x4c
 7669 1de8 0E       		.byte	0xe
 7670 1de9 121E0000 		.4byte	0x1e12
 7671 1ded 24       		.uleb128 0x24
 7672 1dee 5F0C0000 		.4byte	.LASF375
 7673 1df2 00       		.byte	0
 7674 1df3 24       		.uleb128 0x24
 7675 1df4 DF170000 		.4byte	.LASF376
 7676 1df8 01       		.byte	0x1
 7677 1df9 24       		.uleb128 0x24
 7678 1dfa 3F160000 		.4byte	.LASF377
 7679 1dfe 02       		.byte	0x2
 7680 1dff 24       		.uleb128 0x24
 7681 1e00 E9060000 		.4byte	.LASF378
 7682 1e04 03       		.byte	0x3
 7683 1e05 24       		.uleb128 0x24
 7684 1e06 7B050000 		.4byte	.LASF379
 7685 1e0a 04       		.byte	0x4
 7686 1e0b 24       		.uleb128 0x24
 7687 1e0c 02090000 		.4byte	.LASF380
 7688 1e10 05       		.byte	0x5
 7689 1e11 00       		.byte	0
 7690 1e12 03       		.uleb128 0x3
 7691 1e13 460D0000 		.4byte	.LASF381
 7692 1e17 22       		.byte	0x22
 7693 1e18 53       		.byte	0x53
 7694 1e19 03       		.byte	0x3
 7695 1e1a DF1D0000 		.4byte	0x1ddf
ARM GAS  /tmp/ccTxpxgR.s 			page 136


 7696 1e1e 08       		.uleb128 0x8
 7697 1e1f 91150000 		.4byte	.LASF382
 7698 1e23 23       		.byte	0x23
 7699 1e24 5C01     		.2byte	0x15c
 7700 1e26 12       		.byte	0x12
 7701 1e27 AC090000 		.4byte	0x9ac
 7702 1e2b 1E       		.uleb128 0x1e
 7703 1e2c 0C       		.byte	0xc
 7704 1e2d 23       		.byte	0x23
 7705 1e2e 6101     		.2byte	0x161
 7706 1e30 09       		.byte	0x9
 7707 1e31 601E0000 		.4byte	0x1e60
 7708 1e35 17       		.uleb128 0x17
 7709 1e36 FE150000 		.4byte	.LASF383
 7710 1e3a 23       		.byte	0x23
 7711 1e3b 6701     		.2byte	0x167
 7712 1e3d 13       		.byte	0x13
 7713 1e3e AC090000 		.4byte	0x9ac
 7714 1e42 00       		.byte	0
 7715 1e43 18       		.uleb128 0x18
 7716 1e44 63723100 		.ascii	"cr1\000"
 7717 1e48 23       		.byte	0x23
 7718 1e49 6C01     		.2byte	0x16c
 7719 1e4b 13       		.byte	0x13
 7720 1e4c AC090000 		.4byte	0x9ac
 7721 1e50 04       		.byte	0x4
 7722 1e51 18       		.uleb128 0x18
 7723 1e52 63723200 		.ascii	"cr2\000"
 7724 1e56 23       		.byte	0x23
 7725 1e57 7101     		.2byte	0x171
 7726 1e59 13       		.byte	0x13
 7727 1e5a AC090000 		.4byte	0x9ac
 7728 1e5e 08       		.byte	0x8
 7729 1e5f 00       		.byte	0
 7730 1e60 08       		.uleb128 0x8
 7731 1e61 CB100000 		.4byte	.LASF384
 7732 1e65 23       		.byte	0x23
 7733 1e66 7201     		.2byte	0x172
 7734 1e68 03       		.byte	0x3
 7735 1e69 2B1E0000 		.4byte	0x1e2b
 7736 1e6d 10       		.uleb128 0x10
 7737 1e6e 601E0000 		.4byte	0x1e60
 7738 1e72 08       		.uleb128 0x8
 7739 1e73 5B090000 		.4byte	.LASF385
 7740 1e77 23       		.byte	0x23
 7741 1e78 7701     		.2byte	0x177
 7742 1e7a 1A       		.byte	0x1a
 7743 1e7b 7F1E0000 		.4byte	0x1e7f
 7744 1e7f 16       		.uleb128 0x16
 7745 1e80 5B090000 		.4byte	.LASF385
 7746 1e84 38       		.byte	0x38
 7747 1e85 23       		.byte	0x23
 7748 1e86 7C01     		.2byte	0x17c
 7749 1e88 08       		.byte	0x8
 7750 1e89 1A1F0000 		.4byte	0x1f1a
 7751 1e8d 17       		.uleb128 0x17
 7752 1e8e A8010000 		.4byte	.LASF153
ARM GAS  /tmp/ccTxpxgR.s 			page 137


 7753 1e92 23       		.byte	0x23
 7754 1e93 8001     		.2byte	0x180
 7755 1e95 1D       		.byte	0x1d
 7756 1e96 121E0000 		.4byte	0x1e12
 7757 1e9a 00       		.byte	0
 7758 1e9b 17       		.uleb128 0x17
 7759 1e9c A1010000 		.4byte	.LASF352
 7760 1ea0 23       		.byte	0x23
 7761 1ea1 8401     		.2byte	0x184
 7762 1ea3 1E       		.byte	0x1e
 7763 1ea4 1A1F0000 		.4byte	0x1f1a
 7764 1ea8 04       		.byte	0x4
 7765 1ea9 17       		.uleb128 0x17
 7766 1eaa 48060000 		.4byte	.LASF386
 7767 1eae 23       		.byte	0x23
 7768 1eaf 8801     		.2byte	0x188
 7769 1eb1 1D       		.byte	0x1d
 7770 1eb2 1E1E0000 		.4byte	0x1e1e
 7771 1eb6 08       		.byte	0x8
 7772 1eb7 17       		.uleb128 0x17
 7773 1eb8 510D0000 		.4byte	.LASF387
 7774 1ebc 23       		.byte	0x23
 7775 1ebd 8A01     		.2byte	0x18a
 7776 1ebf 1D       		.byte	0x1d
 7777 1ec0 54150000 		.4byte	0x1554
 7778 1ec4 0C       		.byte	0xc
 7779 1ec5 17       		.uleb128 0x17
 7780 1ec6 D0130000 		.4byte	.LASF388
 7781 1eca 23       		.byte	0x23
 7782 1ecb 9301     		.2byte	0x193
 7783 1ecd 1D       		.byte	0x1d
 7784 1ece 150B0000 		.4byte	0xb15
 7785 1ed2 20       		.byte	0x20
 7786 1ed3 17       		.uleb128 0x17
 7787 1ed4 6A010000 		.4byte	.LASF389
 7788 1ed8 23       		.byte	0x23
 7789 1ed9 A901     		.2byte	0x1a9
 7790 1edb 1E       		.byte	0x1e
 7791 1edc 20170000 		.4byte	0x1720
 7792 1ee0 24       		.byte	0x24
 7793 1ee1 17       		.uleb128 0x17
 7794 1ee2 36110000 		.4byte	.LASF390
 7795 1ee6 23       		.byte	0x23
 7796 1ee7 AD01     		.2byte	0x1ad
 7797 1ee9 1D       		.byte	0x1d
 7798 1eea 2C000000 		.4byte	0x2c
 7799 1eee 28       		.byte	0x28
 7800 1eef 17       		.uleb128 0x17
 7801 1ef0 D9050000 		.4byte	.LASF391
 7802 1ef4 23       		.byte	0x23
 7803 1ef5 B101     		.2byte	0x1b1
 7804 1ef7 1E       		.byte	0x1e
 7805 1ef8 45170000 		.4byte	0x1745
 7806 1efc 2C       		.byte	0x2c
 7807 1efd 17       		.uleb128 0x17
 7808 1efe D10E0000 		.4byte	.LASF392
 7809 1f02 23       		.byte	0x23
ARM GAS  /tmp/ccTxpxgR.s 			page 138


 7810 1f03 B501     		.2byte	0x1b5
 7811 1f05 1D       		.byte	0x1d
 7812 1f06 2C000000 		.4byte	0x2c
 7813 1f0a 30       		.byte	0x30
 7814 1f0b 18       		.uleb128 0x18
 7815 1f0c 69326300 		.ascii	"i2c\000"
 7816 1f10 23       		.byte	0x23
 7817 1f11 BA01     		.2byte	0x1ba
 7818 1f13 1E       		.byte	0x1e
 7819 1f14 201F0000 		.4byte	0x1f20
 7820 1f18 34       		.byte	0x34
 7821 1f19 00       		.byte	0
 7822 1f1a 06       		.uleb128 0x6
 7823 1f1b 04       		.byte	0x4
 7824 1f1c 6D1E0000 		.4byte	0x1e6d
 7825 1f20 06       		.uleb128 0x6
 7826 1f21 04       		.byte	0x4
 7827 1f22 9D0E0000 		.4byte	0xe9d
 7828 1f26 1C       		.uleb128 0x1c
 7829 1f27 36080000 		.4byte	.LASF393
 7830 1f2b 23       		.byte	0x23
 7831 1f2c D001     		.2byte	0x1d0
 7832 1f2e 12       		.byte	0x12
 7833 1f2f 721E0000 		.4byte	0x1e72
 7834 1f33 23       		.uleb128 0x23
 7835 1f34 07       		.byte	0x7
 7836 1f35 01       		.byte	0x1
 7837 1f36 65000000 		.4byte	0x65
 7838 1f3a 24       		.byte	0x24
 7839 1f3b 39       		.byte	0x39
 7840 1f3c 0E       		.byte	0xe
 7841 1f3d 601F0000 		.4byte	0x1f60
 7842 1f41 24       		.uleb128 0x24
 7843 1f42 0B070000 		.4byte	.LASF394
 7844 1f46 00       		.byte	0
 7845 1f47 24       		.uleb128 0x24
 7846 1f48 C90A0000 		.4byte	.LASF395
 7847 1f4c 01       		.byte	0x1
 7848 1f4d 24       		.uleb128 0x24
 7849 1f4e 19120000 		.4byte	.LASF396
 7850 1f52 02       		.byte	0x2
 7851 1f53 24       		.uleb128 0x24
 7852 1f54 B5120000 		.4byte	.LASF397
 7853 1f58 03       		.byte	0x3
 7854 1f59 24       		.uleb128 0x24
 7855 1f5a 28050000 		.4byte	.LASF398
 7856 1f5e 04       		.byte	0x4
 7857 1f5f 00       		.byte	0
 7858 1f60 03       		.uleb128 0x3
 7859 1f61 DC000000 		.4byte	.LASF399
 7860 1f65 24       		.byte	0x24
 7861 1f66 3F       		.byte	0x3f
 7862 1f67 03       		.byte	0x3
 7863 1f68 331F0000 		.4byte	0x1f33
 7864 1f6c 08       		.uleb128 0x8
 7865 1f6d AC130000 		.4byte	.LASF400
 7866 1f71 25       		.byte	0x25
ARM GAS  /tmp/ccTxpxgR.s 			page 139


 7867 1f72 2F01     		.2byte	0x12f
 7868 1f74 1A       		.byte	0x1a
 7869 1f75 791F0000 		.4byte	0x1f79
 7870 1f79 16       		.uleb128 0x16
 7871 1f7a AC130000 		.4byte	.LASF400
 7872 1f7e 2C       		.byte	0x2c
 7873 1f7f 25       		.byte	0x25
 7874 1f80 6C01     		.2byte	0x16c
 7875 1f82 08       		.byte	0x8
 7876 1f83 30200000 		.4byte	0x2030
 7877 1f87 17       		.uleb128 0x17
 7878 1f88 A8010000 		.4byte	.LASF153
 7879 1f8c 25       		.byte	0x25
 7880 1f8d 7001     		.2byte	0x170
 7881 1f8f 1D       		.byte	0x1d
 7882 1f90 601F0000 		.4byte	0x1f60
 7883 1f94 00       		.byte	0
 7884 1f95 17       		.uleb128 0x17
 7885 1f96 A1010000 		.4byte	.LASF352
 7886 1f9a 25       		.byte	0x25
 7887 1f9b 7401     		.2byte	0x174
 7888 1f9d 1E       		.byte	0x1e
 7889 1f9e E4200000 		.4byte	0x20e4
 7890 1fa2 04       		.byte	0x4
 7891 1fa3 18       		.uleb128 0x18
 7892 1fa4 73706900 		.ascii	"spi\000"
 7893 1fa8 25       		.byte	0x25
 7894 1fa9 7901     		.2byte	0x179
 7895 1fab 1E       		.byte	0x1e
 7896 1fac EA200000 		.4byte	0x20ea
 7897 1fb0 08       		.byte	0x8
 7898 1fb1 17       		.uleb128 0x17
 7899 1fb2 C9130000 		.4byte	.LASF401
 7900 1fb6 25       		.byte	0x25
 7901 1fb7 7D01     		.2byte	0x17d
 7902 1fb9 1E       		.byte	0x1e
 7903 1fba EA200000 		.4byte	0x20ea
 7904 1fbe 0C       		.byte	0xc
 7905 1fbf 18       		.uleb128 0x18
 7906 1fc0 63666700 		.ascii	"cfg\000"
 7907 1fc4 25       		.byte	0x25
 7908 1fc5 8101     		.2byte	0x181
 7909 1fc7 1D       		.byte	0x1d
 7910 1fc8 8F090000 		.4byte	0x98f
 7911 1fcc 10       		.byte	0x10
 7912 1fcd 17       		.uleb128 0x17
 7913 1fce 250E0000 		.4byte	.LASF402
 7914 1fd2 25       		.byte	0x25
 7915 1fd3 8501     		.2byte	0x185
 7916 1fd5 1D       		.byte	0x1d
 7917 1fd6 8F090000 		.4byte	0x98f
 7918 1fda 12       		.byte	0x12
 7919 1fdb 17       		.uleb128 0x17
 7920 1fdc D50B0000 		.4byte	.LASF403
 7921 1fe0 25       		.byte	0x25
 7922 1fe1 8901     		.2byte	0x189
 7923 1fe3 1E       		.byte	0x1e
ARM GAS  /tmp/ccTxpxgR.s 			page 140


 7924 1fe4 F0200000 		.4byte	0x20f0
 7925 1fe8 14       		.byte	0x14
 7926 1fe9 17       		.uleb128 0x17
 7927 1fea D80D0000 		.4byte	.LASF404
 7928 1fee 25       		.byte	0x25
 7929 1fef 8D01     		.2byte	0x18d
 7930 1ff1 1E       		.byte	0x1e
 7931 1ff2 F0200000 		.4byte	0x20f0
 7932 1ff6 18       		.byte	0x18
 7933 1ff7 17       		.uleb128 0x17
 7934 1ff8 800D0000 		.4byte	.LASF405
 7935 1ffc 25       		.byte	0x25
 7936 1ffd 9101     		.2byte	0x191
 7937 1fff 1D       		.byte	0x1d
 7938 2000 AC090000 		.4byte	0x9ac
 7939 2004 1C       		.byte	0x1c
 7940 2005 17       		.uleb128 0x17
 7941 2006 A7080000 		.4byte	.LASF406
 7942 200a 25       		.byte	0x25
 7943 200b 9501     		.2byte	0x195
 7944 200d 1D       		.byte	0x1d
 7945 200e AC090000 		.4byte	0x9ac
 7946 2012 20       		.byte	0x20
 7947 2013 17       		.uleb128 0x17
 7948 2014 55080000 		.4byte	.LASF407
 7949 2018 25       		.byte	0x25
 7950 2019 9901     		.2byte	0x199
 7951 201b 1D       		.byte	0x1d
 7952 201c AC090000 		.4byte	0x9ac
 7953 2020 24       		.byte	0x24
 7954 2021 17       		.uleb128 0x17
 7955 2022 6B020000 		.4byte	.LASF408
 7956 2026 25       		.byte	0x25
 7957 2027 9D01     		.2byte	0x19d
 7958 2029 1D       		.byte	0x1d
 7959 202a AC090000 		.4byte	0x9ac
 7960 202e 28       		.byte	0x28
 7961 202f 00       		.byte	0
 7962 2030 08       		.uleb128 0x8
 7963 2031 AA050000 		.4byte	.LASF409
 7964 2035 25       		.byte	0x25
 7965 2036 3801     		.2byte	0x138
 7966 2038 10       		.byte	0x10
 7967 2039 3D200000 		.4byte	0x203d
 7968 203d 06       		.uleb128 0x6
 7969 203e 04       		.byte	0x4
 7970 203f 43200000 		.4byte	0x2043
 7971 2043 1B       		.uleb128 0x1b
 7972 2044 58200000 		.4byte	0x2058
 7973 2048 1A       		.uleb128 0x1a
 7974 2049 58200000 		.4byte	0x2058
 7975 204d 1A       		.uleb128 0x1a
 7976 204e 2C000000 		.4byte	0x2c
 7977 2052 1A       		.uleb128 0x1a
 7978 2053 2C000000 		.4byte	0x2c
 7979 2057 00       		.byte	0
 7980 2058 06       		.uleb128 0x6
ARM GAS  /tmp/ccTxpxgR.s 			page 141


 7981 2059 04       		.byte	0x4
 7982 205a 6C1F0000 		.4byte	0x1f6c
 7983 205e 1E       		.uleb128 0x1e
 7984 205f 18       		.byte	0x18
 7985 2060 25       		.byte	0x25
 7986 2061 3E01     		.2byte	0x13e
 7987 2063 09       		.byte	0x9
 7988 2064 CB200000 		.4byte	0x20cb
 7989 2068 17       		.uleb128 0x17
 7990 2069 AE0E0000 		.4byte	.LASF410
 7991 206d 25       		.byte	0x25
 7992 206e 4301     		.2byte	0x143
 7993 2070 1E       		.byte	0x1e
 7994 2071 CB200000 		.4byte	0x20cb
 7995 2075 00       		.byte	0
 7996 2076 17       		.uleb128 0x17
 7997 2077 C7020000 		.4byte	.LASF411
 7998 207b 25       		.byte	0x25
 7999 207c 4801     		.2byte	0x148
 8000 207e 1E       		.byte	0x1e
 8001 207f 75010000 		.4byte	0x175
 8002 2083 04       		.byte	0x4
 8003 2084 17       		.uleb128 0x17
 8004 2085 3E110000 		.4byte	.LASF255
 8005 2089 25       		.byte	0x25
 8006 208a 4C01     		.2byte	0x14c
 8007 208c 1D       		.byte	0x1d
 8008 208d 2C000000 		.4byte	0x2c
 8009 2091 08       		.byte	0x8
 8010 2092 17       		.uleb128 0x17
 8011 2093 59000000 		.4byte	.LASF412
 8012 2097 25       		.byte	0x25
 8013 2098 5001     		.2byte	0x150
 8014 209a 1D       		.byte	0x1d
 8015 209b 30200000 		.4byte	0x2030
 8016 209f 0C       		.byte	0xc
 8017 20a0 17       		.uleb128 0x17
 8018 20a1 950E0000 		.4byte	.LASF413
 8019 20a5 25       		.byte	0x25
 8020 20a6 5401     		.2byte	0x154
 8021 20a8 1D       		.byte	0x1d
 8022 20a9 30200000 		.4byte	0x2030
 8023 20ad 10       		.byte	0x10
 8024 20ae 17       		.uleb128 0x17
 8025 20af D5010000 		.4byte	.LASF414
 8026 20b3 25       		.byte	0x25
 8027 20b4 6001     		.2byte	0x160
 8028 20b6 1D       		.byte	0x1d
 8029 20b7 83090000 		.4byte	0x983
 8030 20bb 14       		.byte	0x14
 8031 20bc 17       		.uleb128 0x17
 8032 20bd 5A0B0000 		.4byte	.LASF415
 8033 20c1 25       		.byte	0x25
 8034 20c2 6601     		.2byte	0x166
 8035 20c4 1D       		.byte	0x1d
 8036 20c5 83090000 		.4byte	0x983
 8037 20c9 16       		.byte	0x16
ARM GAS  /tmp/ccTxpxgR.s 			page 142


 8038 20ca 00       		.byte	0
 8039 20cb 06       		.uleb128 0x6
 8040 20cc 04       		.byte	0x4
 8041 20cd D1200000 		.4byte	0x20d1
 8042 20d1 26       		.uleb128 0x26
 8043 20d2 08       		.uleb128 0x8
 8044 20d3 B6130000 		.4byte	.LASF416
 8045 20d7 25       		.byte	0x25
 8046 20d8 6701     		.2byte	0x167
 8047 20da 03       		.byte	0x3
 8048 20db 5E200000 		.4byte	0x205e
 8049 20df 10       		.uleb128 0x10
 8050 20e0 D2200000 		.4byte	0x20d2
 8051 20e4 06       		.uleb128 0x6
 8052 20e5 04       		.byte	0x4
 8053 20e6 DF200000 		.4byte	0x20df
 8054 20ea 06       		.uleb128 0x6
 8055 20eb 04       		.byte	0x4
 8056 20ec A4100000 		.4byte	0x10a4
 8057 20f0 06       		.uleb128 0x6
 8058 20f1 04       		.byte	0x4
 8059 20f2 71160000 		.4byte	0x1671
 8060 20f6 1C       		.uleb128 0x1c
 8061 20f7 4F0C0000 		.4byte	.LASF417
 8062 20fb 25       		.byte	0x25
 8063 20fc AD01     		.2byte	0x1ad
 8064 20fe 12       		.byte	0x12
 8065 20ff 6C1F0000 		.4byte	0x1f6c
 8066 2103 1D       		.uleb128 0x1d
 8067 2104 DF060000 		.4byte	.LASF418
 8068 2108 26       		.byte	0x26
 8069 2109 9A       		.byte	0x9a
 8070 210a 16       		.byte	0x16
 8071 210b 9E000000 		.4byte	0x9e
 8072 210f 1D       		.uleb128 0x1d
 8073 2110 F4170000 		.4byte	.LASF419
 8074 2114 26       		.byte	0x26
 8075 2115 9B       		.byte	0x9b
 8076 2116 15       		.byte	0x15
 8077 2117 25000000 		.4byte	0x25
 8078 211b 0B       		.uleb128 0xb
 8079 211c 77010000 		.4byte	0x177
 8080 2120 2B210000 		.4byte	0x212b
 8081 2124 0C       		.uleb128 0xc
 8082 2125 3D000000 		.4byte	0x3d
 8083 2129 01       		.byte	0x1
 8084 212a 00       		.byte	0
 8085 212b 1D       		.uleb128 0x1d
 8086 212c 86080000 		.4byte	.LASF420
 8087 2130 26       		.byte	0x26
 8088 2131 9E       		.byte	0x9e
 8089 2132 17       		.byte	0x17
 8090 2133 1B210000 		.4byte	0x211b
 8091 2137 03       		.uleb128 0x3
 8092 2138 BB060000 		.4byte	.LASF421
 8093 213c 27       		.byte	0x27
 8094 213d 58       		.byte	0x58
ARM GAS  /tmp/ccTxpxgR.s 			page 143


 8095 213e 1A       		.byte	0x1a
 8096 213f 43210000 		.4byte	0x2143
 8097 2143 11       		.uleb128 0x11
 8098 2144 BB060000 		.4byte	.LASF421
 8099 2148 04       		.byte	0x4
 8100 2149 28       		.byte	0x28
 8101 214a B6       		.byte	0xb6
 8102 214b 08       		.byte	0x8
 8103 214c 5E210000 		.4byte	0x215e
 8104 2150 12       		.uleb128 0x12
 8105 2151 72746300 		.ascii	"rtc\000"
 8106 2155 28       		.byte	0x28
 8107 2156 C1       		.byte	0xc1
 8108 2157 1E       		.byte	0x1e
 8109 2158 5E210000 		.4byte	0x215e
 8110 215c 00       		.byte	0
 8111 215d 00       		.byte	0
 8112 215e 06       		.uleb128 0x6
 8113 215f 04       		.byte	0x4
 8114 2160 10100000 		.4byte	0x1010
 8115 2164 1D       		.uleb128 0x1d
 8116 2165 2C010000 		.4byte	.LASF422
 8117 2169 28       		.byte	0x28
 8118 216a CD       		.byte	0xcd
 8119 216b 12       		.byte	0x12
 8120 216c 37210000 		.4byte	0x2137
 8121 2170 23       		.uleb128 0x23
 8122 2171 07       		.byte	0x7
 8123 2172 01       		.byte	0x1
 8124 2173 65000000 		.4byte	0x65
 8125 2177 29       		.byte	0x29
 8126 2178 55       		.byte	0x55
 8127 2179 0E       		.byte	0xe
 8128 217a 91210000 		.4byte	0x2191
 8129 217e 24       		.uleb128 0x24
 8130 217f 71050000 		.4byte	.LASF423
 8131 2183 00       		.byte	0
 8132 2184 24       		.uleb128 0x24
 8133 2185 6C170000 		.4byte	.LASF424
 8134 2189 01       		.byte	0x1
 8135 218a 24       		.uleb128 0x24
 8136 218b C0130000 		.4byte	.LASF425
 8137 218f 02       		.byte	0x2
 8138 2190 00       		.byte	0
 8139 2191 03       		.uleb128 0x3
 8140 2192 F50D0000 		.4byte	.LASF426
 8141 2196 29       		.byte	0x29
 8142 2197 59       		.byte	0x59
 8143 2198 03       		.byte	0x3
 8144 2199 70210000 		.4byte	0x2170
 8145 219d 03       		.uleb128 0x3
 8146 219e 02130000 		.4byte	.LASF427
 8147 21a2 29       		.byte	0x29
 8148 21a3 5E       		.byte	0x5e
 8149 21a4 1D       		.byte	0x1d
 8150 21a5 A9210000 		.4byte	0x21a9
 8151 21a9 11       		.uleb128 0x11
ARM GAS  /tmp/ccTxpxgR.s 			page 144


 8152 21aa 02130000 		.4byte	.LASF427
 8153 21ae 7C       		.byte	0x7c
 8154 21af 29       		.byte	0x29
 8155 21b0 78       		.byte	0x78
 8156 21b1 08       		.byte	0x8
 8157 21b2 2A220000 		.4byte	0x222a
 8158 21b6 12       		.uleb128 0x12
 8159 21b7 766D7400 		.ascii	"vmt\000"
 8160 21bb 29       		.byte	0x29
 8161 21bc 7A       		.byte	0x7a
 8162 21bd 21       		.byte	0x21
 8163 21be B2220000 		.4byte	0x22b2
 8164 21c2 00       		.byte	0
 8165 21c3 0E       		.uleb128 0xe
 8166 21c4 D20D0000 		.4byte	.LASF428
 8167 21c8 29       		.byte	0x29
 8168 21c9 7B       		.byte	0x7b
 8169 21ca 03       		.byte	0x3
 8170 21cb E2150000 		.4byte	0x15e2
 8171 21cf 04       		.byte	0x4
 8172 21d0 0E       		.uleb128 0xe
 8173 21d1 A8010000 		.4byte	.LASF153
 8174 21d5 29       		.byte	0x29
 8175 21d6 7B       		.byte	0x7b
 8176 21d7 03       		.byte	0x3
 8177 21d8 91210000 		.4byte	0x2191
 8178 21dc 08       		.byte	0x8
 8179 21dd 0E       		.uleb128 0xe
 8180 21de 86140000 		.4byte	.LASF429
 8181 21e2 29       		.byte	0x29
 8182 21e3 7B       		.byte	0x7b
 8183 21e4 03       		.byte	0x3
 8184 21e5 9D190000 		.4byte	0x199d
 8185 21e9 0C       		.byte	0xc
 8186 21ea 0E       		.uleb128 0xe
 8187 21eb A0030000 		.4byte	.LASF430
 8188 21ef 29       		.byte	0x29
 8189 21f0 7B       		.byte	0x7b
 8190 21f1 03       		.byte	0x3
 8191 21f2 A9190000 		.4byte	0x19a9
 8192 21f6 30       		.byte	0x30
 8193 21f7 12       		.uleb128 0x12
 8194 21f8 696200   		.ascii	"ib\000"
 8195 21fb 29       		.byte	0x29
 8196 21fc 7B       		.byte	0x7b
 8197 21fd 03       		.byte	0x3
 8198 21fe B8220000 		.4byte	0x22b8
 8199 2202 54       		.byte	0x54
 8200 2203 12       		.uleb128 0x12
 8201 2204 6F6200   		.ascii	"ob\000"
 8202 2207 29       		.byte	0x29
 8203 2208 7B       		.byte	0x7b
 8204 2209 03       		.byte	0x3
 8205 220a B8220000 		.4byte	0x22b8
 8206 220e 64       		.byte	0x64
 8207 220f 0E       		.uleb128 0xe
 8208 2210 16040000 		.4byte	.LASF431
ARM GAS  /tmp/ccTxpxgR.s 			page 145


 8209 2214 29       		.byte	0x29
 8210 2215 7B       		.byte	0x7b
 8211 2216 03       		.byte	0x3
 8212 2217 C8220000 		.4byte	0x22c8
 8213 221b 74       		.byte	0x74
 8214 221c 0E       		.uleb128 0xe
 8215 221d 260B0000 		.4byte	.LASF367
 8216 2221 29       		.byte	0x29
 8217 2222 7B       		.byte	0x7b
 8218 2223 03       		.byte	0x3
 8219 2224 AC090000 		.4byte	0x9ac
 8220 2228 78       		.byte	0x78
 8221 2229 00       		.byte	0
 8222 222a 20       		.uleb128 0x20
 8223 222b 53443100 		.ascii	"SD1\000"
 8224 222f 2A       		.byte	0x2a
 8225 2230 6601     		.2byte	0x166
 8226 2232 15       		.byte	0x15
 8227 2233 9D210000 		.4byte	0x219d
 8228 2237 11       		.uleb128 0x11
 8229 2238 300D0000 		.4byte	.LASF432
 8230 223c 20       		.byte	0x20
 8231 223d 29       		.byte	0x29
 8232 223e 6D       		.byte	0x6d
 8233 223f 08       		.byte	0x8
 8234 2240 AD220000 		.4byte	0x22ad
 8235 2244 0E       		.uleb128 0xe
 8236 2245 360B0000 		.4byte	.LASF433
 8237 2249 29       		.byte	0x29
 8238 224a 6E       		.byte	0x6e
 8239 224b 03       		.byte	0x3
 8240 224c 26170000 		.4byte	0x1726
 8241 2250 00       		.byte	0
 8242 2251 0E       		.uleb128 0xe
 8243 2252 E6150000 		.4byte	.LASF434
 8244 2256 29       		.byte	0x29
 8245 2257 6E       		.byte	0x6e
 8246 2258 03       		.byte	0x3
 8247 2259 4B170000 		.4byte	0x174b
 8248 225d 04       		.byte	0x4
 8249 225e 12       		.uleb128 0x12
 8250 225f 70757400 		.ascii	"put\000"
 8251 2263 29       		.byte	0x29
 8252 2264 6E       		.byte	0x6e
 8253 2265 03       		.byte	0x3
 8254 2266 65170000 		.4byte	0x1765
 8255 226a 08       		.byte	0x8
 8256 226b 12       		.uleb128 0x12
 8257 226c 67657400 		.ascii	"get\000"
 8258 2270 29       		.byte	0x29
 8259 2271 6E       		.byte	0x6e
 8260 2272 03       		.byte	0x3
 8261 2273 7A170000 		.4byte	0x177a
 8262 2277 0C       		.byte	0xc
 8263 2278 0E       		.uleb128 0xe
 8264 2279 C3010000 		.4byte	.LASF435
 8265 227d 29       		.byte	0x29
ARM GAS  /tmp/ccTxpxgR.s 			page 146


 8266 227e 6E       		.byte	0x6e
 8267 227f 03       		.byte	0x3
 8268 2280 99170000 		.4byte	0x1799
 8269 2284 10       		.byte	0x10
 8270 2285 0E       		.uleb128 0xe
 8271 2286 35060000 		.4byte	.LASF436
 8272 228a 29       		.byte	0x29
 8273 228b 6E       		.byte	0x6e
 8274 228c 03       		.byte	0x3
 8275 228d B3170000 		.4byte	0x17b3
 8276 2291 14       		.byte	0x14
 8277 2292 0E       		.uleb128 0xe
 8278 2293 AF000000 		.4byte	.LASF437
 8279 2297 29       		.byte	0x29
 8280 2298 6E       		.byte	0x6e
 8281 2299 03       		.byte	0x3
 8282 229a D7170000 		.4byte	0x17d7
 8283 229e 18       		.byte	0x18
 8284 229f 0E       		.uleb128 0xe
 8285 22a0 C1020000 		.4byte	.LASF438
 8286 22a4 29       		.byte	0x29
 8287 22a5 6E       		.byte	0x6e
 8288 22a6 03       		.byte	0x3
 8289 22a7 FB170000 		.4byte	0x17fb
 8290 22ab 1C       		.byte	0x1c
 8291 22ac 00       		.byte	0
 8292 22ad 10       		.uleb128 0x10
 8293 22ae 37220000 		.4byte	0x2237
 8294 22b2 06       		.uleb128 0x6
 8295 22b3 04       		.byte	0x4
 8296 22b4 AD220000 		.4byte	0x22ad
 8297 22b8 0B       		.uleb128 0xb
 8298 22b9 72090000 		.4byte	0x972
 8299 22bd C8220000 		.4byte	0x22c8
 8300 22c1 0C       		.uleb128 0xc
 8301 22c2 3D000000 		.4byte	0x3d
 8302 22c6 0F       		.byte	0xf
 8303 22c7 00       		.byte	0
 8304 22c8 06       		.uleb128 0x6
 8305 22c9 04       		.byte	0x4
 8306 22ca 72110000 		.4byte	0x1172
 8307 22ce 23       		.uleb128 0x23
 8308 22cf 07       		.byte	0x7
 8309 22d0 01       		.byte	0x1
 8310 22d1 65000000 		.4byte	0x65
 8311 22d5 2B       		.byte	0x2b
 8312 22d6 46       		.byte	0x46
 8313 22d7 0E       		.byte	0xe
 8314 22d8 FB220000 		.4byte	0x22fb
 8315 22dc 24       		.uleb128 0x24
 8316 22dd 1E030000 		.4byte	.LASF439
 8317 22e1 00       		.byte	0
 8318 22e2 24       		.uleb128 0x24
 8319 22e3 F5020000 		.4byte	.LASF440
 8320 22e7 01       		.byte	0x1
 8321 22e8 24       		.uleb128 0x24
 8322 22e9 320C0000 		.4byte	.LASF441
ARM GAS  /tmp/ccTxpxgR.s 			page 147


 8323 22ed 02       		.byte	0x2
 8324 22ee 24       		.uleb128 0x24
 8325 22ef 400E0000 		.4byte	.LASF442
 8326 22f3 03       		.byte	0x3
 8327 22f4 24       		.uleb128 0x24
 8328 22f5 49160000 		.4byte	.LASF443
 8329 22f9 04       		.byte	0x4
 8330 22fa 00       		.byte	0
 8331 22fb 03       		.uleb128 0x3
 8332 22fc 01170000 		.4byte	.LASF444
 8333 2300 2B       		.byte	0x2b
 8334 2301 4C       		.byte	0x4c
 8335 2302 03       		.byte	0x3
 8336 2303 CE220000 		.4byte	0x22ce
 8337 2307 08       		.uleb128 0x8
 8338 2308 16060000 		.4byte	.LASF445
 8339 230c 2C       		.byte	0x2c
 8340 230d 9601     		.2byte	0x196
 8341 230f 1A       		.byte	0x1a
 8342 2310 14230000 		.4byte	0x2314
 8343 2314 16       		.uleb128 0x16
 8344 2315 16060000 		.4byte	.LASF445
 8345 2319 34       		.byte	0x34
 8346 231a 2C       		.byte	0x2c
 8347 231b BE01     		.2byte	0x1be
 8348 231d 08       		.byte	0x8
 8349 231e A1230000 		.4byte	0x23a1
 8350 2322 17       		.uleb128 0x17
 8351 2323 A8010000 		.4byte	.LASF153
 8352 2327 2C       		.byte	0x2c
 8353 2328 C201     		.2byte	0x1c2
 8354 232a 1D       		.byte	0x1d
 8355 232b FB220000 		.4byte	0x22fb
 8356 232f 00       		.byte	0
 8357 2330 17       		.uleb128 0x17
 8358 2331 A1010000 		.4byte	.LASF352
 8359 2335 2C       		.byte	0x2c
 8360 2336 C601     		.2byte	0x1c6
 8361 2338 1E       		.byte	0x1e
 8362 2339 28240000 		.4byte	0x2428
 8363 233d 04       		.byte	0x4
 8364 233e 17       		.uleb128 0x17
 8365 233f D0130000 		.4byte	.LASF388
 8366 2343 2C       		.byte	0x2c
 8367 2344 CB01     		.2byte	0x1cb
 8368 2346 1D       		.byte	0x1d
 8369 2347 150B0000 		.4byte	0xb15
 8370 234b 08       		.byte	0x8
 8371 234c 17       		.uleb128 0x17
 8372 234d 510D0000 		.4byte	.LASF387
 8373 2351 2C       		.byte	0x2c
 8374 2352 D101     		.2byte	0x1d1
 8375 2354 1D       		.byte	0x1d
 8376 2355 54150000 		.4byte	0x1554
 8377 2359 0C       		.byte	0xc
 8378 235a 18       		.uleb128 0x18
 8379 235b 73706900 		.ascii	"spi\000"
ARM GAS  /tmp/ccTxpxgR.s 			page 148


 8380 235f 2C       		.byte	0x2c
 8381 2360 DA01     		.2byte	0x1da
 8382 2362 1E       		.byte	0x1e
 8383 2363 EA200000 		.4byte	0x20ea
 8384 2367 20       		.byte	0x20
 8385 2368 17       		.uleb128 0x17
 8386 2369 D50B0000 		.4byte	.LASF403
 8387 236d 2C       		.byte	0x2c
 8388 236e DE01     		.2byte	0x1de
 8389 2370 1E       		.byte	0x1e
 8390 2371 F0200000 		.4byte	0x20f0
 8391 2375 24       		.byte	0x24
 8392 2376 17       		.uleb128 0x17
 8393 2377 D80D0000 		.4byte	.LASF404
 8394 237b 2C       		.byte	0x2c
 8395 237c E201     		.2byte	0x1e2
 8396 237e 1E       		.byte	0x1e
 8397 237f F0200000 		.4byte	0x20f0
 8398 2383 28       		.byte	0x28
 8399 2384 17       		.uleb128 0x17
 8400 2385 800D0000 		.4byte	.LASF405
 8401 2389 2C       		.byte	0x2c
 8402 238a E601     		.2byte	0x1e6
 8403 238c 1D       		.byte	0x1d
 8404 238d AC090000 		.4byte	0x9ac
 8405 2391 2C       		.byte	0x2c
 8406 2392 17       		.uleb128 0x17
 8407 2393 A7080000 		.4byte	.LASF406
 8408 2397 2C       		.byte	0x2c
 8409 2398 EA01     		.2byte	0x1ea
 8410 239a 1D       		.byte	0x1d
 8411 239b AC090000 		.4byte	0x9ac
 8412 239f 30       		.byte	0x30
 8413 23a0 00       		.byte	0
 8414 23a1 08       		.uleb128 0x8
 8415 23a2 E4040000 		.4byte	.LASF446
 8416 23a6 2C       		.byte	0x2c
 8417 23a7 9E01     		.2byte	0x19e
 8418 23a9 10       		.byte	0x10
 8419 23aa AE230000 		.4byte	0x23ae
 8420 23ae 06       		.uleb128 0x6
 8421 23af 04       		.byte	0x4
 8422 23b0 B4230000 		.4byte	0x23b4
 8423 23b4 1B       		.uleb128 0x1b
 8424 23b5 BF230000 		.4byte	0x23bf
 8425 23b9 1A       		.uleb128 0x1a
 8426 23ba BF230000 		.4byte	0x23bf
 8427 23be 00       		.byte	0
 8428 23bf 06       		.uleb128 0x6
 8429 23c0 04       		.byte	0x4
 8430 23c1 07230000 		.4byte	0x2307
 8431 23c5 1E       		.uleb128 0x1e
 8432 23c6 10       		.byte	0x10
 8433 23c7 2C       		.byte	0x2c
 8434 23c8 A301     		.2byte	0x1a3
 8435 23ca 09       		.byte	0x9
 8436 23cb 16240000 		.4byte	0x2416
ARM GAS  /tmp/ccTxpxgR.s 			page 149


 8437 23cf 17       		.uleb128 0x17
 8438 23d0 71020000 		.4byte	.LASF447
 8439 23d4 2C       		.byte	0x2c
 8440 23d5 A701     		.2byte	0x1a7
 8441 23d7 1D       		.byte	0x1d
 8442 23d8 A1230000 		.4byte	0x23a1
 8443 23dc 00       		.byte	0
 8444 23dd 17       		.uleb128 0x17
 8445 23de 1B010000 		.4byte	.LASF448
 8446 23e2 2C       		.byte	0x2c
 8447 23e3 AC01     		.2byte	0x1ac
 8448 23e5 1D       		.byte	0x1d
 8449 23e6 861B0000 		.4byte	0x1b86
 8450 23ea 04       		.byte	0x4
 8451 23eb 17       		.uleb128 0x17
 8452 23ec AC170000 		.4byte	.LASF449
 8453 23f0 2C       		.byte	0x2c
 8454 23f1 B001     		.2byte	0x1b0
 8455 23f3 1D       		.byte	0x1d
 8456 23f4 8F090000 		.4byte	0x98f
 8457 23f8 08       		.byte	0x8
 8458 23f9 18       		.uleb128 0x18
 8459 23fa 63723100 		.ascii	"cr1\000"
 8460 23fe 2C       		.byte	0x2c
 8461 23ff B401     		.2byte	0x1b4
 8462 2401 1D       		.byte	0x1d
 8463 2402 8F090000 		.4byte	0x98f
 8464 2406 0A       		.byte	0xa
 8465 2407 18       		.uleb128 0x18
 8466 2408 63723200 		.ascii	"cr2\000"
 8467 240c 2C       		.byte	0x2c
 8468 240d B801     		.2byte	0x1b8
 8469 240f 1D       		.byte	0x1d
 8470 2410 8F090000 		.4byte	0x98f
 8471 2414 0C       		.byte	0xc
 8472 2415 00       		.byte	0
 8473 2416 08       		.uleb128 0x8
 8474 2417 2C0E0000 		.4byte	.LASF450
 8475 241b 2C       		.byte	0x2c
 8476 241c B901     		.2byte	0x1b9
 8477 241e 03       		.byte	0x3
 8478 241f C5230000 		.4byte	0x23c5
 8479 2423 10       		.uleb128 0x10
 8480 2424 16240000 		.4byte	0x2416
 8481 2428 06       		.uleb128 0x6
 8482 2429 04       		.byte	0x4
 8483 242a 23240000 		.4byte	0x2423
 8484 242e 1C       		.uleb128 0x1c
 8485 242f CF010000 		.4byte	.LASF451
 8486 2433 2C       		.byte	0x2c
 8487 2434 F601     		.2byte	0x1f6
 8488 2436 12       		.byte	0x12
 8489 2437 07230000 		.4byte	0x2307
 8490 243b 08       		.uleb128 0x8
 8491 243c 2B060000 		.4byte	.LASF452
 8492 2440 2D       		.byte	0x2d
 8493 2441 0001     		.2byte	0x100
ARM GAS  /tmp/ccTxpxgR.s 			page 150


 8494 2443 1A       		.byte	0x1a
 8495 2444 48240000 		.4byte	0x2448
 8496 2448 16       		.uleb128 0x16
 8497 2449 2B060000 		.4byte	.LASF452
 8498 244d 84       		.byte	0x84
 8499 244e 2E       		.byte	0x2e
 8500 244f 3501     		.2byte	0x135
 8501 2451 08       		.byte	0x8
 8502 2452 37250000 		.4byte	0x2537
 8503 2456 17       		.uleb128 0x17
 8504 2457 A8010000 		.4byte	.LASF153
 8505 245b 2E       		.byte	0x2e
 8506 245c 3901     		.2byte	0x139
 8507 245e 21       		.byte	0x21
 8508 245f 78250000 		.4byte	0x2578
 8509 2463 00       		.byte	0
 8510 2464 17       		.uleb128 0x17
 8511 2465 A1010000 		.4byte	.LASF352
 8512 2469 2E       		.byte	0x2e
 8513 246a 3D01     		.2byte	0x13d
 8514 246c 22       		.byte	0x22
 8515 246d A0280000 		.4byte	0x28a0
 8516 2471 04       		.byte	0x4
 8517 2472 17       		.uleb128 0x17
 8518 2473 1E170000 		.4byte	.LASF453
 8519 2477 2E       		.byte	0x2e
 8520 2478 4101     		.2byte	0x141
 8521 247a 21       		.byte	0x21
 8522 247b 8F090000 		.4byte	0x98f
 8523 247f 08       		.byte	0x8
 8524 2480 17       		.uleb128 0x17
 8525 2481 0C060000 		.4byte	.LASF454
 8526 2485 2E       		.byte	0x2e
 8527 2486 4501     		.2byte	0x145
 8528 2488 21       		.byte	0x21
 8529 2489 8F090000 		.4byte	0x98f
 8530 248d 0A       		.byte	0xa
 8531 248e 18       		.uleb128 0x18
 8532 248f 65706300 		.ascii	"epc\000"
 8533 2493 2E       		.byte	0x2e
 8534 2494 4901     		.2byte	0x149
 8535 2496 22       		.byte	0x22
 8536 2497 A6280000 		.4byte	0x28a6
 8537 249b 0C       		.byte	0xc
 8538 249c 17       		.uleb128 0x17
 8539 249d 22010000 		.4byte	.LASF455
 8540 24a1 2E       		.byte	0x2e
 8541 24a2 5001     		.2byte	0x150
 8542 24a4 22       		.byte	0x22
 8543 24a5 BC280000 		.4byte	0x28bc
 8544 24a9 2C       		.byte	0x2c
 8545 24aa 17       		.uleb128 0x17
 8546 24ab 6B0A0000 		.4byte	.LASF456
 8547 24af 2E       		.byte	0x2e
 8548 24b0 5701     		.2byte	0x157
 8549 24b2 22       		.byte	0x22
 8550 24b3 BC280000 		.4byte	0x28bc
ARM GAS  /tmp/ccTxpxgR.s 			page 151


 8551 24b7 48       		.byte	0x48
 8552 24b8 17       		.uleb128 0x17
 8553 24b9 4F050000 		.4byte	.LASF457
 8554 24bd 2E       		.byte	0x2e
 8555 24be 5B01     		.2byte	0x15b
 8556 24c0 21       		.byte	0x21
 8557 24c1 BF250000 		.4byte	0x25bf
 8558 24c5 64       		.byte	0x64
 8559 24c6 17       		.uleb128 0x17
 8560 24c7 A60C0000 		.4byte	.LASF458
 8561 24cb 2E       		.byte	0x2e
 8562 24cc 5F01     		.2byte	0x15f
 8563 24ce 22       		.byte	0x22
 8564 24cf 45170000 		.4byte	0x1745
 8565 24d3 68       		.byte	0x68
 8566 24d4 17       		.uleb128 0x17
 8567 24d5 F2050000 		.4byte	.LASF459
 8568 24d9 2E       		.byte	0x2e
 8569 24da 6301     		.2byte	0x163
 8570 24dc 21       		.byte	0x21
 8571 24dd 2C000000 		.4byte	0x2c
 8572 24e1 6C       		.byte	0x6c
 8573 24e2 17       		.uleb128 0x17
 8574 24e3 59170000 		.4byte	.LASF460
 8575 24e7 2E       		.byte	0x2e
 8576 24e8 6701     		.2byte	0x167
 8577 24ea 21       		.byte	0x21
 8578 24eb 46260000 		.4byte	0x2646
 8579 24ef 70       		.byte	0x70
 8580 24f0 17       		.uleb128 0x17
 8581 24f1 B9080000 		.4byte	.LASF461
 8582 24f5 2E       		.byte	0x2e
 8583 24f6 6B01     		.2byte	0x16b
 8584 24f8 21       		.byte	0x21
 8585 24f9 CC280000 		.4byte	0x28cc
 8586 24fd 74       		.byte	0x74
 8587 24fe 17       		.uleb128 0x17
 8588 24ff B4150000 		.4byte	.LASF462
 8589 2503 2E       		.byte	0x2e
 8590 2504 6F01     		.2byte	0x16f
 8591 2506 21       		.byte	0x21
 8592 2507 8F090000 		.4byte	0x98f
 8593 250b 7C       		.byte	0x7c
 8594 250c 17       		.uleb128 0x17
 8595 250d 2A0A0000 		.4byte	.LASF463
 8596 2511 2E       		.byte	0x2e
 8597 2512 7301     		.2byte	0x173
 8598 2514 21       		.byte	0x21
 8599 2515 72090000 		.4byte	0x972
 8600 2519 7E       		.byte	0x7e
 8601 251a 17       		.uleb128 0x17
 8602 251b 48090000 		.4byte	.LASF464
 8603 251f 2E       		.byte	0x2e
 8604 2520 7701     		.2byte	0x177
 8605 2522 21       		.byte	0x21
 8606 2523 72090000 		.4byte	0x972
 8607 2527 7F       		.byte	0x7f
ARM GAS  /tmp/ccTxpxgR.s 			page 152


 8608 2528 17       		.uleb128 0x17
 8609 2529 FE170000 		.4byte	.LASF465
 8610 252d 2E       		.byte	0x2e
 8611 252e 7F01     		.2byte	0x17f
 8612 2530 21       		.byte	0x21
 8613 2531 AC090000 		.4byte	0x9ac
 8614 2535 80       		.byte	0x80
 8615 2536 00       		.byte	0
 8616 2537 08       		.uleb128 0x8
 8617 2538 0F160000 		.4byte	.LASF466
 8618 253c 2D       		.byte	0x2d
 8619 253d 0501     		.2byte	0x105
 8620 253f 11       		.byte	0x11
 8621 2540 72090000 		.4byte	0x972
 8622 2544 27       		.uleb128 0x27
 8623 2545 07       		.byte	0x7
 8624 2546 01       		.byte	0x1
 8625 2547 65000000 		.4byte	0x65
 8626 254b 2D       		.byte	0x2d
 8627 254c 0A01     		.2byte	0x10a
 8628 254e 0E       		.byte	0xe
 8629 254f 78250000 		.4byte	0x2578
 8630 2553 24       		.uleb128 0x24
 8631 2554 8E080000 		.4byte	.LASF467
 8632 2558 00       		.byte	0
 8633 2559 24       		.uleb128 0x24
 8634 255a 960F0000 		.4byte	.LASF468
 8635 255e 01       		.byte	0x1
 8636 255f 24       		.uleb128 0x24
 8637 2560 550C0000 		.4byte	.LASF469
 8638 2564 02       		.byte	0x2
 8639 2565 24       		.uleb128 0x24
 8640 2566 2C090000 		.4byte	.LASF470
 8641 256a 03       		.byte	0x3
 8642 256b 24       		.uleb128 0x24
 8643 256c D20A0000 		.4byte	.LASF471
 8644 2570 04       		.byte	0x4
 8645 2571 24       		.uleb128 0x24
 8646 2572 E5030000 		.4byte	.LASF472
 8647 2576 05       		.byte	0x5
 8648 2577 00       		.byte	0
 8649 2578 08       		.uleb128 0x8
 8650 2579 F0120000 		.4byte	.LASF473
 8651 257d 2D       		.byte	0x2d
 8652 257e 1101     		.2byte	0x111
 8653 2580 03       		.byte	0x3
 8654 2581 44250000 		.4byte	0x2544
 8655 2585 27       		.uleb128 0x27
 8656 2586 07       		.byte	0x7
 8657 2587 01       		.byte	0x1
 8658 2588 65000000 		.4byte	0x65
 8659 258c 2D       		.byte	0x2d
 8660 258d 1F01     		.2byte	0x11f
 8661 258f 0E       		.byte	0xe
 8662 2590 BF250000 		.4byte	0x25bf
 8663 2594 24       		.uleb128 0x24
 8664 2595 B6030000 		.4byte	.LASF474
ARM GAS  /tmp/ccTxpxgR.s 			page 153


 8665 2599 00       		.byte	0
 8666 259a 24       		.uleb128 0x24
 8667 259b 7D110000 		.4byte	.LASF475
 8668 259f 01       		.byte	0x1
 8669 25a0 24       		.uleb128 0x24
 8670 25a1 99100000 		.4byte	.LASF476
 8671 25a5 02       		.byte	0x2
 8672 25a6 24       		.uleb128 0x24
 8673 25a7 CB170000 		.4byte	.LASF477
 8674 25ab 03       		.byte	0x3
 8675 25ac 24       		.uleb128 0x24
 8676 25ad 3D180000 		.4byte	.LASF478
 8677 25b1 04       		.byte	0x4
 8678 25b2 24       		.uleb128 0x24
 8679 25b3 2B130000 		.4byte	.LASF479
 8680 25b7 05       		.byte	0x5
 8681 25b8 24       		.uleb128 0x24
 8682 25b9 8D0B0000 		.4byte	.LASF480
 8683 25bd 06       		.byte	0x6
 8684 25be 00       		.byte	0
 8685 25bf 08       		.uleb128 0x8
 8686 25c0 8F020000 		.4byte	.LASF481
 8687 25c4 2D       		.byte	0x2d
 8688 25c5 2701     		.2byte	0x127
 8689 25c7 03       		.byte	0x3
 8690 25c8 85250000 		.4byte	0x2585
 8691 25cc 27       		.uleb128 0x27
 8692 25cd 07       		.byte	0x7
 8693 25ce 01       		.byte	0x1
 8694 25cf 65000000 		.4byte	0x65
 8695 25d3 2D       		.byte	0x2d
 8696 25d4 2C01     		.2byte	0x12c
 8697 25d6 0E       		.byte	0xe
 8698 25d7 00260000 		.4byte	0x2600
 8699 25db 24       		.uleb128 0x24
 8700 25dc 6E140000 		.4byte	.LASF482
 8701 25e0 00       		.byte	0
 8702 25e1 24       		.uleb128 0x24
 8703 25e2 DA020000 		.4byte	.LASF483
 8704 25e6 01       		.byte	0x1
 8705 25e7 24       		.uleb128 0x24
 8706 25e8 0F130000 		.4byte	.LASF484
 8707 25ec 02       		.byte	0x2
 8708 25ed 24       		.uleb128 0x24
 8709 25ee 0C170000 		.4byte	.LASF485
 8710 25f2 03       		.byte	0x3
 8711 25f3 24       		.uleb128 0x24
 8712 25f4 6F0E0000 		.4byte	.LASF486
 8713 25f8 04       		.byte	0x4
 8714 25f9 24       		.uleb128 0x24
 8715 25fa 6A040000 		.4byte	.LASF487
 8716 25fe 05       		.byte	0x5
 8717 25ff 00       		.byte	0
 8718 2600 08       		.uleb128 0x8
 8719 2601 D8080000 		.4byte	.LASF488
 8720 2605 2D       		.byte	0x2d
 8721 2606 3301     		.2byte	0x133
ARM GAS  /tmp/ccTxpxgR.s 			page 154


 8722 2608 03       		.byte	0x3
 8723 2609 CC250000 		.4byte	0x25cc
 8724 260d 1E       		.uleb128 0x1e
 8725 260e 08       		.byte	0x8
 8726 260f 2D       		.byte	0x2d
 8727 2610 3801     		.2byte	0x138
 8728 2612 09       		.byte	0x9
 8729 2613 34260000 		.4byte	0x2634
 8730 2617 17       		.uleb128 0x17
 8731 2618 E30E0000 		.4byte	.LASF489
 8732 261c 2D       		.byte	0x2d
 8733 261d 3C01     		.2byte	0x13c
 8734 261f 21       		.byte	0x21
 8735 2620 2C000000 		.4byte	0x2c
 8736 2624 00       		.byte	0
 8737 2625 17       		.uleb128 0x17
 8738 2626 5D060000 		.4byte	.LASF490
 8739 262a 2D       		.byte	0x2d
 8740 262b 4001     		.2byte	0x140
 8741 262d 22       		.byte	0x22
 8742 262e 20170000 		.4byte	0x1720
 8743 2632 04       		.byte	0x4
 8744 2633 00       		.byte	0
 8745 2634 08       		.uleb128 0x8
 8746 2635 99080000 		.4byte	.LASF491
 8747 2639 2D       		.byte	0x2d
 8748 263a 4101     		.2byte	0x141
 8749 263c 03       		.byte	0x3
 8750 263d 0D260000 		.4byte	0x260d
 8751 2641 10       		.uleb128 0x10
 8752 2642 34260000 		.4byte	0x2634
 8753 2646 08       		.uleb128 0x8
 8754 2647 ED140000 		.4byte	.LASF492
 8755 264b 2D       		.byte	0x2d
 8756 264c 4901     		.2byte	0x149
 8757 264e 10       		.byte	0x10
 8758 264f 53260000 		.4byte	0x2653
 8759 2653 06       		.uleb128 0x6
 8760 2654 04       		.byte	0x4
 8761 2655 59260000 		.4byte	0x2659
 8762 2659 1B       		.uleb128 0x1b
 8763 265a 64260000 		.4byte	0x2664
 8764 265e 1A       		.uleb128 0x1a
 8765 265f 64260000 		.4byte	0x2664
 8766 2663 00       		.byte	0
 8767 2664 06       		.uleb128 0x6
 8768 2665 04       		.byte	0x4
 8769 2666 3B240000 		.4byte	0x243b
 8770 266a 08       		.uleb128 0x8
 8771 266b 160D0000 		.4byte	.LASF493
 8772 266f 2D       		.byte	0x2d
 8773 2670 5201     		.2byte	0x152
 8774 2672 10       		.byte	0x10
 8775 2673 77260000 		.4byte	0x2677
 8776 2677 06       		.uleb128 0x6
 8777 2678 04       		.byte	0x4
 8778 2679 7D260000 		.4byte	0x267d
ARM GAS  /tmp/ccTxpxgR.s 			page 155


 8779 267d 1B       		.uleb128 0x1b
 8780 267e 8D260000 		.4byte	0x268d
 8781 2682 1A       		.uleb128 0x1a
 8782 2683 64260000 		.4byte	0x2664
 8783 2687 1A       		.uleb128 0x1a
 8784 2688 37250000 		.4byte	0x2537
 8785 268c 00       		.byte	0
 8786 268d 08       		.uleb128 0x8
 8787 268e FE060000 		.4byte	.LASF494
 8788 2692 2D       		.byte	0x2d
 8789 2693 5B01     		.2byte	0x15b
 8790 2695 10       		.byte	0x10
 8791 2696 9A260000 		.4byte	0x269a
 8792 269a 06       		.uleb128 0x6
 8793 269b 04       		.byte	0x4
 8794 269c A0260000 		.4byte	0x26a0
 8795 26a0 1B       		.uleb128 0x1b
 8796 26a1 B0260000 		.4byte	0x26b0
 8797 26a5 1A       		.uleb128 0x1a
 8798 26a6 64260000 		.4byte	0x2664
 8799 26aa 1A       		.uleb128 0x1a
 8800 26ab 00260000 		.4byte	0x2600
 8801 26af 00       		.byte	0
 8802 26b0 08       		.uleb128 0x8
 8803 26b1 BB140000 		.4byte	.LASF495
 8804 26b5 2D       		.byte	0x2d
 8805 26b6 6701     		.2byte	0x167
 8806 26b8 10       		.byte	0x10
 8807 26b9 BD260000 		.4byte	0x26bd
 8808 26bd 06       		.uleb128 0x6
 8809 26be 04       		.byte	0x4
 8810 26bf C3260000 		.4byte	0x26c3
 8811 26c3 19       		.uleb128 0x19
 8812 26c4 01180000 		.4byte	0x1801
 8813 26c8 D2260000 		.4byte	0x26d2
 8814 26cc 1A       		.uleb128 0x1a
 8815 26cd 64260000 		.4byte	0x2664
 8816 26d1 00       		.byte	0
 8817 26d2 08       		.uleb128 0x8
 8818 26d3 99130000 		.4byte	.LASF496
 8819 26d7 2D       		.byte	0x2d
 8820 26d8 6C01     		.2byte	0x16c
 8821 26da 21       		.byte	0x21
 8822 26db DF260000 		.4byte	0x26df
 8823 26df 06       		.uleb128 0x6
 8824 26e0 04       		.byte	0x4
 8825 26e1 E5260000 		.4byte	0x26e5
 8826 26e5 19       		.uleb128 0x19
 8827 26e6 03270000 		.4byte	0x2703
 8828 26ea 03270000 		.4byte	0x2703
 8829 26ee 1A       		.uleb128 0x1a
 8830 26ef 64260000 		.4byte	0x2664
 8831 26f3 1A       		.uleb128 0x1a
 8832 26f4 72090000 		.4byte	0x972
 8833 26f8 1A       		.uleb128 0x1a
 8834 26f9 72090000 		.4byte	0x972
 8835 26fd 1A       		.uleb128 0x1a
ARM GAS  /tmp/ccTxpxgR.s 			page 156


 8836 26fe 8F090000 		.4byte	0x98f
 8837 2702 00       		.byte	0
 8838 2703 06       		.uleb128 0x6
 8839 2704 04       		.byte	0x4
 8840 2705 41260000 		.4byte	0x2641
 8841 2709 0D       		.uleb128 0xd
 8842 270a 10       		.byte	0x10
 8843 270b 2E       		.byte	0x2e
 8844 270c 9E       		.byte	0x9e
 8845 270d 09       		.byte	0x9
 8846 270e 47270000 		.4byte	0x2747
 8847 2712 0E       		.uleb128 0xe
 8848 2713 860B0000 		.4byte	.LASF497
 8849 2717 2E       		.byte	0x2e
 8850 2718 A2       		.byte	0xa2
 8851 2719 21       		.byte	0x21
 8852 271a 2C000000 		.4byte	0x2c
 8853 271e 00       		.byte	0
 8854 271f 0E       		.uleb128 0xe
 8855 2720 65090000 		.4byte	.LASF498
 8856 2724 2E       		.byte	0x2e
 8857 2725 A6       		.byte	0xa6
 8858 2726 21       		.byte	0x21
 8859 2727 2C000000 		.4byte	0x2c
 8860 272b 04       		.byte	0x4
 8861 272c 0E       		.uleb128 0xe
 8862 272d A7030000 		.4byte	.LASF499
 8863 2731 2E       		.byte	0x2e
 8864 2732 AA       		.byte	0xaa
 8865 2733 22       		.byte	0x22
 8866 2734 20170000 		.4byte	0x1720
 8867 2738 08       		.byte	0x8
 8868 2739 0E       		.uleb128 0xe
 8869 273a C8010000 		.4byte	.LASF500
 8870 273e 2E       		.byte	0x2e
 8871 273f B5       		.byte	0xb5
 8872 2740 21       		.byte	0x21
 8873 2741 2C000000 		.4byte	0x2c
 8874 2745 0C       		.byte	0xc
 8875 2746 00       		.byte	0
 8876 2747 03       		.uleb128 0x3
 8877 2748 5B080000 		.4byte	.LASF501
 8878 274c 2E       		.byte	0x2e
 8879 274d B6       		.byte	0xb6
 8880 274e 03       		.byte	0x3
 8881 274f 09270000 		.4byte	0x2709
 8882 2753 0D       		.uleb128 0xd
 8883 2754 10       		.byte	0x10
 8884 2755 2E       		.byte	0x2e
 8885 2756 BB       		.byte	0xbb
 8886 2757 09       		.byte	0x9
 8887 2758 91270000 		.4byte	0x2791
 8888 275c 0E       		.uleb128 0xe
 8889 275d 88040000 		.4byte	.LASF502
 8890 2761 2E       		.byte	0x2e
 8891 2762 BF       		.byte	0xbf
 8892 2763 21       		.byte	0x21
ARM GAS  /tmp/ccTxpxgR.s 			page 157


 8893 2764 2C000000 		.4byte	0x2c
 8894 2768 00       		.byte	0
 8895 2769 0E       		.uleb128 0xe
 8896 276a 9F0F0000 		.4byte	.LASF503
 8897 276e 2E       		.byte	0x2e
 8898 276f C3       		.byte	0xc3
 8899 2770 21       		.byte	0x21
 8900 2771 2C000000 		.4byte	0x2c
 8901 2775 04       		.byte	0x4
 8902 2776 0E       		.uleb128 0xe
 8903 2777 CF0B0000 		.4byte	.LASF504
 8904 277b 2E       		.byte	0x2e
 8905 277c C7       		.byte	0xc7
 8906 277d 22       		.byte	0x22
 8907 277e 45170000 		.4byte	0x1745
 8908 2782 08       		.byte	0x8
 8909 2783 0E       		.uleb128 0xe
 8910 2784 56160000 		.4byte	.LASF505
 8911 2788 2E       		.byte	0x2e
 8912 2789 D2       		.byte	0xd2
 8913 278a 21       		.byte	0x21
 8914 278b 8F090000 		.4byte	0x98f
 8915 278f 0C       		.byte	0xc
 8916 2790 00       		.byte	0
 8917 2791 03       		.uleb128 0x3
 8918 2792 05020000 		.4byte	.LASF506
 8919 2796 2E       		.byte	0x2e
 8920 2797 D3       		.byte	0xd3
 8921 2798 03       		.byte	0x3
 8922 2799 53270000 		.4byte	0x2753
 8923 279d 0D       		.uleb128 0xd
 8924 279e 24       		.byte	0x24
 8925 279f 2E       		.byte	0x2e
 8926 27a0 D9       		.byte	0xd9
 8927 27a1 09       		.byte	0x9
 8928 27a2 2D280000 		.4byte	0x282d
 8929 27a6 0E       		.uleb128 0xe
 8930 27a7 AE010000 		.4byte	.LASF507
 8931 27ab 2E       		.byte	0x2e
 8932 27ac DD       		.byte	0xdd
 8933 27ad 21       		.byte	0x21
 8934 27ae AC090000 		.4byte	0x9ac
 8935 27b2 00       		.byte	0
 8936 27b3 0E       		.uleb128 0xe
 8937 27b4 54060000 		.4byte	.LASF508
 8938 27b8 2E       		.byte	0x2e
 8939 27b9 E8       		.byte	0xe8
 8940 27ba 21       		.byte	0x21
 8941 27bb 6A260000 		.4byte	0x266a
 8942 27bf 04       		.byte	0x4
 8943 27c0 0E       		.uleb128 0xe
 8944 27c1 93060000 		.4byte	.LASF509
 8945 27c5 2E       		.byte	0x2e
 8946 27c6 ED       		.byte	0xed
 8947 27c7 21       		.byte	0x21
 8948 27c8 6A260000 		.4byte	0x266a
 8949 27cc 08       		.byte	0x8
ARM GAS  /tmp/ccTxpxgR.s 			page 158


 8950 27cd 0E       		.uleb128 0xe
 8951 27ce 580F0000 		.4byte	.LASF510
 8952 27d2 2E       		.byte	0x2e
 8953 27d3 F2       		.byte	0xf2
 8954 27d4 21       		.byte	0x21
 8955 27d5 6A260000 		.4byte	0x266a
 8956 27d9 0C       		.byte	0xc
 8957 27da 0E       		.uleb128 0xe
 8958 27db A50F0000 		.4byte	.LASF511
 8959 27df 2E       		.byte	0x2e
 8960 27e0 F7       		.byte	0xf7
 8961 27e1 21       		.byte	0x21
 8962 27e2 8F090000 		.4byte	0x98f
 8963 27e6 10       		.byte	0x10
 8964 27e7 0E       		.uleb128 0xe
 8965 27e8 33160000 		.4byte	.LASF512
 8966 27ec 2E       		.byte	0x2e
 8967 27ed FC       		.byte	0xfc
 8968 27ee 21       		.byte	0x21
 8969 27ef 8F090000 		.4byte	0x98f
 8970 27f3 12       		.byte	0x12
 8971 27f4 17       		.uleb128 0x17
 8972 27f5 DB0B0000 		.4byte	.LASF513
 8973 27f9 2E       		.byte	0x2e
 8974 27fa 0201     		.2byte	0x102
 8975 27fc 22       		.byte	0x22
 8976 27fd 2D280000 		.4byte	0x282d
 8977 2801 14       		.byte	0x14
 8978 2802 17       		.uleb128 0x17
 8979 2803 F90F0000 		.4byte	.LASF514
 8980 2807 2E       		.byte	0x2e
 8981 2808 0801     		.2byte	0x108
 8982 280a 22       		.byte	0x22
 8983 280b 33280000 		.4byte	0x2833
 8984 280f 18       		.byte	0x18
 8985 2810 17       		.uleb128 0x17
 8986 2811 3E100000 		.4byte	.LASF515
 8987 2815 2E       		.byte	0x2e
 8988 2816 0E01     		.2byte	0x10e
 8989 2818 21       		.byte	0x21
 8990 2819 8F090000 		.4byte	0x98f
 8991 281d 1C       		.byte	0x1c
 8992 281e 17       		.uleb128 0x17
 8993 281f C70E0000 		.4byte	.LASF516
 8994 2823 2E       		.byte	0x2e
 8995 2824 1401     		.2byte	0x114
 8996 2826 22       		.byte	0x22
 8997 2827 45170000 		.4byte	0x1745
 8998 282b 20       		.byte	0x20
 8999 282c 00       		.byte	0
 9000 282d 06       		.uleb128 0x6
 9001 282e 04       		.byte	0x4
 9002 282f 47270000 		.4byte	0x2747
 9003 2833 06       		.uleb128 0x6
 9004 2834 04       		.byte	0x4
 9005 2835 91270000 		.4byte	0x2791
 9006 2839 08       		.uleb128 0x8
ARM GAS  /tmp/ccTxpxgR.s 			page 159


 9007 283a BD110000 		.4byte	.LASF517
 9008 283e 2E       		.byte	0x2e
 9009 283f 1501     		.2byte	0x115
 9010 2841 03       		.byte	0x3
 9011 2842 9D270000 		.4byte	0x279d
 9012 2846 10       		.uleb128 0x10
 9013 2847 39280000 		.4byte	0x2839
 9014 284b 1E       		.uleb128 0x1e
 9015 284c 10       		.byte	0x10
 9016 284d 2E       		.byte	0x2e
 9017 284e 1A01     		.2byte	0x11a
 9018 2850 09       		.byte	0x9
 9019 2851 8E280000 		.4byte	0x288e
 9020 2855 17       		.uleb128 0x17
 9021 2856 1A0C0000 		.4byte	.LASF518
 9022 285a 2E       		.byte	0x2e
 9023 285b 1F01     		.2byte	0x11f
 9024 285d 21       		.byte	0x21
 9025 285e 8D260000 		.4byte	0x268d
 9026 2862 00       		.byte	0
 9027 2863 17       		.uleb128 0x17
 9028 2864 D9160000 		.4byte	.LASF519
 9029 2868 2E       		.byte	0x2e
 9030 2869 2401     		.2byte	0x124
 9031 286b 21       		.byte	0x21
 9032 286c D2260000 		.4byte	0x26d2
 9033 2870 04       		.byte	0x4
 9034 2871 17       		.uleb128 0x17
 9035 2872 89050000 		.4byte	.LASF520
 9036 2876 2E       		.byte	0x2e
 9037 2877 2A01     		.2byte	0x12a
 9038 2879 21       		.byte	0x21
 9039 287a B0260000 		.4byte	0x26b0
 9040 287e 08       		.byte	0x8
 9041 287f 17       		.uleb128 0x17
 9042 2880 D5030000 		.4byte	.LASF521
 9043 2884 2E       		.byte	0x2e
 9044 2885 2E01     		.2byte	0x12e
 9045 2887 21       		.byte	0x21
 9046 2888 46260000 		.4byte	0x2646
 9047 288c 0C       		.byte	0xc
 9048 288d 00       		.byte	0
 9049 288e 08       		.uleb128 0x8
 9050 288f 360E0000 		.4byte	.LASF522
 9051 2893 2E       		.byte	0x2e
 9052 2894 3001     		.2byte	0x130
 9053 2896 03       		.byte	0x3
 9054 2897 4B280000 		.4byte	0x284b
 9055 289b 10       		.uleb128 0x10
 9056 289c 8E280000 		.4byte	0x288e
 9057 28a0 06       		.uleb128 0x6
 9058 28a1 04       		.byte	0x4
 9059 28a2 9B280000 		.4byte	0x289b
 9060 28a6 0B       		.uleb128 0xb
 9061 28a7 B6280000 		.4byte	0x28b6
 9062 28ab B6280000 		.4byte	0x28b6
 9063 28af 0C       		.uleb128 0xc
ARM GAS  /tmp/ccTxpxgR.s 			page 160


 9064 28b0 3D000000 		.4byte	0x3d
 9065 28b4 07       		.byte	0x7
 9066 28b5 00       		.byte	0
 9067 28b6 06       		.uleb128 0x6
 9068 28b7 04       		.byte	0x4
 9069 28b8 46280000 		.4byte	0x2846
 9070 28bc 0B       		.uleb128 0xb
 9071 28bd 75010000 		.4byte	0x175
 9072 28c1 CC280000 		.4byte	0x28cc
 9073 28c5 0C       		.uleb128 0xc
 9074 28c6 3D000000 		.4byte	0x3d
 9075 28ca 06       		.byte	0x6
 9076 28cb 00       		.byte	0
 9077 28cc 0B       		.uleb128 0xb
 9078 28cd 72090000 		.4byte	0x972
 9079 28d1 DC280000 		.4byte	0x28dc
 9080 28d5 0C       		.uleb128 0xc
 9081 28d6 3D000000 		.4byte	0x3d
 9082 28da 07       		.byte	0x7
 9083 28db 00       		.byte	0
 9084 28dc 1C       		.uleb128 0x1c
 9085 28dd 45130000 		.4byte	.LASF523
 9086 28e1 2E       		.byte	0x2e
 9087 28e2 C401     		.2byte	0x1c4
 9088 28e4 12       		.byte	0x12
 9089 28e5 3B240000 		.4byte	0x243b
 9090 28e9 28       		.uleb128 0x28
 9091 28ea 05150000 		.4byte	.LASF532
 9092 28ee 01       		.byte	0x1
 9093 28ef 5803     		.2byte	0x358
 9094 28f1 06       		.byte	0x6
 9095 28f2 00000000 		.4byte	.LFB172
 9096 28f6 3E000000 		.4byte	.LFE172-.LFB172
 9097 28fa 01       		.uleb128 0x1
 9098 28fb 9C       		.byte	0x9c
 9099 28fc 192A0000 		.4byte	0x2a19
 9100 2900 29       		.uleb128 0x29
 9101 2901 49100000 		.4byte	.LASF524
 9102 2905 01       		.byte	0x1
 9103 2906 5803     		.2byte	0x358
 9104 2908 27       		.byte	0x27
 9105 2909 192A0000 		.4byte	0x2a19
 9106 290d 06000000 		.4byte	.LLST87
 9107 2911 00000000 		.4byte	.LVUS87
 9108 2915 2A       		.uleb128 0x2a
 9109 2916 C8070000 		.4byte	.Ldebug_ranges0+0x7c8
 9110 291a 74290000 		.4byte	0x2974
 9111 291e 2B       		.uleb128 0x2b
 9112 291f 3E110000 		.4byte	.LASF255
 9113 2923 01       		.byte	0x1
 9114 2924 5E03     		.2byte	0x35e
 9115 2926 0C       		.byte	0xc
 9116 2927 2C000000 		.4byte	0x2c
 9117 292b 3A000000 		.4byte	.LLST88
 9118 292f 32000000 		.4byte	.LVUS88
 9119 2933 2C       		.uleb128 0x2c
 9120 2934 C92F0000 		.4byte	0x2fc9
ARM GAS  /tmp/ccTxpxgR.s 			page 161


 9121 2938 12000000 		.4byte	.LBI778
 9122 293c 01       		.byte	.LVU1067
 9123 293d E0070000 		.4byte	.Ldebug_ranges0+0x7e0
 9124 2941 01       		.byte	0x1
 9125 2942 6103     		.2byte	0x361
 9126 2944 07       		.byte	0x7
 9127 2945 2D       		.uleb128 0x2d
 9128 2946 E42F0000 		.4byte	0x2fe4
 9129 294a 88000000 		.4byte	.LLST89
 9130 294e 80000000 		.4byte	.LVUS89
 9131 2952 2D       		.uleb128 0x2d
 9132 2953 D72F0000 		.4byte	0x2fd7
 9133 2957 D4000000 		.4byte	.LLST90
 9134 295b CE000000 		.4byte	.LVUS90
 9135 295f 2E       		.uleb128 0x2e
 9136 2960 E0070000 		.4byte	.Ldebug_ranges0+0x7e0
 9137 2964 2F       		.uleb128 0x2f
 9138 2965 34000000 		.4byte	.LVL160
 9139 2969 30       		.uleb128 0x30
 9140 296a 01       		.uleb128 0x1
 9141 296b 50       		.byte	0x50
 9142 296c 03       		.uleb128 0x3
 9143 296d F3       		.byte	0xf3
 9144 296e 01       		.uleb128 0x1
 9145 296f 50       		.byte	0x50
 9146 2970 00       		.byte	0
 9147 2971 00       		.byte	0
 9148 2972 00       		.byte	0
 9149 2973 00       		.byte	0
 9150 2974 31       		.uleb128 0x31
 9151 2975 323F0000 		.4byte	0x3f32
 9152 2979 00000000 		.4byte	.LBI761
 9153 297d 02       		.byte	.LVU1046
 9154 297e 98070000 		.4byte	.Ldebug_ranges0+0x798
 9155 2982 01       		.byte	0x1
 9156 2983 5A03     		.2byte	0x35a
 9157 2985 03       		.byte	0x3
 9158 2986 C3290000 		.4byte	0x29c3
 9159 298a 2C       		.uleb128 0x2c
 9160 298b 923F0000 		.4byte	0x3f92
 9161 298f 00000000 		.4byte	.LBI762
 9162 2993 04       		.byte	.LVU1048
 9163 2994 A0070000 		.4byte	.Ldebug_ranges0+0x7a0
 9164 2998 02       		.byte	0x2
 9165 2999 ED01     		.2byte	0x1ed
 9166 299b 03       		.byte	0x3
 9167 299c 2C       		.uleb128 0x2c
 9168 299d DC3F0000 		.4byte	0x3fdc
 9169 29a1 00000000 		.4byte	.LBI763
 9170 29a5 06       		.byte	.LVU1050
 9171 29a6 A8070000 		.4byte	.Ldebug_ranges0+0x7a8
 9172 29aa 05       		.byte	0x5
 9173 29ab 7801     		.2byte	0x178
 9174 29ad 03       		.byte	0x3
 9175 29ae 32       		.uleb128 0x32
 9176 29af E63F0000 		.4byte	0x3fe6
 9177 29b3 00000000 		.4byte	.LBI764
ARM GAS  /tmp/ccTxpxgR.s 			page 162


 9178 29b7 08       		.byte	.LVU1052
 9179 29b8 B0070000 		.4byte	.Ldebug_ranges0+0x7b0
 9180 29bc 06       		.byte	0x6
 9181 29bd 7501     		.2byte	0x175
 9182 29bf 03       		.byte	0x3
 9183 29c0 00       		.byte	0
 9184 29c1 00       		.byte	0
 9185 29c2 00       		.byte	0
 9186 29c3 2C       		.uleb128 0x2c
 9187 29c4 283F0000 		.4byte	0x3f28
 9188 29c8 34000000 		.4byte	.LBI782
 9189 29cc 02       		.byte	.LVU1093
 9190 29cd F8070000 		.4byte	.Ldebug_ranges0+0x7f8
 9191 29d1 01       		.byte	0x1
 9192 29d2 6503     		.2byte	0x365
 9193 29d4 03       		.byte	0x3
 9194 29d5 2C       		.uleb128 0x2c
 9195 29d6 653F0000 		.4byte	0x3f65
 9196 29da 34000000 		.4byte	.LBI783
 9197 29de 04       		.byte	.LVU1095
 9198 29df 00080000 		.4byte	.Ldebug_ranges0+0x800
 9199 29e3 02       		.byte	0x2
 9200 29e4 F801     		.2byte	0x1f8
 9201 29e6 03       		.byte	0x3
 9202 29e7 2E       		.uleb128 0x2e
 9203 29e8 00080000 		.4byte	.Ldebug_ranges0+0x800
 9204 29ec 2C       		.uleb128 0x2c
 9205 29ed D23F0000 		.4byte	0x3fd2
 9206 29f1 34000000 		.4byte	.LBI785
 9207 29f5 0A       		.byte	.LVU1101
 9208 29f6 00080000 		.4byte	.Ldebug_ranges0+0x800
 9209 29fa 05       		.byte	0x5
 9210 29fb 8F01     		.2byte	0x18f
 9211 29fd 03       		.byte	0x3
 9212 29fe 33       		.uleb128 0x33
 9213 29ff F03F0000 		.4byte	0x3ff0
 9214 2a03 34000000 		.4byte	.LBI786
 9215 2a07 0C       		.byte	.LVU1103
 9216 2a08 34000000 		.4byte	.LBB786
 9217 2a0c 02000000 		.4byte	.LBE786-.LBB786
 9218 2a10 06       		.byte	0x6
 9219 2a11 7E01     		.2byte	0x17e
 9220 2a13 03       		.byte	0x3
 9221 2a14 00       		.byte	0
 9222 2a15 00       		.byte	0
 9223 2a16 00       		.byte	0
 9224 2a17 00       		.byte	0
 9225 2a18 00       		.byte	0
 9226 2a19 06       		.uleb128 0x6
 9227 2a1a 04       		.byte	0x4
 9228 2a1b EC180000 		.4byte	0x18ec
 9229 2a1f 34       		.uleb128 0x34
 9230 2a20 5A100000 		.4byte	.LASF525
 9231 2a24 01       		.byte	0x1
 9232 2a25 3303     		.2byte	0x333
 9233 2a27 06       		.byte	0x6
 9234 2a28 01180000 		.4byte	0x1801
ARM GAS  /tmp/ccTxpxgR.s 			page 163


 9235 2a2c 00000000 		.4byte	.LFB171
 9236 2a30 42000000 		.4byte	.LFE171-.LFB171
 9237 2a34 01       		.uleb128 0x1
 9238 2a35 9C       		.byte	0x9c
 9239 2a36 6F2A0000 		.4byte	0x2a6f
 9240 2a3a 29       		.uleb128 0x29
 9241 2a3b 49100000 		.4byte	.LASF524
 9242 2a3f 01       		.byte	0x1
 9243 2a40 3303     		.2byte	0x333
 9244 2a42 2B       		.byte	0x2b
 9245 2a43 192A0000 		.4byte	0x2a19
 9246 2a47 04010000 		.4byte	.LLST85
 9247 2a4b 00010000 		.4byte	.LVUS85
 9248 2a4f 35       		.uleb128 0x35
 9249 2a50 1A000000 		.4byte	.LBB760
 9250 2a54 28000000 		.4byte	.LBE760-.LBB760
 9251 2a58 2B       		.uleb128 0x2b
 9252 2a59 3E110000 		.4byte	.LASF255
 9253 2a5d 01       		.byte	0x1
 9254 2a5e 3A03     		.2byte	0x33a
 9255 2a60 0C       		.byte	0xc
 9256 2a61 2C000000 		.4byte	0x2c
 9257 2a65 2A010000 		.4byte	.LLST86
 9258 2a69 22010000 		.4byte	.LVUS86
 9259 2a6d 00       		.byte	0
 9260 2a6e 00       		.byte	0
 9261 2a6f 34       		.uleb128 0x34
 9262 2a70 9C120000 		.4byte	.LASF526
 9263 2a74 01       		.byte	0x1
 9264 2a75 D602     		.2byte	0x2d6
 9265 2a77 08       		.byte	0x8
 9266 2a78 2C000000 		.4byte	0x2c
 9267 2a7c 00000000 		.4byte	.LFB170
 9268 2a80 EA000000 		.4byte	.LFE170-.LFB170
 9269 2a84 01       		.uleb128 0x1
 9270 2a85 9C       		.byte	0x9c
 9271 2a86 F12D0000 		.4byte	0x2df1
 9272 2a8a 29       		.uleb128 0x29
 9273 2a8b 49100000 		.4byte	.LASF524
 9274 2a8f 01       		.byte	0x1
 9275 2a90 D602     		.2byte	0x2d6
 9276 2a92 30       		.byte	0x30
 9277 2a93 192A0000 		.4byte	0x2a19
 9278 2a97 76010000 		.4byte	.LLST74
 9279 2a9b 70010000 		.4byte	.LVUS74
 9280 2a9f 36       		.uleb128 0x36
 9281 2aa0 627000   		.ascii	"bp\000"
 9282 2aa3 01       		.byte	0x1
 9283 2aa4 D602     		.2byte	0x2d6
 9284 2aa6 45       		.byte	0x45
 9285 2aa7 20170000 		.4byte	0x1720
 9286 2aab A6010000 		.4byte	.LLST75
 9287 2aaf A2010000 		.4byte	.LVUS75
 9288 2ab3 36       		.uleb128 0x36
 9289 2ab4 6E00     		.ascii	"n\000"
 9290 2ab6 01       		.byte	0x1
 9291 2ab7 D702     		.2byte	0x2d7
ARM GAS  /tmp/ccTxpxgR.s 			page 164


 9292 2ab9 1F       		.byte	0x1f
 9293 2aba 2C000000 		.4byte	0x2c
 9294 2abe D2010000 		.4byte	.LLST76
 9295 2ac2 C4010000 		.4byte	.LVUS76
 9296 2ac6 29       		.uleb128 0x29
 9297 2ac7 8A0D0000 		.4byte	.LASF527
 9298 2acb 01       		.byte	0x1
 9299 2acc D702     		.2byte	0x2d7
 9300 2ace 2C       		.byte	0x2c
 9301 2acf 290A0000 		.4byte	0xa29
 9302 2ad3 30020000 		.4byte	.LLST77
 9303 2ad7 2A020000 		.4byte	.LVUS77
 9304 2adb 37       		.uleb128 0x37
 9305 2adc 7700     		.ascii	"w\000"
 9306 2ade 01       		.byte	0x1
 9307 2adf D802     		.2byte	0x2d8
 9308 2ae1 0A       		.byte	0xa
 9309 2ae2 2C000000 		.4byte	0x2c
 9310 2ae6 64020000 		.4byte	.LLST78
 9311 2aea 5E020000 		.4byte	.LVUS78
 9312 2aee 2B       		.uleb128 0x2b
 9313 2aef 490B0000 		.4byte	.LASF528
 9314 2af3 01       		.byte	0x1
 9315 2af4 D902     		.2byte	0x2d9
 9316 2af6 0D       		.byte	0xd
 9317 2af7 290A0000 		.4byte	0xa29
 9318 2afb 92020000 		.4byte	.LLST79
 9319 2aff 8E020000 		.4byte	.LVUS79
 9320 2b03 38       		.uleb128 0x38
 9321 2b04 32010000 		.4byte	.LASF531
 9322 2b08 012E0000 		.4byte	0x2e01
 9323 2b0c 2A       		.uleb128 0x2a
 9324 2b0d 70050000 		.4byte	.Ldebug_ranges0+0x570
 9325 2b11 542D0000 		.4byte	0x2d54
 9326 2b15 2B       		.uleb128 0x2b
 9327 2b16 3E110000 		.4byte	.LASF255
 9328 2b1a 01       		.byte	0x1
 9329 2b1b E302     		.2byte	0x2e3
 9330 2b1d 0C       		.byte	0xc
 9331 2b1e 2C000000 		.4byte	0x2c
 9332 2b22 B7020000 		.4byte	.LLST80
 9333 2b26 B1020000 		.4byte	.LVUS80
 9334 2b2a 2A       		.uleb128 0x2a
 9335 2b2b E8050000 		.4byte	.Ldebug_ranges0+0x5e8
 9336 2b2f 342C0000 		.4byte	0x2c34
 9337 2b33 37       		.uleb128 0x37
 9338 2b34 6D736700 		.ascii	"msg\000"
 9339 2b38 01       		.byte	0x1
 9340 2b39 E702     		.2byte	0x2e7
 9341 2b3b 0D       		.byte	0xd
 9342 2b3c F9090000 		.4byte	0x9f9
 9343 2b40 E4020000 		.4byte	.LLST81
 9344 2b44 E0020000 		.4byte	.LVUS81
 9345 2b48 2A       		.uleb128 0x2a
 9346 2b49 40060000 		.4byte	.Ldebug_ranges0+0x640
 9347 2b4d C42B0000 		.4byte	0x2bc4
 9348 2b51 2B       		.uleb128 0x2b
ARM GAS  /tmp/ccTxpxgR.s 			page 165


 9349 2b52 8D000000 		.4byte	.LASF529
 9350 2b56 01       		.byte	0x1
 9351 2b57 EF02     		.2byte	0x2ef
 9352 2b59 13       		.byte	0x13
 9353 2b5a 290A0000 		.4byte	0xa29
 9354 2b5e 04030000 		.4byte	.LLST82
 9355 2b62 02030000 		.4byte	.LVUS82
 9356 2b66 31       		.uleb128 0x31
 9357 2b67 1A3F0000 		.4byte	0x3f1a
 9358 2b6b B2000000 		.4byte	.LBI675
 9359 2b6f 01       		.byte	.LVU969
 9360 2b70 70060000 		.4byte	.Ldebug_ranges0+0x670
 9361 2b74 01       		.byte	0x1
 9362 2b75 EF02     		.2byte	0x2ef
 9363 2b77 2D       		.byte	0x2d
 9364 2b78 B32B0000 		.4byte	0x2bb3
 9365 2b7c 2C       		.uleb128 0x2c
 9366 2b7d 583F0000 		.4byte	0x3f58
 9367 2b81 B2000000 		.4byte	.LBI676
 9368 2b85 03       		.byte	.LVU971
 9369 2b86 A0060000 		.4byte	.Ldebug_ranges0+0x6a0
 9370 2b8a 02       		.byte	0x2
 9371 2b8b 6A02     		.2byte	0x26a
 9372 2b8d 0A       		.byte	0xa
 9373 2b8e 39       		.uleb128 0x39
 9374 2b8f B83F0000 		.4byte	0x3fb8
 9375 2b93 B2000000 		.4byte	.LBI677
 9376 2b97 05       		.byte	.LVU973
 9377 2b98 C8060000 		.4byte	.Ldebug_ranges0+0x6c8
 9378 2b9c 08       		.byte	0x8
 9379 2b9d E9       		.byte	0xe9
 9380 2b9e 0A       		.byte	0xa
 9381 2b9f 3A       		.uleb128 0x3a
 9382 2ba0 C53F0000 		.4byte	0x3fc5
 9383 2ba4 B2000000 		.4byte	.LBI678
 9384 2ba8 07       		.byte	.LVU975
 9385 2ba9 E8060000 		.4byte	.Ldebug_ranges0+0x6e8
 9386 2bad 09       		.byte	0x9
 9387 2bae 6B       		.byte	0x6b
 9388 2baf 0A       		.byte	0xa
 9389 2bb0 00       		.byte	0
 9390 2bb1 00       		.byte	0
 9391 2bb2 00       		.byte	0
 9392 2bb3 3B       		.uleb128 0x3b
 9393 2bb4 C4000000 		.4byte	.LVL137
 9394 2bb8 42310000 		.4byte	0x3142
 9395 2bbc 30       		.uleb128 0x30
 9396 2bbd 01       		.uleb128 0x1
 9397 2bbe 50       		.byte	0x50
 9398 2bbf 02       		.uleb128 0x2
 9399 2bc0 74       		.byte	0x74
 9400 2bc1 00       		.sleb128 0
 9401 2bc2 00       		.byte	0
 9402 2bc3 00       		.byte	0
 9403 2bc4 31       		.uleb128 0x31
 9404 2bc5 283F0000 		.4byte	0x3f28
 9405 2bc9 D8000000 		.4byte	.LBI695
ARM GAS  /tmp/ccTxpxgR.s 			page 166


 9406 2bcd 01       		.byte	.LVU993
 9407 2bce 00070000 		.4byte	.Ldebug_ranges0+0x700
 9408 2bd2 01       		.byte	0x1
 9409 2bd3 FD02     		.2byte	0x2fd
 9410 2bd5 09       		.byte	0x9
 9411 2bd6 1D2C0000 		.4byte	0x2c1d
 9412 2bda 2C       		.uleb128 0x2c
 9413 2bdb 653F0000 		.4byte	0x3f65
 9414 2bdf D8000000 		.4byte	.LBI696
 9415 2be3 03       		.byte	.LVU995
 9416 2be4 08070000 		.4byte	.Ldebug_ranges0+0x708
 9417 2be8 02       		.byte	0x2
 9418 2be9 F801     		.2byte	0x1f8
 9419 2beb 03       		.byte	0x3
 9420 2bec 2E       		.uleb128 0x2e
 9421 2bed 08070000 		.4byte	.Ldebug_ranges0+0x708
 9422 2bf1 2C       		.uleb128 0x2c
 9423 2bf2 D23F0000 		.4byte	0x3fd2
 9424 2bf6 D8000000 		.4byte	.LBI698
 9425 2bfa 09       		.byte	.LVU1001
 9426 2bfb 08070000 		.4byte	.Ldebug_ranges0+0x708
 9427 2bff 05       		.byte	0x5
 9428 2c00 8F01     		.2byte	0x18f
 9429 2c02 03       		.byte	0x3
 9430 2c03 33       		.uleb128 0x33
 9431 2c04 F03F0000 		.4byte	0x3ff0
 9432 2c08 D8000000 		.4byte	.LBI699
 9433 2c0c 0B       		.byte	.LVU1003
 9434 2c0d D8000000 		.4byte	.LBB699
 9435 2c11 02000000 		.4byte	.LBE699-.LBB699
 9436 2c15 06       		.byte	0x6
 9437 2c16 7E01     		.2byte	0x17e
 9438 2c18 03       		.byte	0x3
 9439 2c19 00       		.byte	0
 9440 2c1a 00       		.byte	0
 9441 2c1b 00       		.byte	0
 9442 2c1c 00       		.byte	0
 9443 2c1d 3B       		.uleb128 0x3b
 9444 2c1e D4000000 		.4byte	.LVL139
 9445 2c22 42310000 		.4byte	0x3142
 9446 2c26 30       		.uleb128 0x30
 9447 2c27 01       		.uleb128 0x1
 9448 2c28 50       		.byte	0x50
 9449 2c29 02       		.uleb128 0x2
 9450 2c2a 74       		.byte	0x74
 9451 2c2b 00       		.sleb128 0
 9452 2c2c 30       		.uleb128 0x30
 9453 2c2d 01       		.uleb128 0x1
 9454 2c2e 51       		.byte	0x51
 9455 2c2f 02       		.uleb128 0x2
 9456 2c30 7A       		.byte	0x7a
 9457 2c31 00       		.sleb128 0
 9458 2c32 00       		.byte	0
 9459 2c33 00       		.byte	0
 9460 2c34 31       		.uleb128 0x31
 9461 2c35 C92F0000 		.4byte	0x2fc9
 9462 2c39 4A000000 		.4byte	.LBI707
ARM GAS  /tmp/ccTxpxgR.s 			page 167


 9463 2c3d 01       		.byte	.LVU886
 9464 2c3e 20070000 		.4byte	.Ldebug_ranges0+0x720
 9465 2c42 01       		.byte	0x1
 9466 2c43 1A03     		.2byte	0x31a
 9467 2c45 07       		.byte	0x7
 9468 2c46 772C0000 		.4byte	0x2c77
 9469 2c4a 2D       		.uleb128 0x2d
 9470 2c4b E42F0000 		.4byte	0x2fe4
 9471 2c4f 1D030000 		.4byte	.LLST83
 9472 2c53 17030000 		.4byte	.LVUS83
 9473 2c57 2D       		.uleb128 0x2d
 9474 2c58 D72F0000 		.4byte	0x2fd7
 9475 2c5c 4E030000 		.4byte	.LLST84
 9476 2c60 4C030000 		.4byte	.LVUS84
 9477 2c64 2E       		.uleb128 0x2e
 9478 2c65 20070000 		.4byte	.Ldebug_ranges0+0x720
 9479 2c69 2F       		.uleb128 0x2f
 9480 2c6a 78000000 		.4byte	.LVL126
 9481 2c6e 30       		.uleb128 0x30
 9482 2c6f 01       		.uleb128 0x1
 9483 2c70 50       		.byte	0x50
 9484 2c71 02       		.uleb128 0x2
 9485 2c72 74       		.byte	0x74
 9486 2c73 00       		.sleb128 0
 9487 2c74 00       		.byte	0
 9488 2c75 00       		.byte	0
 9489 2c76 00       		.byte	0
 9490 2c77 31       		.uleb128 0x31
 9491 2c78 283F0000 		.4byte	0x3f28
 9492 2c7c 78000000 		.4byte	.LBI719
 9493 2c80 02       		.byte	.LVU916
 9494 2c81 50070000 		.4byte	.Ldebug_ranges0+0x750
 9495 2c85 01       		.byte	0x1
 9496 2c86 1E03     		.2byte	0x31e
 9497 2c88 05       		.byte	0x5
 9498 2c89 D02C0000 		.4byte	0x2cd0
 9499 2c8d 2C       		.uleb128 0x2c
 9500 2c8e 653F0000 		.4byte	0x3f65
 9501 2c92 78000000 		.4byte	.LBI720
 9502 2c96 04       		.byte	.LVU918
 9503 2c97 58070000 		.4byte	.Ldebug_ranges0+0x758
 9504 2c9b 02       		.byte	0x2
 9505 2c9c F801     		.2byte	0x1f8
 9506 2c9e 03       		.byte	0x3
 9507 2c9f 2E       		.uleb128 0x2e
 9508 2ca0 58070000 		.4byte	.Ldebug_ranges0+0x758
 9509 2ca4 2C       		.uleb128 0x2c
 9510 2ca5 D23F0000 		.4byte	0x3fd2
 9511 2ca9 78000000 		.4byte	.LBI722
 9512 2cad 0A       		.byte	.LVU924
 9513 2cae 58070000 		.4byte	.Ldebug_ranges0+0x758
 9514 2cb2 05       		.byte	0x5
 9515 2cb3 8F01     		.2byte	0x18f
 9516 2cb5 03       		.byte	0x3
 9517 2cb6 33       		.uleb128 0x33
 9518 2cb7 F03F0000 		.4byte	0x3ff0
 9519 2cbb 78000000 		.4byte	.LBI723
ARM GAS  /tmp/ccTxpxgR.s 			page 168


 9520 2cbf 0C       		.byte	.LVU926
 9521 2cc0 78000000 		.4byte	.LBB723
 9522 2cc4 02000000 		.4byte	.LBE723-.LBB723
 9523 2cc8 06       		.byte	0x6
 9524 2cc9 7E01     		.2byte	0x17e
 9525 2ccb 03       		.byte	0x3
 9526 2ccc 00       		.byte	0
 9527 2ccd 00       		.byte	0
 9528 2cce 00       		.byte	0
 9529 2ccf 00       		.byte	0
 9530 2cd0 31       		.uleb128 0x31
 9531 2cd1 323F0000 		.4byte	0x3f32
 9532 2cd5 7E000000 		.4byte	.LBI730
 9533 2cd9 01       		.byte	.LVU931
 9534 2cda 70070000 		.4byte	.Ldebug_ranges0+0x770
 9535 2cde 01       		.byte	0x1
 9536 2cdf 2203     		.2byte	0x322
 9537 2ce1 05       		.byte	0x5
 9538 2ce2 232D0000 		.4byte	0x2d23
 9539 2ce6 2C       		.uleb128 0x2c
 9540 2ce7 923F0000 		.4byte	0x3f92
 9541 2ceb 7E000000 		.4byte	.LBI731
 9542 2cef 03       		.byte	.LVU933
 9543 2cf0 78070000 		.4byte	.Ldebug_ranges0+0x778
 9544 2cf4 02       		.byte	0x2
 9545 2cf5 ED01     		.2byte	0x1ed
 9546 2cf7 03       		.byte	0x3
 9547 2cf8 2C       		.uleb128 0x2c
 9548 2cf9 DC3F0000 		.4byte	0x3fdc
 9549 2cfd 7E000000 		.4byte	.LBI732
 9550 2d01 05       		.byte	.LVU935
 9551 2d02 80070000 		.4byte	.Ldebug_ranges0+0x780
 9552 2d06 05       		.byte	0x5
 9553 2d07 7801     		.2byte	0x178
 9554 2d09 03       		.byte	0x3
 9555 2d0a 33       		.uleb128 0x33
 9556 2d0b E63F0000 		.4byte	0x3fe6
 9557 2d0f 7E000000 		.4byte	.LBI733
 9558 2d13 07       		.byte	.LVU937
 9559 2d14 7E000000 		.4byte	.LBB733
 9560 2d18 02000000 		.4byte	.LBE733-.LBB733
 9561 2d1c 06       		.byte	0x6
 9562 2d1d 7501     		.2byte	0x175
 9563 2d1f 03       		.byte	0x3
 9564 2d20 00       		.byte	0
 9565 2d21 00       		.byte	0
 9566 2d22 00       		.byte	0
 9567 2d23 3C       		.uleb128 0x3c
 9568 2d24 3A000000 		.4byte	.LVL119
 9569 2d28 F5410000 		.4byte	0x41f5
 9570 2d2c 3D2D0000 		.4byte	0x2d3d
 9571 2d30 30       		.uleb128 0x30
 9572 2d31 01       		.uleb128 0x1
 9573 2d32 51       		.byte	0x51
 9574 2d33 02       		.uleb128 0x2
 9575 2d34 77       		.byte	0x77
 9576 2d35 00       		.sleb128 0
ARM GAS  /tmp/ccTxpxgR.s 			page 169


 9577 2d36 30       		.uleb128 0x30
 9578 2d37 01       		.uleb128 0x1
 9579 2d38 52       		.byte	0x52
 9580 2d39 02       		.uleb128 0x2
 9581 2d3a 08       		.byte	0x8
 9582 2d3b 40       		.byte	0x40
 9583 2d3c 00       		.byte	0
 9584 2d3d 3B       		.uleb128 0x3b
 9585 2d3e A0000000 		.4byte	.LVL132
 9586 2d42 F5410000 		.4byte	0x41f5
 9587 2d46 30       		.uleb128 0x30
 9588 2d47 01       		.uleb128 0x1
 9589 2d48 51       		.byte	0x51
 9590 2d49 02       		.uleb128 0x2
 9591 2d4a 77       		.byte	0x77
 9592 2d4b 00       		.sleb128 0
 9593 2d4c 30       		.uleb128 0x30
 9594 2d4d 01       		.uleb128 0x1
 9595 2d4e 52       		.byte	0x52
 9596 2d4f 02       		.uleb128 0x2
 9597 2d50 75       		.byte	0x75
 9598 2d51 00       		.sleb128 0
 9599 2d52 00       		.byte	0
 9600 2d53 00       		.byte	0
 9601 2d54 31       		.uleb128 0x31
 9602 2d55 323F0000 		.4byte	0x3f32
 9603 2d59 00000000 		.4byte	.LBI645
 9604 2d5d 06       		.byte	.LVU840
 9605 2d5e 18050000 		.4byte	.Ldebug_ranges0+0x518
 9606 2d62 01       		.byte	0x1
 9607 2d63 DD02     		.2byte	0x2dd
 9608 2d65 03       		.byte	0x3
 9609 2d66 A32D0000 		.4byte	0x2da3
 9610 2d6a 2C       		.uleb128 0x2c
 9611 2d6b 923F0000 		.4byte	0x3f92
 9612 2d6f 00000000 		.4byte	.LBI646
 9613 2d73 08       		.byte	.LVU842
 9614 2d74 20050000 		.4byte	.Ldebug_ranges0+0x520
 9615 2d78 02       		.byte	0x2
 9616 2d79 ED01     		.2byte	0x1ed
 9617 2d7b 03       		.byte	0x3
 9618 2d7c 2C       		.uleb128 0x2c
 9619 2d7d DC3F0000 		.4byte	0x3fdc
 9620 2d81 00000000 		.4byte	.LBI647
 9621 2d85 0A       		.byte	.LVU844
 9622 2d86 28050000 		.4byte	.Ldebug_ranges0+0x528
 9623 2d8a 05       		.byte	0x5
 9624 2d8b 7801     		.2byte	0x178
 9625 2d8d 03       		.byte	0x3
 9626 2d8e 32       		.uleb128 0x32
 9627 2d8f E63F0000 		.4byte	0x3fe6
 9628 2d93 00000000 		.4byte	.LBI648
 9629 2d97 0C       		.byte	.LVU846
 9630 2d98 30050000 		.4byte	.Ldebug_ranges0+0x530
 9631 2d9c 06       		.byte	0x6
 9632 2d9d 7501     		.2byte	0x175
 9633 2d9f 03       		.byte	0x3
ARM GAS  /tmp/ccTxpxgR.s 			page 170


 9634 2da0 00       		.byte	0
 9635 2da1 00       		.byte	0
 9636 2da2 00       		.byte	0
 9637 2da3 2C       		.uleb128 0x2c
 9638 2da4 1A3F0000 		.4byte	0x3f1a
 9639 2da8 18000000 		.4byte	.LBI661
 9640 2dac 03       		.byte	.LVU854
 9641 2dad 48050000 		.4byte	.Ldebug_ranges0+0x548
 9642 2db1 01       		.byte	0x1
 9643 2db2 E002     		.2byte	0x2e0
 9644 2db4 0E       		.byte	0xe
 9645 2db5 2C       		.uleb128 0x2c
 9646 2db6 583F0000 		.4byte	0x3f58
 9647 2dba 18000000 		.4byte	.LBI662
 9648 2dbe 05       		.byte	.LVU856
 9649 2dbf 50050000 		.4byte	.Ldebug_ranges0+0x550
 9650 2dc3 02       		.byte	0x2
 9651 2dc4 6A02     		.2byte	0x26a
 9652 2dc6 0A       		.byte	0xa
 9653 2dc7 39       		.uleb128 0x39
 9654 2dc8 B83F0000 		.4byte	0x3fb8
 9655 2dcc 18000000 		.4byte	.LBI663
 9656 2dd0 07       		.byte	.LVU858
 9657 2dd1 58050000 		.4byte	.Ldebug_ranges0+0x558
 9658 2dd5 08       		.byte	0x8
 9659 2dd6 E9       		.byte	0xe9
 9660 2dd7 0A       		.byte	0xa
 9661 2dd8 3D       		.uleb128 0x3d
 9662 2dd9 C53F0000 		.4byte	0x3fc5
 9663 2ddd 18000000 		.4byte	.LBI664
 9664 2de1 09       		.byte	.LVU860
 9665 2de2 18000000 		.4byte	.LBB664
 9666 2de6 06000000 		.4byte	.LBE664-.LBB664
 9667 2dea 09       		.byte	0x9
 9668 2deb 6B       		.byte	0x6b
 9669 2dec 0A       		.byte	0xa
 9670 2ded 00       		.byte	0
 9671 2dee 00       		.byte	0
 9672 2def 00       		.byte	0
 9673 2df0 00       		.byte	0
 9674 2df1 0B       		.uleb128 0xb
 9675 2df2 84010000 		.4byte	0x184
 9676 2df6 012E0000 		.4byte	0x2e01
 9677 2dfa 0C       		.uleb128 0xc
 9678 2dfb 3D000000 		.4byte	0x3d
 9679 2dff 0F       		.byte	0xf
 9680 2e00 00       		.byte	0
 9681 2e01 10       		.uleb128 0x10
 9682 2e02 F12D0000 		.4byte	0x2df1
 9683 2e06 34       		.uleb128 0x34
 9684 2e07 78100000 		.4byte	.LASF530
 9685 2e0b 01       		.byte	0x1
 9686 2e0c A402     		.2byte	0x2a4
 9687 2e0e 07       		.byte	0x7
 9688 2e0f F9090000 		.4byte	0x9f9
 9689 2e13 00000000 		.4byte	.LFB169
 9690 2e17 62000000 		.4byte	.LFE169-.LFB169
ARM GAS  /tmp/ccTxpxgR.s 			page 171


 9691 2e1b 01       		.uleb128 0x1
 9692 2e1c 9C       		.byte	0x9c
 9693 2e1d C92F0000 		.4byte	0x2fc9
 9694 2e21 29       		.uleb128 0x29
 9695 2e22 49100000 		.4byte	.LASF524
 9696 2e26 01       		.byte	0x1
 9697 2e27 A402     		.2byte	0x2a4
 9698 2e29 2D       		.byte	0x2d
 9699 2e2a 192A0000 		.4byte	0x2a19
 9700 2e2e 6B030000 		.4byte	.LLST68
 9701 2e32 61030000 		.4byte	.LVUS68
 9702 2e36 36       		.uleb128 0x36
 9703 2e37 6200     		.ascii	"b\000"
 9704 2e39 01       		.byte	0x1
 9705 2e3a A402     		.2byte	0x2a4
 9706 2e3c 3B       		.byte	0x3b
 9707 2e3d 72090000 		.4byte	0x972
 9708 2e41 B5030000 		.4byte	.LLST69
 9709 2e45 AD030000 		.4byte	.LVUS69
 9710 2e49 29       		.uleb128 0x29
 9711 2e4a 8A0D0000 		.4byte	.LASF527
 9712 2e4e 01       		.byte	0x1
 9713 2e4f A502     		.2byte	0x2a5
 9714 2e51 1F       		.byte	0x1f
 9715 2e52 290A0000 		.4byte	0xa29
 9716 2e56 F7030000 		.4byte	.LLST70
 9717 2e5a EF030000 		.4byte	.LVUS70
 9718 2e5e 37       		.uleb128 0x37
 9719 2e5f 6D736700 		.ascii	"msg\000"
 9720 2e63 01       		.byte	0x1
 9721 2e64 A602     		.2byte	0x2a6
 9722 2e66 09       		.byte	0x9
 9723 2e67 F9090000 		.4byte	0x9f9
 9724 2e6b 33040000 		.4byte	.LLST71
 9725 2e6f 31040000 		.4byte	.LVUS71
 9726 2e73 31       		.uleb128 0x31
 9727 2e74 323F0000 		.4byte	0x3f32
 9728 2e78 00000000 		.4byte	.LBI601
 9729 2e7c 03       		.byte	.LVU743
 9730 2e7d 88040000 		.4byte	.Ldebug_ranges0+0x488
 9731 2e81 01       		.byte	0x1
 9732 2e82 A802     		.2byte	0x2a8
 9733 2e84 03       		.byte	0x3
 9734 2e85 C22E0000 		.4byte	0x2ec2
 9735 2e89 2C       		.uleb128 0x2c
 9736 2e8a 923F0000 		.4byte	0x3f92
 9737 2e8e 00000000 		.4byte	.LBI602
 9738 2e92 05       		.byte	.LVU745
 9739 2e93 90040000 		.4byte	.Ldebug_ranges0+0x490
 9740 2e97 02       		.byte	0x2
 9741 2e98 ED01     		.2byte	0x1ed
 9742 2e9a 03       		.byte	0x3
 9743 2e9b 2C       		.uleb128 0x2c
 9744 2e9c DC3F0000 		.4byte	0x3fdc
 9745 2ea0 00000000 		.4byte	.LBI603
 9746 2ea4 07       		.byte	.LVU747
 9747 2ea5 98040000 		.4byte	.Ldebug_ranges0+0x498
ARM GAS  /tmp/ccTxpxgR.s 			page 172


 9748 2ea9 05       		.byte	0x5
 9749 2eaa 7801     		.2byte	0x178
 9750 2eac 03       		.byte	0x3
 9751 2ead 32       		.uleb128 0x32
 9752 2eae E63F0000 		.4byte	0x3fe6
 9753 2eb2 00000000 		.4byte	.LBI604
 9754 2eb6 09       		.byte	.LVU749
 9755 2eb7 A0040000 		.4byte	.Ldebug_ranges0+0x4a0
 9756 2ebb 06       		.byte	0x6
 9757 2ebc 7501     		.2byte	0x175
 9758 2ebe 03       		.byte	0x3
 9759 2ebf 00       		.byte	0
 9760 2ec0 00       		.byte	0
 9761 2ec1 00       		.byte	0
 9762 2ec2 31       		.uleb128 0x31
 9763 2ec3 C92F0000 		.4byte	0x2fc9
 9764 2ec7 1C000000 		.4byte	.LBI617
 9765 2ecb 01       		.byte	.LVU768
 9766 2ecc B8040000 		.4byte	.Ldebug_ranges0+0x4b8
 9767 2ed0 01       		.byte	0x1
 9768 2ed1 BA02     		.2byte	0x2ba
 9769 2ed3 05       		.byte	0x5
 9770 2ed4 052F0000 		.4byte	0x2f05
 9771 2ed8 2D       		.uleb128 0x2d
 9772 2ed9 E42F0000 		.4byte	0x2fe4
 9773 2edd 4C040000 		.4byte	.LLST72
 9774 2ee1 46040000 		.4byte	.LVUS72
 9775 2ee5 2D       		.uleb128 0x2d
 9776 2ee6 D72F0000 		.4byte	0x2fd7
 9777 2eea 7D040000 		.4byte	.LLST73
 9778 2eee 7B040000 		.4byte	.LVUS73
 9779 2ef2 2E       		.uleb128 0x2e
 9780 2ef3 B8040000 		.4byte	.Ldebug_ranges0+0x4b8
 9781 2ef7 2F       		.uleb128 0x2f
 9782 2ef8 4A000000 		.4byte	.LVL107
 9783 2efc 30       		.uleb128 0x30
 9784 2efd 01       		.uleb128 0x1
 9785 2efe 50       		.byte	0x50
 9786 2eff 02       		.uleb128 0x2
 9787 2f00 74       		.byte	0x74
 9788 2f01 00       		.sleb128 0
 9789 2f02 00       		.byte	0
 9790 2f03 00       		.byte	0
 9791 2f04 00       		.byte	0
 9792 2f05 31       		.uleb128 0x31
 9793 2f06 283F0000 		.4byte	0x3f28
 9794 2f0a 4A000000 		.4byte	.LBI623
 9795 2f0e 02       		.byte	.LVU798
 9796 2f0f D8040000 		.4byte	.Ldebug_ranges0+0x4d8
 9797 2f13 01       		.byte	0x1
 9798 2f14 BD02     		.2byte	0x2bd
 9799 2f16 03       		.byte	0x3
 9800 2f17 5E2F0000 		.4byte	0x2f5e
 9801 2f1b 2C       		.uleb128 0x2c
 9802 2f1c 653F0000 		.4byte	0x3f65
 9803 2f20 4A000000 		.4byte	.LBI624
 9804 2f24 04       		.byte	.LVU800
ARM GAS  /tmp/ccTxpxgR.s 			page 173


 9805 2f25 E0040000 		.4byte	.Ldebug_ranges0+0x4e0
 9806 2f29 02       		.byte	0x2
 9807 2f2a F801     		.2byte	0x1f8
 9808 2f2c 03       		.byte	0x3
 9809 2f2d 2E       		.uleb128 0x2e
 9810 2f2e E0040000 		.4byte	.Ldebug_ranges0+0x4e0
 9811 2f32 2C       		.uleb128 0x2c
 9812 2f33 D23F0000 		.4byte	0x3fd2
 9813 2f37 4A000000 		.4byte	.LBI626
 9814 2f3b 0A       		.byte	.LVU806
 9815 2f3c E0040000 		.4byte	.Ldebug_ranges0+0x4e0
 9816 2f40 05       		.byte	0x5
 9817 2f41 8F01     		.2byte	0x18f
 9818 2f43 03       		.byte	0x3
 9819 2f44 33       		.uleb128 0x33
 9820 2f45 F03F0000 		.4byte	0x3ff0
 9821 2f49 4A000000 		.4byte	.LBI627
 9822 2f4d 0C       		.byte	.LVU808
 9823 2f4e 4A000000 		.4byte	.LBB627
 9824 2f52 02000000 		.4byte	.LBE627-.LBB627
 9825 2f56 06       		.byte	0x6
 9826 2f57 7E01     		.2byte	0x17e
 9827 2f59 03       		.byte	0x3
 9828 2f5a 00       		.byte	0
 9829 2f5b 00       		.byte	0
 9830 2f5c 00       		.byte	0
 9831 2f5d 00       		.byte	0
 9832 2f5e 31       		.uleb128 0x31
 9833 2f5f 283F0000 		.4byte	0x3f28
 9834 2f63 5E000000 		.4byte	.LBI634
 9835 2f67 01       		.byte	.LVU820
 9836 2f68 F8040000 		.4byte	.Ldebug_ranges0+0x4f8
 9837 2f6c 01       		.byte	0x1
 9838 2f6d AE02     		.2byte	0x2ae
 9839 2f6f 07       		.byte	0x7
 9840 2f70 B72F0000 		.4byte	0x2fb7
 9841 2f74 2C       		.uleb128 0x2c
 9842 2f75 653F0000 		.4byte	0x3f65
 9843 2f79 5E000000 		.4byte	.LBI635
 9844 2f7d 03       		.byte	.LVU822
 9845 2f7e 00050000 		.4byte	.Ldebug_ranges0+0x500
 9846 2f82 02       		.byte	0x2
 9847 2f83 F801     		.2byte	0x1f8
 9848 2f85 03       		.byte	0x3
 9849 2f86 2E       		.uleb128 0x2e
 9850 2f87 00050000 		.4byte	.Ldebug_ranges0+0x500
 9851 2f8b 2C       		.uleb128 0x2c
 9852 2f8c D23F0000 		.4byte	0x3fd2
 9853 2f90 5E000000 		.4byte	.LBI637
 9854 2f94 09       		.byte	.LVU828
 9855 2f95 00050000 		.4byte	.Ldebug_ranges0+0x500
 9856 2f99 05       		.byte	0x5
 9857 2f9a 8F01     		.2byte	0x18f
 9858 2f9c 03       		.byte	0x3
 9859 2f9d 33       		.uleb128 0x33
 9860 2f9e F03F0000 		.4byte	0x3ff0
 9861 2fa2 5E000000 		.4byte	.LBI638
ARM GAS  /tmp/ccTxpxgR.s 			page 174


 9862 2fa6 0B       		.byte	.LVU830
 9863 2fa7 5E000000 		.4byte	.LBB638
 9864 2fab 02000000 		.4byte	.LBE638-.LBB638
 9865 2faf 06       		.byte	0x6
 9866 2fb0 7E01     		.2byte	0x17e
 9867 2fb2 03       		.byte	0x3
 9868 2fb3 00       		.byte	0
 9869 2fb4 00       		.byte	0
 9870 2fb5 00       		.byte	0
 9871 2fb6 00       		.byte	0
 9872 2fb7 3B       		.uleb128 0x3b
 9873 2fb8 56000000 		.4byte	.LVL111
 9874 2fbc 42310000 		.4byte	0x3142
 9875 2fc0 30       		.uleb128 0x30
 9876 2fc1 01       		.uleb128 0x1
 9877 2fc2 51       		.byte	0x51
 9878 2fc3 03       		.uleb128 0x3
 9879 2fc4 F3       		.byte	0xf3
 9880 2fc5 01       		.uleb128 0x1
 9881 2fc6 52       		.byte	0x52
 9882 2fc7 00       		.byte	0
 9883 2fc8 00       		.byte	0
 9884 2fc9 3E       		.uleb128 0x3e
 9885 2fca D60C0000 		.4byte	.LASF544
 9886 2fce 01       		.byte	0x1
 9887 2fcf 7802     		.2byte	0x278
 9888 2fd1 06       		.byte	0x6
 9889 2fd2 01       		.byte	0x1
 9890 2fd3 FB2F0000 		.4byte	0x2ffb
 9891 2fd7 3F       		.uleb128 0x3f
 9892 2fd8 49100000 		.4byte	.LASF524
 9893 2fdc 01       		.byte	0x1
 9894 2fdd 7802     		.2byte	0x278
 9895 2fdf 31       		.byte	0x31
 9896 2fe0 192A0000 		.4byte	0x2a19
 9897 2fe4 3F       		.uleb128 0x3f
 9898 2fe5 3E110000 		.4byte	.LASF255
 9899 2fe9 01       		.byte	0x1
 9900 2fea 7802     		.2byte	0x278
 9901 2fec 3E       		.byte	0x3e
 9902 2fed 2C000000 		.4byte	0x2c
 9903 2ff1 38       		.uleb128 0x38
 9904 2ff2 32010000 		.4byte	.LASF531
 9905 2ff6 0B300000 		.4byte	0x300b
 9906 2ffa 00       		.byte	0
 9907 2ffb 0B       		.uleb128 0xb
 9908 2ffc 84010000 		.4byte	0x184
 9909 3000 0B300000 		.4byte	0x300b
 9910 3004 0C       		.uleb128 0xc
 9911 3005 3D000000 		.4byte	0x3d
 9912 3009 12       		.byte	0x12
 9913 300a 00       		.byte	0
 9914 300b 10       		.uleb128 0x10
 9915 300c FB2F0000 		.4byte	0x2ffb
 9916 3010 28       		.uleb128 0x28
 9917 3011 FF030000 		.4byte	.LASF533
 9918 3015 01       		.byte	0x1
ARM GAS  /tmp/ccTxpxgR.s 			page 175


 9919 3016 6802     		.2byte	0x268
 9920 3018 06       		.byte	0x6
 9921 3019 00000000 		.4byte	.LFB167
 9922 301d 30000000 		.4byte	.LFE167-.LFB167
 9923 3021 01       		.uleb128 0x1
 9924 3022 9C       		.byte	0x9c
 9925 3023 42310000 		.4byte	0x3142
 9926 3027 29       		.uleb128 0x29
 9927 3028 49100000 		.4byte	.LASF524
 9928 302c 01       		.byte	0x1
 9929 302d 6802     		.2byte	0x268
 9930 302f 30       		.byte	0x30
 9931 3030 192A0000 		.4byte	0x2a19
 9932 3034 94040000 		.4byte	.LLST62
 9933 3038 90040000 		.4byte	.LVUS62
 9934 303c 29       		.uleb128 0x29
 9935 303d 3E110000 		.4byte	.LASF255
 9936 3041 01       		.byte	0x1
 9937 3042 6802     		.2byte	0x268
 9938 3044 3D       		.byte	0x3d
 9939 3045 2C000000 		.4byte	0x2c
 9940 3049 B9040000 		.4byte	.LLST63
 9941 304d B5040000 		.4byte	.LVUS63
 9942 3051 31       		.uleb128 0x31
 9943 3052 323F0000 		.4byte	0x3f32
 9944 3056 00000000 		.4byte	.LBI572
 9945 305a 02       		.byte	.LVU658
 9946 305b 38040000 		.4byte	.Ldebug_ranges0+0x438
 9947 305f 01       		.byte	0x1
 9948 3060 6A02     		.2byte	0x26a
 9949 3062 03       		.byte	0x3
 9950 3063 A0300000 		.4byte	0x30a0
 9951 3067 2C       		.uleb128 0x2c
 9952 3068 923F0000 		.4byte	0x3f92
 9953 306c 00000000 		.4byte	.LBI573
 9954 3070 04       		.byte	.LVU660
 9955 3071 40040000 		.4byte	.Ldebug_ranges0+0x440
 9956 3075 02       		.byte	0x2
 9957 3076 ED01     		.2byte	0x1ed
 9958 3078 03       		.byte	0x3
 9959 3079 2C       		.uleb128 0x2c
 9960 307a DC3F0000 		.4byte	0x3fdc
 9961 307e 00000000 		.4byte	.LBI574
 9962 3082 06       		.byte	.LVU662
 9963 3083 48040000 		.4byte	.Ldebug_ranges0+0x448
 9964 3087 05       		.byte	0x5
 9965 3088 7801     		.2byte	0x178
 9966 308a 03       		.byte	0x3
 9967 308b 32       		.uleb128 0x32
 9968 308c E63F0000 		.4byte	0x3fe6
 9969 3090 00000000 		.4byte	.LBI575
 9970 3094 08       		.byte	.LVU664
 9971 3095 50040000 		.4byte	.Ldebug_ranges0+0x450
 9972 3099 06       		.byte	0x6
 9973 309a 7501     		.2byte	0x175
 9974 309c 03       		.byte	0x3
 9975 309d 00       		.byte	0
ARM GAS  /tmp/ccTxpxgR.s 			page 176


 9976 309e 00       		.byte	0
 9977 309f 00       		.byte	0
 9978 30a0 40       		.uleb128 0x40
 9979 30a1 C92F0000 		.4byte	0x2fc9
 9980 30a5 04000000 		.4byte	.LBI588
 9981 30a9 03       		.byte	.LVU671
 9982 30aa 04000000 		.4byte	.LBB588
 9983 30ae 28000000 		.4byte	.LBE588-.LBB588
 9984 30b2 01       		.byte	0x1
 9985 30b3 6B02     		.2byte	0x26b
 9986 30b5 03       		.byte	0x3
 9987 30b6 EC300000 		.4byte	0x30ec
 9988 30ba 2D       		.uleb128 0x2d
 9989 30bb E42F0000 		.4byte	0x2fe4
 9990 30bf DE040000 		.4byte	.LLST64
 9991 30c3 DA040000 		.4byte	.LVUS64
 9992 30c7 2D       		.uleb128 0x2d
 9993 30c8 D72F0000 		.4byte	0x2fd7
 9994 30cc 03050000 		.4byte	.LLST65
 9995 30d0 FF040000 		.4byte	.LVUS65
 9996 30d4 35       		.uleb128 0x35
 9997 30d5 04000000 		.4byte	.LBB589
 9998 30d9 28000000 		.4byte	.LBE589-.LBB589
 9999 30dd 2F       		.uleb128 0x2f
 10000 30de 2C000000 		.4byte	.LVL98
 10001 30e2 30       		.uleb128 0x30
 10002 30e3 01       		.uleb128 0x1
 10003 30e4 50       		.byte	0x50
 10004 30e5 03       		.uleb128 0x3
 10005 30e6 F3       		.byte	0xf3
 10006 30e7 01       		.uleb128 0x1
 10007 30e8 50       		.byte	0x50
 10008 30e9 00       		.byte	0
 10009 30ea 00       		.byte	0
 10010 30eb 00       		.byte	0
 10011 30ec 2C       		.uleb128 0x2c
 10012 30ed 283F0000 		.4byte	0x3f28
 10013 30f1 2C000000 		.4byte	.LBI590
 10014 30f5 02       		.byte	.LVU699
 10015 30f6 68040000 		.4byte	.Ldebug_ranges0+0x468
 10016 30fa 01       		.byte	0x1
 10017 30fb 6C02     		.2byte	0x26c
 10018 30fd 03       		.byte	0x3
 10019 30fe 2C       		.uleb128 0x2c
 10020 30ff 653F0000 		.4byte	0x3f65
 10021 3103 2C000000 		.4byte	.LBI591
 10022 3107 04       		.byte	.LVU701
 10023 3108 70040000 		.4byte	.Ldebug_ranges0+0x470
 10024 310c 02       		.byte	0x2
 10025 310d F801     		.2byte	0x1f8
 10026 310f 03       		.byte	0x3
 10027 3110 2E       		.uleb128 0x2e
 10028 3111 70040000 		.4byte	.Ldebug_ranges0+0x470
 10029 3115 2C       		.uleb128 0x2c
 10030 3116 D23F0000 		.4byte	0x3fd2
 10031 311a 2C000000 		.4byte	.LBI593
 10032 311e 0A       		.byte	.LVU707
ARM GAS  /tmp/ccTxpxgR.s 			page 177


 10033 311f 70040000 		.4byte	.Ldebug_ranges0+0x470
 10034 3123 05       		.byte	0x5
 10035 3124 8F01     		.2byte	0x18f
 10036 3126 03       		.byte	0x3
 10037 3127 33       		.uleb128 0x33
 10038 3128 F03F0000 		.4byte	0x3ff0
 10039 312c 2C000000 		.4byte	.LBI594
 10040 3130 0C       		.byte	.LVU709
 10041 3131 2C000000 		.4byte	.LBB594
 10042 3135 02000000 		.4byte	.LBE594-.LBB594
 10043 3139 06       		.byte	0x6
 10044 313a 7E01     		.2byte	0x17e
 10045 313c 03       		.byte	0x3
 10046 313d 00       		.byte	0
 10047 313e 00       		.byte	0
 10048 313f 00       		.byte	0
 10049 3140 00       		.byte	0
 10050 3141 00       		.byte	0
 10051 3142 41       		.uleb128 0x41
 10052 3143 E9090000 		.4byte	.LASF547
 10053 3147 01       		.byte	0x1
 10054 3148 4A02     		.2byte	0x24a
 10055 314a 09       		.byte	0x9
 10056 314b F9090000 		.4byte	0x9f9
 10057 314f 01       		.byte	0x1
 10058 3150 87310000 		.4byte	0x3187
 10059 3154 3F       		.uleb128 0x3f
 10060 3155 49100000 		.4byte	.LASF524
 10061 3159 01       		.byte	0x1
 10062 315a 4A02     		.2byte	0x24a
 10063 315c 3B       		.byte	0x3b
 10064 315d 192A0000 		.4byte	0x2a19
 10065 3161 3F       		.uleb128 0x3f
 10066 3162 8A0D0000 		.4byte	.LASF527
 10067 3166 01       		.byte	0x1
 10068 3167 4B02     		.2byte	0x24b
 10069 3169 2D       		.byte	0x2d
 10070 316a 290A0000 		.4byte	0xa29
 10071 316e 38       		.uleb128 0x38
 10072 316f 32010000 		.4byte	.LASF531
 10073 3173 97310000 		.4byte	0x3197
 10074 3177 42       		.uleb128 0x42
 10075 3178 43       		.uleb128 0x43
 10076 3179 6D736700 		.ascii	"msg\000"
 10077 317d 01       		.byte	0x1
 10078 317e 5002     		.2byte	0x250
 10079 3180 0B       		.byte	0xb
 10080 3181 F9090000 		.4byte	0x9f9
 10081 3185 00       		.byte	0
 10082 3186 00       		.byte	0
 10083 3187 0B       		.uleb128 0xb
 10084 3188 84010000 		.4byte	0x184
 10085 318c 97310000 		.4byte	0x3197
 10086 3190 0C       		.uleb128 0xc
 10087 3191 3D000000 		.4byte	0x3d
 10088 3195 19       		.byte	0x19
 10089 3196 00       		.byte	0
ARM GAS  /tmp/ccTxpxgR.s 			page 178


 10090 3197 10       		.uleb128 0x10
 10091 3198 87310000 		.4byte	0x3187
 10092 319c 34       		.uleb128 0x34
 10093 319d EB0E0000 		.4byte	.LASF534
 10094 31a1 01       		.byte	0x1
 10095 31a2 2B02     		.2byte	0x22b
 10096 31a4 07       		.byte	0x7
 10097 31a5 F9090000 		.4byte	0x9f9
 10098 31a9 00000000 		.4byte	.LFB165
 10099 31ad 0C000000 		.4byte	.LFE165-.LFB165
 10100 31b1 01       		.uleb128 0x1
 10101 31b2 9C       		.byte	0x9c
 10102 31b3 B7320000 		.4byte	0x32b7
 10103 31b7 29       		.uleb128 0x29
 10104 31b8 49100000 		.4byte	.LASF524
 10105 31bc 01       		.byte	0x1
 10106 31bd 2B02     		.2byte	0x22b
 10107 31bf 38       		.byte	0x38
 10108 31c0 192A0000 		.4byte	0x2a19
 10109 31c4 28050000 		.4byte	.LLST59
 10110 31c8 24050000 		.4byte	.LVUS59
 10111 31cc 29       		.uleb128 0x29
 10112 31cd 8A0D0000 		.4byte	.LASF527
 10113 31d1 01       		.byte	0x1
 10114 31d2 2C02     		.2byte	0x22c
 10115 31d4 2B       		.byte	0x2b
 10116 31d5 290A0000 		.4byte	0xa29
 10117 31d9 4D050000 		.4byte	.LLST60
 10118 31dd 49050000 		.4byte	.LVUS60
 10119 31e1 37       		.uleb128 0x37
 10120 31e2 6D736700 		.ascii	"msg\000"
 10121 31e6 01       		.byte	0x1
 10122 31e7 2D02     		.2byte	0x22d
 10123 31e9 09       		.byte	0x9
 10124 31ea F9090000 		.4byte	0x9f9
 10125 31ee 70050000 		.4byte	.LLST61
 10126 31f2 6E050000 		.4byte	.LVUS61
 10127 31f6 31       		.uleb128 0x31
 10128 31f7 323F0000 		.4byte	0x3f32
 10129 31fb 00000000 		.4byte	.LBI545
 10130 31ff 03       		.byte	.LVU627
 10131 3200 E8030000 		.4byte	.Ldebug_ranges0+0x3e8
 10132 3204 01       		.byte	0x1
 10133 3205 2F02     		.2byte	0x22f
 10134 3207 03       		.byte	0x3
 10135 3208 45320000 		.4byte	0x3245
 10136 320c 2C       		.uleb128 0x2c
 10137 320d 923F0000 		.4byte	0x3f92
 10138 3211 00000000 		.4byte	.LBI546
 10139 3215 05       		.byte	.LVU629
 10140 3216 F0030000 		.4byte	.Ldebug_ranges0+0x3f0
 10141 321a 02       		.byte	0x2
 10142 321b ED01     		.2byte	0x1ed
 10143 321d 03       		.byte	0x3
 10144 321e 2C       		.uleb128 0x2c
 10145 321f DC3F0000 		.4byte	0x3fdc
 10146 3223 00000000 		.4byte	.LBI547
ARM GAS  /tmp/ccTxpxgR.s 			page 179


 10147 3227 07       		.byte	.LVU631
 10148 3228 F8030000 		.4byte	.Ldebug_ranges0+0x3f8
 10149 322c 05       		.byte	0x5
 10150 322d 7801     		.2byte	0x178
 10151 322f 03       		.byte	0x3
 10152 3230 32       		.uleb128 0x32
 10153 3231 E63F0000 		.4byte	0x3fe6
 10154 3235 00000000 		.4byte	.LBI548
 10155 3239 09       		.byte	.LVU633
 10156 323a 00040000 		.4byte	.Ldebug_ranges0+0x400
 10157 323e 06       		.byte	0x6
 10158 323f 7501     		.2byte	0x175
 10159 3241 03       		.byte	0x3
 10160 3242 00       		.byte	0
 10161 3243 00       		.byte	0
 10162 3244 00       		.byte	0
 10163 3245 31       		.uleb128 0x31
 10164 3246 283F0000 		.4byte	0x3f28
 10165 324a 08000000 		.4byte	.LBI561
 10166 324e 01       		.byte	.LVU642
 10167 324f 18040000 		.4byte	.Ldebug_ranges0+0x418
 10168 3253 01       		.byte	0x1
 10169 3254 3102     		.2byte	0x231
 10170 3256 03       		.byte	0x3
 10171 3257 9E320000 		.4byte	0x329e
 10172 325b 2C       		.uleb128 0x2c
 10173 325c 653F0000 		.4byte	0x3f65
 10174 3260 08000000 		.4byte	.LBI562
 10175 3264 03       		.byte	.LVU644
 10176 3265 20040000 		.4byte	.Ldebug_ranges0+0x420
 10177 3269 02       		.byte	0x2
 10178 326a F801     		.2byte	0x1f8
 10179 326c 03       		.byte	0x3
 10180 326d 2E       		.uleb128 0x2e
 10181 326e 20040000 		.4byte	.Ldebug_ranges0+0x420
 10182 3272 2C       		.uleb128 0x2c
 10183 3273 D23F0000 		.4byte	0x3fd2
 10184 3277 08000000 		.4byte	.LBI564
 10185 327b 09       		.byte	.LVU650
 10186 327c 20040000 		.4byte	.Ldebug_ranges0+0x420
 10187 3280 05       		.byte	0x5
 10188 3281 8F01     		.2byte	0x18f
 10189 3283 03       		.byte	0x3
 10190 3284 33       		.uleb128 0x33
 10191 3285 F03F0000 		.4byte	0x3ff0
 10192 3289 08000000 		.4byte	.LBI565
 10193 328d 0B       		.byte	.LVU652
 10194 328e 08000000 		.4byte	.LBB565
 10195 3292 02000000 		.4byte	.LBE565-.LBB565
 10196 3296 06       		.byte	0x6
 10197 3297 7E01     		.2byte	0x17e
 10198 3299 03       		.byte	0x3
 10199 329a 00       		.byte	0
 10200 329b 00       		.byte	0
 10201 329c 00       		.byte	0
 10202 329d 00       		.byte	0
 10203 329e 3B       		.uleb128 0x3b
ARM GAS  /tmp/ccTxpxgR.s 			page 180


 10204 329f 08000000 		.4byte	.LVL95
 10205 32a3 42310000 		.4byte	0x3142
 10206 32a7 30       		.uleb128 0x30
 10207 32a8 01       		.uleb128 0x1
 10208 32a9 50       		.byte	0x50
 10209 32aa 03       		.uleb128 0x3
 10210 32ab F3       		.byte	0xf3
 10211 32ac 01       		.uleb128 0x1
 10212 32ad 50       		.byte	0x50
 10213 32ae 30       		.uleb128 0x30
 10214 32af 01       		.uleb128 0x1
 10215 32b0 51       		.byte	0x51
 10216 32b1 03       		.uleb128 0x3
 10217 32b2 F3       		.byte	0xf3
 10218 32b3 01       		.uleb128 0x1
 10219 32b4 51       		.byte	0x51
 10220 32b5 00       		.byte	0
 10221 32b6 00       		.byte	0
 10222 32b7 28       		.uleb128 0x28
 10223 32b8 69120000 		.4byte	.LASF535
 10224 32bc 01       		.byte	0x1
 10225 32bd 0702     		.2byte	0x207
 10226 32bf 06       		.byte	0x6
 10227 32c0 00000000 		.4byte	.LFB164
 10228 32c4 24000000 		.4byte	.LFE164-.LFB164
 10229 32c8 01       		.uleb128 0x1
 10230 32c9 9C       		.byte	0x9c
 10231 32ca 34330000 		.4byte	0x3334
 10232 32ce 29       		.uleb128 0x29
 10233 32cf 49100000 		.4byte	.LASF524
 10234 32d3 01       		.byte	0x1
 10235 32d4 0702     		.2byte	0x207
 10236 32d6 35       		.byte	0x35
 10237 32d7 192A0000 		.4byte	0x2a19
 10238 32db 87050000 		.4byte	.LLST49
 10239 32df 83050000 		.4byte	.LVUS49
 10240 32e3 38       		.uleb128 0x38
 10241 32e4 32010000 		.4byte	.LASF531
 10242 32e8 44330000 		.4byte	0x3344
 10243 32ec 44       		.uleb128 0x44
 10244 32ed A83E0000 		.4byte	0x3ea8
 10245 32f1 1C000000 		.4byte	.LBI530
 10246 32f5 01       		.byte	.LVU588
 10247 32f6 1C000000 		.4byte	.LBB530
 10248 32fa 06000000 		.4byte	.LBE530-.LBB530
 10249 32fe 01       		.byte	0x1
 10250 32ff 1402     		.2byte	0x214
 10251 3301 03       		.byte	0x3
 10252 3302 2D       		.uleb128 0x2d
 10253 3303 C33E0000 		.4byte	0x3ec3
 10254 3307 AA050000 		.4byte	.LLST50
 10255 330b A8050000 		.4byte	.LVUS50
 10256 330f 2D       		.uleb128 0x2d
 10257 3310 B63E0000 		.4byte	0x3eb6
 10258 3314 C2050000 		.4byte	.LLST51
 10259 3318 BE050000 		.4byte	.LVUS51
 10260 331c 3B       		.uleb128 0x3b
ARM GAS  /tmp/ccTxpxgR.s 			page 181


 10261 331d 22000000 		.4byte	.LVL85
 10262 3321 00420000 		.4byte	0x4200
 10263 3325 30       		.uleb128 0x30
 10264 3326 01       		.uleb128 0x1
 10265 3327 50       		.byte	0x50
 10266 3328 03       		.uleb128 0x3
 10267 3329 F3       		.byte	0xf3
 10268 332a 01       		.uleb128 0x1
 10269 332b 50       		.byte	0x50
 10270 332c 30       		.uleb128 0x30
 10271 332d 01       		.uleb128 0x1
 10272 332e 51       		.byte	0x51
 10273 332f 01       		.uleb128 0x1
 10274 3330 30       		.byte	0x30
 10275 3331 00       		.byte	0
 10276 3332 00       		.byte	0
 10277 3333 00       		.byte	0
 10278 3334 0B       		.uleb128 0xb
 10279 3335 84010000 		.4byte	0x184
 10280 3339 44330000 		.4byte	0x3344
 10281 333d 0C       		.uleb128 0xc
 10282 333e 3D000000 		.4byte	0x3d
 10283 3342 16       		.byte	0x16
 10284 3343 00       		.byte	0
 10285 3344 10       		.uleb128 0x10
 10286 3345 34330000 		.4byte	0x3334
 10287 3349 34       		.uleb128 0x34
 10288 334a C00D0000 		.4byte	.LASF536
 10289 334e 01       		.byte	0x1
 10290 334f F101     		.2byte	0x1f1
 10291 3351 0A       		.byte	0xa
 10292 3352 45170000 		.4byte	0x1745
 10293 3356 00000000 		.4byte	.LFB163
 10294 335a 1A000000 		.4byte	.LFE163-.LFB163
 10295 335e 01       		.uleb128 0x1
 10296 335f 9C       		.byte	0x9c
 10297 3360 89330000 		.4byte	0x3389
 10298 3364 29       		.uleb128 0x29
 10299 3365 49100000 		.4byte	.LASF524
 10300 3369 01       		.byte	0x1
 10301 336a F101     		.2byte	0x1f1
 10302 336c 34       		.byte	0x34
 10303 336d 192A0000 		.4byte	0x2a19
 10304 3371 EB050000 		.4byte	.LLST48
 10305 3375 E3050000 		.4byte	.LVUS48
 10306 3379 45       		.uleb128 0x45
 10307 337a 90010000 		.4byte	.LASF539
 10308 337e 01       		.byte	0x1
 10309 337f F201     		.2byte	0x1f2
 10310 3381 24       		.byte	0x24
 10311 3382 89330000 		.4byte	0x3389
 10312 3386 01       		.uleb128 0x1
 10313 3387 51       		.byte	0x51
 10314 3388 00       		.byte	0
 10315 3389 06       		.uleb128 0x6
 10316 338a 04       		.byte	0x4
 10317 338b 2C000000 		.4byte	0x2c
ARM GAS  /tmp/ccTxpxgR.s 			page 182


 10318 338f 28       		.uleb128 0x28
 10319 3390 800E0000 		.4byte	.LASF537
 10320 3394 01       		.byte	0x1
 10321 3395 DA01     		.2byte	0x1da
 10322 3397 06       		.byte	0x6
 10323 3398 00000000 		.4byte	.LFB162
 10324 339c 1C000000 		.4byte	.LFE162-.LFB162
 10325 33a0 01       		.uleb128 0x1
 10326 33a1 9C       		.byte	0x9c
 10327 33a2 00340000 		.4byte	0x3400
 10328 33a6 29       		.uleb128 0x29
 10329 33a7 49100000 		.4byte	.LASF524
 10330 33ab 01       		.byte	0x1
 10331 33ac DA01     		.2byte	0x1da
 10332 33ae 28       		.byte	0x28
 10333 33af 192A0000 		.4byte	0x2a19
 10334 33b3 29060000 		.4byte	.LLST45
 10335 33b7 25060000 		.4byte	.LVUS45
 10336 33bb 2C       		.uleb128 0x2c
 10337 33bc 793E0000 		.4byte	0x3e79
 10338 33c0 16000000 		.4byte	.LBI524
 10339 33c4 01       		.byte	.LVU552
 10340 33c5 C8030000 		.4byte	.Ldebug_ranges0+0x3c8
 10341 33c9 01       		.byte	0x1
 10342 33ca E301     		.2byte	0x1e3
 10343 33cc 03       		.byte	0x3
 10344 33cd 2D       		.uleb128 0x2d
 10345 33ce 943E0000 		.4byte	0x3e94
 10346 33d2 4C060000 		.4byte	.LLST46
 10347 33d6 4A060000 		.4byte	.LVUS46
 10348 33da 2D       		.uleb128 0x2d
 10349 33db 873E0000 		.4byte	0x3e87
 10350 33df 65060000 		.4byte	.LLST47
 10351 33e3 61060000 		.4byte	.LVUS47
 10352 33e7 3B       		.uleb128 0x3b
 10353 33e8 1A000000 		.4byte	.LVL78
 10354 33ec 0C420000 		.4byte	0x420c
 10355 33f0 30       		.uleb128 0x30
 10356 33f1 01       		.uleb128 0x1
 10357 33f2 50       		.byte	0x50
 10358 33f3 03       		.uleb128 0x3
 10359 33f4 F3       		.byte	0xf3
 10360 33f5 01       		.uleb128 0x1
 10361 33f6 50       		.byte	0x50
 10362 33f7 30       		.uleb128 0x30
 10363 33f8 01       		.uleb128 0x1
 10364 33f9 51       		.byte	0x51
 10365 33fa 02       		.uleb128 0x2
 10366 33fb 09       		.byte	0x9
 10367 33fc FE       		.byte	0xfe
 10368 33fd 00       		.byte	0
 10369 33fe 00       		.byte	0
 10370 33ff 00       		.byte	0
 10371 3400 28       		.uleb128 0x28
 10372 3401 74170000 		.4byte	.LASF538
 10373 3405 01       		.byte	0x1
 10374 3406 BB01     		.2byte	0x1bb
ARM GAS  /tmp/ccTxpxgR.s 			page 183


 10375 3408 06       		.byte	0x6
 10376 3409 00000000 		.4byte	.LFB161
 10377 340d 2C000000 		.4byte	.LFE161-.LFB161
 10378 3411 01       		.uleb128 0x1
 10379 3412 9C       		.byte	0x9c
 10380 3413 E6340000 		.4byte	0x34e6
 10381 3417 45       		.uleb128 0x45
 10382 3418 49100000 		.4byte	.LASF524
 10383 341c 01       		.byte	0x1
 10384 341d BB01     		.2byte	0x1bb
 10385 341f 2C       		.byte	0x2c
 10386 3420 192A0000 		.4byte	0x2a19
 10387 3424 01       		.uleb128 0x1
 10388 3425 50       		.byte	0x50
 10389 3426 46       		.uleb128 0x46
 10390 3427 627000   		.ascii	"bp\000"
 10391 342a 01       		.byte	0x1
 10392 342b BB01     		.2byte	0x1bb
 10393 342d 3B       		.byte	0x3b
 10394 342e 45170000 		.4byte	0x1745
 10395 3432 01       		.uleb128 0x1
 10396 3433 51       		.byte	0x51
 10397 3434 29       		.uleb128 0x29
 10398 3435 3E110000 		.4byte	.LASF255
 10399 3439 01       		.byte	0x1
 10400 343a BC01     		.2byte	0x1bc
 10401 343c 1B       		.byte	0x1b
 10402 343d 2C000000 		.4byte	0x2c
 10403 3441 8A060000 		.4byte	.LLST40
 10404 3445 86060000 		.4byte	.LVUS40
 10405 3449 36       		.uleb128 0x36
 10406 344a 6E00     		.ascii	"n\000"
 10407 344c 01       		.byte	0x1
 10408 344d BC01     		.2byte	0x1bc
 10409 344f 28       		.byte	0x28
 10410 3450 2C000000 		.4byte	0x2c
 10411 3454 B0060000 		.4byte	.LLST41
 10412 3458 AA060000 		.4byte	.LVUS41
 10413 345c 45       		.uleb128 0x45
 10414 345d B8050000 		.4byte	.LASF540
 10415 3461 01       		.byte	0x1
 10416 3462 BD01     		.2byte	0x1bd
 10417 3464 1F       		.byte	0x1f
 10418 3465 BD180000 		.4byte	0x18bd
 10419 3469 02       		.uleb128 0x2
 10420 346a 91       		.byte	0x91
 10421 346b 00       		.sleb128 0
 10422 346c 45       		.uleb128 0x45
 10423 346d 07060000 		.4byte	.LASF304
 10424 3471 01       		.byte	0x1
 10425 3472 BD01     		.2byte	0x1bd
 10426 3474 2B       		.byte	0x2b
 10427 3475 75010000 		.4byte	0x175
 10428 3479 02       		.uleb128 0x2
 10429 347a 91       		.byte	0x91
 10430 347b 04       		.sleb128 4
 10431 347c 38       		.uleb128 0x38
ARM GAS  /tmp/ccTxpxgR.s 			page 184


 10432 347d 32010000 		.4byte	.LASF531
 10433 3481 F6340000 		.4byte	0x34f6
 10434 3485 2C       		.uleb128 0x2c
 10435 3486 FE3E0000 		.4byte	0x3efe
 10436 348a 00000000 		.4byte	.LBI513
 10437 348e 04       		.byte	.LVU492
 10438 348f A0030000 		.4byte	.Ldebug_ranges0+0x3a0
 10439 3493 01       		.byte	0x1
 10440 3494 C101     		.2byte	0x1c1
 10441 3496 03       		.byte	0x3
 10442 3497 2D       		.uleb128 0x2d
 10443 3498 0C3F0000 		.4byte	0x3f0c
 10444 349c DC060000 		.4byte	.LLST42
 10445 34a0 DA060000 		.4byte	.LVUS42
 10446 34a4 2C       		.uleb128 0x2c
 10447 34a5 3C3F0000 		.4byte	0x3f3c
 10448 34a9 00000000 		.4byte	.LBI514
 10449 34ad 06       		.byte	.LVU494
 10450 34ae A8030000 		.4byte	.Ldebug_ranges0+0x3a8
 10451 34b2 02       		.byte	0x2
 10452 34b3 F302     		.2byte	0x2f3
 10453 34b5 03       		.byte	0x3
 10454 34b6 2D       		.uleb128 0x2d
 10455 34b7 4A3F0000 		.4byte	0x3f4a
 10456 34bb F1060000 		.4byte	.LLST43
 10457 34bf EF060000 		.4byte	.LVUS43
 10458 34c3 2C       		.uleb128 0x2c
 10459 34c4 9C3F0000 		.4byte	0x3f9c
 10460 34c8 00000000 		.4byte	.LBI515
 10461 34cc 08       		.byte	.LVU496
 10462 34cd B0030000 		.4byte	.Ldebug_ranges0+0x3b0
 10463 34d1 03       		.byte	0x3
 10464 34d2 8D01     		.2byte	0x18d
 10465 34d4 03       		.byte	0x3
 10466 34d5 2D       		.uleb128 0x2d
 10467 34d6 AA3F0000 		.4byte	0x3faa
 10468 34da 06070000 		.4byte	.LLST44
 10469 34de 04070000 		.4byte	.LVUS44
 10470 34e2 00       		.byte	0
 10471 34e3 00       		.byte	0
 10472 34e4 00       		.byte	0
 10473 34e5 00       		.byte	0
 10474 34e6 0B       		.uleb128 0xb
 10475 34e7 84010000 		.4byte	0x184
 10476 34eb F6340000 		.4byte	0x34f6
 10477 34ef 0C       		.uleb128 0xc
 10478 34f0 3D000000 		.4byte	0x3d
 10479 34f4 0D       		.byte	0xd
 10480 34f5 00       		.byte	0
 10481 34f6 10       		.uleb128 0x10
 10482 34f7 E6340000 		.4byte	0x34e6
 10483 34fb 34       		.uleb128 0x34
 10484 34fc 84060000 		.4byte	.LASF541
 10485 3500 01       		.byte	0x1
 10486 3501 5F01     		.2byte	0x15f
 10487 3503 08       		.byte	0x8
 10488 3504 2C000000 		.4byte	0x2c
ARM GAS  /tmp/ccTxpxgR.s 			page 185


 10489 3508 00000000 		.4byte	.LFB160
 10490 350c E4000000 		.4byte	.LFE160-.LFB160
 10491 3510 01       		.uleb128 0x1
 10492 3511 9C       		.byte	0x9c
 10493 3512 70380000 		.4byte	0x3870
 10494 3516 29       		.uleb128 0x29
 10495 3517 B50F0000 		.4byte	.LASF542
 10496 351b 01       		.byte	0x1
 10497 351c 5F01     		.2byte	0x15f
 10498 351e 2E       		.byte	0x2e
 10499 351f 70380000 		.4byte	0x3870
 10500 3523 1F070000 		.4byte	.LLST30
 10501 3527 19070000 		.4byte	.LVUS30
 10502 352b 36       		.uleb128 0x36
 10503 352c 627000   		.ascii	"bp\000"
 10504 352f 01       		.byte	0x1
 10505 3530 5F01     		.2byte	0x15f
 10506 3532 3D       		.byte	0x3d
 10507 3533 45170000 		.4byte	0x1745
 10508 3537 4F070000 		.4byte	.LLST31
 10509 353b 4B070000 		.4byte	.LVUS31
 10510 353f 36       		.uleb128 0x36
 10511 3540 6E00     		.ascii	"n\000"
 10512 3542 01       		.byte	0x1
 10513 3543 6001     		.2byte	0x160
 10514 3545 1E       		.byte	0x1e
 10515 3546 2C000000 		.4byte	0x2c
 10516 354a 7B070000 		.4byte	.LLST32
 10517 354e 6D070000 		.4byte	.LVUS32
 10518 3552 29       		.uleb128 0x29
 10519 3553 8A0D0000 		.4byte	.LASF527
 10520 3557 01       		.byte	0x1
 10521 3558 6001     		.2byte	0x160
 10522 355a 2B       		.byte	0x2b
 10523 355b 290A0000 		.4byte	0xa29
 10524 355f D9070000 		.4byte	.LLST33
 10525 3563 D3070000 		.4byte	.LVUS33
 10526 3567 37       		.uleb128 0x37
 10527 3568 7200     		.ascii	"r\000"
 10528 356a 01       		.byte	0x1
 10529 356b 6101     		.2byte	0x161
 10530 356d 0A       		.byte	0xa
 10531 356e 2C000000 		.4byte	0x2c
 10532 3572 0D080000 		.4byte	.LLST34
 10533 3576 07080000 		.4byte	.LVUS34
 10534 357a 2B       		.uleb128 0x2b
 10535 357b 490B0000 		.4byte	.LASF528
 10536 357f 01       		.byte	0x1
 10537 3580 6201     		.2byte	0x162
 10538 3582 0D       		.byte	0xd
 10539 3583 290A0000 		.4byte	0xa29
 10540 3587 3B080000 		.4byte	.LLST35
 10541 358b 37080000 		.4byte	.LVUS35
 10542 358f 38       		.uleb128 0x38
 10543 3590 32010000 		.4byte	.LASF531
 10544 3594 86380000 		.4byte	0x3886
 10545 3598 2A       		.uleb128 0x2a
ARM GAS  /tmp/ccTxpxgR.s 			page 186


 10546 3599 88010000 		.4byte	.Ldebug_ranges0+0x188
 10547 359d D3370000 		.4byte	0x37d3
 10548 35a1 2B       		.uleb128 0x2b
 10549 35a2 3E110000 		.4byte	.LASF255
 10550 35a6 01       		.byte	0x1
 10551 35a7 6C01     		.2byte	0x16c
 10552 35a9 0C       		.byte	0xc
 10553 35aa 2C000000 		.4byte	0x2c
 10554 35ae 60080000 		.4byte	.LLST36
 10555 35b2 5A080000 		.4byte	.LVUS36
 10556 35b6 2A       		.uleb128 0x2a
 10557 35b7 00020000 		.4byte	.Ldebug_ranges0+0x200
 10558 35bb C0360000 		.4byte	0x36c0
 10559 35bf 37       		.uleb128 0x37
 10560 35c0 6D736700 		.ascii	"msg\000"
 10561 35c4 01       		.byte	0x1
 10562 35c5 7001     		.2byte	0x170
 10563 35c7 0D       		.byte	0xd
 10564 35c8 F9090000 		.4byte	0x9f9
 10565 35cc 8D080000 		.4byte	.LLST37
 10566 35d0 89080000 		.4byte	.LVUS37
 10567 35d4 2A       		.uleb128 0x2a
 10568 35d5 58020000 		.4byte	.Ldebug_ranges0+0x258
 10569 35d9 50360000 		.4byte	0x3650
 10570 35dd 2B       		.uleb128 0x2b
 10571 35de 8D000000 		.4byte	.LASF529
 10572 35e2 01       		.byte	0x1
 10573 35e3 7801     		.2byte	0x178
 10574 35e5 13       		.byte	0x13
 10575 35e6 290A0000 		.4byte	0xa29
 10576 35ea AD080000 		.4byte	.LLST38
 10577 35ee AB080000 		.4byte	.LVUS38
 10578 35f2 31       		.uleb128 0x31
 10579 35f3 1A3F0000 		.4byte	0x3f1a
 10580 35f7 AC000000 		.4byte	.LBI432
 10581 35fb 01       		.byte	.LVU449
 10582 35fc 88020000 		.4byte	.Ldebug_ranges0+0x288
 10583 3600 01       		.byte	0x1
 10584 3601 7801     		.2byte	0x178
 10585 3603 2D       		.byte	0x2d
 10586 3604 3F360000 		.4byte	0x363f
 10587 3608 2C       		.uleb128 0x2c
 10588 3609 583F0000 		.4byte	0x3f58
 10589 360d AC000000 		.4byte	.LBI433
 10590 3611 03       		.byte	.LVU451
 10591 3612 B8020000 		.4byte	.Ldebug_ranges0+0x2b8
 10592 3616 02       		.byte	0x2
 10593 3617 6A02     		.2byte	0x26a
 10594 3619 0A       		.byte	0xa
 10595 361a 39       		.uleb128 0x39
 10596 361b B83F0000 		.4byte	0x3fb8
 10597 361f AC000000 		.4byte	.LBI434
 10598 3623 05       		.byte	.LVU453
 10599 3624 E0020000 		.4byte	.Ldebug_ranges0+0x2e0
 10600 3628 08       		.byte	0x8
 10601 3629 E9       		.byte	0xe9
 10602 362a 0A       		.byte	0xa
ARM GAS  /tmp/ccTxpxgR.s 			page 187


 10603 362b 3A       		.uleb128 0x3a
 10604 362c C53F0000 		.4byte	0x3fc5
 10605 3630 AC000000 		.4byte	.LBI435
 10606 3634 07       		.byte	.LVU455
 10607 3635 00030000 		.4byte	.Ldebug_ranges0+0x300
 10608 3639 09       		.byte	0x9
 10609 363a 6B       		.byte	0x6b
 10610 363b 0A       		.byte	0xa
 10611 363c 00       		.byte	0
 10612 363d 00       		.byte	0
 10613 363e 00       		.byte	0
 10614 363f 3B       		.uleb128 0x3b
 10615 3640 BE000000 		.4byte	.LVL62
 10616 3644 053B0000 		.4byte	0x3b05
 10617 3648 30       		.uleb128 0x30
 10618 3649 01       		.uleb128 0x1
 10619 364a 50       		.byte	0x50
 10620 364b 02       		.uleb128 0x2
 10621 364c 74       		.byte	0x74
 10622 364d 00       		.sleb128 0
 10623 364e 00       		.byte	0
 10624 364f 00       		.byte	0
 10625 3650 31       		.uleb128 0x31
 10626 3651 283F0000 		.4byte	0x3f28
 10627 3655 D2000000 		.4byte	.LBI452
 10628 3659 01       		.byte	.LVU472
 10629 365a 18030000 		.4byte	.Ldebug_ranges0+0x318
 10630 365e 01       		.byte	0x1
 10631 365f 8601     		.2byte	0x186
 10632 3661 09       		.byte	0x9
 10633 3662 A9360000 		.4byte	0x36a9
 10634 3666 2C       		.uleb128 0x2c
 10635 3667 653F0000 		.4byte	0x3f65
 10636 366b D2000000 		.4byte	.LBI453
 10637 366f 03       		.byte	.LVU474
 10638 3670 20030000 		.4byte	.Ldebug_ranges0+0x320
 10639 3674 02       		.byte	0x2
 10640 3675 F801     		.2byte	0x1f8
 10641 3677 03       		.byte	0x3
 10642 3678 2E       		.uleb128 0x2e
 10643 3679 20030000 		.4byte	.Ldebug_ranges0+0x320
 10644 367d 2C       		.uleb128 0x2c
 10645 367e D23F0000 		.4byte	0x3fd2
 10646 3682 D2000000 		.4byte	.LBI455
 10647 3686 09       		.byte	.LVU480
 10648 3687 20030000 		.4byte	.Ldebug_ranges0+0x320
 10649 368b 05       		.byte	0x5
 10650 368c 8F01     		.2byte	0x18f
 10651 368e 03       		.byte	0x3
 10652 368f 33       		.uleb128 0x33
 10653 3690 F03F0000 		.4byte	0x3ff0
 10654 3694 D2000000 		.4byte	.LBI456
 10655 3698 0B       		.byte	.LVU482
 10656 3699 D2000000 		.4byte	.LBB456
 10657 369d 02000000 		.4byte	.LBE456-.LBB456
 10658 36a1 06       		.byte	0x6
 10659 36a2 7E01     		.2byte	0x17e
ARM GAS  /tmp/ccTxpxgR.s 			page 188


 10660 36a4 03       		.byte	0x3
 10661 36a5 00       		.byte	0
 10662 36a6 00       		.byte	0
 10663 36a7 00       		.byte	0
 10664 36a8 00       		.byte	0
 10665 36a9 3B       		.uleb128 0x3b
 10666 36aa CE000000 		.4byte	.LVL64
 10667 36ae 053B0000 		.4byte	0x3b05
 10668 36b2 30       		.uleb128 0x30
 10669 36b3 01       		.uleb128 0x1
 10670 36b4 50       		.byte	0x50
 10671 36b5 02       		.uleb128 0x2
 10672 36b6 74       		.byte	0x74
 10673 36b7 00       		.sleb128 0
 10674 36b8 30       		.uleb128 0x30
 10675 36b9 01       		.uleb128 0x1
 10676 36ba 51       		.byte	0x51
 10677 36bb 02       		.uleb128 0x2
 10678 36bc 7A       		.byte	0x7a
 10679 36bd 00       		.sleb128 0
 10680 36be 00       		.byte	0
 10681 36bf 00       		.byte	0
 10682 36c0 31       		.uleb128 0x31
 10683 36c1 D5390000 		.4byte	0x39d5
 10684 36c5 4A000000 		.4byte	.LBI464
 10685 36c9 01       		.byte	.LVU371
 10686 36ca 38030000 		.4byte	.Ldebug_ranges0+0x338
 10687 36ce 01       		.byte	0x1
 10688 36cf A301     		.2byte	0x1a3
 10689 36d1 07       		.byte	0x7
 10690 36d2 F6360000 		.4byte	0x36f6
 10691 36d6 2D       		.uleb128 0x2d
 10692 36d7 E3390000 		.4byte	0x39e3
 10693 36db C2080000 		.4byte	.LLST39
 10694 36df C0080000 		.4byte	.LVUS39
 10695 36e3 2E       		.uleb128 0x2e
 10696 36e4 38030000 		.4byte	.Ldebug_ranges0+0x338
 10697 36e8 2F       		.uleb128 0x2f
 10698 36e9 72000000 		.4byte	.LVL51
 10699 36ed 30       		.uleb128 0x30
 10700 36ee 01       		.uleb128 0x1
 10701 36ef 50       		.byte	0x50
 10702 36f0 02       		.uleb128 0x2
 10703 36f1 74       		.byte	0x74
 10704 36f2 00       		.sleb128 0
 10705 36f3 00       		.byte	0
 10706 36f4 00       		.byte	0
 10707 36f5 00       		.byte	0
 10708 36f6 31       		.uleb128 0x31
 10709 36f7 283F0000 		.4byte	0x3f28
 10710 36fb 72000000 		.4byte	.LBI472
 10711 36ff 02       		.byte	.LVU396
 10712 3700 58030000 		.4byte	.Ldebug_ranges0+0x358
 10713 3704 01       		.byte	0x1
 10714 3705 A701     		.2byte	0x1a7
 10715 3707 05       		.byte	0x5
 10716 3708 4F370000 		.4byte	0x374f
ARM GAS  /tmp/ccTxpxgR.s 			page 189


 10717 370c 2C       		.uleb128 0x2c
 10718 370d 653F0000 		.4byte	0x3f65
 10719 3711 72000000 		.4byte	.LBI473
 10720 3715 04       		.byte	.LVU398
 10721 3716 60030000 		.4byte	.Ldebug_ranges0+0x360
 10722 371a 02       		.byte	0x2
 10723 371b F801     		.2byte	0x1f8
 10724 371d 03       		.byte	0x3
 10725 371e 2E       		.uleb128 0x2e
 10726 371f 60030000 		.4byte	.Ldebug_ranges0+0x360
 10727 3723 2C       		.uleb128 0x2c
 10728 3724 D23F0000 		.4byte	0x3fd2
 10729 3728 72000000 		.4byte	.LBI475
 10730 372c 0A       		.byte	.LVU404
 10731 372d 60030000 		.4byte	.Ldebug_ranges0+0x360
 10732 3731 05       		.byte	0x5
 10733 3732 8F01     		.2byte	0x18f
 10734 3734 03       		.byte	0x3
 10735 3735 33       		.uleb128 0x33
 10736 3736 F03F0000 		.4byte	0x3ff0
 10737 373a 72000000 		.4byte	.LBI476
 10738 373e 0C       		.byte	.LVU406
 10739 373f 72000000 		.4byte	.LBB476
 10740 3743 02000000 		.4byte	.LBE476-.LBB476
 10741 3747 06       		.byte	0x6
 10742 3748 7E01     		.2byte	0x17e
 10743 374a 03       		.byte	0x3
 10744 374b 00       		.byte	0
 10745 374c 00       		.byte	0
 10746 374d 00       		.byte	0
 10747 374e 00       		.byte	0
 10748 374f 31       		.uleb128 0x31
 10749 3750 323F0000 		.4byte	0x3f32
 10750 3754 78000000 		.4byte	.LBI483
 10751 3758 01       		.byte	.LVU411
 10752 3759 78030000 		.4byte	.Ldebug_ranges0+0x378
 10753 375d 01       		.byte	0x1
 10754 375e AB01     		.2byte	0x1ab
 10755 3760 05       		.byte	0x5
 10756 3761 A2370000 		.4byte	0x37a2
 10757 3765 2C       		.uleb128 0x2c
 10758 3766 923F0000 		.4byte	0x3f92
 10759 376a 78000000 		.4byte	.LBI484
 10760 376e 03       		.byte	.LVU413
 10761 376f 80030000 		.4byte	.Ldebug_ranges0+0x380
 10762 3773 02       		.byte	0x2
 10763 3774 ED01     		.2byte	0x1ed
 10764 3776 03       		.byte	0x3
 10765 3777 2C       		.uleb128 0x2c
 10766 3778 DC3F0000 		.4byte	0x3fdc
 10767 377c 78000000 		.4byte	.LBI485
 10768 3780 05       		.byte	.LVU415
 10769 3781 88030000 		.4byte	.Ldebug_ranges0+0x388
 10770 3785 05       		.byte	0x5
 10771 3786 7801     		.2byte	0x178
 10772 3788 03       		.byte	0x3
 10773 3789 33       		.uleb128 0x33
ARM GAS  /tmp/ccTxpxgR.s 			page 190


 10774 378a E63F0000 		.4byte	0x3fe6
 10775 378e 78000000 		.4byte	.LBI486
 10776 3792 07       		.byte	.LVU417
 10777 3793 78000000 		.4byte	.LBB486
 10778 3797 02000000 		.4byte	.LBE486-.LBB486
 10779 379b 06       		.byte	0x6
 10780 379c 7501     		.2byte	0x175
 10781 379e 03       		.byte	0x3
 10782 379f 00       		.byte	0
 10783 37a0 00       		.byte	0
 10784 37a1 00       		.byte	0
 10785 37a2 3C       		.uleb128 0x3c
 10786 37a3 3A000000 		.4byte	.LVL47
 10787 37a7 F5410000 		.4byte	0x41f5
 10788 37ab BC370000 		.4byte	0x37bc
 10789 37af 30       		.uleb128 0x30
 10790 37b0 01       		.uleb128 0x1
 10791 37b1 50       		.byte	0x50
 10792 37b2 02       		.uleb128 0x2
 10793 37b3 77       		.byte	0x77
 10794 37b4 00       		.sleb128 0
 10795 37b5 30       		.uleb128 0x30
 10796 37b6 01       		.uleb128 0x1
 10797 37b7 52       		.byte	0x52
 10798 37b8 02       		.uleb128 0x2
 10799 37b9 08       		.byte	0x8
 10800 37ba 40       		.byte	0x40
 10801 37bb 00       		.byte	0
 10802 37bc 3B       		.uleb128 0x3b
 10803 37bd 9A000000 		.4byte	.LVL57
 10804 37c1 F5410000 		.4byte	0x41f5
 10805 37c5 30       		.uleb128 0x30
 10806 37c6 01       		.uleb128 0x1
 10807 37c7 50       		.byte	0x50
 10808 37c8 02       		.uleb128 0x2
 10809 37c9 77       		.byte	0x77
 10810 37ca 00       		.sleb128 0
 10811 37cb 30       		.uleb128 0x30
 10812 37cc 01       		.uleb128 0x1
 10813 37cd 52       		.byte	0x52
 10814 37ce 02       		.uleb128 0x2
 10815 37cf 75       		.byte	0x75
 10816 37d0 00       		.sleb128 0
 10817 37d1 00       		.byte	0
 10818 37d2 00       		.byte	0
 10819 37d3 31       		.uleb128 0x31
 10820 37d4 323F0000 		.4byte	0x3f32
 10821 37d8 00000000 		.4byte	.LBI402
 10822 37dc 06       		.byte	.LVU325
 10823 37dd 30010000 		.4byte	.Ldebug_ranges0+0x130
 10824 37e1 01       		.byte	0x1
 10825 37e2 6601     		.2byte	0x166
 10826 37e4 03       		.byte	0x3
 10827 37e5 22380000 		.4byte	0x3822
 10828 37e9 2C       		.uleb128 0x2c
 10829 37ea 923F0000 		.4byte	0x3f92
 10830 37ee 00000000 		.4byte	.LBI403
ARM GAS  /tmp/ccTxpxgR.s 			page 191


 10831 37f2 08       		.byte	.LVU327
 10832 37f3 38010000 		.4byte	.Ldebug_ranges0+0x138
 10833 37f7 02       		.byte	0x2
 10834 37f8 ED01     		.2byte	0x1ed
 10835 37fa 03       		.byte	0x3
 10836 37fb 2C       		.uleb128 0x2c
 10837 37fc DC3F0000 		.4byte	0x3fdc
 10838 3800 00000000 		.4byte	.LBI404
 10839 3804 0A       		.byte	.LVU329
 10840 3805 40010000 		.4byte	.Ldebug_ranges0+0x140
 10841 3809 05       		.byte	0x5
 10842 380a 7801     		.2byte	0x178
 10843 380c 03       		.byte	0x3
 10844 380d 32       		.uleb128 0x32
 10845 380e E63F0000 		.4byte	0x3fe6
 10846 3812 00000000 		.4byte	.LBI405
 10847 3816 0C       		.byte	.LVU331
 10848 3817 48010000 		.4byte	.Ldebug_ranges0+0x148
 10849 381b 06       		.byte	0x6
 10850 381c 7501     		.2byte	0x175
 10851 381e 03       		.byte	0x3
 10852 381f 00       		.byte	0
 10853 3820 00       		.byte	0
 10854 3821 00       		.byte	0
 10855 3822 2C       		.uleb128 0x2c
 10856 3823 1A3F0000 		.4byte	0x3f1a
 10857 3827 18000000 		.4byte	.LBI418
 10858 382b 03       		.byte	.LVU339
 10859 382c 60010000 		.4byte	.Ldebug_ranges0+0x160
 10860 3830 01       		.byte	0x1
 10861 3831 6901     		.2byte	0x169
 10862 3833 0E       		.byte	0xe
 10863 3834 2C       		.uleb128 0x2c
 10864 3835 583F0000 		.4byte	0x3f58
 10865 3839 18000000 		.4byte	.LBI419
 10866 383d 05       		.byte	.LVU341
 10867 383e 68010000 		.4byte	.Ldebug_ranges0+0x168
 10868 3842 02       		.byte	0x2
 10869 3843 6A02     		.2byte	0x26a
 10870 3845 0A       		.byte	0xa
 10871 3846 39       		.uleb128 0x39
 10872 3847 B83F0000 		.4byte	0x3fb8
 10873 384b 18000000 		.4byte	.LBI420
 10874 384f 07       		.byte	.LVU343
 10875 3850 70010000 		.4byte	.Ldebug_ranges0+0x170
 10876 3854 08       		.byte	0x8
 10877 3855 E9       		.byte	0xe9
 10878 3856 0A       		.byte	0xa
 10879 3857 3D       		.uleb128 0x3d
 10880 3858 C53F0000 		.4byte	0x3fc5
 10881 385c 18000000 		.4byte	.LBI421
 10882 3860 09       		.byte	.LVU345
 10883 3861 18000000 		.4byte	.LBB421
 10884 3865 06000000 		.4byte	.LBE421-.LBB421
 10885 3869 09       		.byte	0x9
 10886 386a 6B       		.byte	0x6b
 10887 386b 0A       		.byte	0xa
ARM GAS  /tmp/ccTxpxgR.s 			page 192


 10888 386c 00       		.byte	0
 10889 386d 00       		.byte	0
 10890 386e 00       		.byte	0
 10891 386f 00       		.byte	0
 10892 3870 06       		.uleb128 0x6
 10893 3871 04       		.byte	0x4
 10894 3872 E0180000 		.4byte	0x18e0
 10895 3876 0B       		.uleb128 0xb
 10896 3877 84010000 		.4byte	0x184
 10897 387b 86380000 		.4byte	0x3886
 10898 387f 0C       		.uleb128 0xc
 10899 3880 3D000000 		.4byte	0x3d
 10900 3884 0E       		.byte	0xe
 10901 3885 00       		.byte	0
 10902 3886 10       		.uleb128 0x10
 10903 3887 76380000 		.4byte	0x3876
 10904 388b 34       		.uleb128 0x34
 10905 388c 200F0000 		.4byte	.LASF543
 10906 3890 01       		.byte	0x1
 10907 3891 2E01     		.2byte	0x12e
 10908 3893 07       		.byte	0x7
 10909 3894 F9090000 		.4byte	0x9f9
 10910 3898 00000000 		.4byte	.LFB159
 10911 389c 52000000 		.4byte	.LFE159-.LFB159
 10912 38a0 01       		.uleb128 0x1
 10913 38a1 9C       		.byte	0x9c
 10914 38a2 D5390000 		.4byte	0x39d5
 10915 38a6 29       		.uleb128 0x29
 10916 38a7 B50F0000 		.4byte	.LASF542
 10917 38ab 01       		.byte	0x1
 10918 38ac 2E01     		.2byte	0x12e
 10919 38ae 2C       		.byte	0x2c
 10920 38af 70380000 		.4byte	0x3870
 10921 38b3 DF080000 		.4byte	.LLST26
 10922 38b7 D5080000 		.4byte	.LVUS26
 10923 38bb 29       		.uleb128 0x29
 10924 38bc 8A0D0000 		.4byte	.LASF527
 10925 38c0 01       		.byte	0x1
 10926 38c1 2E01     		.2byte	0x12e
 10927 38c3 3C       		.byte	0x3c
 10928 38c4 290A0000 		.4byte	0xa29
 10929 38c8 29090000 		.4byte	.LLST27
 10930 38cc 21090000 		.4byte	.LVUS27
 10931 38d0 37       		.uleb128 0x37
 10932 38d1 6D736700 		.ascii	"msg\000"
 10933 38d5 01       		.byte	0x1
 10934 38d6 2F01     		.2byte	0x12f
 10935 38d8 09       		.byte	0x9
 10936 38d9 F9090000 		.4byte	0x9f9
 10937 38dd 69090000 		.4byte	.LLST28
 10938 38e1 63090000 		.4byte	.LVUS28
 10939 38e5 31       		.uleb128 0x31
 10940 38e6 323F0000 		.4byte	0x3f32
 10941 38ea 00000000 		.4byte	.LBI373
 10942 38ee 03       		.byte	.LVU250
 10943 38ef E0000000 		.4byte	.Ldebug_ranges0+0xe0
 10944 38f3 01       		.byte	0x1
ARM GAS  /tmp/ccTxpxgR.s 			page 193


 10945 38f4 3101     		.2byte	0x131
 10946 38f6 03       		.byte	0x3
 10947 38f7 34390000 		.4byte	0x3934
 10948 38fb 2C       		.uleb128 0x2c
 10949 38fc 923F0000 		.4byte	0x3f92
 10950 3900 00000000 		.4byte	.LBI374
 10951 3904 05       		.byte	.LVU252
 10952 3905 E8000000 		.4byte	.Ldebug_ranges0+0xe8
 10953 3909 02       		.byte	0x2
 10954 390a ED01     		.2byte	0x1ed
 10955 390c 03       		.byte	0x3
 10956 390d 2C       		.uleb128 0x2c
 10957 390e DC3F0000 		.4byte	0x3fdc
 10958 3912 00000000 		.4byte	.LBI375
 10959 3916 07       		.byte	.LVU254
 10960 3917 F0000000 		.4byte	.Ldebug_ranges0+0xf0
 10961 391b 05       		.byte	0x5
 10962 391c 7801     		.2byte	0x178
 10963 391e 03       		.byte	0x3
 10964 391f 32       		.uleb128 0x32
 10965 3920 E63F0000 		.4byte	0x3fe6
 10966 3924 00000000 		.4byte	.LBI376
 10967 3928 09       		.byte	.LVU256
 10968 3929 F8000000 		.4byte	.Ldebug_ranges0+0xf8
 10969 392d 06       		.byte	0x6
 10970 392e 7501     		.2byte	0x175
 10971 3930 03       		.byte	0x3
 10972 3931 00       		.byte	0
 10973 3932 00       		.byte	0
 10974 3933 00       		.byte	0
 10975 3934 40       		.uleb128 0x40
 10976 3935 D5390000 		.4byte	0x39d5
 10977 3939 18000000 		.4byte	.LBI389
 10978 393d 01       		.byte	.LVU274
 10979 393e 18000000 		.4byte	.LBB389
 10980 3942 28000000 		.4byte	.LBE389-.LBB389
 10981 3946 01       		.byte	0x1
 10982 3947 4301     		.2byte	0x143
 10983 3949 05       		.byte	0x5
 10984 394a 72390000 		.4byte	0x3972
 10985 394e 2D       		.uleb128 0x2d
 10986 394f E3390000 		.4byte	0x39e3
 10987 3953 94090000 		.4byte	.LLST29
 10988 3957 92090000 		.4byte	.LVUS29
 10989 395b 35       		.uleb128 0x35
 10990 395c 18000000 		.4byte	.LBB390
 10991 3960 28000000 		.4byte	.LBE390-.LBB390
 10992 3964 2F       		.uleb128 0x2f
 10993 3965 40000000 		.4byte	.LVL34
 10994 3969 30       		.uleb128 0x30
 10995 396a 01       		.uleb128 0x1
 10996 396b 50       		.byte	0x50
 10997 396c 02       		.uleb128 0x2
 10998 396d 74       		.byte	0x74
 10999 396e 00       		.sleb128 0
 11000 396f 00       		.byte	0
 11001 3970 00       		.byte	0
ARM GAS  /tmp/ccTxpxgR.s 			page 194


 11002 3971 00       		.byte	0
 11003 3972 31       		.uleb128 0x31
 11004 3973 283F0000 		.4byte	0x3f28
 11005 3977 40000000 		.4byte	.LBI391
 11006 397b 02       		.byte	.LVU299
 11007 397c 10010000 		.4byte	.Ldebug_ranges0+0x110
 11008 3980 01       		.byte	0x1
 11009 3981 4601     		.2byte	0x146
 11010 3983 03       		.byte	0x3
 11011 3984 CB390000 		.4byte	0x39cb
 11012 3988 2C       		.uleb128 0x2c
 11013 3989 653F0000 		.4byte	0x3f65
 11014 398d 40000000 		.4byte	.LBI392
 11015 3991 04       		.byte	.LVU301
 11016 3992 18010000 		.4byte	.Ldebug_ranges0+0x118
 11017 3996 02       		.byte	0x2
 11018 3997 F801     		.2byte	0x1f8
 11019 3999 03       		.byte	0x3
 11020 399a 2E       		.uleb128 0x2e
 11021 399b 18010000 		.4byte	.Ldebug_ranges0+0x118
 11022 399f 2C       		.uleb128 0x2c
 11023 39a0 D23F0000 		.4byte	0x3fd2
 11024 39a4 40000000 		.4byte	.LBI394
 11025 39a8 0A       		.byte	.LVU307
 11026 39a9 18010000 		.4byte	.Ldebug_ranges0+0x118
 11027 39ad 05       		.byte	0x5
 11028 39ae 8F01     		.2byte	0x18f
 11029 39b0 03       		.byte	0x3
 11030 39b1 33       		.uleb128 0x33
 11031 39b2 F03F0000 		.4byte	0x3ff0
 11032 39b6 40000000 		.4byte	.LBI395
 11033 39ba 0C       		.byte	.LVU309
 11034 39bb 40000000 		.4byte	.LBB395
 11035 39bf 02000000 		.4byte	.LBE395-.LBB395
 11036 39c3 06       		.byte	0x6
 11037 39c4 7E01     		.2byte	0x17e
 11038 39c6 03       		.byte	0x3
 11039 39c7 00       		.byte	0
 11040 39c8 00       		.byte	0
 11041 39c9 00       		.byte	0
 11042 39ca 00       		.byte	0
 11043 39cb 47       		.uleb128 0x47
 11044 39cc 4A000000 		.4byte	.LVL38
 11045 39d0 053B0000 		.4byte	0x3b05
 11046 39d4 00       		.byte	0
 11047 39d5 3E       		.uleb128 0x3e
 11048 39d6 A6090000 		.4byte	.LASF545
 11049 39da 01       		.byte	0x1
 11050 39db 0701     		.2byte	0x107
 11051 39dd 08       		.byte	0x8
 11052 39de 01       		.byte	0x1
 11053 39df FA390000 		.4byte	0x39fa
 11054 39e3 3F       		.uleb128 0x3f
 11055 39e4 B50F0000 		.4byte	.LASF542
 11056 39e8 01       		.byte	0x1
 11057 39e9 0701     		.2byte	0x107
 11058 39eb 36       		.byte	0x36
ARM GAS  /tmp/ccTxpxgR.s 			page 195


 11059 39ec 70380000 		.4byte	0x3870
 11060 39f0 38       		.uleb128 0x38
 11061 39f1 32010000 		.4byte	.LASF531
 11062 39f5 44330000 		.4byte	0x3344
 11063 39f9 00       		.byte	0
 11064 39fa 48       		.uleb128 0x48
 11065 39fb 5A110000 		.4byte	.LASF546
 11066 39ff 01       		.byte	0x1
 11067 3a00 F8       		.byte	0xf8
 11068 3a01 06       		.byte	0x6
 11069 3a02 00000000 		.4byte	.LFB157
 11070 3a06 2E000000 		.4byte	.LFE157-.LFB157
 11071 3a0a 01       		.uleb128 0x1
 11072 3a0b 9C       		.byte	0x9c
 11073 3a0c 053B0000 		.4byte	0x3b05
 11074 3a10 49       		.uleb128 0x49
 11075 3a11 B50F0000 		.4byte	.LASF542
 11076 3a15 01       		.byte	0x1
 11077 3a16 F8       		.byte	0xf8
 11078 3a17 33       		.byte	0x33
 11079 3a18 70380000 		.4byte	0x3870
 11080 3a1c AB090000 		.4byte	.LLST23
 11081 3a20 A7090000 		.4byte	.LVUS23
 11082 3a24 4A       		.uleb128 0x4a
 11083 3a25 323F0000 		.4byte	0x3f32
 11084 3a29 00000000 		.4byte	.LBI344
 11085 3a2d 02       		.byte	.LVU170
 11086 3a2e 90000000 		.4byte	.Ldebug_ranges0+0x90
 11087 3a32 01       		.byte	0x1
 11088 3a33 FA       		.byte	0xfa
 11089 3a34 03       		.byte	0x3
 11090 3a35 723A0000 		.4byte	0x3a72
 11091 3a39 2C       		.uleb128 0x2c
 11092 3a3a 923F0000 		.4byte	0x3f92
 11093 3a3e 00000000 		.4byte	.LBI345
 11094 3a42 04       		.byte	.LVU172
 11095 3a43 98000000 		.4byte	.Ldebug_ranges0+0x98
 11096 3a47 02       		.byte	0x2
 11097 3a48 ED01     		.2byte	0x1ed
 11098 3a4a 03       		.byte	0x3
 11099 3a4b 2C       		.uleb128 0x2c
 11100 3a4c DC3F0000 		.4byte	0x3fdc
 11101 3a50 00000000 		.4byte	.LBI346
 11102 3a54 06       		.byte	.LVU174
 11103 3a55 A0000000 		.4byte	.Ldebug_ranges0+0xa0
 11104 3a59 05       		.byte	0x5
 11105 3a5a 7801     		.2byte	0x178
 11106 3a5c 03       		.byte	0x3
 11107 3a5d 32       		.uleb128 0x32
 11108 3a5e E63F0000 		.4byte	0x3fe6
 11109 3a62 00000000 		.4byte	.LBI347
 11110 3a66 08       		.byte	.LVU176
 11111 3a67 A8000000 		.4byte	.Ldebug_ranges0+0xa8
 11112 3a6b 06       		.byte	0x6
 11113 3a6c 7501     		.2byte	0x175
 11114 3a6e 03       		.byte	0x3
 11115 3a6f 00       		.byte	0
ARM GAS  /tmp/ccTxpxgR.s 			page 196


 11116 3a70 00       		.byte	0
 11117 3a71 00       		.byte	0
 11118 3a72 4B       		.uleb128 0x4b
 11119 3a73 D5390000 		.4byte	0x39d5
 11120 3a77 04000000 		.4byte	.LBI360
 11121 3a7b 03       		.byte	.LVU183
 11122 3a7c 04000000 		.4byte	.LBB360
 11123 3a80 26000000 		.4byte	.LBE360-.LBB360
 11124 3a84 01       		.byte	0x1
 11125 3a85 FB       		.byte	0xfb
 11126 3a86 03       		.byte	0x3
 11127 3a87 B03A0000 		.4byte	0x3ab0
 11128 3a8b 2D       		.uleb128 0x2d
 11129 3a8c E3390000 		.4byte	0x39e3
 11130 3a90 D0090000 		.4byte	.LLST24
 11131 3a94 CC090000 		.4byte	.LVUS24
 11132 3a98 35       		.uleb128 0x35
 11133 3a99 04000000 		.4byte	.LBB361
 11134 3a9d 26000000 		.4byte	.LBE361-.LBB361
 11135 3aa1 2F       		.uleb128 0x2f
 11136 3aa2 2A000000 		.4byte	.LVL27
 11137 3aa6 30       		.uleb128 0x30
 11138 3aa7 01       		.uleb128 0x1
 11139 3aa8 50       		.byte	0x50
 11140 3aa9 03       		.uleb128 0x3
 11141 3aaa F3       		.byte	0xf3
 11142 3aab 01       		.uleb128 0x1
 11143 3aac 50       		.byte	0x50
 11144 3aad 00       		.byte	0
 11145 3aae 00       		.byte	0
 11146 3aaf 00       		.byte	0
 11147 3ab0 39       		.uleb128 0x39
 11148 3ab1 283F0000 		.4byte	0x3f28
 11149 3ab5 2A000000 		.4byte	.LBI362
 11150 3ab9 02       		.byte	.LVU208
 11151 3aba C0000000 		.4byte	.Ldebug_ranges0+0xc0
 11152 3abe 01       		.byte	0x1
 11153 3abf FC       		.byte	0xfc
 11154 3ac0 03       		.byte	0x3
 11155 3ac1 2C       		.uleb128 0x2c
 11156 3ac2 653F0000 		.4byte	0x3f65
 11157 3ac6 2A000000 		.4byte	.LBI363
 11158 3aca 04       		.byte	.LVU210
 11159 3acb C8000000 		.4byte	.Ldebug_ranges0+0xc8
 11160 3acf 02       		.byte	0x2
 11161 3ad0 F801     		.2byte	0x1f8
 11162 3ad2 03       		.byte	0x3
 11163 3ad3 2E       		.uleb128 0x2e
 11164 3ad4 C8000000 		.4byte	.Ldebug_ranges0+0xc8
 11165 3ad8 2C       		.uleb128 0x2c
 11166 3ad9 D23F0000 		.4byte	0x3fd2
 11167 3add 2A000000 		.4byte	.LBI365
 11168 3ae1 0A       		.byte	.LVU216
 11169 3ae2 C8000000 		.4byte	.Ldebug_ranges0+0xc8
 11170 3ae6 05       		.byte	0x5
 11171 3ae7 8F01     		.2byte	0x18f
 11172 3ae9 03       		.byte	0x3
ARM GAS  /tmp/ccTxpxgR.s 			page 197


 11173 3aea 33       		.uleb128 0x33
 11174 3aeb F03F0000 		.4byte	0x3ff0
 11175 3aef 2A000000 		.4byte	.LBI366
 11176 3af3 0C       		.byte	.LVU218
 11177 3af4 2A000000 		.4byte	.LBB366
 11178 3af8 02000000 		.4byte	.LBE366-.LBB366
 11179 3afc 06       		.byte	0x6
 11180 3afd 7E01     		.2byte	0x17e
 11181 3aff 03       		.byte	0x3
 11182 3b00 00       		.byte	0
 11183 3b01 00       		.byte	0
 11184 3b02 00       		.byte	0
 11185 3b03 00       		.byte	0
 11186 3b04 00       		.byte	0
 11187 3b05 4C       		.uleb128 0x4c
 11188 3b06 D80F0000 		.4byte	.LASF548
 11189 3b0a 01       		.byte	0x1
 11190 3b0b DB       		.byte	0xdb
 11191 3b0c 09       		.byte	0x9
 11192 3b0d F9090000 		.4byte	0x9f9
 11193 3b11 01       		.byte	0x1
 11194 3b12 463B0000 		.4byte	0x3b46
 11195 3b16 4D       		.uleb128 0x4d
 11196 3b17 B50F0000 		.4byte	.LASF542
 11197 3b1b 01       		.byte	0x1
 11198 3b1c DB       		.byte	0xdb
 11199 3b1d 39       		.byte	0x39
 11200 3b1e 70380000 		.4byte	0x3870
 11201 3b22 4D       		.uleb128 0x4d
 11202 3b23 8A0D0000 		.4byte	.LASF527
 11203 3b27 01       		.byte	0x1
 11204 3b28 DC       		.byte	0xdc
 11205 3b29 2C       		.byte	0x2c
 11206 3b2a 290A0000 		.4byte	0xa29
 11207 3b2e 38       		.uleb128 0x38
 11208 3b2f 32010000 		.4byte	.LASF531
 11209 3b33 563B0000 		.4byte	0x3b56
 11210 3b37 42       		.uleb128 0x42
 11211 3b38 4E       		.uleb128 0x4e
 11212 3b39 6D736700 		.ascii	"msg\000"
 11213 3b3d 01       		.byte	0x1
 11214 3b3e E1       		.byte	0xe1
 11215 3b3f 0B       		.byte	0xb
 11216 3b40 F9090000 		.4byte	0x9f9
 11217 3b44 00       		.byte	0
 11218 3b45 00       		.byte	0
 11219 3b46 0B       		.uleb128 0xb
 11220 3b47 84010000 		.4byte	0x184
 11221 3b4b 563B0000 		.4byte	0x3b56
 11222 3b4f 0C       		.uleb128 0xc
 11223 3b50 3D000000 		.4byte	0x3d
 11224 3b54 18       		.byte	0x18
 11225 3b55 00       		.byte	0
 11226 3b56 10       		.uleb128 0x10
 11227 3b57 463B0000 		.4byte	0x3b46
 11228 3b5b 4F       		.uleb128 0x4f
 11229 3b5c 9B0B0000 		.4byte	.LASF549
ARM GAS  /tmp/ccTxpxgR.s 			page 198


 11230 3b60 01       		.byte	0x1
 11231 3b61 BC       		.byte	0xbc
 11232 3b62 07       		.byte	0x7
 11233 3b63 F9090000 		.4byte	0x9f9
 11234 3b67 00000000 		.4byte	.LFB155
 11235 3b6b 0C000000 		.4byte	.LFE155-.LFB155
 11236 3b6f 01       		.uleb128 0x1
 11237 3b70 9C       		.byte	0x9c
 11238 3b71 703C0000 		.4byte	0x3c70
 11239 3b75 49       		.uleb128 0x49
 11240 3b76 B50F0000 		.4byte	.LASF542
 11241 3b7a 01       		.byte	0x1
 11242 3b7b BC       		.byte	0xbc
 11243 3b7c 36       		.byte	0x36
 11244 3b7d 70380000 		.4byte	0x3870
 11245 3b81 F5090000 		.4byte	.LLST20
 11246 3b85 F1090000 		.4byte	.LVUS20
 11247 3b89 49       		.uleb128 0x49
 11248 3b8a 8A0D0000 		.4byte	.LASF527
 11249 3b8e 01       		.byte	0x1
 11250 3b8f BD       		.byte	0xbd
 11251 3b90 29       		.byte	0x29
 11252 3b91 290A0000 		.4byte	0xa29
 11253 3b95 1A0A0000 		.4byte	.LLST21
 11254 3b99 160A0000 		.4byte	.LVUS21
 11255 3b9d 50       		.uleb128 0x50
 11256 3b9e 6D736700 		.ascii	"msg\000"
 11257 3ba2 01       		.byte	0x1
 11258 3ba3 BE       		.byte	0xbe
 11259 3ba4 09       		.byte	0x9
 11260 3ba5 F9090000 		.4byte	0x9f9
 11261 3ba9 3D0A0000 		.4byte	.LLST22
 11262 3bad 3B0A0000 		.4byte	.LVUS22
 11263 3bb1 4A       		.uleb128 0x4a
 11264 3bb2 323F0000 		.4byte	0x3f32
 11265 3bb6 00000000 		.4byte	.LBI317
 11266 3bba 03       		.byte	.LVU139
 11267 3bbb 40000000 		.4byte	.Ldebug_ranges0+0x40
 11268 3bbf 01       		.byte	0x1
 11269 3bc0 C0       		.byte	0xc0
 11270 3bc1 03       		.byte	0x3
 11271 3bc2 FF3B0000 		.4byte	0x3bff
 11272 3bc6 2C       		.uleb128 0x2c
 11273 3bc7 923F0000 		.4byte	0x3f92
 11274 3bcb 00000000 		.4byte	.LBI318
 11275 3bcf 05       		.byte	.LVU141
 11276 3bd0 48000000 		.4byte	.Ldebug_ranges0+0x48
 11277 3bd4 02       		.byte	0x2
 11278 3bd5 ED01     		.2byte	0x1ed
 11279 3bd7 03       		.byte	0x3
 11280 3bd8 2C       		.uleb128 0x2c
 11281 3bd9 DC3F0000 		.4byte	0x3fdc
 11282 3bdd 00000000 		.4byte	.LBI319
 11283 3be1 07       		.byte	.LVU143
 11284 3be2 50000000 		.4byte	.Ldebug_ranges0+0x50
 11285 3be6 05       		.byte	0x5
 11286 3be7 7801     		.2byte	0x178
ARM GAS  /tmp/ccTxpxgR.s 			page 199


 11287 3be9 03       		.byte	0x3
 11288 3bea 32       		.uleb128 0x32
 11289 3beb E63F0000 		.4byte	0x3fe6
 11290 3bef 00000000 		.4byte	.LBI320
 11291 3bf3 09       		.byte	.LVU145
 11292 3bf4 58000000 		.4byte	.Ldebug_ranges0+0x58
 11293 3bf8 06       		.byte	0x6
 11294 3bf9 7501     		.2byte	0x175
 11295 3bfb 03       		.byte	0x3
 11296 3bfc 00       		.byte	0
 11297 3bfd 00       		.byte	0
 11298 3bfe 00       		.byte	0
 11299 3bff 4A       		.uleb128 0x4a
 11300 3c00 283F0000 		.4byte	0x3f28
 11301 3c04 08000000 		.4byte	.LBI333
 11302 3c08 01       		.byte	.LVU154
 11303 3c09 70000000 		.4byte	.Ldebug_ranges0+0x70
 11304 3c0d 01       		.byte	0x1
 11305 3c0e C2       		.byte	0xc2
 11306 3c0f 03       		.byte	0x3
 11307 3c10 573C0000 		.4byte	0x3c57
 11308 3c14 2C       		.uleb128 0x2c
 11309 3c15 653F0000 		.4byte	0x3f65
 11310 3c19 08000000 		.4byte	.LBI334
 11311 3c1d 03       		.byte	.LVU156
 11312 3c1e 78000000 		.4byte	.Ldebug_ranges0+0x78
 11313 3c22 02       		.byte	0x2
 11314 3c23 F801     		.2byte	0x1f8
 11315 3c25 03       		.byte	0x3
 11316 3c26 2E       		.uleb128 0x2e
 11317 3c27 78000000 		.4byte	.Ldebug_ranges0+0x78
 11318 3c2b 2C       		.uleb128 0x2c
 11319 3c2c D23F0000 		.4byte	0x3fd2
 11320 3c30 08000000 		.4byte	.LBI336
 11321 3c34 09       		.byte	.LVU162
 11322 3c35 78000000 		.4byte	.Ldebug_ranges0+0x78
 11323 3c39 05       		.byte	0x5
 11324 3c3a 8F01     		.2byte	0x18f
 11325 3c3c 03       		.byte	0x3
 11326 3c3d 33       		.uleb128 0x33
 11327 3c3e F03F0000 		.4byte	0x3ff0
 11328 3c42 08000000 		.4byte	.LBI337
 11329 3c46 0B       		.byte	.LVU164
 11330 3c47 08000000 		.4byte	.LBB337
 11331 3c4b 02000000 		.4byte	.LBE337-.LBB337
 11332 3c4f 06       		.byte	0x6
 11333 3c50 7E01     		.2byte	0x17e
 11334 3c52 03       		.byte	0x3
 11335 3c53 00       		.byte	0
 11336 3c54 00       		.byte	0
 11337 3c55 00       		.byte	0
 11338 3c56 00       		.byte	0
 11339 3c57 3B       		.uleb128 0x3b
 11340 3c58 08000000 		.4byte	.LVL24
 11341 3c5c 053B0000 		.4byte	0x3b05
 11342 3c60 30       		.uleb128 0x30
 11343 3c61 01       		.uleb128 0x1
ARM GAS  /tmp/ccTxpxgR.s 			page 200


 11344 3c62 50       		.byte	0x50
 11345 3c63 03       		.uleb128 0x3
 11346 3c64 F3       		.byte	0xf3
 11347 3c65 01       		.uleb128 0x1
 11348 3c66 50       		.byte	0x50
 11349 3c67 30       		.uleb128 0x30
 11350 3c68 01       		.uleb128 0x1
 11351 3c69 51       		.byte	0x51
 11352 3c6a 03       		.uleb128 0x3
 11353 3c6b F3       		.byte	0xf3
 11354 3c6c 01       		.uleb128 0x1
 11355 3c6d 51       		.byte	0x51
 11356 3c6e 00       		.byte	0
 11357 3c6f 00       		.byte	0
 11358 3c70 48       		.uleb128 0x48
 11359 3c71 EB150000 		.4byte	.LASF550
 11360 3c75 01       		.byte	0x1
 11361 3c76 93       		.byte	0x93
 11362 3c77 06       		.byte	0x6
 11363 3c78 00000000 		.4byte	.LFB154
 11364 3c7c 26000000 		.4byte	.LFE154-.LFB154
 11365 3c80 01       		.uleb128 0x1
 11366 3c81 9C       		.byte	0x9c
 11367 3c82 FE3C0000 		.4byte	0x3cfe
 11368 3c86 49       		.uleb128 0x49
 11369 3c87 B50F0000 		.4byte	.LASF542
 11370 3c8b 01       		.byte	0x1
 11371 3c8c 93       		.byte	0x93
 11372 3c8d 30       		.byte	0x30
 11373 3c8e 70380000 		.4byte	0x3870
 11374 3c92 540A0000 		.4byte	.LLST9
 11375 3c96 500A0000 		.4byte	.LVUS9
 11376 3c9a 49       		.uleb128 0x49
 11377 3c9b 3E110000 		.4byte	.LASF255
 11378 3c9f 01       		.byte	0x1
 11379 3ca0 93       		.byte	0x93
 11380 3ca1 3D       		.byte	0x3d
 11381 3ca2 2C000000 		.4byte	0x2c
 11382 3ca6 790A0000 		.4byte	.LLST10
 11383 3caa 750A0000 		.4byte	.LVUS10
 11384 3cae 38       		.uleb128 0x38
 11385 3caf 32010000 		.4byte	.LASF531
 11386 3cb3 0B300000 		.4byte	0x300b
 11387 3cb7 51       		.uleb128 0x51
 11388 3cb8 A83E0000 		.4byte	0x3ea8
 11389 3cbc 1E000000 		.4byte	.LBI302
 11390 3cc0 01       		.byte	.LVU98
 11391 3cc1 1E000000 		.4byte	.LBB302
 11392 3cc5 06000000 		.4byte	.LBE302-.LBB302
 11393 3cc9 01       		.byte	0x1
 11394 3cca A5       		.byte	0xa5
 11395 3ccb 03       		.byte	0x3
 11396 3ccc 2D       		.uleb128 0x2d
 11397 3ccd C33E0000 		.4byte	0x3ec3
 11398 3cd1 9C0A0000 		.4byte	.LLST11
 11399 3cd5 9A0A0000 		.4byte	.LVUS11
 11400 3cd9 2D       		.uleb128 0x2d
ARM GAS  /tmp/ccTxpxgR.s 			page 201


 11401 3cda B63E0000 		.4byte	0x3eb6
 11402 3cde B40A0000 		.4byte	.LLST12
 11403 3ce2 B00A0000 		.4byte	.LVUS12
 11404 3ce6 3B       		.uleb128 0x3b
 11405 3ce7 24000000 		.4byte	.LVL14
 11406 3ceb 00420000 		.4byte	0x4200
 11407 3cef 30       		.uleb128 0x30
 11408 3cf0 01       		.uleb128 0x1
 11409 3cf1 50       		.byte	0x50
 11410 3cf2 03       		.uleb128 0x3
 11411 3cf3 F3       		.byte	0xf3
 11412 3cf4 01       		.uleb128 0x1
 11413 3cf5 50       		.byte	0x50
 11414 3cf6 30       		.uleb128 0x30
 11415 3cf7 01       		.uleb128 0x1
 11416 3cf8 51       		.byte	0x51
 11417 3cf9 01       		.uleb128 0x1
 11418 3cfa 30       		.byte	0x30
 11419 3cfb 00       		.byte	0
 11420 3cfc 00       		.byte	0
 11421 3cfd 00       		.byte	0
 11422 3cfe 4F       		.uleb128 0x4f
 11423 3cff D0140000 		.4byte	.LASF551
 11424 3d03 01       		.byte	0x1
 11425 3d04 80       		.byte	0x80
 11426 3d05 0A       		.byte	0xa
 11427 3d06 45170000 		.4byte	0x1745
 11428 3d0a 00000000 		.4byte	.LFB153
 11429 3d0e 16000000 		.4byte	.LFE153-.LFB153
 11430 3d12 01       		.uleb128 0x1
 11431 3d13 9C       		.byte	0x9c
 11432 3d14 2D3D0000 		.4byte	0x3d2d
 11433 3d18 49       		.uleb128 0x49
 11434 3d19 B50F0000 		.4byte	.LASF542
 11435 3d1d 01       		.byte	0x1
 11436 3d1e 80       		.byte	0x80
 11437 3d1f 34       		.byte	0x34
 11438 3d20 70380000 		.4byte	0x3870
 11439 3d24 DD0A0000 		.4byte	.LLST8
 11440 3d28 D50A0000 		.4byte	.LVUS8
 11441 3d2c 00       		.byte	0
 11442 3d2d 48       		.uleb128 0x48
 11443 3d2e 58050000 		.4byte	.LASF552
 11444 3d32 01       		.byte	0x1
 11445 3d33 6A       		.byte	0x6a
 11446 3d34 06       		.byte	0x6
 11447 3d35 00000000 		.4byte	.LFB152
 11448 3d39 1A000000 		.4byte	.LFE152-.LFB152
 11449 3d3d 01       		.uleb128 0x1
 11450 3d3e 9C       		.byte	0x9c
 11451 3d3f 9B3D0000 		.4byte	0x3d9b
 11452 3d43 49       		.uleb128 0x49
 11453 3d44 B50F0000 		.4byte	.LASF542
 11454 3d48 01       		.byte	0x1
 11455 3d49 6A       		.byte	0x6a
 11456 3d4a 27       		.byte	0x27
 11457 3d4b 70380000 		.4byte	0x3870
ARM GAS  /tmp/ccTxpxgR.s 			page 202


 11458 3d4f 1B0B0000 		.4byte	.LLST5
 11459 3d53 170B0000 		.4byte	.LVUS5
 11460 3d57 39       		.uleb128 0x39
 11461 3d58 793E0000 		.4byte	0x3e79
 11462 3d5c 12000000 		.4byte	.LBI298
 11463 3d60 01       		.byte	.LVU62
 11464 3d61 28000000 		.4byte	.Ldebug_ranges0+0x28
 11465 3d65 01       		.byte	0x1
 11466 3d66 73       		.byte	0x73
 11467 3d67 03       		.byte	0x3
 11468 3d68 2D       		.uleb128 0x2d
 11469 3d69 943E0000 		.4byte	0x3e94
 11470 3d6d 3E0B0000 		.4byte	.LLST6
 11471 3d71 3C0B0000 		.4byte	.LVUS6
 11472 3d75 2D       		.uleb128 0x2d
 11473 3d76 873E0000 		.4byte	0x3e87
 11474 3d7a 570B0000 		.4byte	.LLST7
 11475 3d7e 530B0000 		.4byte	.LVUS7
 11476 3d82 3B       		.uleb128 0x3b
 11477 3d83 18000000 		.4byte	.LVL6
 11478 3d87 0C420000 		.4byte	0x420c
 11479 3d8b 30       		.uleb128 0x30
 11480 3d8c 01       		.uleb128 0x1
 11481 3d8d 50       		.byte	0x50
 11482 3d8e 03       		.uleb128 0x3
 11483 3d8f F3       		.byte	0xf3
 11484 3d90 01       		.uleb128 0x1
 11485 3d91 50       		.byte	0x50
 11486 3d92 30       		.uleb128 0x30
 11487 3d93 01       		.uleb128 0x1
 11488 3d94 51       		.byte	0x51
 11489 3d95 02       		.uleb128 0x2
 11490 3d96 09       		.byte	0x9
 11491 3d97 FE       		.byte	0xfe
 11492 3d98 00       		.byte	0
 11493 3d99 00       		.byte	0
 11494 3d9a 00       		.byte	0
 11495 3d9b 48       		.uleb128 0x48
 11496 3d9c F6130000 		.4byte	.LASF553
 11497 3da0 01       		.byte	0x1
 11498 3da1 4B       		.byte	0x4b
 11499 3da2 06       		.byte	0x6
 11500 3da3 00000000 		.4byte	.LFB151
 11501 3da7 2C000000 		.4byte	.LFE151-.LFB151
 11502 3dab 01       		.uleb128 0x1
 11503 3dac 9C       		.byte	0x9c
 11504 3dad 793E0000 		.4byte	0x3e79
 11505 3db1 52       		.uleb128 0x52
 11506 3db2 B50F0000 		.4byte	.LASF542
 11507 3db6 01       		.byte	0x1
 11508 3db7 4B       		.byte	0x4b
 11509 3db8 2B       		.byte	0x2b
 11510 3db9 70380000 		.4byte	0x3870
 11511 3dbd 01       		.uleb128 0x1
 11512 3dbe 50       		.byte	0x50
 11513 3dbf 53       		.uleb128 0x53
 11514 3dc0 627000   		.ascii	"bp\000"
ARM GAS  /tmp/ccTxpxgR.s 			page 203


 11515 3dc3 01       		.byte	0x1
 11516 3dc4 4B       		.byte	0x4b
 11517 3dc5 3A       		.byte	0x3a
 11518 3dc6 45170000 		.4byte	0x1745
 11519 3dca 01       		.uleb128 0x1
 11520 3dcb 51       		.byte	0x51
 11521 3dcc 49       		.uleb128 0x49
 11522 3dcd 3E110000 		.4byte	.LASF255
 11523 3dd1 01       		.byte	0x1
 11524 3dd2 4C       		.byte	0x4c
 11525 3dd3 1B       		.byte	0x1b
 11526 3dd4 2C000000 		.4byte	0x2c
 11527 3dd8 7C0B0000 		.4byte	.LLST0
 11528 3ddc 780B0000 		.4byte	.LVUS0
 11529 3de0 54       		.uleb128 0x54
 11530 3de1 6E00     		.ascii	"n\000"
 11531 3de3 01       		.byte	0x1
 11532 3de4 4C       		.byte	0x4c
 11533 3de5 28       		.byte	0x28
 11534 3de6 2C000000 		.4byte	0x2c
 11535 3dea A00B0000 		.4byte	.LLST1
 11536 3dee 9C0B0000 		.4byte	.LVUS1
 11537 3df2 52       		.uleb128 0x52
 11538 3df3 F8100000 		.4byte	.LASF554
 11539 3df7 01       		.byte	0x1
 11540 3df8 4D       		.byte	0x4d
 11541 3df9 1F       		.byte	0x1f
 11542 3dfa BD180000 		.4byte	0x18bd
 11543 3dfe 02       		.uleb128 0x2
 11544 3dff 91       		.byte	0x91
 11545 3e00 00       		.sleb128 0
 11546 3e01 52       		.uleb128 0x52
 11547 3e02 07060000 		.4byte	.LASF304
 11548 3e06 01       		.byte	0x1
 11549 3e07 4D       		.byte	0x4d
 11550 3e08 2B       		.byte	0x2b
 11551 3e09 75010000 		.4byte	0x175
 11552 3e0d 02       		.uleb128 0x2
 11553 3e0e 91       		.byte	0x91
 11554 3e0f 04       		.sleb128 4
 11555 3e10 38       		.uleb128 0x38
 11556 3e11 32010000 		.4byte	.LASF531
 11557 3e15 F6340000 		.4byte	0x34f6
 11558 3e19 39       		.uleb128 0x39
 11559 3e1a FE3E0000 		.4byte	0x3efe
 11560 3e1e 00000000 		.4byte	.LBI287
 11561 3e22 04       		.byte	.LVU4
 11562 3e23 00000000 		.4byte	.Ldebug_ranges0+0
 11563 3e27 01       		.byte	0x1
 11564 3e28 51       		.byte	0x51
 11565 3e29 03       		.byte	0x3
 11566 3e2a 2D       		.uleb128 0x2d
 11567 3e2b 0C3F0000 		.4byte	0x3f0c
 11568 3e2f C10B0000 		.4byte	.LLST2
 11569 3e33 BF0B0000 		.4byte	.LVUS2
 11570 3e37 2C       		.uleb128 0x2c
 11571 3e38 3C3F0000 		.4byte	0x3f3c
ARM GAS  /tmp/ccTxpxgR.s 			page 204


 11572 3e3c 00000000 		.4byte	.LBI288
 11573 3e40 06       		.byte	.LVU6
 11574 3e41 08000000 		.4byte	.Ldebug_ranges0+0x8
 11575 3e45 02       		.byte	0x2
 11576 3e46 F302     		.2byte	0x2f3
 11577 3e48 03       		.byte	0x3
 11578 3e49 2D       		.uleb128 0x2d
 11579 3e4a 4A3F0000 		.4byte	0x3f4a
 11580 3e4e D60B0000 		.4byte	.LLST3
 11581 3e52 D40B0000 		.4byte	.LVUS3
 11582 3e56 2C       		.uleb128 0x2c
 11583 3e57 9C3F0000 		.4byte	0x3f9c
 11584 3e5b 00000000 		.4byte	.LBI289
 11585 3e5f 08       		.byte	.LVU8
 11586 3e60 10000000 		.4byte	.Ldebug_ranges0+0x10
 11587 3e64 03       		.byte	0x3
 11588 3e65 8D01     		.2byte	0x18d
 11589 3e67 03       		.byte	0x3
 11590 3e68 2D       		.uleb128 0x2d
 11591 3e69 AA3F0000 		.4byte	0x3faa
 11592 3e6d EB0B0000 		.4byte	.LLST4
 11593 3e71 E90B0000 		.4byte	.LVUS4
 11594 3e75 00       		.byte	0
 11595 3e76 00       		.byte	0
 11596 3e77 00       		.byte	0
 11597 3e78 00       		.byte	0
 11598 3e79 55       		.uleb128 0x55
 11599 3e7a E90B0000 		.4byte	.LASF555
 11600 3e7e 02       		.byte	0x2
 11601 3e7f 2803     		.2byte	0x328
 11602 3e81 14       		.byte	0x14
 11603 3e82 03       		.byte	0x3
 11604 3e83 A23E0000 		.4byte	0x3ea2
 11605 3e87 56       		.uleb128 0x56
 11606 3e88 74717000 		.ascii	"tqp\000"
 11607 3e8c 02       		.byte	0x2
 11608 3e8d 2803     		.2byte	0x328
 11609 3e8f 3B       		.byte	0x3b
 11610 3e90 A23E0000 		.4byte	0x3ea2
 11611 3e94 56       		.uleb128 0x56
 11612 3e95 6D736700 		.ascii	"msg\000"
 11613 3e99 02       		.byte	0x2
 11614 3e9a 2803     		.2byte	0x328
 11615 3e9c 46       		.byte	0x46
 11616 3e9d F9090000 		.4byte	0x9f9
 11617 3ea1 00       		.byte	0
 11618 3ea2 06       		.uleb128 0x6
 11619 3ea3 04       		.byte	0x4
 11620 3ea4 4E0B0000 		.4byte	0xb4e
 11621 3ea8 55       		.uleb128 0x55
 11622 3ea9 C10F0000 		.4byte	.LASF556
 11623 3ead 02       		.byte	0x2
 11624 3eae 1B03     		.2byte	0x31b
 11625 3eb0 14       		.byte	0x14
 11626 3eb1 03       		.byte	0x3
 11627 3eb2 D13E0000 		.4byte	0x3ed1
 11628 3eb6 56       		.uleb128 0x56
ARM GAS  /tmp/ccTxpxgR.s 			page 205


 11629 3eb7 74717000 		.ascii	"tqp\000"
 11630 3ebb 02       		.byte	0x2
 11631 3ebc 1B03     		.2byte	0x31b
 11632 3ebe 3C       		.byte	0x3c
 11633 3ebf A23E0000 		.4byte	0x3ea2
 11634 3ec3 56       		.uleb128 0x56
 11635 3ec4 6D736700 		.ascii	"msg\000"
 11636 3ec8 02       		.byte	0x2
 11637 3ec9 1B03     		.2byte	0x31b
 11638 3ecb 47       		.byte	0x47
 11639 3ecc F9090000 		.4byte	0x9f9
 11640 3ed0 00       		.byte	0
 11641 3ed1 57       		.uleb128 0x57
 11642 3ed2 76010000 		.4byte	.LASF579
 11643 3ed6 02       		.byte	0x2
 11644 3ed7 0D03     		.2byte	0x30d
 11645 3ed9 15       		.byte	0x15
 11646 3eda F9090000 		.4byte	0x9f9
 11647 3ede 03       		.byte	0x3
 11648 3edf FE3E0000 		.4byte	0x3efe
 11649 3ee3 56       		.uleb128 0x56
 11650 3ee4 74717000 		.ascii	"tqp\000"
 11651 3ee8 02       		.byte	0x2
 11652 3ee9 0D03     		.2byte	0x30d
 11653 3eeb 40       		.byte	0x40
 11654 3eec A23E0000 		.4byte	0x3ea2
 11655 3ef0 3F       		.uleb128 0x3f
 11656 3ef1 C5060000 		.4byte	.LASF557
 11657 3ef5 02       		.byte	0x2
 11658 3ef6 0E03     		.2byte	0x30e
 11659 3ef8 39       		.byte	0x39
 11660 3ef9 290A0000 		.4byte	0xa29
 11661 3efd 00       		.byte	0
 11662 3efe 55       		.uleb128 0x55
 11663 3eff 82170000 		.4byte	.LASF558
 11664 3f03 02       		.byte	0x2
 11665 3f04 F102     		.2byte	0x2f1
 11666 3f06 14       		.byte	0x14
 11667 3f07 03       		.byte	0x3
 11668 3f08 1A3F0000 		.4byte	0x3f1a
 11669 3f0c 56       		.uleb128 0x56
 11670 3f0d 74717000 		.ascii	"tqp\000"
 11671 3f11 02       		.byte	0x2
 11672 3f12 F102     		.2byte	0x2f1
 11673 3f14 3F       		.byte	0x3f
 11674 3f15 A23E0000 		.4byte	0x3ea2
 11675 3f19 00       		.byte	0
 11676 3f1a 58       		.uleb128 0x58
 11677 3f1b 04140000 		.4byte	.LASF562
 11678 3f1f 02       		.byte	0x2
 11679 3f20 6802     		.2byte	0x268
 11680 3f22 19       		.byte	0x19
 11681 3f23 290A0000 		.4byte	0xa29
 11682 3f27 03       		.byte	0x3
 11683 3f28 59       		.uleb128 0x59
 11684 3f29 39020000 		.4byte	.LASF559
 11685 3f2d 02       		.byte	0x2
ARM GAS  /tmp/ccTxpxgR.s 			page 206


 11686 3f2e F601     		.2byte	0x1f6
 11687 3f30 14       		.byte	0x14
 11688 3f31 03       		.byte	0x3
 11689 3f32 59       		.uleb128 0x59
 11690 3f33 19020000 		.4byte	.LASF560
 11691 3f37 02       		.byte	0x2
 11692 3f38 EB01     		.2byte	0x1eb
 11693 3f3a 14       		.byte	0x14
 11694 3f3b 03       		.byte	0x3
 11695 3f3c 55       		.uleb128 0x55
 11696 3f3d 660F0000 		.4byte	.LASF561
 11697 3f41 03       		.byte	0x3
 11698 3f42 8B01     		.2byte	0x18b
 11699 3f44 14       		.byte	0x14
 11700 3f45 03       		.byte	0x3
 11701 3f46 583F0000 		.4byte	0x3f58
 11702 3f4a 56       		.uleb128 0x56
 11703 3f4b 74717000 		.ascii	"tqp\000"
 11704 3f4f 03       		.byte	0x3
 11705 3f50 8B01     		.2byte	0x18b
 11706 3f52 3A       		.byte	0x3a
 11707 3f53 A23E0000 		.4byte	0x3ea2
 11708 3f57 00       		.byte	0
 11709 3f58 5A       		.uleb128 0x5a
 11710 3f59 86100000 		.4byte	.LASF563
 11711 3f5d 08       		.byte	0x8
 11712 3f5e E4       		.byte	0xe4
 11713 3f5f 19       		.byte	0x19
 11714 3f60 290A0000 		.4byte	0xa29
 11715 3f64 03       		.byte	0x3
 11716 3f65 55       		.uleb128 0x55
 11717 3f66 9A090000 		.4byte	.LASF564
 11718 3f6a 05       		.byte	0x5
 11719 3f6b 8201     		.2byte	0x182
 11720 3f6d 14       		.byte	0x14
 11721 3f6e 03       		.byte	0x3
 11722 3f6f 7D3F0000 		.4byte	0x3f7d
 11723 3f73 38       		.uleb128 0x38
 11724 3f74 32010000 		.4byte	.LASF531
 11725 3f78 8D3F0000 		.4byte	0x3f8d
 11726 3f7c 00       		.byte	0
 11727 3f7d 0B       		.uleb128 0xb
 11728 3f7e 84010000 		.4byte	0x184
 11729 3f82 8D3F0000 		.4byte	0x3f8d
 11730 3f86 0C       		.uleb128 0xc
 11731 3f87 3D000000 		.4byte	0x3d
 11732 3f8b 0B       		.byte	0xb
 11733 3f8c 00       		.byte	0
 11734 3f8d 10       		.uleb128 0x10
 11735 3f8e 7D3F0000 		.4byte	0x3f7d
 11736 3f92 59       		.uleb128 0x59
 11737 3f93 DF090000 		.4byte	.LASF565
 11738 3f97 05       		.byte	0x5
 11739 3f98 7601     		.2byte	0x176
 11740 3f9a 14       		.byte	0x14
 11741 3f9b 03       		.byte	0x3
 11742 3f9c 55       		.uleb128 0x55
ARM GAS  /tmp/ccTxpxgR.s 			page 207


 11743 3f9d 62150000 		.4byte	.LASF566
 11744 3fa1 04       		.byte	0x4
 11745 3fa2 2402     		.2byte	0x224
 11746 3fa4 14       		.byte	0x14
 11747 3fa5 03       		.byte	0x3
 11748 3fa6 B83F0000 		.4byte	0x3fb8
 11749 3faa 56       		.uleb128 0x56
 11750 3fab 74717000 		.ascii	"tqp\000"
 11751 3faf 04       		.byte	0x4
 11752 3fb0 2402     		.2byte	0x224
 11753 3fb2 30       		.byte	0x30
 11754 3fb3 A23E0000 		.4byte	0x3ea2
 11755 3fb7 00       		.byte	0
 11756 3fb8 5A       		.uleb128 0x5a
 11757 3fb9 41080000 		.4byte	.LASF567
 11758 3fbd 09       		.byte	0x9
 11759 3fbe 69       		.byte	0x69
 11760 3fbf 19       		.byte	0x19
 11761 3fc0 290A0000 		.4byte	0xa29
 11762 3fc4 03       		.byte	0x3
 11763 3fc5 5A       		.uleb128 0x5a
 11764 3fc6 1C110000 		.4byte	.LASF568
 11765 3fca 0A       		.byte	0xa
 11766 3fcb 8B       		.byte	0x8b
 11767 3fcc 19       		.byte	0x19
 11768 3fcd 290A0000 		.4byte	0xa29
 11769 3fd1 03       		.byte	0x3
 11770 3fd2 59       		.uleb128 0x59
 11771 3fd3 29030000 		.4byte	.LASF569
 11772 3fd7 06       		.byte	0x6
 11773 3fd8 7C01     		.2byte	0x17c
 11774 3fda 14       		.byte	0x14
 11775 3fdb 03       		.byte	0x3
 11776 3fdc 59       		.uleb128 0x59
 11777 3fdd DC130000 		.4byte	.LASF570
 11778 3fe1 06       		.byte	0x6
 11779 3fe2 7301     		.2byte	0x173
 11780 3fe4 14       		.byte	0x14
 11781 3fe5 03       		.byte	0x3
 11782 3fe6 59       		.uleb128 0x59
 11783 3fe7 780B0000 		.4byte	.LASF571
 11784 3feb 07       		.byte	0x7
 11785 3fec 5601     		.2byte	0x156
 11786 3fee 39       		.byte	0x39
 11787 3fef 03       		.byte	0x3
 11788 3ff0 59       		.uleb128 0x59
 11789 3ff1 16070000 		.4byte	.LASF572
 11790 3ff5 07       		.byte	0x7
 11791 3ff6 4B01     		.2byte	0x14b
 11792 3ff8 39       		.byte	0x39
 11793 3ff9 03       		.byte	0x3
 11794 3ffa 5B       		.uleb128 0x5b
 11795 3ffb 053B0000 		.4byte	0x3b05
 11796 3fff 00000000 		.4byte	.LFB156
 11797 4003 2A000000 		.4byte	.LFE156-.LFB156
 11798 4007 01       		.uleb128 0x1
 11799 4008 9C       		.byte	0x9c
ARM GAS  /tmp/ccTxpxgR.s 			page 208


 11800 4009 C2400000 		.4byte	0x40c2
 11801 400d 2D       		.uleb128 0x2d
 11802 400e 163B0000 		.4byte	0x3b16
 11803 4012 040C0000 		.4byte	.LLST13
 11804 4016 FE0B0000 		.4byte	.LVUS13
 11805 401a 2D       		.uleb128 0x2d
 11806 401b 223B0000 		.4byte	0x3b22
 11807 401f 360C0000 		.4byte	.LLST14
 11808 4023 300C0000 		.4byte	.LVUS14
 11809 4027 5C       		.uleb128 0x5c
 11810 4028 08000000 		.4byte	.LBB312
 11811 402c 0C000000 		.4byte	.LBE312-.LBB312
 11812 4030 88400000 		.4byte	0x4088
 11813 4034 5D       		.uleb128 0x5d
 11814 4035 383B0000 		.4byte	0x3b38
 11815 4039 640C0000 		.4byte	.LLST15
 11816 403d 620C0000 		.4byte	.LVUS15
 11817 4041 51       		.uleb128 0x51
 11818 4042 D13E0000 		.4byte	0x3ed1
 11819 4046 08000000 		.4byte	.LBI313
 11820 404a 01       		.byte	.LVU111
 11821 404b 08000000 		.4byte	.LBB313
 11822 404f 08000000 		.4byte	.LBE313-.LBB313
 11823 4053 01       		.byte	0x1
 11824 4054 E1       		.byte	0xe1
 11825 4055 11       		.byte	0x11
 11826 4056 2D       		.uleb128 0x2d
 11827 4057 F03E0000 		.4byte	0x3ef0
 11828 405b 790C0000 		.4byte	.LLST16
 11829 405f 770C0000 		.4byte	.LVUS16
 11830 4063 2D       		.uleb128 0x2d
 11831 4064 E33E0000 		.4byte	0x3ee3
 11832 4068 8E0C0000 		.4byte	.LLST17
 11833 406c 8C0C0000 		.4byte	.LVUS17
 11834 4070 3B       		.uleb128 0x3b
 11835 4071 10000000 		.4byte	.LVL17
 11836 4075 18420000 		.4byte	0x4218
 11837 4079 30       		.uleb128 0x30
 11838 407a 01       		.uleb128 0x1
 11839 407b 50       		.byte	0x50
 11840 407c 02       		.uleb128 0x2
 11841 407d 74       		.byte	0x74
 11842 407e 00       		.sleb128 0
 11843 407f 30       		.uleb128 0x30
 11844 4080 01       		.uleb128 0x1
 11845 4081 51       		.byte	0x51
 11846 4082 02       		.uleb128 0x2
 11847 4083 75       		.byte	0x75
 11848 4084 00       		.sleb128 0
 11849 4085 00       		.byte	0
 11850 4086 00       		.byte	0
 11851 4087 00       		.byte	0
 11852 4088 51       		.uleb128 0x51
 11853 4089 053B0000 		.4byte	0x3b05
 11854 408d 1A000000 		.4byte	.LBI315
 11855 4091 00       		.byte	.LVU120
 11856 4092 1A000000 		.4byte	.LBB315
ARM GAS  /tmp/ccTxpxgR.s 			page 209


 11857 4096 0E000000 		.4byte	.LBE315-.LBB315
 11858 409a 01       		.byte	0x1
 11859 409b DB       		.byte	0xdb
 11860 409c 09       		.byte	0x9
 11861 409d 2D       		.uleb128 0x2d
 11862 409e 223B0000 		.4byte	0x3b22
 11863 40a2 A30C0000 		.4byte	.LLST18
 11864 40a6 A10C0000 		.4byte	.LVUS18
 11865 40aa 2D       		.uleb128 0x2d
 11866 40ab 163B0000 		.4byte	0x3b16
 11867 40af B80C0000 		.4byte	.LLST19
 11868 40b3 B60C0000 		.4byte	.LVUS19
 11869 40b7 5E       		.uleb128 0x5e
 11870 40b8 1A000000 		.4byte	.LBB316
 11871 40bc 0E000000 		.4byte	.LBE316-.LBB316
 11872 40c0 00       		.byte	0
 11873 40c1 00       		.byte	0
 11874 40c2 5B       		.uleb128 0x5b
 11875 40c3 D5390000 		.4byte	0x39d5
 11876 40c7 00000000 		.4byte	.LFB158
 11877 40cb 2A000000 		.4byte	.LFE158-.LFB158
 11878 40cf 01       		.uleb128 0x1
 11879 40d0 9C       		.byte	0x9c
 11880 40d1 F0400000 		.4byte	0x40f0
 11881 40d5 2D       		.uleb128 0x2d
 11882 40d6 E3390000 		.4byte	0x39e3
 11883 40da CF0C0000 		.4byte	.LLST25
 11884 40de CB0C0000 		.4byte	.LVUS25
 11885 40e2 2F       		.uleb128 0x2f
 11886 40e3 28000000 		.4byte	.LVL29
 11887 40e7 30       		.uleb128 0x30
 11888 40e8 01       		.uleb128 0x1
 11889 40e9 50       		.byte	0x50
 11890 40ea 03       		.uleb128 0x3
 11891 40eb F3       		.byte	0xf3
 11892 40ec 01       		.uleb128 0x1
 11893 40ed 50       		.byte	0x50
 11894 40ee 00       		.byte	0
 11895 40ef 00       		.byte	0
 11896 40f0 5B       		.uleb128 0x5b
 11897 40f1 42310000 		.4byte	0x3142
 11898 40f5 00000000 		.4byte	.LFB166
 11899 40f9 2C000000 		.4byte	.LFE166-.LFB166
 11900 40fd 01       		.uleb128 0x1
 11901 40fe 9C       		.byte	0x9c
 11902 40ff BA410000 		.4byte	0x41ba
 11903 4103 2D       		.uleb128 0x2d
 11904 4104 54310000 		.4byte	0x3154
 11905 4108 F60C0000 		.4byte	.LLST52
 11906 410c F00C0000 		.4byte	.LVUS52
 11907 4110 2D       		.uleb128 0x2d
 11908 4111 61310000 		.4byte	0x3161
 11909 4115 280D0000 		.4byte	.LLST53
 11910 4119 220D0000 		.4byte	.LVUS53
 11911 411d 5C       		.uleb128 0x5c
 11912 411e 08000000 		.4byte	.LBB540
 11913 4122 0C000000 		.4byte	.LBE540-.LBB540
ARM GAS  /tmp/ccTxpxgR.s 			page 210


 11914 4126 7F410000 		.4byte	0x417f
 11915 412a 5D       		.uleb128 0x5d
 11916 412b 78310000 		.4byte	0x3178
 11917 412f 560D0000 		.4byte	.LLST54
 11918 4133 540D0000 		.4byte	.LVUS54
 11919 4137 44       		.uleb128 0x44
 11920 4138 D13E0000 		.4byte	0x3ed1
 11921 413c 08000000 		.4byte	.LBI541
 11922 4140 01       		.byte	.LVU600
 11923 4141 08000000 		.4byte	.LBB541
 11924 4145 08000000 		.4byte	.LBE541-.LBB541
 11925 4149 01       		.byte	0x1
 11926 414a 5002     		.2byte	0x250
 11927 414c 11       		.byte	0x11
 11928 414d 2D       		.uleb128 0x2d
 11929 414e F03E0000 		.4byte	0x3ef0
 11930 4152 6B0D0000 		.4byte	.LLST55
 11931 4156 690D0000 		.4byte	.LVUS55
 11932 415a 2D       		.uleb128 0x2d
 11933 415b E33E0000 		.4byte	0x3ee3
 11934 415f 800D0000 		.4byte	.LLST56
 11935 4163 7E0D0000 		.4byte	.LVUS56
 11936 4167 3B       		.uleb128 0x3b
 11937 4168 10000000 		.4byte	.LVL88
 11938 416c 18420000 		.4byte	0x4218
 11939 4170 30       		.uleb128 0x30
 11940 4171 01       		.uleb128 0x1
 11941 4172 50       		.byte	0x50
 11942 4173 02       		.uleb128 0x2
 11943 4174 74       		.byte	0x74
 11944 4175 00       		.sleb128 0
 11945 4176 30       		.uleb128 0x30
 11946 4177 01       		.uleb128 0x1
 11947 4178 51       		.byte	0x51
 11948 4179 02       		.uleb128 0x2
 11949 417a 75       		.byte	0x75
 11950 417b 00       		.sleb128 0
 11951 417c 00       		.byte	0
 11952 417d 00       		.byte	0
 11953 417e 00       		.byte	0
 11954 417f 44       		.uleb128 0x44
 11955 4180 42310000 		.4byte	0x3142
 11956 4184 1A000000 		.4byte	.LBI543
 11957 4188 00       		.byte	.LVU609
 11958 4189 1A000000 		.4byte	.LBB543
 11959 418d 10000000 		.4byte	.LBE543-.LBB543
 11960 4191 01       		.byte	0x1
 11961 4192 4A02     		.2byte	0x24a
 11962 4194 09       		.byte	0x9
 11963 4195 2D       		.uleb128 0x2d
 11964 4196 61310000 		.4byte	0x3161
 11965 419a 950D0000 		.4byte	.LLST57
 11966 419e 930D0000 		.4byte	.LVUS57
 11967 41a2 2D       		.uleb128 0x2d
 11968 41a3 54310000 		.4byte	0x3154
 11969 41a7 AA0D0000 		.4byte	.LLST58
 11970 41ab A80D0000 		.4byte	.LVUS58
ARM GAS  /tmp/ccTxpxgR.s 			page 211


 11971 41af 5E       		.uleb128 0x5e
 11972 41b0 1A000000 		.4byte	.LBB544
 11973 41b4 10000000 		.4byte	.LBE544-.LBB544
 11974 41b8 00       		.byte	0
 11975 41b9 00       		.byte	0
 11976 41ba 5B       		.uleb128 0x5b
 11977 41bb C92F0000 		.4byte	0x2fc9
 11978 41bf 00000000 		.4byte	.LFB168
 11979 41c3 2C000000 		.4byte	.LFE168-.LFB168
 11980 41c7 01       		.uleb128 0x1
 11981 41c8 9C       		.byte	0x9c
 11982 41c9 F5410000 		.4byte	0x41f5
 11983 41cd 2D       		.uleb128 0x2d
 11984 41ce D72F0000 		.4byte	0x2fd7
 11985 41d2 C10D0000 		.4byte	.LLST66
 11986 41d6 BD0D0000 		.4byte	.LVUS66
 11987 41da 2D       		.uleb128 0x2d
 11988 41db E42F0000 		.4byte	0x2fe4
 11989 41df E60D0000 		.4byte	.LLST67
 11990 41e3 E20D0000 		.4byte	.LVUS67
 11991 41e7 2F       		.uleb128 0x2f
 11992 41e8 2A000000 		.4byte	.LVL100
 11993 41ec 30       		.uleb128 0x30
 11994 41ed 01       		.uleb128 0x1
 11995 41ee 50       		.byte	0x50
 11996 41ef 03       		.uleb128 0x3
 11997 41f0 F3       		.byte	0xf3
 11998 41f1 01       		.uleb128 0x1
 11999 41f2 50       		.byte	0x50
 12000 41f3 00       		.byte	0
 12001 41f4 00       		.byte	0
 12002 41f5 5F       		.uleb128 0x5f
 12003 41f6 AE0C0000 		.4byte	.LASF580
 12004 41fa 47020000 		.4byte	.LASF581
 12005 41fe 2F       		.byte	0x2f
 12006 41ff 00       		.byte	0
 12007 4200 60       		.uleb128 0x60
 12008 4201 980D0000 		.4byte	.LASF573
 12009 4205 980D0000 		.4byte	.LASF573
 12010 4209 03       		.byte	0x3
 12011 420a FE       		.byte	0xfe
 12012 420b 08       		.byte	0x8
 12013 420c 60       		.uleb128 0x60
 12014 420d B6000000 		.4byte	.LASF574
 12015 4211 B6000000 		.4byte	.LASF574
 12016 4215 03       		.byte	0x3
 12017 4216 FF       		.byte	0xff
 12018 4217 08       		.byte	0x8
 12019 4218 60       		.uleb128 0x60
 12020 4219 CA060000 		.4byte	.LASF575
 12021 421d CA060000 		.4byte	.LASF575
 12022 4221 03       		.byte	0x3
 12023 4222 FD       		.byte	0xfd
 12024 4223 09       		.byte	0x9
 12025 4224 00       		.byte	0
 12026              		.section	.debug_abbrev,"",%progbits
 12027              	.Ldebug_abbrev0:
ARM GAS  /tmp/ccTxpxgR.s 			page 212


 12028 0000 01       		.uleb128 0x1
 12029 0001 11       		.uleb128 0x11
 12030 0002 01       		.byte	0x1
 12031 0003 25       		.uleb128 0x25
 12032 0004 0E       		.uleb128 0xe
 12033 0005 13       		.uleb128 0x13
 12034 0006 0B       		.uleb128 0xb
 12035 0007 03       		.uleb128 0x3
 12036 0008 0E       		.uleb128 0xe
 12037 0009 1B       		.uleb128 0x1b
 12038 000a 0E       		.uleb128 0xe
 12039 000b 55       		.uleb128 0x55
 12040 000c 17       		.uleb128 0x17
 12041 000d 11       		.uleb128 0x11
 12042 000e 01       		.uleb128 0x1
 12043 000f 10       		.uleb128 0x10
 12044 0010 17       		.uleb128 0x17
 12045 0011 00       		.byte	0
 12046 0012 00       		.byte	0
 12047 0013 02       		.uleb128 0x2
 12048 0014 24       		.uleb128 0x24
 12049 0015 00       		.byte	0
 12050 0016 0B       		.uleb128 0xb
 12051 0017 0B       		.uleb128 0xb
 12052 0018 3E       		.uleb128 0x3e
 12053 0019 0B       		.uleb128 0xb
 12054 001a 03       		.uleb128 0x3
 12055 001b 08       		.uleb128 0x8
 12056 001c 00       		.byte	0
 12057 001d 00       		.byte	0
 12058 001e 03       		.uleb128 0x3
 12059 001f 16       		.uleb128 0x16
 12060 0020 00       		.byte	0
 12061 0021 03       		.uleb128 0x3
 12062 0022 0E       		.uleb128 0xe
 12063 0023 3A       		.uleb128 0x3a
 12064 0024 0B       		.uleb128 0xb
 12065 0025 3B       		.uleb128 0x3b
 12066 0026 0B       		.uleb128 0xb
 12067 0027 39       		.uleb128 0x39
 12068 0028 0B       		.uleb128 0xb
 12069 0029 49       		.uleb128 0x49
 12070 002a 13       		.uleb128 0x13
 12071 002b 00       		.byte	0
 12072 002c 00       		.byte	0
 12073 002d 04       		.uleb128 0x4
 12074 002e 35       		.uleb128 0x35
 12075 002f 00       		.byte	0
 12076 0030 49       		.uleb128 0x49
 12077 0031 13       		.uleb128 0x13
 12078 0032 00       		.byte	0
 12079 0033 00       		.byte	0
 12080 0034 05       		.uleb128 0x5
 12081 0035 24       		.uleb128 0x24
 12082 0036 00       		.byte	0
 12083 0037 0B       		.uleb128 0xb
 12084 0038 0B       		.uleb128 0xb
ARM GAS  /tmp/ccTxpxgR.s 			page 213


 12085 0039 3E       		.uleb128 0x3e
 12086 003a 0B       		.uleb128 0xb
 12087 003b 03       		.uleb128 0x3
 12088 003c 0E       		.uleb128 0xe
 12089 003d 00       		.byte	0
 12090 003e 00       		.byte	0
 12091 003f 06       		.uleb128 0x6
 12092 0040 0F       		.uleb128 0xf
 12093 0041 00       		.byte	0
 12094 0042 0B       		.uleb128 0xb
 12095 0043 0B       		.uleb128 0xb
 12096 0044 49       		.uleb128 0x49
 12097 0045 13       		.uleb128 0x13
 12098 0046 00       		.byte	0
 12099 0047 00       		.byte	0
 12100 0048 07       		.uleb128 0x7
 12101 0049 13       		.uleb128 0x13
 12102 004a 00       		.byte	0
 12103 004b 03       		.uleb128 0x3
 12104 004c 0E       		.uleb128 0xe
 12105 004d 3C       		.uleb128 0x3c
 12106 004e 19       		.uleb128 0x19
 12107 004f 00       		.byte	0
 12108 0050 00       		.byte	0
 12109 0051 08       		.uleb128 0x8
 12110 0052 16       		.uleb128 0x16
 12111 0053 00       		.byte	0
 12112 0054 03       		.uleb128 0x3
 12113 0055 0E       		.uleb128 0xe
 12114 0056 3A       		.uleb128 0x3a
 12115 0057 0B       		.uleb128 0xb
 12116 0058 3B       		.uleb128 0x3b
 12117 0059 05       		.uleb128 0x5
 12118 005a 39       		.uleb128 0x39
 12119 005b 0B       		.uleb128 0xb
 12120 005c 49       		.uleb128 0x49
 12121 005d 13       		.uleb128 0x13
 12122 005e 00       		.byte	0
 12123 005f 00       		.byte	0
 12124 0060 09       		.uleb128 0x9
 12125 0061 17       		.uleb128 0x17
 12126 0062 01       		.byte	0x1
 12127 0063 0B       		.uleb128 0xb
 12128 0064 0B       		.uleb128 0xb
 12129 0065 3A       		.uleb128 0x3a
 12130 0066 0B       		.uleb128 0xb
 12131 0067 3B       		.uleb128 0x3b
 12132 0068 0B       		.uleb128 0xb
 12133 0069 39       		.uleb128 0x39
 12134 006a 0B       		.uleb128 0xb
 12135 006b 01       		.uleb128 0x1
 12136 006c 13       		.uleb128 0x13
 12137 006d 00       		.byte	0
 12138 006e 00       		.byte	0
 12139 006f 0A       		.uleb128 0xa
 12140 0070 0D       		.uleb128 0xd
 12141 0071 00       		.byte	0
ARM GAS  /tmp/ccTxpxgR.s 			page 214


 12142 0072 03       		.uleb128 0x3
 12143 0073 0E       		.uleb128 0xe
 12144 0074 3A       		.uleb128 0x3a
 12145 0075 0B       		.uleb128 0xb
 12146 0076 3B       		.uleb128 0x3b
 12147 0077 0B       		.uleb128 0xb
 12148 0078 39       		.uleb128 0x39
 12149 0079 0B       		.uleb128 0xb
 12150 007a 49       		.uleb128 0x49
 12151 007b 13       		.uleb128 0x13
 12152 007c 00       		.byte	0
 12153 007d 00       		.byte	0
 12154 007e 0B       		.uleb128 0xb
 12155 007f 01       		.uleb128 0x1
 12156 0080 01       		.byte	0x1
 12157 0081 49       		.uleb128 0x49
 12158 0082 13       		.uleb128 0x13
 12159 0083 01       		.uleb128 0x1
 12160 0084 13       		.uleb128 0x13
 12161 0085 00       		.byte	0
 12162 0086 00       		.byte	0
 12163 0087 0C       		.uleb128 0xc
 12164 0088 21       		.uleb128 0x21
 12165 0089 00       		.byte	0
 12166 008a 49       		.uleb128 0x49
 12167 008b 13       		.uleb128 0x13
 12168 008c 2F       		.uleb128 0x2f
 12169 008d 0B       		.uleb128 0xb
 12170 008e 00       		.byte	0
 12171 008f 00       		.byte	0
 12172 0090 0D       		.uleb128 0xd
 12173 0091 13       		.uleb128 0x13
 12174 0092 01       		.byte	0x1
 12175 0093 0B       		.uleb128 0xb
 12176 0094 0B       		.uleb128 0xb
 12177 0095 3A       		.uleb128 0x3a
 12178 0096 0B       		.uleb128 0xb
 12179 0097 3B       		.uleb128 0x3b
 12180 0098 0B       		.uleb128 0xb
 12181 0099 39       		.uleb128 0x39
 12182 009a 0B       		.uleb128 0xb
 12183 009b 01       		.uleb128 0x1
 12184 009c 13       		.uleb128 0x13
 12185 009d 00       		.byte	0
 12186 009e 00       		.byte	0
 12187 009f 0E       		.uleb128 0xe
 12188 00a0 0D       		.uleb128 0xd
 12189 00a1 00       		.byte	0
 12190 00a2 03       		.uleb128 0x3
 12191 00a3 0E       		.uleb128 0xe
 12192 00a4 3A       		.uleb128 0x3a
 12193 00a5 0B       		.uleb128 0xb
 12194 00a6 3B       		.uleb128 0x3b
 12195 00a7 0B       		.uleb128 0xb
 12196 00a8 39       		.uleb128 0x39
 12197 00a9 0B       		.uleb128 0xb
 12198 00aa 49       		.uleb128 0x49
ARM GAS  /tmp/ccTxpxgR.s 			page 215


 12199 00ab 13       		.uleb128 0x13
 12200 00ac 38       		.uleb128 0x38
 12201 00ad 0B       		.uleb128 0xb
 12202 00ae 00       		.byte	0
 12203 00af 00       		.byte	0
 12204 00b0 0F       		.uleb128 0xf
 12205 00b1 0F       		.uleb128 0xf
 12206 00b2 00       		.byte	0
 12207 00b3 0B       		.uleb128 0xb
 12208 00b4 0B       		.uleb128 0xb
 12209 00b5 00       		.byte	0
 12210 00b6 00       		.byte	0
 12211 00b7 10       		.uleb128 0x10
 12212 00b8 26       		.uleb128 0x26
 12213 00b9 00       		.byte	0
 12214 00ba 49       		.uleb128 0x49
 12215 00bb 13       		.uleb128 0x13
 12216 00bc 00       		.byte	0
 12217 00bd 00       		.byte	0
 12218 00be 11       		.uleb128 0x11
 12219 00bf 13       		.uleb128 0x13
 12220 00c0 01       		.byte	0x1
 12221 00c1 03       		.uleb128 0x3
 12222 00c2 0E       		.uleb128 0xe
 12223 00c3 0B       		.uleb128 0xb
 12224 00c4 0B       		.uleb128 0xb
 12225 00c5 3A       		.uleb128 0x3a
 12226 00c6 0B       		.uleb128 0xb
 12227 00c7 3B       		.uleb128 0x3b
 12228 00c8 0B       		.uleb128 0xb
 12229 00c9 39       		.uleb128 0x39
 12230 00ca 0B       		.uleb128 0xb
 12231 00cb 01       		.uleb128 0x1
 12232 00cc 13       		.uleb128 0x13
 12233 00cd 00       		.byte	0
 12234 00ce 00       		.byte	0
 12235 00cf 12       		.uleb128 0x12
 12236 00d0 0D       		.uleb128 0xd
 12237 00d1 00       		.byte	0
 12238 00d2 03       		.uleb128 0x3
 12239 00d3 08       		.uleb128 0x8
 12240 00d4 3A       		.uleb128 0x3a
 12241 00d5 0B       		.uleb128 0xb
 12242 00d6 3B       		.uleb128 0x3b
 12243 00d7 0B       		.uleb128 0xb
 12244 00d8 39       		.uleb128 0x39
 12245 00d9 0B       		.uleb128 0xb
 12246 00da 49       		.uleb128 0x49
 12247 00db 13       		.uleb128 0x13
 12248 00dc 38       		.uleb128 0x38
 12249 00dd 0B       		.uleb128 0xb
 12250 00de 00       		.byte	0
 12251 00df 00       		.byte	0
 12252 00e0 13       		.uleb128 0x13
 12253 00e1 13       		.uleb128 0x13
 12254 00e2 01       		.byte	0x1
 12255 00e3 03       		.uleb128 0x3
ARM GAS  /tmp/ccTxpxgR.s 			page 216


 12256 00e4 0E       		.uleb128 0xe
 12257 00e5 0B       		.uleb128 0xb
 12258 00e6 05       		.uleb128 0x5
 12259 00e7 3A       		.uleb128 0x3a
 12260 00e8 0B       		.uleb128 0xb
 12261 00e9 3B       		.uleb128 0x3b
 12262 00ea 0B       		.uleb128 0xb
 12263 00eb 39       		.uleb128 0x39
 12264 00ec 0B       		.uleb128 0xb
 12265 00ed 01       		.uleb128 0x1
 12266 00ee 13       		.uleb128 0x13
 12267 00ef 00       		.byte	0
 12268 00f0 00       		.byte	0
 12269 00f1 14       		.uleb128 0x14
 12270 00f2 0D       		.uleb128 0xd
 12271 00f3 00       		.byte	0
 12272 00f4 03       		.uleb128 0x3
 12273 00f5 0E       		.uleb128 0xe
 12274 00f6 3A       		.uleb128 0x3a
 12275 00f7 0B       		.uleb128 0xb
 12276 00f8 3B       		.uleb128 0x3b
 12277 00f9 0B       		.uleb128 0xb
 12278 00fa 39       		.uleb128 0x39
 12279 00fb 0B       		.uleb128 0xb
 12280 00fc 49       		.uleb128 0x49
 12281 00fd 13       		.uleb128 0x13
 12282 00fe 38       		.uleb128 0x38
 12283 00ff 05       		.uleb128 0x5
 12284 0100 00       		.byte	0
 12285 0101 00       		.byte	0
 12286 0102 15       		.uleb128 0x15
 12287 0103 15       		.uleb128 0x15
 12288 0104 00       		.byte	0
 12289 0105 27       		.uleb128 0x27
 12290 0106 19       		.uleb128 0x19
 12291 0107 00       		.byte	0
 12292 0108 00       		.byte	0
 12293 0109 16       		.uleb128 0x16
 12294 010a 13       		.uleb128 0x13
 12295 010b 01       		.byte	0x1
 12296 010c 03       		.uleb128 0x3
 12297 010d 0E       		.uleb128 0xe
 12298 010e 0B       		.uleb128 0xb
 12299 010f 0B       		.uleb128 0xb
 12300 0110 3A       		.uleb128 0x3a
 12301 0111 0B       		.uleb128 0xb
 12302 0112 3B       		.uleb128 0x3b
 12303 0113 05       		.uleb128 0x5
 12304 0114 39       		.uleb128 0x39
 12305 0115 0B       		.uleb128 0xb
 12306 0116 01       		.uleb128 0x1
 12307 0117 13       		.uleb128 0x13
 12308 0118 00       		.byte	0
 12309 0119 00       		.byte	0
 12310 011a 17       		.uleb128 0x17
 12311 011b 0D       		.uleb128 0xd
 12312 011c 00       		.byte	0
ARM GAS  /tmp/ccTxpxgR.s 			page 217


 12313 011d 03       		.uleb128 0x3
 12314 011e 0E       		.uleb128 0xe
 12315 011f 3A       		.uleb128 0x3a
 12316 0120 0B       		.uleb128 0xb
 12317 0121 3B       		.uleb128 0x3b
 12318 0122 05       		.uleb128 0x5
 12319 0123 39       		.uleb128 0x39
 12320 0124 0B       		.uleb128 0xb
 12321 0125 49       		.uleb128 0x49
 12322 0126 13       		.uleb128 0x13
 12323 0127 38       		.uleb128 0x38
 12324 0128 0B       		.uleb128 0xb
 12325 0129 00       		.byte	0
 12326 012a 00       		.byte	0
 12327 012b 18       		.uleb128 0x18
 12328 012c 0D       		.uleb128 0xd
 12329 012d 00       		.byte	0
 12330 012e 03       		.uleb128 0x3
 12331 012f 08       		.uleb128 0x8
 12332 0130 3A       		.uleb128 0x3a
 12333 0131 0B       		.uleb128 0xb
 12334 0132 3B       		.uleb128 0x3b
 12335 0133 05       		.uleb128 0x5
 12336 0134 39       		.uleb128 0x39
 12337 0135 0B       		.uleb128 0xb
 12338 0136 49       		.uleb128 0x49
 12339 0137 13       		.uleb128 0x13
 12340 0138 38       		.uleb128 0x38
 12341 0139 0B       		.uleb128 0xb
 12342 013a 00       		.byte	0
 12343 013b 00       		.byte	0
 12344 013c 19       		.uleb128 0x19
 12345 013d 15       		.uleb128 0x15
 12346 013e 01       		.byte	0x1
 12347 013f 27       		.uleb128 0x27
 12348 0140 19       		.uleb128 0x19
 12349 0141 49       		.uleb128 0x49
 12350 0142 13       		.uleb128 0x13
 12351 0143 01       		.uleb128 0x1
 12352 0144 13       		.uleb128 0x13
 12353 0145 00       		.byte	0
 12354 0146 00       		.byte	0
 12355 0147 1A       		.uleb128 0x1a
 12356 0148 05       		.uleb128 0x5
 12357 0149 00       		.byte	0
 12358 014a 49       		.uleb128 0x49
 12359 014b 13       		.uleb128 0x13
 12360 014c 00       		.byte	0
 12361 014d 00       		.byte	0
 12362 014e 1B       		.uleb128 0x1b
 12363 014f 15       		.uleb128 0x15
 12364 0150 01       		.byte	0x1
 12365 0151 27       		.uleb128 0x27
 12366 0152 19       		.uleb128 0x19
 12367 0153 01       		.uleb128 0x1
 12368 0154 13       		.uleb128 0x13
 12369 0155 00       		.byte	0
ARM GAS  /tmp/ccTxpxgR.s 			page 218


 12370 0156 00       		.byte	0
 12371 0157 1C       		.uleb128 0x1c
 12372 0158 34       		.uleb128 0x34
 12373 0159 00       		.byte	0
 12374 015a 03       		.uleb128 0x3
 12375 015b 0E       		.uleb128 0xe
 12376 015c 3A       		.uleb128 0x3a
 12377 015d 0B       		.uleb128 0xb
 12378 015e 3B       		.uleb128 0x3b
 12379 015f 05       		.uleb128 0x5
 12380 0160 39       		.uleb128 0x39
 12381 0161 0B       		.uleb128 0xb
 12382 0162 49       		.uleb128 0x49
 12383 0163 13       		.uleb128 0x13
 12384 0164 3F       		.uleb128 0x3f
 12385 0165 19       		.uleb128 0x19
 12386 0166 3C       		.uleb128 0x3c
 12387 0167 19       		.uleb128 0x19
 12388 0168 00       		.byte	0
 12389 0169 00       		.byte	0
 12390 016a 1D       		.uleb128 0x1d
 12391 016b 34       		.uleb128 0x34
 12392 016c 00       		.byte	0
 12393 016d 03       		.uleb128 0x3
 12394 016e 0E       		.uleb128 0xe
 12395 016f 3A       		.uleb128 0x3a
 12396 0170 0B       		.uleb128 0xb
 12397 0171 3B       		.uleb128 0x3b
 12398 0172 0B       		.uleb128 0xb
 12399 0173 39       		.uleb128 0x39
 12400 0174 0B       		.uleb128 0xb
 12401 0175 49       		.uleb128 0x49
 12402 0176 13       		.uleb128 0x13
 12403 0177 3F       		.uleb128 0x3f
 12404 0178 19       		.uleb128 0x19
 12405 0179 3C       		.uleb128 0x3c
 12406 017a 19       		.uleb128 0x19
 12407 017b 00       		.byte	0
 12408 017c 00       		.byte	0
 12409 017d 1E       		.uleb128 0x1e
 12410 017e 13       		.uleb128 0x13
 12411 017f 01       		.byte	0x1
 12412 0180 0B       		.uleb128 0xb
 12413 0181 0B       		.uleb128 0xb
 12414 0182 3A       		.uleb128 0x3a
 12415 0183 0B       		.uleb128 0xb
 12416 0184 3B       		.uleb128 0x3b
 12417 0185 05       		.uleb128 0x5
 12418 0186 39       		.uleb128 0x39
 12419 0187 0B       		.uleb128 0xb
 12420 0188 01       		.uleb128 0x1
 12421 0189 13       		.uleb128 0x13
 12422 018a 00       		.byte	0
 12423 018b 00       		.byte	0
 12424 018c 1F       		.uleb128 0x1f
 12425 018d 0D       		.uleb128 0xd
 12426 018e 00       		.byte	0
ARM GAS  /tmp/ccTxpxgR.s 			page 219


 12427 018f 03       		.uleb128 0x3
 12428 0190 0E       		.uleb128 0xe
 12429 0191 3A       		.uleb128 0x3a
 12430 0192 0B       		.uleb128 0xb
 12431 0193 3B       		.uleb128 0x3b
 12432 0194 05       		.uleb128 0x5
 12433 0195 39       		.uleb128 0x39
 12434 0196 0B       		.uleb128 0xb
 12435 0197 49       		.uleb128 0x49
 12436 0198 13       		.uleb128 0x13
 12437 0199 00       		.byte	0
 12438 019a 00       		.byte	0
 12439 019b 20       		.uleb128 0x20
 12440 019c 34       		.uleb128 0x34
 12441 019d 00       		.byte	0
 12442 019e 03       		.uleb128 0x3
 12443 019f 08       		.uleb128 0x8
 12444 01a0 3A       		.uleb128 0x3a
 12445 01a1 0B       		.uleb128 0xb
 12446 01a2 3B       		.uleb128 0x3b
 12447 01a3 05       		.uleb128 0x5
 12448 01a4 39       		.uleb128 0x39
 12449 01a5 0B       		.uleb128 0xb
 12450 01a6 49       		.uleb128 0x49
 12451 01a7 13       		.uleb128 0x13
 12452 01a8 3F       		.uleb128 0x3f
 12453 01a9 19       		.uleb128 0x19
 12454 01aa 3C       		.uleb128 0x3c
 12455 01ab 19       		.uleb128 0x19
 12456 01ac 00       		.byte	0
 12457 01ad 00       		.byte	0
 12458 01ae 21       		.uleb128 0x21
 12459 01af 21       		.uleb128 0x21
 12460 01b0 00       		.byte	0
 12461 01b1 00       		.byte	0
 12462 01b2 00       		.byte	0
 12463 01b3 22       		.uleb128 0x22
 12464 01b4 0D       		.uleb128 0xd
 12465 01b5 00       		.byte	0
 12466 01b6 03       		.uleb128 0x3
 12467 01b7 08       		.uleb128 0x8
 12468 01b8 3A       		.uleb128 0x3a
 12469 01b9 0B       		.uleb128 0xb
 12470 01ba 3B       		.uleb128 0x3b
 12471 01bb 0B       		.uleb128 0xb
 12472 01bc 39       		.uleb128 0x39
 12473 01bd 0B       		.uleb128 0xb
 12474 01be 49       		.uleb128 0x49
 12475 01bf 13       		.uleb128 0x13
 12476 01c0 00       		.byte	0
 12477 01c1 00       		.byte	0
 12478 01c2 23       		.uleb128 0x23
 12479 01c3 04       		.uleb128 0x4
 12480 01c4 01       		.byte	0x1
 12481 01c5 3E       		.uleb128 0x3e
 12482 01c6 0B       		.uleb128 0xb
 12483 01c7 0B       		.uleb128 0xb
ARM GAS  /tmp/ccTxpxgR.s 			page 220


 12484 01c8 0B       		.uleb128 0xb
 12485 01c9 49       		.uleb128 0x49
 12486 01ca 13       		.uleb128 0x13
 12487 01cb 3A       		.uleb128 0x3a
 12488 01cc 0B       		.uleb128 0xb
 12489 01cd 3B       		.uleb128 0x3b
 12490 01ce 0B       		.uleb128 0xb
 12491 01cf 39       		.uleb128 0x39
 12492 01d0 0B       		.uleb128 0xb
 12493 01d1 01       		.uleb128 0x1
 12494 01d2 13       		.uleb128 0x13
 12495 01d3 00       		.byte	0
 12496 01d4 00       		.byte	0
 12497 01d5 24       		.uleb128 0x24
 12498 01d6 28       		.uleb128 0x28
 12499 01d7 00       		.byte	0
 12500 01d8 03       		.uleb128 0x3
 12501 01d9 0E       		.uleb128 0xe
 12502 01da 1C       		.uleb128 0x1c
 12503 01db 0B       		.uleb128 0xb
 12504 01dc 00       		.byte	0
 12505 01dd 00       		.byte	0
 12506 01de 25       		.uleb128 0x25
 12507 01df 13       		.uleb128 0x13
 12508 01e0 01       		.byte	0x1
 12509 01e1 0B       		.uleb128 0xb
 12510 01e2 05       		.uleb128 0x5
 12511 01e3 3A       		.uleb128 0x3a
 12512 01e4 0B       		.uleb128 0xb
 12513 01e5 3B       		.uleb128 0x3b
 12514 01e6 0B       		.uleb128 0xb
 12515 01e7 39       		.uleb128 0x39
 12516 01e8 0B       		.uleb128 0xb
 12517 01e9 01       		.uleb128 0x1
 12518 01ea 13       		.uleb128 0x13
 12519 01eb 00       		.byte	0
 12520 01ec 00       		.byte	0
 12521 01ed 26       		.uleb128 0x26
 12522 01ee 26       		.uleb128 0x26
 12523 01ef 00       		.byte	0
 12524 01f0 00       		.byte	0
 12525 01f1 00       		.byte	0
 12526 01f2 27       		.uleb128 0x27
 12527 01f3 04       		.uleb128 0x4
 12528 01f4 01       		.byte	0x1
 12529 01f5 3E       		.uleb128 0x3e
 12530 01f6 0B       		.uleb128 0xb
 12531 01f7 0B       		.uleb128 0xb
 12532 01f8 0B       		.uleb128 0xb
 12533 01f9 49       		.uleb128 0x49
 12534 01fa 13       		.uleb128 0x13
 12535 01fb 3A       		.uleb128 0x3a
 12536 01fc 0B       		.uleb128 0xb
 12537 01fd 3B       		.uleb128 0x3b
 12538 01fe 05       		.uleb128 0x5
 12539 01ff 39       		.uleb128 0x39
 12540 0200 0B       		.uleb128 0xb
ARM GAS  /tmp/ccTxpxgR.s 			page 221


 12541 0201 01       		.uleb128 0x1
 12542 0202 13       		.uleb128 0x13
 12543 0203 00       		.byte	0
 12544 0204 00       		.byte	0
 12545 0205 28       		.uleb128 0x28
 12546 0206 2E       		.uleb128 0x2e
 12547 0207 01       		.byte	0x1
 12548 0208 3F       		.uleb128 0x3f
 12549 0209 19       		.uleb128 0x19
 12550 020a 03       		.uleb128 0x3
 12551 020b 0E       		.uleb128 0xe
 12552 020c 3A       		.uleb128 0x3a
 12553 020d 0B       		.uleb128 0xb
 12554 020e 3B       		.uleb128 0x3b
 12555 020f 05       		.uleb128 0x5
 12556 0210 39       		.uleb128 0x39
 12557 0211 0B       		.uleb128 0xb
 12558 0212 27       		.uleb128 0x27
 12559 0213 19       		.uleb128 0x19
 12560 0214 11       		.uleb128 0x11
 12561 0215 01       		.uleb128 0x1
 12562 0216 12       		.uleb128 0x12
 12563 0217 06       		.uleb128 0x6
 12564 0218 40       		.uleb128 0x40
 12565 0219 18       		.uleb128 0x18
 12566 021a 9742     		.uleb128 0x2117
 12567 021c 19       		.uleb128 0x19
 12568 021d 01       		.uleb128 0x1
 12569 021e 13       		.uleb128 0x13
 12570 021f 00       		.byte	0
 12571 0220 00       		.byte	0
 12572 0221 29       		.uleb128 0x29
 12573 0222 05       		.uleb128 0x5
 12574 0223 00       		.byte	0
 12575 0224 03       		.uleb128 0x3
 12576 0225 0E       		.uleb128 0xe
 12577 0226 3A       		.uleb128 0x3a
 12578 0227 0B       		.uleb128 0xb
 12579 0228 3B       		.uleb128 0x3b
 12580 0229 05       		.uleb128 0x5
 12581 022a 39       		.uleb128 0x39
 12582 022b 0B       		.uleb128 0xb
 12583 022c 49       		.uleb128 0x49
 12584 022d 13       		.uleb128 0x13
 12585 022e 02       		.uleb128 0x2
 12586 022f 17       		.uleb128 0x17
 12587 0230 B742     		.uleb128 0x2137
 12588 0232 17       		.uleb128 0x17
 12589 0233 00       		.byte	0
 12590 0234 00       		.byte	0
 12591 0235 2A       		.uleb128 0x2a
 12592 0236 0B       		.uleb128 0xb
 12593 0237 01       		.byte	0x1
 12594 0238 55       		.uleb128 0x55
 12595 0239 17       		.uleb128 0x17
 12596 023a 01       		.uleb128 0x1
 12597 023b 13       		.uleb128 0x13
ARM GAS  /tmp/ccTxpxgR.s 			page 222


 12598 023c 00       		.byte	0
 12599 023d 00       		.byte	0
 12600 023e 2B       		.uleb128 0x2b
 12601 023f 34       		.uleb128 0x34
 12602 0240 00       		.byte	0
 12603 0241 03       		.uleb128 0x3
 12604 0242 0E       		.uleb128 0xe
 12605 0243 3A       		.uleb128 0x3a
 12606 0244 0B       		.uleb128 0xb
 12607 0245 3B       		.uleb128 0x3b
 12608 0246 05       		.uleb128 0x5
 12609 0247 39       		.uleb128 0x39
 12610 0248 0B       		.uleb128 0xb
 12611 0249 49       		.uleb128 0x49
 12612 024a 13       		.uleb128 0x13
 12613 024b 02       		.uleb128 0x2
 12614 024c 17       		.uleb128 0x17
 12615 024d B742     		.uleb128 0x2137
 12616 024f 17       		.uleb128 0x17
 12617 0250 00       		.byte	0
 12618 0251 00       		.byte	0
 12619 0252 2C       		.uleb128 0x2c
 12620 0253 1D       		.uleb128 0x1d
 12621 0254 01       		.byte	0x1
 12622 0255 31       		.uleb128 0x31
 12623 0256 13       		.uleb128 0x13
 12624 0257 52       		.uleb128 0x52
 12625 0258 01       		.uleb128 0x1
 12626 0259 B842     		.uleb128 0x2138
 12627 025b 0B       		.uleb128 0xb
 12628 025c 55       		.uleb128 0x55
 12629 025d 17       		.uleb128 0x17
 12630 025e 58       		.uleb128 0x58
 12631 025f 0B       		.uleb128 0xb
 12632 0260 59       		.uleb128 0x59
 12633 0261 05       		.uleb128 0x5
 12634 0262 57       		.uleb128 0x57
 12635 0263 0B       		.uleb128 0xb
 12636 0264 00       		.byte	0
 12637 0265 00       		.byte	0
 12638 0266 2D       		.uleb128 0x2d
 12639 0267 05       		.uleb128 0x5
 12640 0268 00       		.byte	0
 12641 0269 31       		.uleb128 0x31
 12642 026a 13       		.uleb128 0x13
 12643 026b 02       		.uleb128 0x2
 12644 026c 17       		.uleb128 0x17
 12645 026d B742     		.uleb128 0x2137
 12646 026f 17       		.uleb128 0x17
 12647 0270 00       		.byte	0
 12648 0271 00       		.byte	0
 12649 0272 2E       		.uleb128 0x2e
 12650 0273 0B       		.uleb128 0xb
 12651 0274 01       		.byte	0x1
 12652 0275 55       		.uleb128 0x55
 12653 0276 17       		.uleb128 0x17
 12654 0277 00       		.byte	0
ARM GAS  /tmp/ccTxpxgR.s 			page 223


 12655 0278 00       		.byte	0
 12656 0279 2F       		.uleb128 0x2f
 12657 027a 898201   		.uleb128 0x4109
 12658 027d 01       		.byte	0x1
 12659 027e 11       		.uleb128 0x11
 12660 027f 01       		.uleb128 0x1
 12661 0280 00       		.byte	0
 12662 0281 00       		.byte	0
 12663 0282 30       		.uleb128 0x30
 12664 0283 8A8201   		.uleb128 0x410a
 12665 0286 00       		.byte	0
 12666 0287 02       		.uleb128 0x2
 12667 0288 18       		.uleb128 0x18
 12668 0289 9142     		.uleb128 0x2111
 12669 028b 18       		.uleb128 0x18
 12670 028c 00       		.byte	0
 12671 028d 00       		.byte	0
 12672 028e 31       		.uleb128 0x31
 12673 028f 1D       		.uleb128 0x1d
 12674 0290 01       		.byte	0x1
 12675 0291 31       		.uleb128 0x31
 12676 0292 13       		.uleb128 0x13
 12677 0293 52       		.uleb128 0x52
 12678 0294 01       		.uleb128 0x1
 12679 0295 B842     		.uleb128 0x2138
 12680 0297 0B       		.uleb128 0xb
 12681 0298 55       		.uleb128 0x55
 12682 0299 17       		.uleb128 0x17
 12683 029a 58       		.uleb128 0x58
 12684 029b 0B       		.uleb128 0xb
 12685 029c 59       		.uleb128 0x59
 12686 029d 05       		.uleb128 0x5
 12687 029e 57       		.uleb128 0x57
 12688 029f 0B       		.uleb128 0xb
 12689 02a0 01       		.uleb128 0x1
 12690 02a1 13       		.uleb128 0x13
 12691 02a2 00       		.byte	0
 12692 02a3 00       		.byte	0
 12693 02a4 32       		.uleb128 0x32
 12694 02a5 1D       		.uleb128 0x1d
 12695 02a6 00       		.byte	0
 12696 02a7 31       		.uleb128 0x31
 12697 02a8 13       		.uleb128 0x13
 12698 02a9 52       		.uleb128 0x52
 12699 02aa 01       		.uleb128 0x1
 12700 02ab B842     		.uleb128 0x2138
 12701 02ad 0B       		.uleb128 0xb
 12702 02ae 55       		.uleb128 0x55
 12703 02af 17       		.uleb128 0x17
 12704 02b0 58       		.uleb128 0x58
 12705 02b1 0B       		.uleb128 0xb
 12706 02b2 59       		.uleb128 0x59
 12707 02b3 05       		.uleb128 0x5
 12708 02b4 57       		.uleb128 0x57
 12709 02b5 0B       		.uleb128 0xb
 12710 02b6 00       		.byte	0
 12711 02b7 00       		.byte	0
ARM GAS  /tmp/ccTxpxgR.s 			page 224


 12712 02b8 33       		.uleb128 0x33
 12713 02b9 1D       		.uleb128 0x1d
 12714 02ba 00       		.byte	0
 12715 02bb 31       		.uleb128 0x31
 12716 02bc 13       		.uleb128 0x13
 12717 02bd 52       		.uleb128 0x52
 12718 02be 01       		.uleb128 0x1
 12719 02bf B842     		.uleb128 0x2138
 12720 02c1 0B       		.uleb128 0xb
 12721 02c2 11       		.uleb128 0x11
 12722 02c3 01       		.uleb128 0x1
 12723 02c4 12       		.uleb128 0x12
 12724 02c5 06       		.uleb128 0x6
 12725 02c6 58       		.uleb128 0x58
 12726 02c7 0B       		.uleb128 0xb
 12727 02c8 59       		.uleb128 0x59
 12728 02c9 05       		.uleb128 0x5
 12729 02ca 57       		.uleb128 0x57
 12730 02cb 0B       		.uleb128 0xb
 12731 02cc 00       		.byte	0
 12732 02cd 00       		.byte	0
 12733 02ce 34       		.uleb128 0x34
 12734 02cf 2E       		.uleb128 0x2e
 12735 02d0 01       		.byte	0x1
 12736 02d1 3F       		.uleb128 0x3f
 12737 02d2 19       		.uleb128 0x19
 12738 02d3 03       		.uleb128 0x3
 12739 02d4 0E       		.uleb128 0xe
 12740 02d5 3A       		.uleb128 0x3a
 12741 02d6 0B       		.uleb128 0xb
 12742 02d7 3B       		.uleb128 0x3b
 12743 02d8 05       		.uleb128 0x5
 12744 02d9 39       		.uleb128 0x39
 12745 02da 0B       		.uleb128 0xb
 12746 02db 27       		.uleb128 0x27
 12747 02dc 19       		.uleb128 0x19
 12748 02dd 49       		.uleb128 0x49
 12749 02de 13       		.uleb128 0x13
 12750 02df 11       		.uleb128 0x11
 12751 02e0 01       		.uleb128 0x1
 12752 02e1 12       		.uleb128 0x12
 12753 02e2 06       		.uleb128 0x6
 12754 02e3 40       		.uleb128 0x40
 12755 02e4 18       		.uleb128 0x18
 12756 02e5 9742     		.uleb128 0x2117
 12757 02e7 19       		.uleb128 0x19
 12758 02e8 01       		.uleb128 0x1
 12759 02e9 13       		.uleb128 0x13
 12760 02ea 00       		.byte	0
 12761 02eb 00       		.byte	0
 12762 02ec 35       		.uleb128 0x35
 12763 02ed 0B       		.uleb128 0xb
 12764 02ee 01       		.byte	0x1
 12765 02ef 11       		.uleb128 0x11
 12766 02f0 01       		.uleb128 0x1
 12767 02f1 12       		.uleb128 0x12
 12768 02f2 06       		.uleb128 0x6
ARM GAS  /tmp/ccTxpxgR.s 			page 225


 12769 02f3 00       		.byte	0
 12770 02f4 00       		.byte	0
 12771 02f5 36       		.uleb128 0x36
 12772 02f6 05       		.uleb128 0x5
 12773 02f7 00       		.byte	0
 12774 02f8 03       		.uleb128 0x3
 12775 02f9 08       		.uleb128 0x8
 12776 02fa 3A       		.uleb128 0x3a
 12777 02fb 0B       		.uleb128 0xb
 12778 02fc 3B       		.uleb128 0x3b
 12779 02fd 05       		.uleb128 0x5
 12780 02fe 39       		.uleb128 0x39
 12781 02ff 0B       		.uleb128 0xb
 12782 0300 49       		.uleb128 0x49
 12783 0301 13       		.uleb128 0x13
 12784 0302 02       		.uleb128 0x2
 12785 0303 17       		.uleb128 0x17
 12786 0304 B742     		.uleb128 0x2137
 12787 0306 17       		.uleb128 0x17
 12788 0307 00       		.byte	0
 12789 0308 00       		.byte	0
 12790 0309 37       		.uleb128 0x37
 12791 030a 34       		.uleb128 0x34
 12792 030b 00       		.byte	0
 12793 030c 03       		.uleb128 0x3
 12794 030d 08       		.uleb128 0x8
 12795 030e 3A       		.uleb128 0x3a
 12796 030f 0B       		.uleb128 0xb
 12797 0310 3B       		.uleb128 0x3b
 12798 0311 05       		.uleb128 0x5
 12799 0312 39       		.uleb128 0x39
 12800 0313 0B       		.uleb128 0xb
 12801 0314 49       		.uleb128 0x49
 12802 0315 13       		.uleb128 0x13
 12803 0316 02       		.uleb128 0x2
 12804 0317 17       		.uleb128 0x17
 12805 0318 B742     		.uleb128 0x2137
 12806 031a 17       		.uleb128 0x17
 12807 031b 00       		.byte	0
 12808 031c 00       		.byte	0
 12809 031d 38       		.uleb128 0x38
 12810 031e 34       		.uleb128 0x34
 12811 031f 00       		.byte	0
 12812 0320 03       		.uleb128 0x3
 12813 0321 0E       		.uleb128 0xe
 12814 0322 49       		.uleb128 0x49
 12815 0323 13       		.uleb128 0x13
 12816 0324 34       		.uleb128 0x34
 12817 0325 19       		.uleb128 0x19
 12818 0326 00       		.byte	0
 12819 0327 00       		.byte	0
 12820 0328 39       		.uleb128 0x39
 12821 0329 1D       		.uleb128 0x1d
 12822 032a 01       		.byte	0x1
 12823 032b 31       		.uleb128 0x31
 12824 032c 13       		.uleb128 0x13
 12825 032d 52       		.uleb128 0x52
ARM GAS  /tmp/ccTxpxgR.s 			page 226


 12826 032e 01       		.uleb128 0x1
 12827 032f B842     		.uleb128 0x2138
 12828 0331 0B       		.uleb128 0xb
 12829 0332 55       		.uleb128 0x55
 12830 0333 17       		.uleb128 0x17
 12831 0334 58       		.uleb128 0x58
 12832 0335 0B       		.uleb128 0xb
 12833 0336 59       		.uleb128 0x59
 12834 0337 0B       		.uleb128 0xb
 12835 0338 57       		.uleb128 0x57
 12836 0339 0B       		.uleb128 0xb
 12837 033a 00       		.byte	0
 12838 033b 00       		.byte	0
 12839 033c 3A       		.uleb128 0x3a
 12840 033d 1D       		.uleb128 0x1d
 12841 033e 00       		.byte	0
 12842 033f 31       		.uleb128 0x31
 12843 0340 13       		.uleb128 0x13
 12844 0341 52       		.uleb128 0x52
 12845 0342 01       		.uleb128 0x1
 12846 0343 B842     		.uleb128 0x2138
 12847 0345 0B       		.uleb128 0xb
 12848 0346 55       		.uleb128 0x55
 12849 0347 17       		.uleb128 0x17
 12850 0348 58       		.uleb128 0x58
 12851 0349 0B       		.uleb128 0xb
 12852 034a 59       		.uleb128 0x59
 12853 034b 0B       		.uleb128 0xb
 12854 034c 57       		.uleb128 0x57
 12855 034d 0B       		.uleb128 0xb
 12856 034e 00       		.byte	0
 12857 034f 00       		.byte	0
 12858 0350 3B       		.uleb128 0x3b
 12859 0351 898201   		.uleb128 0x4109
 12860 0354 01       		.byte	0x1
 12861 0355 11       		.uleb128 0x11
 12862 0356 01       		.uleb128 0x1
 12863 0357 31       		.uleb128 0x31
 12864 0358 13       		.uleb128 0x13
 12865 0359 00       		.byte	0
 12866 035a 00       		.byte	0
 12867 035b 3C       		.uleb128 0x3c
 12868 035c 898201   		.uleb128 0x4109
 12869 035f 01       		.byte	0x1
 12870 0360 11       		.uleb128 0x11
 12871 0361 01       		.uleb128 0x1
 12872 0362 31       		.uleb128 0x31
 12873 0363 13       		.uleb128 0x13
 12874 0364 01       		.uleb128 0x1
 12875 0365 13       		.uleb128 0x13
 12876 0366 00       		.byte	0
 12877 0367 00       		.byte	0
 12878 0368 3D       		.uleb128 0x3d
 12879 0369 1D       		.uleb128 0x1d
 12880 036a 00       		.byte	0
 12881 036b 31       		.uleb128 0x31
 12882 036c 13       		.uleb128 0x13
ARM GAS  /tmp/ccTxpxgR.s 			page 227


 12883 036d 52       		.uleb128 0x52
 12884 036e 01       		.uleb128 0x1
 12885 036f B842     		.uleb128 0x2138
 12886 0371 0B       		.uleb128 0xb
 12887 0372 11       		.uleb128 0x11
 12888 0373 01       		.uleb128 0x1
 12889 0374 12       		.uleb128 0x12
 12890 0375 06       		.uleb128 0x6
 12891 0376 58       		.uleb128 0x58
 12892 0377 0B       		.uleb128 0xb
 12893 0378 59       		.uleb128 0x59
 12894 0379 0B       		.uleb128 0xb
 12895 037a 57       		.uleb128 0x57
 12896 037b 0B       		.uleb128 0xb
 12897 037c 00       		.byte	0
 12898 037d 00       		.byte	0
 12899 037e 3E       		.uleb128 0x3e
 12900 037f 2E       		.uleb128 0x2e
 12901 0380 01       		.byte	0x1
 12902 0381 3F       		.uleb128 0x3f
 12903 0382 19       		.uleb128 0x19
 12904 0383 03       		.uleb128 0x3
 12905 0384 0E       		.uleb128 0xe
 12906 0385 3A       		.uleb128 0x3a
 12907 0386 0B       		.uleb128 0xb
 12908 0387 3B       		.uleb128 0x3b
 12909 0388 05       		.uleb128 0x5
 12910 0389 39       		.uleb128 0x39
 12911 038a 0B       		.uleb128 0xb
 12912 038b 27       		.uleb128 0x27
 12913 038c 19       		.uleb128 0x19
 12914 038d 20       		.uleb128 0x20
 12915 038e 0B       		.uleb128 0xb
 12916 038f 01       		.uleb128 0x1
 12917 0390 13       		.uleb128 0x13
 12918 0391 00       		.byte	0
 12919 0392 00       		.byte	0
 12920 0393 3F       		.uleb128 0x3f
 12921 0394 05       		.uleb128 0x5
 12922 0395 00       		.byte	0
 12923 0396 03       		.uleb128 0x3
 12924 0397 0E       		.uleb128 0xe
 12925 0398 3A       		.uleb128 0x3a
 12926 0399 0B       		.uleb128 0xb
 12927 039a 3B       		.uleb128 0x3b
 12928 039b 05       		.uleb128 0x5
 12929 039c 39       		.uleb128 0x39
 12930 039d 0B       		.uleb128 0xb
 12931 039e 49       		.uleb128 0x49
 12932 039f 13       		.uleb128 0x13
 12933 03a0 00       		.byte	0
 12934 03a1 00       		.byte	0
 12935 03a2 40       		.uleb128 0x40
 12936 03a3 1D       		.uleb128 0x1d
 12937 03a4 01       		.byte	0x1
 12938 03a5 31       		.uleb128 0x31
 12939 03a6 13       		.uleb128 0x13
ARM GAS  /tmp/ccTxpxgR.s 			page 228


 12940 03a7 52       		.uleb128 0x52
 12941 03a8 01       		.uleb128 0x1
 12942 03a9 B842     		.uleb128 0x2138
 12943 03ab 0B       		.uleb128 0xb
 12944 03ac 11       		.uleb128 0x11
 12945 03ad 01       		.uleb128 0x1
 12946 03ae 12       		.uleb128 0x12
 12947 03af 06       		.uleb128 0x6
 12948 03b0 58       		.uleb128 0x58
 12949 03b1 0B       		.uleb128 0xb
 12950 03b2 59       		.uleb128 0x59
 12951 03b3 05       		.uleb128 0x5
 12952 03b4 57       		.uleb128 0x57
 12953 03b5 0B       		.uleb128 0xb
 12954 03b6 01       		.uleb128 0x1
 12955 03b7 13       		.uleb128 0x13
 12956 03b8 00       		.byte	0
 12957 03b9 00       		.byte	0
 12958 03ba 41       		.uleb128 0x41
 12959 03bb 2E       		.uleb128 0x2e
 12960 03bc 01       		.byte	0x1
 12961 03bd 3F       		.uleb128 0x3f
 12962 03be 19       		.uleb128 0x19
 12963 03bf 03       		.uleb128 0x3
 12964 03c0 0E       		.uleb128 0xe
 12965 03c1 3A       		.uleb128 0x3a
 12966 03c2 0B       		.uleb128 0xb
 12967 03c3 3B       		.uleb128 0x3b
 12968 03c4 05       		.uleb128 0x5
 12969 03c5 39       		.uleb128 0x39
 12970 03c6 0B       		.uleb128 0xb
 12971 03c7 27       		.uleb128 0x27
 12972 03c8 19       		.uleb128 0x19
 12973 03c9 49       		.uleb128 0x49
 12974 03ca 13       		.uleb128 0x13
 12975 03cb 20       		.uleb128 0x20
 12976 03cc 0B       		.uleb128 0xb
 12977 03cd 01       		.uleb128 0x1
 12978 03ce 13       		.uleb128 0x13
 12979 03cf 00       		.byte	0
 12980 03d0 00       		.byte	0
 12981 03d1 42       		.uleb128 0x42
 12982 03d2 0B       		.uleb128 0xb
 12983 03d3 01       		.byte	0x1
 12984 03d4 00       		.byte	0
 12985 03d5 00       		.byte	0
 12986 03d6 43       		.uleb128 0x43
 12987 03d7 34       		.uleb128 0x34
 12988 03d8 00       		.byte	0
 12989 03d9 03       		.uleb128 0x3
 12990 03da 08       		.uleb128 0x8
 12991 03db 3A       		.uleb128 0x3a
 12992 03dc 0B       		.uleb128 0xb
 12993 03dd 3B       		.uleb128 0x3b
 12994 03de 05       		.uleb128 0x5
 12995 03df 39       		.uleb128 0x39
 12996 03e0 0B       		.uleb128 0xb
ARM GAS  /tmp/ccTxpxgR.s 			page 229


 12997 03e1 49       		.uleb128 0x49
 12998 03e2 13       		.uleb128 0x13
 12999 03e3 00       		.byte	0
 13000 03e4 00       		.byte	0
 13001 03e5 44       		.uleb128 0x44
 13002 03e6 1D       		.uleb128 0x1d
 13003 03e7 01       		.byte	0x1
 13004 03e8 31       		.uleb128 0x31
 13005 03e9 13       		.uleb128 0x13
 13006 03ea 52       		.uleb128 0x52
 13007 03eb 01       		.uleb128 0x1
 13008 03ec B842     		.uleb128 0x2138
 13009 03ee 0B       		.uleb128 0xb
 13010 03ef 11       		.uleb128 0x11
 13011 03f0 01       		.uleb128 0x1
 13012 03f1 12       		.uleb128 0x12
 13013 03f2 06       		.uleb128 0x6
 13014 03f3 58       		.uleb128 0x58
 13015 03f4 0B       		.uleb128 0xb
 13016 03f5 59       		.uleb128 0x59
 13017 03f6 05       		.uleb128 0x5
 13018 03f7 57       		.uleb128 0x57
 13019 03f8 0B       		.uleb128 0xb
 13020 03f9 00       		.byte	0
 13021 03fa 00       		.byte	0
 13022 03fb 45       		.uleb128 0x45
 13023 03fc 05       		.uleb128 0x5
 13024 03fd 00       		.byte	0
 13025 03fe 03       		.uleb128 0x3
 13026 03ff 0E       		.uleb128 0xe
 13027 0400 3A       		.uleb128 0x3a
 13028 0401 0B       		.uleb128 0xb
 13029 0402 3B       		.uleb128 0x3b
 13030 0403 05       		.uleb128 0x5
 13031 0404 39       		.uleb128 0x39
 13032 0405 0B       		.uleb128 0xb
 13033 0406 49       		.uleb128 0x49
 13034 0407 13       		.uleb128 0x13
 13035 0408 02       		.uleb128 0x2
 13036 0409 18       		.uleb128 0x18
 13037 040a 00       		.byte	0
 13038 040b 00       		.byte	0
 13039 040c 46       		.uleb128 0x46
 13040 040d 05       		.uleb128 0x5
 13041 040e 00       		.byte	0
 13042 040f 03       		.uleb128 0x3
 13043 0410 08       		.uleb128 0x8
 13044 0411 3A       		.uleb128 0x3a
 13045 0412 0B       		.uleb128 0xb
 13046 0413 3B       		.uleb128 0x3b
 13047 0414 05       		.uleb128 0x5
 13048 0415 39       		.uleb128 0x39
 13049 0416 0B       		.uleb128 0xb
 13050 0417 49       		.uleb128 0x49
 13051 0418 13       		.uleb128 0x13
 13052 0419 02       		.uleb128 0x2
 13053 041a 18       		.uleb128 0x18
ARM GAS  /tmp/ccTxpxgR.s 			page 230


 13054 041b 00       		.byte	0
 13055 041c 00       		.byte	0
 13056 041d 47       		.uleb128 0x47
 13057 041e 898201   		.uleb128 0x4109
 13058 0421 00       		.byte	0
 13059 0422 11       		.uleb128 0x11
 13060 0423 01       		.uleb128 0x1
 13061 0424 31       		.uleb128 0x31
 13062 0425 13       		.uleb128 0x13
 13063 0426 00       		.byte	0
 13064 0427 00       		.byte	0
 13065 0428 48       		.uleb128 0x48
 13066 0429 2E       		.uleb128 0x2e
 13067 042a 01       		.byte	0x1
 13068 042b 3F       		.uleb128 0x3f
 13069 042c 19       		.uleb128 0x19
 13070 042d 03       		.uleb128 0x3
 13071 042e 0E       		.uleb128 0xe
 13072 042f 3A       		.uleb128 0x3a
 13073 0430 0B       		.uleb128 0xb
 13074 0431 3B       		.uleb128 0x3b
 13075 0432 0B       		.uleb128 0xb
 13076 0433 39       		.uleb128 0x39
 13077 0434 0B       		.uleb128 0xb
 13078 0435 27       		.uleb128 0x27
 13079 0436 19       		.uleb128 0x19
 13080 0437 11       		.uleb128 0x11
 13081 0438 01       		.uleb128 0x1
 13082 0439 12       		.uleb128 0x12
 13083 043a 06       		.uleb128 0x6
 13084 043b 40       		.uleb128 0x40
 13085 043c 18       		.uleb128 0x18
 13086 043d 9742     		.uleb128 0x2117
 13087 043f 19       		.uleb128 0x19
 13088 0440 01       		.uleb128 0x1
 13089 0441 13       		.uleb128 0x13
 13090 0442 00       		.byte	0
 13091 0443 00       		.byte	0
 13092 0444 49       		.uleb128 0x49
 13093 0445 05       		.uleb128 0x5
 13094 0446 00       		.byte	0
 13095 0447 03       		.uleb128 0x3
 13096 0448 0E       		.uleb128 0xe
 13097 0449 3A       		.uleb128 0x3a
 13098 044a 0B       		.uleb128 0xb
 13099 044b 3B       		.uleb128 0x3b
 13100 044c 0B       		.uleb128 0xb
 13101 044d 39       		.uleb128 0x39
 13102 044e 0B       		.uleb128 0xb
 13103 044f 49       		.uleb128 0x49
 13104 0450 13       		.uleb128 0x13
 13105 0451 02       		.uleb128 0x2
 13106 0452 17       		.uleb128 0x17
 13107 0453 B742     		.uleb128 0x2137
 13108 0455 17       		.uleb128 0x17
 13109 0456 00       		.byte	0
 13110 0457 00       		.byte	0
ARM GAS  /tmp/ccTxpxgR.s 			page 231


 13111 0458 4A       		.uleb128 0x4a
 13112 0459 1D       		.uleb128 0x1d
 13113 045a 01       		.byte	0x1
 13114 045b 31       		.uleb128 0x31
 13115 045c 13       		.uleb128 0x13
 13116 045d 52       		.uleb128 0x52
 13117 045e 01       		.uleb128 0x1
 13118 045f B842     		.uleb128 0x2138
 13119 0461 0B       		.uleb128 0xb
 13120 0462 55       		.uleb128 0x55
 13121 0463 17       		.uleb128 0x17
 13122 0464 58       		.uleb128 0x58
 13123 0465 0B       		.uleb128 0xb
 13124 0466 59       		.uleb128 0x59
 13125 0467 0B       		.uleb128 0xb
 13126 0468 57       		.uleb128 0x57
 13127 0469 0B       		.uleb128 0xb
 13128 046a 01       		.uleb128 0x1
 13129 046b 13       		.uleb128 0x13
 13130 046c 00       		.byte	0
 13131 046d 00       		.byte	0
 13132 046e 4B       		.uleb128 0x4b
 13133 046f 1D       		.uleb128 0x1d
 13134 0470 01       		.byte	0x1
 13135 0471 31       		.uleb128 0x31
 13136 0472 13       		.uleb128 0x13
 13137 0473 52       		.uleb128 0x52
 13138 0474 01       		.uleb128 0x1
 13139 0475 B842     		.uleb128 0x2138
 13140 0477 0B       		.uleb128 0xb
 13141 0478 11       		.uleb128 0x11
 13142 0479 01       		.uleb128 0x1
 13143 047a 12       		.uleb128 0x12
 13144 047b 06       		.uleb128 0x6
 13145 047c 58       		.uleb128 0x58
 13146 047d 0B       		.uleb128 0xb
 13147 047e 59       		.uleb128 0x59
 13148 047f 0B       		.uleb128 0xb
 13149 0480 57       		.uleb128 0x57
 13150 0481 0B       		.uleb128 0xb
 13151 0482 01       		.uleb128 0x1
 13152 0483 13       		.uleb128 0x13
 13153 0484 00       		.byte	0
 13154 0485 00       		.byte	0
 13155 0486 4C       		.uleb128 0x4c
 13156 0487 2E       		.uleb128 0x2e
 13157 0488 01       		.byte	0x1
 13158 0489 3F       		.uleb128 0x3f
 13159 048a 19       		.uleb128 0x19
 13160 048b 03       		.uleb128 0x3
 13161 048c 0E       		.uleb128 0xe
 13162 048d 3A       		.uleb128 0x3a
 13163 048e 0B       		.uleb128 0xb
 13164 048f 3B       		.uleb128 0x3b
 13165 0490 0B       		.uleb128 0xb
 13166 0491 39       		.uleb128 0x39
 13167 0492 0B       		.uleb128 0xb
ARM GAS  /tmp/ccTxpxgR.s 			page 232


 13168 0493 27       		.uleb128 0x27
 13169 0494 19       		.uleb128 0x19
 13170 0495 49       		.uleb128 0x49
 13171 0496 13       		.uleb128 0x13
 13172 0497 20       		.uleb128 0x20
 13173 0498 0B       		.uleb128 0xb
 13174 0499 01       		.uleb128 0x1
 13175 049a 13       		.uleb128 0x13
 13176 049b 00       		.byte	0
 13177 049c 00       		.byte	0
 13178 049d 4D       		.uleb128 0x4d
 13179 049e 05       		.uleb128 0x5
 13180 049f 00       		.byte	0
 13181 04a0 03       		.uleb128 0x3
 13182 04a1 0E       		.uleb128 0xe
 13183 04a2 3A       		.uleb128 0x3a
 13184 04a3 0B       		.uleb128 0xb
 13185 04a4 3B       		.uleb128 0x3b
 13186 04a5 0B       		.uleb128 0xb
 13187 04a6 39       		.uleb128 0x39
 13188 04a7 0B       		.uleb128 0xb
 13189 04a8 49       		.uleb128 0x49
 13190 04a9 13       		.uleb128 0x13
 13191 04aa 00       		.byte	0
 13192 04ab 00       		.byte	0
 13193 04ac 4E       		.uleb128 0x4e
 13194 04ad 34       		.uleb128 0x34
 13195 04ae 00       		.byte	0
 13196 04af 03       		.uleb128 0x3
 13197 04b0 08       		.uleb128 0x8
 13198 04b1 3A       		.uleb128 0x3a
 13199 04b2 0B       		.uleb128 0xb
 13200 04b3 3B       		.uleb128 0x3b
 13201 04b4 0B       		.uleb128 0xb
 13202 04b5 39       		.uleb128 0x39
 13203 04b6 0B       		.uleb128 0xb
 13204 04b7 49       		.uleb128 0x49
 13205 04b8 13       		.uleb128 0x13
 13206 04b9 00       		.byte	0
 13207 04ba 00       		.byte	0
 13208 04bb 4F       		.uleb128 0x4f
 13209 04bc 2E       		.uleb128 0x2e
 13210 04bd 01       		.byte	0x1
 13211 04be 3F       		.uleb128 0x3f
 13212 04bf 19       		.uleb128 0x19
 13213 04c0 03       		.uleb128 0x3
 13214 04c1 0E       		.uleb128 0xe
 13215 04c2 3A       		.uleb128 0x3a
 13216 04c3 0B       		.uleb128 0xb
 13217 04c4 3B       		.uleb128 0x3b
 13218 04c5 0B       		.uleb128 0xb
 13219 04c6 39       		.uleb128 0x39
 13220 04c7 0B       		.uleb128 0xb
 13221 04c8 27       		.uleb128 0x27
 13222 04c9 19       		.uleb128 0x19
 13223 04ca 49       		.uleb128 0x49
 13224 04cb 13       		.uleb128 0x13
ARM GAS  /tmp/ccTxpxgR.s 			page 233


 13225 04cc 11       		.uleb128 0x11
 13226 04cd 01       		.uleb128 0x1
 13227 04ce 12       		.uleb128 0x12
 13228 04cf 06       		.uleb128 0x6
 13229 04d0 40       		.uleb128 0x40
 13230 04d1 18       		.uleb128 0x18
 13231 04d2 9742     		.uleb128 0x2117
 13232 04d4 19       		.uleb128 0x19
 13233 04d5 01       		.uleb128 0x1
 13234 04d6 13       		.uleb128 0x13
 13235 04d7 00       		.byte	0
 13236 04d8 00       		.byte	0
 13237 04d9 50       		.uleb128 0x50
 13238 04da 34       		.uleb128 0x34
 13239 04db 00       		.byte	0
 13240 04dc 03       		.uleb128 0x3
 13241 04dd 08       		.uleb128 0x8
 13242 04de 3A       		.uleb128 0x3a
 13243 04df 0B       		.uleb128 0xb
 13244 04e0 3B       		.uleb128 0x3b
 13245 04e1 0B       		.uleb128 0xb
 13246 04e2 39       		.uleb128 0x39
 13247 04e3 0B       		.uleb128 0xb
 13248 04e4 49       		.uleb128 0x49
 13249 04e5 13       		.uleb128 0x13
 13250 04e6 02       		.uleb128 0x2
 13251 04e7 17       		.uleb128 0x17
 13252 04e8 B742     		.uleb128 0x2137
 13253 04ea 17       		.uleb128 0x17
 13254 04eb 00       		.byte	0
 13255 04ec 00       		.byte	0
 13256 04ed 51       		.uleb128 0x51
 13257 04ee 1D       		.uleb128 0x1d
 13258 04ef 01       		.byte	0x1
 13259 04f0 31       		.uleb128 0x31
 13260 04f1 13       		.uleb128 0x13
 13261 04f2 52       		.uleb128 0x52
 13262 04f3 01       		.uleb128 0x1
 13263 04f4 B842     		.uleb128 0x2138
 13264 04f6 0B       		.uleb128 0xb
 13265 04f7 11       		.uleb128 0x11
 13266 04f8 01       		.uleb128 0x1
 13267 04f9 12       		.uleb128 0x12
 13268 04fa 06       		.uleb128 0x6
 13269 04fb 58       		.uleb128 0x58
 13270 04fc 0B       		.uleb128 0xb
 13271 04fd 59       		.uleb128 0x59
 13272 04fe 0B       		.uleb128 0xb
 13273 04ff 57       		.uleb128 0x57
 13274 0500 0B       		.uleb128 0xb
 13275 0501 00       		.byte	0
 13276 0502 00       		.byte	0
 13277 0503 52       		.uleb128 0x52
 13278 0504 05       		.uleb128 0x5
 13279 0505 00       		.byte	0
 13280 0506 03       		.uleb128 0x3
 13281 0507 0E       		.uleb128 0xe
ARM GAS  /tmp/ccTxpxgR.s 			page 234


 13282 0508 3A       		.uleb128 0x3a
 13283 0509 0B       		.uleb128 0xb
 13284 050a 3B       		.uleb128 0x3b
 13285 050b 0B       		.uleb128 0xb
 13286 050c 39       		.uleb128 0x39
 13287 050d 0B       		.uleb128 0xb
 13288 050e 49       		.uleb128 0x49
 13289 050f 13       		.uleb128 0x13
 13290 0510 02       		.uleb128 0x2
 13291 0511 18       		.uleb128 0x18
 13292 0512 00       		.byte	0
 13293 0513 00       		.byte	0
 13294 0514 53       		.uleb128 0x53
 13295 0515 05       		.uleb128 0x5
 13296 0516 00       		.byte	0
 13297 0517 03       		.uleb128 0x3
 13298 0518 08       		.uleb128 0x8
 13299 0519 3A       		.uleb128 0x3a
 13300 051a 0B       		.uleb128 0xb
 13301 051b 3B       		.uleb128 0x3b
 13302 051c 0B       		.uleb128 0xb
 13303 051d 39       		.uleb128 0x39
 13304 051e 0B       		.uleb128 0xb
 13305 051f 49       		.uleb128 0x49
 13306 0520 13       		.uleb128 0x13
 13307 0521 02       		.uleb128 0x2
 13308 0522 18       		.uleb128 0x18
 13309 0523 00       		.byte	0
 13310 0524 00       		.byte	0
 13311 0525 54       		.uleb128 0x54
 13312 0526 05       		.uleb128 0x5
 13313 0527 00       		.byte	0
 13314 0528 03       		.uleb128 0x3
 13315 0529 08       		.uleb128 0x8
 13316 052a 3A       		.uleb128 0x3a
 13317 052b 0B       		.uleb128 0xb
 13318 052c 3B       		.uleb128 0x3b
 13319 052d 0B       		.uleb128 0xb
 13320 052e 39       		.uleb128 0x39
 13321 052f 0B       		.uleb128 0xb
 13322 0530 49       		.uleb128 0x49
 13323 0531 13       		.uleb128 0x13
 13324 0532 02       		.uleb128 0x2
 13325 0533 17       		.uleb128 0x17
 13326 0534 B742     		.uleb128 0x2137
 13327 0536 17       		.uleb128 0x17
 13328 0537 00       		.byte	0
 13329 0538 00       		.byte	0
 13330 0539 55       		.uleb128 0x55
 13331 053a 2E       		.uleb128 0x2e
 13332 053b 01       		.byte	0x1
 13333 053c 03       		.uleb128 0x3
 13334 053d 0E       		.uleb128 0xe
 13335 053e 3A       		.uleb128 0x3a
 13336 053f 0B       		.uleb128 0xb
 13337 0540 3B       		.uleb128 0x3b
 13338 0541 05       		.uleb128 0x5
ARM GAS  /tmp/ccTxpxgR.s 			page 235


 13339 0542 39       		.uleb128 0x39
 13340 0543 0B       		.uleb128 0xb
 13341 0544 27       		.uleb128 0x27
 13342 0545 19       		.uleb128 0x19
 13343 0546 20       		.uleb128 0x20
 13344 0547 0B       		.uleb128 0xb
 13345 0548 01       		.uleb128 0x1
 13346 0549 13       		.uleb128 0x13
 13347 054a 00       		.byte	0
 13348 054b 00       		.byte	0
 13349 054c 56       		.uleb128 0x56
 13350 054d 05       		.uleb128 0x5
 13351 054e 00       		.byte	0
 13352 054f 03       		.uleb128 0x3
 13353 0550 08       		.uleb128 0x8
 13354 0551 3A       		.uleb128 0x3a
 13355 0552 0B       		.uleb128 0xb
 13356 0553 3B       		.uleb128 0x3b
 13357 0554 05       		.uleb128 0x5
 13358 0555 39       		.uleb128 0x39
 13359 0556 0B       		.uleb128 0xb
 13360 0557 49       		.uleb128 0x49
 13361 0558 13       		.uleb128 0x13
 13362 0559 00       		.byte	0
 13363 055a 00       		.byte	0
 13364 055b 57       		.uleb128 0x57
 13365 055c 2E       		.uleb128 0x2e
 13366 055d 01       		.byte	0x1
 13367 055e 03       		.uleb128 0x3
 13368 055f 0E       		.uleb128 0xe
 13369 0560 3A       		.uleb128 0x3a
 13370 0561 0B       		.uleb128 0xb
 13371 0562 3B       		.uleb128 0x3b
 13372 0563 05       		.uleb128 0x5
 13373 0564 39       		.uleb128 0x39
 13374 0565 0B       		.uleb128 0xb
 13375 0566 27       		.uleb128 0x27
 13376 0567 19       		.uleb128 0x19
 13377 0568 49       		.uleb128 0x49
 13378 0569 13       		.uleb128 0x13
 13379 056a 20       		.uleb128 0x20
 13380 056b 0B       		.uleb128 0xb
 13381 056c 01       		.uleb128 0x1
 13382 056d 13       		.uleb128 0x13
 13383 056e 00       		.byte	0
 13384 056f 00       		.byte	0
 13385 0570 58       		.uleb128 0x58
 13386 0571 2E       		.uleb128 0x2e
 13387 0572 00       		.byte	0
 13388 0573 03       		.uleb128 0x3
 13389 0574 0E       		.uleb128 0xe
 13390 0575 3A       		.uleb128 0x3a
 13391 0576 0B       		.uleb128 0xb
 13392 0577 3B       		.uleb128 0x3b
 13393 0578 05       		.uleb128 0x5
 13394 0579 39       		.uleb128 0x39
 13395 057a 0B       		.uleb128 0xb
ARM GAS  /tmp/ccTxpxgR.s 			page 236


 13396 057b 27       		.uleb128 0x27
 13397 057c 19       		.uleb128 0x19
 13398 057d 49       		.uleb128 0x49
 13399 057e 13       		.uleb128 0x13
 13400 057f 20       		.uleb128 0x20
 13401 0580 0B       		.uleb128 0xb
 13402 0581 00       		.byte	0
 13403 0582 00       		.byte	0
 13404 0583 59       		.uleb128 0x59
 13405 0584 2E       		.uleb128 0x2e
 13406 0585 00       		.byte	0
 13407 0586 03       		.uleb128 0x3
 13408 0587 0E       		.uleb128 0xe
 13409 0588 3A       		.uleb128 0x3a
 13410 0589 0B       		.uleb128 0xb
 13411 058a 3B       		.uleb128 0x3b
 13412 058b 05       		.uleb128 0x5
 13413 058c 39       		.uleb128 0x39
 13414 058d 0B       		.uleb128 0xb
 13415 058e 27       		.uleb128 0x27
 13416 058f 19       		.uleb128 0x19
 13417 0590 20       		.uleb128 0x20
 13418 0591 0B       		.uleb128 0xb
 13419 0592 00       		.byte	0
 13420 0593 00       		.byte	0
 13421 0594 5A       		.uleb128 0x5a
 13422 0595 2E       		.uleb128 0x2e
 13423 0596 00       		.byte	0
 13424 0597 03       		.uleb128 0x3
 13425 0598 0E       		.uleb128 0xe
 13426 0599 3A       		.uleb128 0x3a
 13427 059a 0B       		.uleb128 0xb
 13428 059b 3B       		.uleb128 0x3b
 13429 059c 0B       		.uleb128 0xb
 13430 059d 39       		.uleb128 0x39
 13431 059e 0B       		.uleb128 0xb
 13432 059f 27       		.uleb128 0x27
 13433 05a0 19       		.uleb128 0x19
 13434 05a1 49       		.uleb128 0x49
 13435 05a2 13       		.uleb128 0x13
 13436 05a3 20       		.uleb128 0x20
 13437 05a4 0B       		.uleb128 0xb
 13438 05a5 00       		.byte	0
 13439 05a6 00       		.byte	0
 13440 05a7 5B       		.uleb128 0x5b
 13441 05a8 2E       		.uleb128 0x2e
 13442 05a9 01       		.byte	0x1
 13443 05aa 31       		.uleb128 0x31
 13444 05ab 13       		.uleb128 0x13
 13445 05ac 11       		.uleb128 0x11
 13446 05ad 01       		.uleb128 0x1
 13447 05ae 12       		.uleb128 0x12
 13448 05af 06       		.uleb128 0x6
 13449 05b0 40       		.uleb128 0x40
 13450 05b1 18       		.uleb128 0x18
 13451 05b2 9742     		.uleb128 0x2117
 13452 05b4 19       		.uleb128 0x19
ARM GAS  /tmp/ccTxpxgR.s 			page 237


 13453 05b5 01       		.uleb128 0x1
 13454 05b6 13       		.uleb128 0x13
 13455 05b7 00       		.byte	0
 13456 05b8 00       		.byte	0
 13457 05b9 5C       		.uleb128 0x5c
 13458 05ba 0B       		.uleb128 0xb
 13459 05bb 01       		.byte	0x1
 13460 05bc 11       		.uleb128 0x11
 13461 05bd 01       		.uleb128 0x1
 13462 05be 12       		.uleb128 0x12
 13463 05bf 06       		.uleb128 0x6
 13464 05c0 01       		.uleb128 0x1
 13465 05c1 13       		.uleb128 0x13
 13466 05c2 00       		.byte	0
 13467 05c3 00       		.byte	0
 13468 05c4 5D       		.uleb128 0x5d
 13469 05c5 34       		.uleb128 0x34
 13470 05c6 00       		.byte	0
 13471 05c7 31       		.uleb128 0x31
 13472 05c8 13       		.uleb128 0x13
 13473 05c9 02       		.uleb128 0x2
 13474 05ca 17       		.uleb128 0x17
 13475 05cb B742     		.uleb128 0x2137
 13476 05cd 17       		.uleb128 0x17
 13477 05ce 00       		.byte	0
 13478 05cf 00       		.byte	0
 13479 05d0 5E       		.uleb128 0x5e
 13480 05d1 0B       		.uleb128 0xb
 13481 05d2 00       		.byte	0
 13482 05d3 11       		.uleb128 0x11
 13483 05d4 01       		.uleb128 0x1
 13484 05d5 12       		.uleb128 0x12
 13485 05d6 06       		.uleb128 0x6
 13486 05d7 00       		.byte	0
 13487 05d8 00       		.byte	0
 13488 05d9 5F       		.uleb128 0x5f
 13489 05da 2E       		.uleb128 0x2e
 13490 05db 00       		.byte	0
 13491 05dc 3F       		.uleb128 0x3f
 13492 05dd 19       		.uleb128 0x19
 13493 05de 3C       		.uleb128 0x3c
 13494 05df 19       		.uleb128 0x19
 13495 05e0 6E       		.uleb128 0x6e
 13496 05e1 0E       		.uleb128 0xe
 13497 05e2 03       		.uleb128 0x3
 13498 05e3 0E       		.uleb128 0xe
 13499 05e4 3A       		.uleb128 0x3a
 13500 05e5 0B       		.uleb128 0xb
 13501 05e6 3B       		.uleb128 0x3b
 13502 05e7 0B       		.uleb128 0xb
 13503 05e8 00       		.byte	0
 13504 05e9 00       		.byte	0
 13505 05ea 60       		.uleb128 0x60
 13506 05eb 2E       		.uleb128 0x2e
 13507 05ec 00       		.byte	0
 13508 05ed 3F       		.uleb128 0x3f
 13509 05ee 19       		.uleb128 0x19
ARM GAS  /tmp/ccTxpxgR.s 			page 238


 13510 05ef 3C       		.uleb128 0x3c
 13511 05f0 19       		.uleb128 0x19
 13512 05f1 6E       		.uleb128 0x6e
 13513 05f2 0E       		.uleb128 0xe
 13514 05f3 03       		.uleb128 0x3
 13515 05f4 0E       		.uleb128 0xe
 13516 05f5 3A       		.uleb128 0x3a
 13517 05f6 0B       		.uleb128 0xb
 13518 05f7 3B       		.uleb128 0x3b
 13519 05f8 0B       		.uleb128 0xb
 13520 05f9 39       		.uleb128 0x39
 13521 05fa 0B       		.uleb128 0xb
 13522 05fb 00       		.byte	0
 13523 05fc 00       		.byte	0
 13524 05fd 00       		.byte	0
 13525              		.section	.debug_loc,"",%progbits
 13526              	.Ldebug_loc0:
 13527              	.LVUS87:
 13528 0000 00       		.uleb128 0
 13529 0001 00       		.uleb128 .LVU1091
 13530 0002 00       		.uleb128 .LVU1091
 13531 0003 00       		.uleb128 .LVU1106
 13532 0004 00       		.uleb128 .LVU1106
 13533 0005 00       		.uleb128 0
 13534              	.LLST87:
 13535 0006 00000000 		.4byte	.LVL153
 13536 000a 33000000 		.4byte	.LVL160-1
 13537 000e 0100     		.2byte	0x1
 13538 0010 50       		.byte	0x50
 13539 0011 33000000 		.4byte	.LVL160-1
 13540 0015 38000000 		.4byte	.LVL161
 13541 0019 0400     		.2byte	0x4
 13542 001b F3       		.byte	0xf3
 13543 001c 01       		.uleb128 0x1
 13544 001d 50       		.byte	0x50
 13545 001e 9F       		.byte	0x9f
 13546 001f 38000000 		.4byte	.LVL161
 13547 0023 3E000000 		.4byte	.LFE172
 13548 0027 0100     		.2byte	0x1
 13549 0029 50       		.byte	0x50
 13550 002a 00000000 		.4byte	0
 13551 002e 00000000 		.4byte	0
 13552              	.LVUS88:
 13553 0032 00       		.uleb128 .LVU1064
 13554 0033 00       		.uleb128 .LVU1077
 13555 0034 00       		.uleb128 .LVU1077
 13556 0035 00       		.uleb128 .LVU1078
 13557 0036 00       		.uleb128 .LVU1078
 13558 0037 00       		.uleb128 .LVU1082
 13559 0038 00       		.uleb128 .LVU1082
 13560 0039 00       		.uleb128 .LVU1083
 13561              	.LLST88:
 13562 003a 10000000 		.4byte	.LVL154
 13563 003e 16000000 		.4byte	.LVL156
 13564 0042 0100     		.2byte	0x1
 13565 0044 53       		.byte	0x53
 13566 0045 16000000 		.4byte	.LVL156
ARM GAS  /tmp/ccTxpxgR.s 			page 239


 13567 0049 1A000000 		.4byte	.LVL157
 13568 004d 0200     		.2byte	0x2
 13569 004f 72       		.byte	0x72
 13570 0050 00       		.sleb128 0
 13571 0051 1A000000 		.4byte	.LVL157
 13572 0055 22000000 		.4byte	.LVL158
 13573 0059 0900     		.2byte	0x9
 13574 005b 70       		.byte	0x70
 13575 005c 24       		.sleb128 36
 13576 005d 06       		.byte	0x6
 13577 005e 72       		.byte	0x72
 13578 005f 00       		.sleb128 0
 13579 0060 1C       		.byte	0x1c
 13580 0061 34       		.byte	0x34
 13581 0062 1C       		.byte	0x1c
 13582 0063 9F       		.byte	0x9f
 13583 0064 22000000 		.4byte	.LVL158
 13584 0068 24000000 		.4byte	.LVL159
 13585 006c 0A00     		.2byte	0xa
 13586 006e 70       		.byte	0x70
 13587 006f 24       		.sleb128 36
 13588 0070 06       		.byte	0x6
 13589 0071 70       		.byte	0x70
 13590 0072 0C       		.sleb128 12
 13591 0073 06       		.byte	0x6
 13592 0074 1C       		.byte	0x1c
 13593 0075 34       		.byte	0x34
 13594 0076 1C       		.byte	0x1c
 13595 0077 9F       		.byte	0x9f
 13596 0078 00000000 		.4byte	0
 13597 007c 00000000 		.4byte	0
 13598              	.LVUS89:
 13599 0080 01       		.uleb128 .LVU1067
 13600 0081 00       		.uleb128 .LVU1077
 13601 0082 00       		.uleb128 .LVU1077
 13602 0083 00       		.uleb128 .LVU1078
 13603 0084 00       		.uleb128 .LVU1078
 13604 0085 00       		.uleb128 .LVU1082
 13605 0086 00       		.uleb128 .LVU1082
 13606 0087 00       		.uleb128 .LVU1083
 13607              	.LLST89:
 13608 0088 12000000 		.4byte	.LVL155
 13609 008c 16000000 		.4byte	.LVL156
 13610 0090 0100     		.2byte	0x1
 13611 0092 53       		.byte	0x53
 13612 0093 16000000 		.4byte	.LVL156
 13613 0097 1A000000 		.4byte	.LVL157
 13614 009b 0200     		.2byte	0x2
 13615 009d 72       		.byte	0x72
 13616 009e 00       		.sleb128 0
 13617 009f 1A000000 		.4byte	.LVL157
 13618 00a3 22000000 		.4byte	.LVL158
 13619 00a7 0900     		.2byte	0x9
 13620 00a9 70       		.byte	0x70
 13621 00aa 24       		.sleb128 36
 13622 00ab 06       		.byte	0x6
 13623 00ac 72       		.byte	0x72
ARM GAS  /tmp/ccTxpxgR.s 			page 240


 13624 00ad 00       		.sleb128 0
 13625 00ae 1C       		.byte	0x1c
 13626 00af 34       		.byte	0x34
 13627 00b0 1C       		.byte	0x1c
 13628 00b1 9F       		.byte	0x9f
 13629 00b2 22000000 		.4byte	.LVL158
 13630 00b6 24000000 		.4byte	.LVL159
 13631 00ba 0A00     		.2byte	0xa
 13632 00bc 70       		.byte	0x70
 13633 00bd 24       		.sleb128 36
 13634 00be 06       		.byte	0x6
 13635 00bf 70       		.byte	0x70
 13636 00c0 0C       		.sleb128 12
 13637 00c1 06       		.byte	0x6
 13638 00c2 1C       		.byte	0x1c
 13639 00c3 34       		.byte	0x34
 13640 00c4 1C       		.byte	0x1c
 13641 00c5 9F       		.byte	0x9f
 13642 00c6 00000000 		.4byte	0
 13643 00ca 00000000 		.4byte	0
 13644              	.LVUS90:
 13645 00ce 01       		.uleb128 .LVU1067
 13646 00cf 00       		.uleb128 .LVU1091
 13647 00d0 00       		.uleb128 .LVU1091
 13648 00d1 00       		.uleb128 .LVU1091
 13649 00d2 00       		.uleb128 .LVU1106
 13650 00d3 00       		.uleb128 0
 13651              	.LLST90:
 13652 00d4 12000000 		.4byte	.LVL155
 13653 00d8 33000000 		.4byte	.LVL160-1
 13654 00dc 0100     		.2byte	0x1
 13655 00de 50       		.byte	0x50
 13656 00df 33000000 		.4byte	.LVL160-1
 13657 00e3 34000000 		.4byte	.LVL160
 13658 00e7 0400     		.2byte	0x4
 13659 00e9 F3       		.byte	0xf3
 13660 00ea 01       		.uleb128 0x1
 13661 00eb 50       		.byte	0x50
 13662 00ec 9F       		.byte	0x9f
 13663 00ed 38000000 		.4byte	.LVL161
 13664 00f1 3E000000 		.4byte	.LFE172
 13665 00f5 0100     		.2byte	0x1
 13666 00f7 50       		.byte	0x50
 13667 00f8 00000000 		.4byte	0
 13668 00fc 00000000 		.4byte	0
 13669              	.LVUS85:
 13670 0100 00       		.uleb128 0
 13671 0101 00       		.uleb128 .LVU1015
 13672 0102 00       		.uleb128 .LVU1015
 13673 0103 00       		.uleb128 0
 13674              	.LLST85:
 13675 0104 00000000 		.4byte	.LVL146
 13676 0108 08000000 		.4byte	.LVL147
 13677 010c 0100     		.2byte	0x1
 13678 010e 50       		.byte	0x50
 13679 010f 08000000 		.4byte	.LVL147
 13680 0113 42000000 		.4byte	.LFE171
ARM GAS  /tmp/ccTxpxgR.s 			page 241


 13681 0117 0100     		.2byte	0x1
 13682 0119 53       		.byte	0x53
 13683 011a 00000000 		.4byte	0
 13684 011e 00000000 		.4byte	0
 13685              	.LVUS86:
 13686 0122 00       		.uleb128 .LVU1022
 13687 0123 00       		.uleb128 .LVU1028
 13688 0124 00       		.uleb128 .LVU1028
 13689 0125 00       		.uleb128 .LVU1029
 13690 0126 00       		.uleb128 .LVU1029
 13691 0127 00       		.uleb128 .LVU1033
 13692 0128 00       		.uleb128 .LVU1033
 13693 0129 00       		.uleb128 .LVU1034
 13694              	.LLST86:
 13695 012a 1E000000 		.4byte	.LVL148
 13696 012e 24000000 		.4byte	.LVL149
 13697 0132 0100     		.2byte	0x1
 13698 0134 51       		.byte	0x51
 13699 0135 24000000 		.4byte	.LVL149
 13700 0139 28000000 		.4byte	.LVL150
 13701 013d 0200     		.2byte	0x2
 13702 013f 72       		.byte	0x72
 13703 0140 00       		.sleb128 0
 13704 0141 28000000 		.4byte	.LVL150
 13705 0145 30000000 		.4byte	.LVL151
 13706 0149 0900     		.2byte	0x9
 13707 014b 73       		.byte	0x73
 13708 014c 24       		.sleb128 36
 13709 014d 06       		.byte	0x6
 13710 014e 72       		.byte	0x72
 13711 014f 00       		.sleb128 0
 13712 0150 1C       		.byte	0x1c
 13713 0151 34       		.byte	0x34
 13714 0152 1C       		.byte	0x1c
 13715 0153 9F       		.byte	0x9f
 13716 0154 30000000 		.4byte	.LVL151
 13717 0158 32000000 		.4byte	.LVL152
 13718 015c 0A00     		.2byte	0xa
 13719 015e 73       		.byte	0x73
 13720 015f 24       		.sleb128 36
 13721 0160 06       		.byte	0x6
 13722 0161 73       		.byte	0x73
 13723 0162 0C       		.sleb128 12
 13724 0163 06       		.byte	0x6
 13725 0164 1C       		.byte	0x1c
 13726 0165 34       		.byte	0x34
 13727 0166 1C       		.byte	0x1c
 13728 0167 9F       		.byte	0x9f
 13729 0168 00000000 		.4byte	0
 13730 016c 00000000 		.4byte	0
 13731              	.LVUS74:
 13732 0170 00       		.uleb128 0
 13733 0171 00       		.uleb128 .LVU873
 13734 0172 00       		.uleb128 .LVU873
 13735 0173 00       		.uleb128 .LVU1008
 13736 0174 00       		.uleb128 .LVU1008
 13737 0175 00       		.uleb128 0
ARM GAS  /tmp/ccTxpxgR.s 			page 242


 13738              	.LLST74:
 13739 0176 00000000 		.4byte	.LVL112
 13740 017a 32000000 		.4byte	.LVL117
 13741 017e 0100     		.2byte	0x1
 13742 0180 50       		.byte	0x50
 13743 0181 32000000 		.4byte	.LVL117
 13744 0185 DE000000 		.4byte	.LVL141
 13745 0189 0100     		.2byte	0x1
 13746 018b 54       		.byte	0x54
 13747 018c DE000000 		.4byte	.LVL141
 13748 0190 EA000000 		.4byte	.LFE170
 13749 0194 0400     		.2byte	0x4
 13750 0196 F3       		.byte	0xf3
 13751 0197 01       		.uleb128 0x1
 13752 0198 50       		.byte	0x50
 13753 0199 9F       		.byte	0x9f
 13754 019a 00000000 		.4byte	0
 13755 019e 00000000 		.4byte	0
 13756              	.LVUS75:
 13757 01a2 00       		.uleb128 0
 13758 01a3 00       		.uleb128 .LVU873
 13759 01a4 00       		.uleb128 .LVU873
 13760 01a5 00       		.uleb128 .LVU1008
 13761              	.LLST75:
 13762 01a6 00000000 		.4byte	.LVL112
 13763 01aa 32000000 		.4byte	.LVL117
 13764 01ae 0100     		.2byte	0x1
 13765 01b0 51       		.byte	0x51
 13766 01b1 32000000 		.4byte	.LVL117
 13767 01b5 DE000000 		.4byte	.LVL143
 13768 01b9 0100     		.2byte	0x1
 13769 01bb 57       		.byte	0x57
 13770 01bc 00000000 		.4byte	0
 13771 01c0 00000000 		.4byte	0
 13772              	.LVUS76:
 13773 01c4 00       		.uleb128 0
 13774 01c5 00       		.uleb128 .LVU864
 13775 01c6 00       		.uleb128 .LVU864
 13776 01c7 00       		.uleb128 .LVU873
 13777 01c8 00       		.uleb128 .LVU873
 13778 01c9 00       		.uleb128 .LVU875
 13779 01ca 00       		.uleb128 .LVU875
 13780 01cb 00       		.uleb128 .LVU952
 13781 01cc 00       		.uleb128 .LVU952
 13782 01cd 00       		.uleb128 .LVU956
 13783 01ce 00       		.uleb128 .LVU956
 13784 01cf 00       		.uleb128 .LVU1008
 13785 01d0 00       		.uleb128 .LVU1008
 13786 01d1 00       		.uleb128 0
 13787              	.LLST76:
 13788 01d2 00000000 		.4byte	.LVL112
 13789 01d6 1E000000 		.4byte	.LVL114
 13790 01da 0100     		.2byte	0x1
 13791 01dc 52       		.byte	0x52
 13792 01dd 1E000000 		.4byte	.LVL114
 13793 01e1 32000000 		.4byte	.LVL117
 13794 01e5 0100     		.2byte	0x1
ARM GAS  /tmp/ccTxpxgR.s 			page 243


 13795 01e7 58       		.byte	0x58
 13796 01e8 32000000 		.4byte	.LVL117
 13797 01ec 36000000 		.4byte	.LVL118
 13798 01f0 0100     		.2byte	0x1
 13799 01f2 52       		.byte	0x52
 13800 01f3 36000000 		.4byte	.LVL118
 13801 01f7 92000000 		.4byte	.LVL129
 13802 01fb 0100     		.2byte	0x1
 13803 01fd 58       		.byte	0x58
 13804 01fe 92000000 		.4byte	.LVL129
 13805 0202 9C000000 		.4byte	.LVL131
 13806 0206 0100     		.2byte	0x1
 13807 0208 52       		.byte	0x52
 13808 0209 9C000000 		.4byte	.LVL131
 13809 020d DE000000 		.4byte	.LVL144
 13810 0211 0100     		.2byte	0x1
 13811 0213 58       		.byte	0x58
 13812 0214 DE000000 		.4byte	.LVL144
 13813 0218 EA000000 		.4byte	.LFE170
 13814 021c 0400     		.2byte	0x4
 13815 021e F3       		.byte	0xf3
 13816 021f 01       		.uleb128 0x1
 13817 0220 52       		.byte	0x52
 13818 0221 9F       		.byte	0x9f
 13819 0222 00000000 		.4byte	0
 13820 0226 00000000 		.4byte	0
 13821              	.LVUS77:
 13822 022a 00       		.uleb128 0
 13823 022b 00       		.uleb128 .LVU863
 13824 022c 00       		.uleb128 .LVU863
 13825 022d 00       		.uleb128 .LVU1008
 13826 022e 00       		.uleb128 .LVU1008
 13827 022f 00       		.uleb128 0
 13828              	.LLST77:
 13829 0230 00000000 		.4byte	.LVL112
 13830 0234 1A000000 		.4byte	.LVL113
 13831 0238 0100     		.2byte	0x1
 13832 023a 53       		.byte	0x53
 13833 023b 1A000000 		.4byte	.LVL113
 13834 023f DE000000 		.4byte	.LVL145
 13835 0243 0100     		.2byte	0x1
 13836 0245 5A       		.byte	0x5a
 13837 0246 DE000000 		.4byte	.LVL145
 13838 024a EA000000 		.4byte	.LFE170
 13839 024e 0600     		.2byte	0x6
 13840 0250 91       		.byte	0x91
 13841 0251 50       		.sleb128 -48
 13842 0252 06       		.byte	0x6
 13843 0253 23       		.byte	0x23
 13844 0254 01       		.uleb128 0x1
 13845 0255 9F       		.byte	0x9f
 13846 0256 00000000 		.4byte	0
 13847 025a 00000000 		.4byte	0
 13848              	.LVUS78:
 13849 025e 02       		.uleb128 .LVU836
 13850 025f 00       		.uleb128 .LVU873
 13851 0260 00       		.uleb128 .LVU873
ARM GAS  /tmp/ccTxpxgR.s 			page 244


 13852 0261 00       		.uleb128 .LVU1008
 13853 0262 00       		.uleb128 .LVU1008
 13854 0263 00       		.uleb128 0
 13855              	.LLST78:
 13856 0264 00000000 		.4byte	.LVL112
 13857 0268 32000000 		.4byte	.LVL117
 13858 026c 0200     		.2byte	0x2
 13859 026e 30       		.byte	0x30
 13860 026f 9F       		.byte	0x9f
 13861 0270 32000000 		.4byte	.LVL117
 13862 0274 DE000000 		.4byte	.LVL142
 13863 0278 0100     		.2byte	0x1
 13864 027a 56       		.byte	0x56
 13865 027b DE000000 		.4byte	.LVL142
 13866 027f EA000000 		.4byte	.LFE170
 13867 0283 0100     		.2byte	0x1
 13868 0285 50       		.byte	0x50
 13869 0286 00000000 		.4byte	0
 13870 028a 00000000 		.4byte	0
 13871              	.LVUS79:
 13872 028e 00       		.uleb128 .LVU866
 13873 028f 00       		.uleb128 .LVU867
 13874 0290 00       		.uleb128 .LVU867
 13875 0291 00       		.uleb128 0
 13876              	.LLST79:
 13877 0292 24000000 		.4byte	.LVL115
 13878 0296 26000000 		.4byte	.LVL116
 13879 029a 0100     		.2byte	0x1
 13880 029c 52       		.byte	0x52
 13881 029d 26000000 		.4byte	.LVL116
 13882 02a1 EA000000 		.4byte	.LFE170
 13883 02a5 0200     		.2byte	0x2
 13884 02a7 91       		.byte	0x91
 13885 02a8 54       		.sleb128 -44
 13886 02a9 00000000 		.4byte	0
 13887 02ad 00000000 		.4byte	0
 13888              	.LVUS80:
 13889 02b1 00       		.uleb128 .LVU873
 13890 02b2 02       		.uleb128 .LVU941
 13891 02b3 00       		.uleb128 .LVU951
 13892 02b4 00       		.uleb128 .LVU953
 13893 02b5 00       		.uleb128 .LVU953
 13894 02b6 00       		.uleb128 .LVU965
 13895              	.LLST80:
 13896 02b7 32000000 		.4byte	.LVL117
 13897 02bb 80000000 		.4byte	.LVL127
 13898 02bf 0100     		.2byte	0x1
 13899 02c1 55       		.byte	0x55
 13900 02c2 8E000000 		.4byte	.LVL128
 13901 02c6 94000000 		.4byte	.LVL130
 13902 02ca 0100     		.2byte	0x1
 13903 02cc 53       		.byte	0x53
 13904 02cd 94000000 		.4byte	.LVL130
 13905 02d1 AC000000 		.4byte	.LVL135
 13906 02d5 0100     		.2byte	0x1
 13907 02d7 55       		.byte	0x55
 13908 02d8 00000000 		.4byte	0
ARM GAS  /tmp/ccTxpxgR.s 			page 245


 13909 02dc 00000000 		.4byte	0
 13910              	.LVUS81:
 13911 02e0 00       		.uleb128 .LVU983
 13912 02e1 00       		.uleb128 .LVU987
 13913 02e2 00       		.uleb128 .LVU990
 13914 02e3 00       		.uleb128 .LVU992
 13915              	.LLST81:
 13916 02e4 C4000000 		.4byte	.LVL137
 13917 02e8 CA000000 		.4byte	.LVL138
 13918 02ec 0100     		.2byte	0x1
 13919 02ee 50       		.byte	0x50
 13920 02ef D4000000 		.4byte	.LVL139
 13921 02f3 D8000000 		.4byte	.LVL140
 13922 02f7 0100     		.2byte	0x1
 13923 02f9 50       		.byte	0x50
 13924 02fa 00000000 		.4byte	0
 13925 02fe 00000000 		.4byte	0
 13926              	.LVUS82:
 13927 0302 00       		.uleb128 .LVU979
 13928 0303 00       		.uleb128 .LVU983
 13929              	.LLST82:
 13930 0304 BA000000 		.4byte	.LVL136
 13931 0308 C3000000 		.4byte	.LVL137-1
 13932 030c 0100     		.2byte	0x1
 13933 030e 51       		.byte	0x51
 13934 030f 00000000 		.4byte	0
 13935 0313 00000000 		.4byte	0
 13936              	.LVUS83:
 13937 0317 01       		.uleb128 .LVU886
 13938 0318 00       		.uleb128 .LVU896
 13939 0319 00       		.uleb128 .LVU896
 13940 031a 00       		.uleb128 .LVU899
 13941 031b 00       		.uleb128 .LVU899
 13942 031c 00       		.uleb128 .LVU900
 13943              	.LLST83:
 13944 031d 4A000000 		.4byte	.LVL122
 13945 0321 50000000 		.4byte	.LVL123
 13946 0325 0600     		.2byte	0x6
 13947 0327 74       		.byte	0x74
 13948 0328 18       		.sleb128 24
 13949 0329 06       		.byte	0x6
 13950 032a 34       		.byte	0x34
 13951 032b 1C       		.byte	0x1c
 13952 032c 9F       		.byte	0x9f
 13953 032d 50000000 		.4byte	.LVL123
 13954 0331 54000000 		.4byte	.LVL124
 13955 0335 0100     		.2byte	0x1
 13956 0337 52       		.byte	0x52
 13957 0338 54000000 		.4byte	.LVL124
 13958 033c 58000000 		.4byte	.LVL125
 13959 0340 0200     		.2byte	0x2
 13960 0342 73       		.byte	0x73
 13961 0343 00       		.sleb128 0
 13962 0344 00000000 		.4byte	0
 13963 0348 00000000 		.4byte	0
 13964              	.LVUS84:
 13965 034c 01       		.uleb128 .LVU886
ARM GAS  /tmp/ccTxpxgR.s 			page 246


 13966 034d 00       		.uleb128 .LVU914
 13967              	.LLST84:
 13968 034e 4A000000 		.4byte	.LVL122
 13969 0352 78000000 		.4byte	.LVL126
 13970 0356 0100     		.2byte	0x1
 13971 0358 54       		.byte	0x54
 13972 0359 00000000 		.4byte	0
 13973 035d 00000000 		.4byte	0
 13974              	.LVUS68:
 13975 0361 00       		.uleb128 0
 13976 0362 00       		.uleb128 .LVU759
 13977 0363 00       		.uleb128 .LVU759
 13978 0364 01       		.uleb128 .LVU813
 13979 0365 01       		.uleb128 .LVU813
 13980 0366 00       		.uleb128 .LVU814
 13981 0367 00       		.uleb128 .LVU814
 13982 0368 00       		.uleb128 .LVU817
 13983 0369 00       		.uleb128 .LVU817
 13984 036a 00       		.uleb128 0
 13985              	.LLST68:
 13986 036b 00000000 		.4byte	.LVL101
 13987 036f 0E000000 		.4byte	.LVL102
 13988 0373 0100     		.2byte	0x1
 13989 0375 50       		.byte	0x50
 13990 0376 0E000000 		.4byte	.LVL102
 13991 037a 4E000000 		.4byte	.LVL108
 13992 037e 0100     		.2byte	0x1
 13993 0380 54       		.byte	0x54
 13994 0381 4E000000 		.4byte	.LVL108
 13995 0385 50000000 		.4byte	.LVL109
 13996 0389 0400     		.2byte	0x4
 13997 038b F3       		.byte	0xf3
 13998 038c 01       		.uleb128 0x1
 13999 038d 50       		.byte	0x50
 14000 038e 9F       		.byte	0x9f
 14001 038f 50000000 		.4byte	.LVL109
 14002 0393 55000000 		.4byte	.LVL111-1
 14003 0397 0100     		.2byte	0x1
 14004 0399 50       		.byte	0x50
 14005 039a 55000000 		.4byte	.LVL111-1
 14006 039e 62000000 		.4byte	.LFE169
 14007 03a2 0100     		.2byte	0x1
 14008 03a4 54       		.byte	0x54
 14009 03a5 00000000 		.4byte	0
 14010 03a9 00000000 		.4byte	0
 14011              	.LVUS69:
 14012 03ad 00       		.uleb128 0
 14013 03ae 00       		.uleb128 .LVU759
 14014 03af 00       		.uleb128 .LVU759
 14015 03b0 00       		.uleb128 .LVU814
 14016 03b1 00       		.uleb128 .LVU814
 14017 03b2 00       		.uleb128 .LVU816
 14018 03b3 00       		.uleb128 .LVU816
 14019 03b4 00       		.uleb128 0
 14020              	.LLST69:
 14021 03b5 00000000 		.4byte	.LVL101
 14022 03b9 0E000000 		.4byte	.LVL102
ARM GAS  /tmp/ccTxpxgR.s 			page 247


 14023 03bd 0100     		.2byte	0x1
 14024 03bf 51       		.byte	0x51
 14025 03c0 0E000000 		.4byte	.LVL102
 14026 03c4 50000000 		.4byte	.LVL109
 14027 03c8 0400     		.2byte	0x4
 14028 03ca F3       		.byte	0xf3
 14029 03cb 01       		.uleb128 0x1
 14030 03cc 51       		.byte	0x51
 14031 03cd 9F       		.byte	0x9f
 14032 03ce 50000000 		.4byte	.LVL109
 14033 03d2 52000000 		.4byte	.LVL110
 14034 03d6 0100     		.2byte	0x1
 14035 03d8 51       		.byte	0x51
 14036 03d9 52000000 		.4byte	.LVL110
 14037 03dd 62000000 		.4byte	.LFE169
 14038 03e1 0400     		.2byte	0x4
 14039 03e3 F3       		.byte	0xf3
 14040 03e4 01       		.uleb128 0x1
 14041 03e5 51       		.byte	0x51
 14042 03e6 9F       		.byte	0x9f
 14043 03e7 00000000 		.4byte	0
 14044 03eb 00000000 		.4byte	0
 14045              	.LVUS70:
 14046 03ef 00       		.uleb128 0
 14047 03f0 00       		.uleb128 .LVU759
 14048 03f1 00       		.uleb128 .LVU759
 14049 03f2 00       		.uleb128 .LVU814
 14050 03f3 00       		.uleb128 .LVU814
 14051 03f4 00       		.uleb128 .LVU817
 14052 03f5 00       		.uleb128 .LVU817
 14053 03f6 00       		.uleb128 0
 14054              	.LLST70:
 14055 03f7 00000000 		.4byte	.LVL101
 14056 03fb 0E000000 		.4byte	.LVL102
 14057 03ff 0100     		.2byte	0x1
 14058 0401 52       		.byte	0x52
 14059 0402 0E000000 		.4byte	.LVL102
 14060 0406 50000000 		.4byte	.LVL109
 14061 040a 0400     		.2byte	0x4
 14062 040c F3       		.byte	0xf3
 14063 040d 01       		.uleb128 0x1
 14064 040e 52       		.byte	0x52
 14065 040f 9F       		.byte	0x9f
 14066 0410 50000000 		.4byte	.LVL109
 14067 0414 55000000 		.4byte	.LVL111-1
 14068 0418 0100     		.2byte	0x1
 14069 041a 52       		.byte	0x52
 14070 041b 55000000 		.4byte	.LVL111-1
 14071 041f 62000000 		.4byte	.LFE169
 14072 0423 0400     		.2byte	0x4
 14073 0425 F3       		.byte	0xf3
 14074 0426 01       		.uleb128 0x1
 14075 0427 52       		.byte	0x52
 14076 0428 9F       		.byte	0x9f
 14077 0429 00000000 		.4byte	0
 14078 042d 00000000 		.4byte	0
 14079              	.LVUS71:
ARM GAS  /tmp/ccTxpxgR.s 			page 248


 14080 0431 00       		.uleb128 .LVU817
 14081 0432 00       		.uleb128 0
 14082              	.LLST71:
 14083 0433 56000000 		.4byte	.LVL111
 14084 0437 62000000 		.4byte	.LFE169
 14085 043b 0100     		.2byte	0x1
 14086 043d 50       		.byte	0x50
 14087 043e 00000000 		.4byte	0
 14088 0442 00000000 		.4byte	0
 14089              	.LVUS72:
 14090 0446 01       		.uleb128 .LVU768
 14091 0447 00       		.uleb128 .LVU778
 14092 0448 00       		.uleb128 .LVU778
 14093 0449 00       		.uleb128 .LVU781
 14094 044a 00       		.uleb128 .LVU781
 14095 044b 00       		.uleb128 .LVU782
 14096              	.LLST72:
 14097 044c 1C000000 		.4byte	.LVL103
 14098 0450 22000000 		.4byte	.LVL104
 14099 0454 0600     		.2byte	0x6
 14100 0456 74       		.byte	0x74
 14101 0457 18       		.sleb128 24
 14102 0458 06       		.byte	0x6
 14103 0459 34       		.byte	0x34
 14104 045a 1C       		.byte	0x1c
 14105 045b 9F       		.byte	0x9f
 14106 045c 22000000 		.4byte	.LVL104
 14107 0460 26000000 		.4byte	.LVL105
 14108 0464 0100     		.2byte	0x1
 14109 0466 52       		.byte	0x52
 14110 0467 26000000 		.4byte	.LVL105
 14111 046b 2A000000 		.4byte	.LVL106
 14112 046f 0200     		.2byte	0x2
 14113 0471 73       		.byte	0x73
 14114 0472 00       		.sleb128 0
 14115 0473 00000000 		.4byte	0
 14116 0477 00000000 		.4byte	0
 14117              	.LVUS73:
 14118 047b 01       		.uleb128 .LVU768
 14119 047c 00       		.uleb128 .LVU796
 14120              	.LLST73:
 14121 047d 1C000000 		.4byte	.LVL103
 14122 0481 4A000000 		.4byte	.LVL107
 14123 0485 0100     		.2byte	0x1
 14124 0487 54       		.byte	0x54
 14125 0488 00000000 		.4byte	0
 14126 048c 00000000 		.4byte	0
 14127              	.LVUS62:
 14128 0490 00       		.uleb128 0
 14129 0491 00       		.uleb128 .LVU697
 14130 0492 00       		.uleb128 .LVU697
 14131 0493 00       		.uleb128 0
 14132              	.LLST62:
 14133 0494 00000000 		.4byte	.LVL96
 14134 0498 2B000000 		.4byte	.LVL98-1
 14135 049c 0100     		.2byte	0x1
 14136 049e 50       		.byte	0x50
ARM GAS  /tmp/ccTxpxgR.s 			page 249


 14137 049f 2B000000 		.4byte	.LVL98-1
 14138 04a3 30000000 		.4byte	.LFE167
 14139 04a7 0400     		.2byte	0x4
 14140 04a9 F3       		.byte	0xf3
 14141 04aa 01       		.uleb128 0x1
 14142 04ab 50       		.byte	0x50
 14143 04ac 9F       		.byte	0x9f
 14144 04ad 00000000 		.4byte	0
 14145 04b1 00000000 		.4byte	0
 14146              	.LVUS63:
 14147 04b5 00       		.uleb128 0
 14148 04b6 00       		.uleb128 .LVU697
 14149 04b7 00       		.uleb128 .LVU697
 14150 04b8 00       		.uleb128 0
 14151              	.LLST63:
 14152 04b9 00000000 		.4byte	.LVL96
 14153 04bd 2B000000 		.4byte	.LVL98-1
 14154 04c1 0100     		.2byte	0x1
 14155 04c3 51       		.byte	0x51
 14156 04c4 2B000000 		.4byte	.LVL98-1
 14157 04c8 30000000 		.4byte	.LFE167
 14158 04cc 0400     		.2byte	0x4
 14159 04ce F3       		.byte	0xf3
 14160 04cf 01       		.uleb128 0x1
 14161 04d0 51       		.byte	0x51
 14162 04d1 9F       		.byte	0x9f
 14163 04d2 00000000 		.4byte	0
 14164 04d6 00000000 		.4byte	0
 14165              	.LVUS64:
 14166 04da 03       		.uleb128 .LVU671
 14167 04db 00       		.uleb128 .LVU697
 14168 04dc 00       		.uleb128 .LVU697
 14169 04dd 00       		.uleb128 .LVU697
 14170              	.LLST64:
 14171 04de 04000000 		.4byte	.LVL97
 14172 04e2 2B000000 		.4byte	.LVL98-1
 14173 04e6 0100     		.2byte	0x1
 14174 04e8 51       		.byte	0x51
 14175 04e9 2B000000 		.4byte	.LVL98-1
 14176 04ed 2C000000 		.4byte	.LVL98
 14177 04f1 0400     		.2byte	0x4
 14178 04f3 F3       		.byte	0xf3
 14179 04f4 01       		.uleb128 0x1
 14180 04f5 51       		.byte	0x51
 14181 04f6 9F       		.byte	0x9f
 14182 04f7 00000000 		.4byte	0
 14183 04fb 00000000 		.4byte	0
 14184              	.LVUS65:
 14185 04ff 03       		.uleb128 .LVU671
 14186 0500 00       		.uleb128 .LVU697
 14187 0501 00       		.uleb128 .LVU697
 14188 0502 00       		.uleb128 .LVU697
 14189              	.LLST65:
 14190 0503 04000000 		.4byte	.LVL97
 14191 0507 2B000000 		.4byte	.LVL98-1
 14192 050b 0100     		.2byte	0x1
 14193 050d 50       		.byte	0x50
ARM GAS  /tmp/ccTxpxgR.s 			page 250


 14194 050e 2B000000 		.4byte	.LVL98-1
 14195 0512 2C000000 		.4byte	.LVL98
 14196 0516 0400     		.2byte	0x4
 14197 0518 F3       		.byte	0xf3
 14198 0519 01       		.uleb128 0x1
 14199 051a 50       		.byte	0x50
 14200 051b 9F       		.byte	0x9f
 14201 051c 00000000 		.4byte	0
 14202 0520 00000000 		.4byte	0
 14203              	.LVUS59:
 14204 0524 00       		.uleb128 0
 14205 0525 00       		.uleb128 .LVU641
 14206 0526 00       		.uleb128 .LVU641
 14207 0527 00       		.uleb128 0
 14208              	.LLST59:
 14209 0528 00000000 		.4byte	.LVL94
 14210 052c 07000000 		.4byte	.LVL95-1
 14211 0530 0100     		.2byte	0x1
 14212 0532 50       		.byte	0x50
 14213 0533 07000000 		.4byte	.LVL95-1
 14214 0537 0C000000 		.4byte	.LFE165
 14215 053b 0400     		.2byte	0x4
 14216 053d F3       		.byte	0xf3
 14217 053e 01       		.uleb128 0x1
 14218 053f 50       		.byte	0x50
 14219 0540 9F       		.byte	0x9f
 14220 0541 00000000 		.4byte	0
 14221 0545 00000000 		.4byte	0
 14222              	.LVUS60:
 14223 0549 00       		.uleb128 0
 14224 054a 00       		.uleb128 .LVU641
 14225 054b 00       		.uleb128 .LVU641
 14226 054c 00       		.uleb128 0
 14227              	.LLST60:
 14228 054d 00000000 		.4byte	.LVL94
 14229 0551 07000000 		.4byte	.LVL95-1
 14230 0555 0100     		.2byte	0x1
 14231 0557 51       		.byte	0x51
 14232 0558 07000000 		.4byte	.LVL95-1
 14233 055c 0C000000 		.4byte	.LFE165
 14234 0560 0400     		.2byte	0x4
 14235 0562 F3       		.byte	0xf3
 14236 0563 01       		.uleb128 0x1
 14237 0564 51       		.byte	0x51
 14238 0565 9F       		.byte	0x9f
 14239 0566 00000000 		.4byte	0
 14240 056a 00000000 		.4byte	0
 14241              	.LVUS61:
 14242 056e 00       		.uleb128 .LVU641
 14243 056f 00       		.uleb128 0
 14244              	.LLST61:
 14245 0570 08000000 		.4byte	.LVL95
 14246 0574 0C000000 		.4byte	.LFE165
 14247 0578 0100     		.2byte	0x1
 14248 057a 50       		.byte	0x50
 14249 057b 00000000 		.4byte	0
 14250 057f 00000000 		.4byte	0
ARM GAS  /tmp/ccTxpxgR.s 			page 251


 14251              	.LVUS49:
 14252 0583 00       		.uleb128 0
 14253 0584 00       		.uleb128 .LVU590
 14254 0585 00       		.uleb128 .LVU590
 14255 0586 00       		.uleb128 0
 14256              	.LLST49:
 14257 0587 00000000 		.4byte	.LVL83
 14258 058b 21000000 		.4byte	.LVL85-1
 14259 058f 0100     		.2byte	0x1
 14260 0591 50       		.byte	0x50
 14261 0592 21000000 		.4byte	.LVL85-1
 14262 0596 24000000 		.4byte	.LFE164
 14263 059a 0400     		.2byte	0x4
 14264 059c F3       		.byte	0xf3
 14265 059d 01       		.uleb128 0x1
 14266 059e 50       		.byte	0x50
 14267 059f 9F       		.byte	0x9f
 14268 05a0 00000000 		.4byte	0
 14269 05a4 00000000 		.4byte	0
 14270              	.LVUS50:
 14271 05a8 01       		.uleb128 .LVU588
 14272 05a9 00       		.uleb128 .LVU590
 14273              	.LLST50:
 14274 05aa 1C000000 		.4byte	.LVL84
 14275 05ae 22000000 		.4byte	.LVL85
 14276 05b2 0200     		.2byte	0x2
 14277 05b4 30       		.byte	0x30
 14278 05b5 9F       		.byte	0x9f
 14279 05b6 00000000 		.4byte	0
 14280 05ba 00000000 		.4byte	0
 14281              	.LVUS51:
 14282 05be 01       		.uleb128 .LVU588
 14283 05bf 00       		.uleb128 .LVU590
 14284 05c0 00       		.uleb128 .LVU590
 14285 05c1 00       		.uleb128 .LVU590
 14286              	.LLST51:
 14287 05c2 1C000000 		.4byte	.LVL84
 14288 05c6 21000000 		.4byte	.LVL85-1
 14289 05ca 0100     		.2byte	0x1
 14290 05cc 50       		.byte	0x50
 14291 05cd 21000000 		.4byte	.LVL85-1
 14292 05d1 22000000 		.4byte	.LVL85
 14293 05d5 0400     		.2byte	0x4
 14294 05d7 F3       		.byte	0xf3
 14295 05d8 01       		.uleb128 0x1
 14296 05d9 50       		.byte	0x50
 14297 05da 9F       		.byte	0x9f
 14298 05db 00000000 		.4byte	0
 14299 05df 00000000 		.4byte	0
 14300              	.LVUS48:
 14301 05e3 00       		.uleb128 0
 14302 05e4 00       		.uleb128 .LVU560
 14303 05e5 00       		.uleb128 .LVU560
 14304 05e6 00       		.uleb128 .LVU565
 14305 05e7 00       		.uleb128 .LVU565
 14306 05e8 00       		.uleb128 .LVU567
 14307 05e9 00       		.uleb128 .LVU567
ARM GAS  /tmp/ccTxpxgR.s 			page 252


 14308 05ea 00       		.uleb128 0
 14309              	.LLST48:
 14310 05eb 00000000 		.4byte	.LVL79
 14311 05ef 08000000 		.4byte	.LVL80
 14312 05f3 0100     		.2byte	0x1
 14313 05f5 50       		.byte	0x50
 14314 05f6 08000000 		.4byte	.LVL80
 14315 05fa 10000000 		.4byte	.LVL81
 14316 05fe 0400     		.2byte	0x4
 14317 0600 F3       		.byte	0xf3
 14318 0601 01       		.uleb128 0x1
 14319 0602 50       		.byte	0x50
 14320 0603 9F       		.byte	0x9f
 14321 0604 10000000 		.4byte	.LVL81
 14322 0608 14000000 		.4byte	.LVL82
 14323 060c 0100     		.2byte	0x1
 14324 060e 50       		.byte	0x50
 14325 060f 14000000 		.4byte	.LVL82
 14326 0613 1A000000 		.4byte	.LFE163
 14327 0617 0400     		.2byte	0x4
 14328 0619 F3       		.byte	0xf3
 14329 061a 01       		.uleb128 0x1
 14330 061b 50       		.byte	0x50
 14331 061c 9F       		.byte	0x9f
 14332 061d 00000000 		.4byte	0
 14333 0621 00000000 		.4byte	0
 14334              	.LVUS45:
 14335 0625 00       		.uleb128 0
 14336 0626 00       		.uleb128 .LVU554
 14337 0627 00       		.uleb128 .LVU554
 14338 0628 00       		.uleb128 0
 14339              	.LLST45:
 14340 0629 00000000 		.4byte	.LVL76
 14341 062d 19000000 		.4byte	.LVL78-1
 14342 0631 0100     		.2byte	0x1
 14343 0633 50       		.byte	0x50
 14344 0634 19000000 		.4byte	.LVL78-1
 14345 0638 1C000000 		.4byte	.LFE162
 14346 063c 0400     		.2byte	0x4
 14347 063e F3       		.byte	0xf3
 14348 063f 01       		.uleb128 0x1
 14349 0640 50       		.byte	0x50
 14350 0641 9F       		.byte	0x9f
 14351 0642 00000000 		.4byte	0
 14352 0646 00000000 		.4byte	0
 14353              	.LVUS46:
 14354 064a 01       		.uleb128 .LVU552
 14355 064b 00       		.uleb128 .LVU554
 14356              	.LLST46:
 14357 064c 16000000 		.4byte	.LVL77
 14358 0650 1A000000 		.4byte	.LVL78
 14359 0654 0300     		.2byte	0x3
 14360 0656 09       		.byte	0x9
 14361 0657 FE       		.byte	0xfe
 14362 0658 9F       		.byte	0x9f
 14363 0659 00000000 		.4byte	0
 14364 065d 00000000 		.4byte	0
ARM GAS  /tmp/ccTxpxgR.s 			page 253


 14365              	.LVUS47:
 14366 0661 01       		.uleb128 .LVU552
 14367 0662 00       		.uleb128 .LVU554
 14368 0663 00       		.uleb128 .LVU554
 14369 0664 00       		.uleb128 .LVU554
 14370              	.LLST47:
 14371 0665 16000000 		.4byte	.LVL77
 14372 0669 19000000 		.4byte	.LVL78-1
 14373 066d 0100     		.2byte	0x1
 14374 066f 50       		.byte	0x50
 14375 0670 19000000 		.4byte	.LVL78-1
 14376 0674 1A000000 		.4byte	.LVL78
 14377 0678 0400     		.2byte	0x4
 14378 067a F3       		.byte	0xf3
 14379 067b 01       		.uleb128 0x1
 14380 067c 50       		.byte	0x50
 14381 067d 9F       		.byte	0x9f
 14382 067e 00000000 		.4byte	0
 14383 0682 00000000 		.4byte	0
 14384              	.LVUS40:
 14385 0686 00       		.uleb128 0
 14386 0687 00       		.uleb128 .LVU504
 14387 0688 00       		.uleb128 .LVU504
 14388 0689 00       		.uleb128 0
 14389              	.LLST40:
 14390 068a 00000000 		.4byte	.LVL71
 14391 068e 0C000000 		.4byte	.LVL73
 14392 0692 0100     		.2byte	0x1
 14393 0694 52       		.byte	0x52
 14394 0695 0C000000 		.4byte	.LVL73
 14395 0699 2C000000 		.4byte	.LFE161
 14396 069d 0300     		.2byte	0x3
 14397 069f 72       		.byte	0x72
 14398 06a0 7C       		.sleb128 -4
 14399 06a1 9F       		.byte	0x9f
 14400 06a2 00000000 		.4byte	0
 14401 06a6 00000000 		.4byte	0
 14402              	.LVUS41:
 14403 06aa 00       		.uleb128 0
 14404 06ab 00       		.uleb128 .LVU503
 14405 06ac 00       		.uleb128 .LVU503
 14406 06ad 00       		.uleb128 .LVU505
 14407 06ae 00       		.uleb128 .LVU505
 14408 06af 00       		.uleb128 0
 14409              	.LLST41:
 14410 06b0 00000000 		.4byte	.LVL71
 14411 06b4 0A000000 		.4byte	.LVL72
 14412 06b8 0100     		.2byte	0x1
 14413 06ba 53       		.byte	0x53
 14414 06bb 0A000000 		.4byte	.LVL72
 14415 06bf 0E000000 		.4byte	.LVL74
 14416 06c3 0100     		.2byte	0x1
 14417 06c5 54       		.byte	0x54
 14418 06c6 0E000000 		.4byte	.LVL74
 14419 06ca 2C000000 		.4byte	.LFE161
 14420 06ce 0200     		.2byte	0x2
 14421 06d0 70       		.byte	0x70
ARM GAS  /tmp/ccTxpxgR.s 			page 254


 14422 06d1 08       		.sleb128 8
 14423 06d2 00000000 		.4byte	0
 14424 06d6 00000000 		.4byte	0
 14425              	.LVUS42:
 14426 06da 04       		.uleb128 .LVU492
 14427 06db 00       		.uleb128 .LVU514
 14428              	.LLST42:
 14429 06dc 00000000 		.4byte	.LVL71
 14430 06e0 1E000000 		.4byte	.LVL75
 14431 06e4 0100     		.2byte	0x1
 14432 06e6 50       		.byte	0x50
 14433 06e7 00000000 		.4byte	0
 14434 06eb 00000000 		.4byte	0
 14435              	.LVUS43:
 14436 06ef 06       		.uleb128 .LVU494
 14437 06f0 00       		.uleb128 .LVU514
 14438              	.LLST43:
 14439 06f1 00000000 		.4byte	.LVL71
 14440 06f5 1E000000 		.4byte	.LVL75
 14441 06f9 0100     		.2byte	0x1
 14442 06fb 50       		.byte	0x50
 14443 06fc 00000000 		.4byte	0
 14444 0700 00000000 		.4byte	0
 14445              	.LVUS44:
 14446 0704 08       		.uleb128 .LVU496
 14447 0705 00       		.uleb128 .LVU514
 14448              	.LLST44:
 14449 0706 00000000 		.4byte	.LVL71
 14450 070a 1E000000 		.4byte	.LVL75
 14451 070e 0100     		.2byte	0x1
 14452 0710 50       		.byte	0x50
 14453 0711 00000000 		.4byte	0
 14454 0715 00000000 		.4byte	0
 14455              	.LVUS30:
 14456 0719 00       		.uleb128 0
 14457 071a 00       		.uleb128 .LVU358
 14458 071b 00       		.uleb128 .LVU358
 14459 071c 00       		.uleb128 .LVU487
 14460 071d 00       		.uleb128 .LVU487
 14461 071e 00       		.uleb128 0
 14462              	.LLST30:
 14463 071f 00000000 		.4byte	.LVL40
 14464 0723 32000000 		.4byte	.LVL45
 14465 0727 0100     		.2byte	0x1
 14466 0729 50       		.byte	0x50
 14467 072a 32000000 		.4byte	.LVL45
 14468 072e D8000000 		.4byte	.LVL66
 14469 0732 0100     		.2byte	0x1
 14470 0734 54       		.byte	0x54
 14471 0735 D8000000 		.4byte	.LVL66
 14472 0739 E4000000 		.4byte	.LFE160
 14473 073d 0400     		.2byte	0x4
 14474 073f F3       		.byte	0xf3
 14475 0740 01       		.uleb128 0x1
 14476 0741 50       		.byte	0x50
 14477 0742 9F       		.byte	0x9f
 14478 0743 00000000 		.4byte	0
ARM GAS  /tmp/ccTxpxgR.s 			page 255


 14479 0747 00000000 		.4byte	0
 14480              	.LVUS31:
 14481 074b 00       		.uleb128 0
 14482 074c 00       		.uleb128 .LVU358
 14483 074d 00       		.uleb128 .LVU358
 14484 074e 00       		.uleb128 .LVU487
 14485              	.LLST31:
 14486 074f 00000000 		.4byte	.LVL40
 14487 0753 32000000 		.4byte	.LVL45
 14488 0757 0100     		.2byte	0x1
 14489 0759 51       		.byte	0x51
 14490 075a 32000000 		.4byte	.LVL45
 14491 075e D8000000 		.4byte	.LVL68
 14492 0762 0100     		.2byte	0x1
 14493 0764 57       		.byte	0x57
 14494 0765 00000000 		.4byte	0
 14495 0769 00000000 		.4byte	0
 14496              	.LVUS32:
 14497 076d 00       		.uleb128 0
 14498 076e 00       		.uleb128 .LVU349
 14499 076f 00       		.uleb128 .LVU349
 14500 0770 00       		.uleb128 .LVU358
 14501 0771 00       		.uleb128 .LVU358
 14502 0772 00       		.uleb128 .LVU360
 14503 0773 00       		.uleb128 .LVU360
 14504 0774 00       		.uleb128 .LVU432
 14505 0775 00       		.uleb128 .LVU432
 14506 0776 00       		.uleb128 .LVU436
 14507 0777 00       		.uleb128 .LVU436
 14508 0778 00       		.uleb128 .LVU487
 14509 0779 00       		.uleb128 .LVU487
 14510 077a 00       		.uleb128 0
 14511              	.LLST32:
 14512 077b 00000000 		.4byte	.LVL40
 14513 077f 1E000000 		.4byte	.LVL42
 14514 0783 0100     		.2byte	0x1
 14515 0785 52       		.byte	0x52
 14516 0786 1E000000 		.4byte	.LVL42
 14517 078a 32000000 		.4byte	.LVL45
 14518 078e 0100     		.2byte	0x1
 14519 0790 58       		.byte	0x58
 14520 0791 32000000 		.4byte	.LVL45
 14521 0795 36000000 		.4byte	.LVL46
 14522 0799 0100     		.2byte	0x1
 14523 079b 52       		.byte	0x52
 14524 079c 36000000 		.4byte	.LVL46
 14525 07a0 8C000000 		.4byte	.LVL54
 14526 07a4 0100     		.2byte	0x1
 14527 07a6 58       		.byte	0x58
 14528 07a7 8C000000 		.4byte	.LVL54
 14529 07ab 96000000 		.4byte	.LVL56
 14530 07af 0100     		.2byte	0x1
 14531 07b1 52       		.byte	0x52
 14532 07b2 96000000 		.4byte	.LVL56
 14533 07b6 D8000000 		.4byte	.LVL69
 14534 07ba 0100     		.2byte	0x1
 14535 07bc 58       		.byte	0x58
ARM GAS  /tmp/ccTxpxgR.s 			page 256


 14536 07bd D8000000 		.4byte	.LVL69
 14537 07c1 E4000000 		.4byte	.LFE160
 14538 07c5 0400     		.2byte	0x4
 14539 07c7 F3       		.byte	0xf3
 14540 07c8 01       		.uleb128 0x1
 14541 07c9 52       		.byte	0x52
 14542 07ca 9F       		.byte	0x9f
 14543 07cb 00000000 		.4byte	0
 14544 07cf 00000000 		.4byte	0
 14545              	.LVUS33:
 14546 07d3 00       		.uleb128 0
 14547 07d4 00       		.uleb128 .LVU348
 14548 07d5 00       		.uleb128 .LVU348
 14549 07d6 00       		.uleb128 .LVU487
 14550 07d7 00       		.uleb128 .LVU487
 14551 07d8 00       		.uleb128 0
 14552              	.LLST33:
 14553 07d9 00000000 		.4byte	.LVL40
 14554 07dd 1A000000 		.4byte	.LVL41
 14555 07e1 0100     		.2byte	0x1
 14556 07e3 53       		.byte	0x53
 14557 07e4 1A000000 		.4byte	.LVL41
 14558 07e8 D8000000 		.4byte	.LVL70
 14559 07ec 0100     		.2byte	0x1
 14560 07ee 5A       		.byte	0x5a
 14561 07ef D8000000 		.4byte	.LVL70
 14562 07f3 E4000000 		.4byte	.LFE160
 14563 07f7 0600     		.2byte	0x6
 14564 07f9 91       		.byte	0x91
 14565 07fa 50       		.sleb128 -48
 14566 07fb 06       		.byte	0x6
 14567 07fc 23       		.byte	0x23
 14568 07fd 01       		.uleb128 0x1
 14569 07fe 9F       		.byte	0x9f
 14570 07ff 00000000 		.4byte	0
 14571 0803 00000000 		.4byte	0
 14572              	.LVUS34:
 14573 0807 02       		.uleb128 .LVU321
 14574 0808 00       		.uleb128 .LVU358
 14575 0809 00       		.uleb128 .LVU358
 14576 080a 00       		.uleb128 .LVU487
 14577 080b 00       		.uleb128 .LVU487
 14578 080c 00       		.uleb128 0
 14579              	.LLST34:
 14580 080d 00000000 		.4byte	.LVL40
 14581 0811 32000000 		.4byte	.LVL45
 14582 0815 0200     		.2byte	0x2
 14583 0817 30       		.byte	0x30
 14584 0818 9F       		.byte	0x9f
 14585 0819 32000000 		.4byte	.LVL45
 14586 081d D8000000 		.4byte	.LVL67
 14587 0821 0100     		.2byte	0x1
 14588 0823 56       		.byte	0x56
 14589 0824 D8000000 		.4byte	.LVL67
 14590 0828 E4000000 		.4byte	.LFE160
 14591 082c 0100     		.2byte	0x1
 14592 082e 50       		.byte	0x50
ARM GAS  /tmp/ccTxpxgR.s 			page 257


 14593 082f 00000000 		.4byte	0
 14594 0833 00000000 		.4byte	0
 14595              	.LVUS35:
 14596 0837 00       		.uleb128 .LVU351
 14597 0838 00       		.uleb128 .LVU352
 14598 0839 00       		.uleb128 .LVU352
 14599 083a 00       		.uleb128 0
 14600              	.LLST35:
 14601 083b 24000000 		.4byte	.LVL43
 14602 083f 26000000 		.4byte	.LVL44
 14603 0843 0100     		.2byte	0x1
 14604 0845 52       		.byte	0x52
 14605 0846 26000000 		.4byte	.LVL44
 14606 084a E4000000 		.4byte	.LFE160
 14607 084e 0200     		.2byte	0x2
 14608 0850 91       		.byte	0x91
 14609 0851 54       		.sleb128 -44
 14610 0852 00000000 		.4byte	0
 14611 0856 00000000 		.4byte	0
 14612              	.LVUS36:
 14613 085a 00       		.uleb128 .LVU358
 14614 085b 02       		.uleb128 .LVU421
 14615 085c 00       		.uleb128 .LVU431
 14616 085d 00       		.uleb128 .LVU433
 14617 085e 00       		.uleb128 .LVU433
 14618 085f 00       		.uleb128 .LVU445
 14619              	.LLST36:
 14620 0860 32000000 		.4byte	.LVL45
 14621 0864 7A000000 		.4byte	.LVL52
 14622 0868 0100     		.2byte	0x1
 14623 086a 55       		.byte	0x55
 14624 086b 88000000 		.4byte	.LVL53
 14625 086f 8E000000 		.4byte	.LVL55
 14626 0873 0100     		.2byte	0x1
 14627 0875 53       		.byte	0x53
 14628 0876 8E000000 		.4byte	.LVL55
 14629 087a A6000000 		.4byte	.LVL60
 14630 087e 0100     		.2byte	0x1
 14631 0880 55       		.byte	0x55
 14632 0881 00000000 		.4byte	0
 14633 0885 00000000 		.4byte	0
 14634              	.LVUS37:
 14635 0889 00       		.uleb128 .LVU463
 14636 088a 00       		.uleb128 .LVU467
 14637 088b 00       		.uleb128 .LVU469
 14638 088c 00       		.uleb128 .LVU471
 14639              	.LLST37:
 14640 088d BE000000 		.4byte	.LVL62
 14641 0891 C6000000 		.4byte	.LVL63
 14642 0895 0100     		.2byte	0x1
 14643 0897 50       		.byte	0x50
 14644 0898 CE000000 		.4byte	.LVL64
 14645 089c D2000000 		.4byte	.LVL65
 14646 08a0 0100     		.2byte	0x1
 14647 08a2 50       		.byte	0x50
 14648 08a3 00000000 		.4byte	0
 14649 08a7 00000000 		.4byte	0
ARM GAS  /tmp/ccTxpxgR.s 			page 258


 14650              	.LVUS38:
 14651 08ab 00       		.uleb128 .LVU459
 14652 08ac 00       		.uleb128 .LVU463
 14653              	.LLST38:
 14654 08ad B4000000 		.4byte	.LVL61
 14655 08b1 BD000000 		.4byte	.LVL62-1
 14656 08b5 0100     		.2byte	0x1
 14657 08b7 51       		.byte	0x51
 14658 08b8 00000000 		.4byte	0
 14659 08bc 00000000 		.4byte	0
 14660              	.LVUS39:
 14661 08c0 01       		.uleb128 .LVU371
 14662 08c1 00       		.uleb128 .LVU394
 14663              	.LLST39:
 14664 08c2 4A000000 		.4byte	.LVL50
 14665 08c6 72000000 		.4byte	.LVL51
 14666 08ca 0100     		.2byte	0x1
 14667 08cc 54       		.byte	0x54
 14668 08cd 00000000 		.4byte	0
 14669 08d1 00000000 		.4byte	0
 14670              	.LVUS26:
 14671 08d5 00       		.uleb128 0
 14672 08d6 00       		.uleb128 .LVU266
 14673 08d7 00       		.uleb128 .LVU266
 14674 08d8 00       		.uleb128 .LVU313
 14675 08d9 00       		.uleb128 .LVU313
 14676 08da 00       		.uleb128 .LVU314
 14677 08db 00       		.uleb128 .LVU314
 14678 08dc 00       		.uleb128 .LVU316
 14679 08dd 00       		.uleb128 .LVU316
 14680 08de 00       		.uleb128 0
 14681              	.LLST26:
 14682 08df 00000000 		.4byte	.LVL30
 14683 08e3 0C000000 		.4byte	.LVL31
 14684 08e7 0100     		.2byte	0x1
 14685 08e9 50       		.byte	0x50
 14686 08ea 0C000000 		.4byte	.LVL31
 14687 08ee 44000000 		.4byte	.LVL35
 14688 08f2 0100     		.2byte	0x1
 14689 08f4 54       		.byte	0x54
 14690 08f5 44000000 		.4byte	.LVL35
 14691 08f9 46000000 		.4byte	.LVL37
 14692 08fd 0400     		.2byte	0x4
 14693 08ff F3       		.byte	0xf3
 14694 0900 01       		.uleb128 0x1
 14695 0901 50       		.byte	0x50
 14696 0902 9F       		.byte	0x9f
 14697 0903 46000000 		.4byte	.LVL37
 14698 0907 49000000 		.4byte	.LVL38-1
 14699 090b 0100     		.2byte	0x1
 14700 090d 50       		.byte	0x50
 14701 090e 49000000 		.4byte	.LVL38-1
 14702 0912 52000000 		.4byte	.LFE159
 14703 0916 0100     		.2byte	0x1
 14704 0918 54       		.byte	0x54
 14705 0919 00000000 		.4byte	0
 14706 091d 00000000 		.4byte	0
ARM GAS  /tmp/ccTxpxgR.s 			page 259


 14707              	.LVUS27:
 14708 0921 00       		.uleb128 0
 14709 0922 00       		.uleb128 .LVU266
 14710 0923 00       		.uleb128 .LVU266
 14711 0924 00       		.uleb128 .LVU314
 14712 0925 00       		.uleb128 .LVU314
 14713 0926 00       		.uleb128 .LVU316
 14714 0927 00       		.uleb128 .LVU316
 14715 0928 00       		.uleb128 0
 14716              	.LLST27:
 14717 0929 00000000 		.4byte	.LVL30
 14718 092d 0C000000 		.4byte	.LVL31
 14719 0931 0100     		.2byte	0x1
 14720 0933 51       		.byte	0x51
 14721 0934 0C000000 		.4byte	.LVL31
 14722 0938 46000000 		.4byte	.LVL37
 14723 093c 0400     		.2byte	0x4
 14724 093e F3       		.byte	0xf3
 14725 093f 01       		.uleb128 0x1
 14726 0940 51       		.byte	0x51
 14727 0941 9F       		.byte	0x9f
 14728 0942 46000000 		.4byte	.LVL37
 14729 0946 49000000 		.4byte	.LVL38-1
 14730 094a 0100     		.2byte	0x1
 14731 094c 51       		.byte	0x51
 14732 094d 49000000 		.4byte	.LVL38-1
 14733 0951 52000000 		.4byte	.LFE159
 14734 0955 0400     		.2byte	0x4
 14735 0957 F3       		.byte	0xf3
 14736 0958 01       		.uleb128 0x1
 14737 0959 51       		.byte	0x51
 14738 095a 9F       		.byte	0x9f
 14739 095b 00000000 		.4byte	0
 14740 095f 00000000 		.4byte	0
 14741              	.LVUS28:
 14742 0963 00       		.uleb128 .LVU269
 14743 0964 00       		.uleb128 .LVU313
 14744 0965 00       		.uleb128 .LVU313
 14745 0966 00       		.uleb128 .LVU314
 14746 0967 00       		.uleb128 .LVU317
 14747 0968 00       		.uleb128 0
 14748              	.LLST28:
 14749 0969 10000000 		.4byte	.LVL32
 14750 096d 44000000 		.4byte	.LVL36
 14751 0971 0100     		.2byte	0x1
 14752 0973 55       		.byte	0x55
 14753 0974 44000000 		.4byte	.LVL36
 14754 0978 46000000 		.4byte	.LVL37
 14755 097c 0100     		.2byte	0x1
 14756 097e 50       		.byte	0x50
 14757 097f 4C000000 		.4byte	.LVL39
 14758 0983 52000000 		.4byte	.LFE159
 14759 0987 0100     		.2byte	0x1
 14760 0989 50       		.byte	0x50
 14761 098a 00000000 		.4byte	0
 14762 098e 00000000 		.4byte	0
 14763              	.LVUS29:
ARM GAS  /tmp/ccTxpxgR.s 			page 260


 14764 0992 01       		.uleb128 .LVU274
 14765 0993 00       		.uleb128 .LVU297
 14766              	.LLST29:
 14767 0994 18000000 		.4byte	.LVL33
 14768 0998 40000000 		.4byte	.LVL34
 14769 099c 0100     		.2byte	0x1
 14770 099e 54       		.byte	0x54
 14771 099f 00000000 		.4byte	0
 14772 09a3 00000000 		.4byte	0
 14773              	.LVUS23:
 14774 09a7 00       		.uleb128 0
 14775 09a8 00       		.uleb128 .LVU206
 14776 09a9 00       		.uleb128 .LVU206
 14777 09aa 00       		.uleb128 0
 14778              	.LLST23:
 14779 09ab 00000000 		.4byte	.LVL25
 14780 09af 29000000 		.4byte	.LVL27-1
 14781 09b3 0100     		.2byte	0x1
 14782 09b5 50       		.byte	0x50
 14783 09b6 29000000 		.4byte	.LVL27-1
 14784 09ba 2E000000 		.4byte	.LFE157
 14785 09be 0400     		.2byte	0x4
 14786 09c0 F3       		.byte	0xf3
 14787 09c1 01       		.uleb128 0x1
 14788 09c2 50       		.byte	0x50
 14789 09c3 9F       		.byte	0x9f
 14790 09c4 00000000 		.4byte	0
 14791 09c8 00000000 		.4byte	0
 14792              	.LVUS24:
 14793 09cc 03       		.uleb128 .LVU183
 14794 09cd 00       		.uleb128 .LVU206
 14795 09ce 00       		.uleb128 .LVU206
 14796 09cf 00       		.uleb128 .LVU206
 14797              	.LLST24:
 14798 09d0 04000000 		.4byte	.LVL26
 14799 09d4 29000000 		.4byte	.LVL27-1
 14800 09d8 0100     		.2byte	0x1
 14801 09da 50       		.byte	0x50
 14802 09db 29000000 		.4byte	.LVL27-1
 14803 09df 2A000000 		.4byte	.LVL27
 14804 09e3 0400     		.2byte	0x4
 14805 09e5 F3       		.byte	0xf3
 14806 09e6 01       		.uleb128 0x1
 14807 09e7 50       		.byte	0x50
 14808 09e8 9F       		.byte	0x9f
 14809 09e9 00000000 		.4byte	0
 14810 09ed 00000000 		.4byte	0
 14811              	.LVUS20:
 14812 09f1 00       		.uleb128 0
 14813 09f2 00       		.uleb128 .LVU153
 14814 09f3 00       		.uleb128 .LVU153
 14815 09f4 00       		.uleb128 0
 14816              	.LLST20:
 14817 09f5 00000000 		.4byte	.LVL23
 14818 09f9 07000000 		.4byte	.LVL24-1
 14819 09fd 0100     		.2byte	0x1
 14820 09ff 50       		.byte	0x50
ARM GAS  /tmp/ccTxpxgR.s 			page 261


 14821 0a00 07000000 		.4byte	.LVL24-1
 14822 0a04 0C000000 		.4byte	.LFE155
 14823 0a08 0400     		.2byte	0x4
 14824 0a0a F3       		.byte	0xf3
 14825 0a0b 01       		.uleb128 0x1
 14826 0a0c 50       		.byte	0x50
 14827 0a0d 9F       		.byte	0x9f
 14828 0a0e 00000000 		.4byte	0
 14829 0a12 00000000 		.4byte	0
 14830              	.LVUS21:
 14831 0a16 00       		.uleb128 0
 14832 0a17 00       		.uleb128 .LVU153
 14833 0a18 00       		.uleb128 .LVU153
 14834 0a19 00       		.uleb128 0
 14835              	.LLST21:
 14836 0a1a 00000000 		.4byte	.LVL23
 14837 0a1e 07000000 		.4byte	.LVL24-1
 14838 0a22 0100     		.2byte	0x1
 14839 0a24 51       		.byte	0x51
 14840 0a25 07000000 		.4byte	.LVL24-1
 14841 0a29 0C000000 		.4byte	.LFE155
 14842 0a2d 0400     		.2byte	0x4
 14843 0a2f F3       		.byte	0xf3
 14844 0a30 01       		.uleb128 0x1
 14845 0a31 51       		.byte	0x51
 14846 0a32 9F       		.byte	0x9f
 14847 0a33 00000000 		.4byte	0
 14848 0a37 00000000 		.4byte	0
 14849              	.LVUS22:
 14850 0a3b 00       		.uleb128 .LVU153
 14851 0a3c 00       		.uleb128 0
 14852              	.LLST22:
 14853 0a3d 08000000 		.4byte	.LVL24
 14854 0a41 0C000000 		.4byte	.LFE155
 14855 0a45 0100     		.2byte	0x1
 14856 0a47 50       		.byte	0x50
 14857 0a48 00000000 		.4byte	0
 14858 0a4c 00000000 		.4byte	0
 14859              	.LVUS9:
 14860 0a50 00       		.uleb128 0
 14861 0a51 00       		.uleb128 .LVU101
 14862 0a52 00       		.uleb128 .LVU101
 14863 0a53 00       		.uleb128 0
 14864              	.LLST9:
 14865 0a54 00000000 		.4byte	.LVL11
 14866 0a58 23000000 		.4byte	.LVL14-1
 14867 0a5c 0100     		.2byte	0x1
 14868 0a5e 50       		.byte	0x50
 14869 0a5f 23000000 		.4byte	.LVL14-1
 14870 0a63 26000000 		.4byte	.LFE154
 14871 0a67 0400     		.2byte	0x4
 14872 0a69 F3       		.byte	0xf3
 14873 0a6a 01       		.uleb128 0x1
 14874 0a6b 50       		.byte	0x50
 14875 0a6c 9F       		.byte	0x9f
 14876 0a6d 00000000 		.4byte	0
 14877 0a71 00000000 		.4byte	0
ARM GAS  /tmp/ccTxpxgR.s 			page 262


 14878              	.LVUS10:
 14879 0a75 00       		.uleb128 0
 14880 0a76 00       		.uleb128 .LVU100
 14881 0a77 00       		.uleb128 .LVU100
 14882 0a78 00       		.uleb128 0
 14883              	.LLST10:
 14884 0a79 00000000 		.4byte	.LVL11
 14885 0a7d 20000000 		.4byte	.LVL13
 14886 0a81 0100     		.2byte	0x1
 14887 0a83 51       		.byte	0x51
 14888 0a84 20000000 		.4byte	.LVL13
 14889 0a88 26000000 		.4byte	.LFE154
 14890 0a8c 0400     		.2byte	0x4
 14891 0a8e F3       		.byte	0xf3
 14892 0a8f 01       		.uleb128 0x1
 14893 0a90 51       		.byte	0x51
 14894 0a91 9F       		.byte	0x9f
 14895 0a92 00000000 		.4byte	0
 14896 0a96 00000000 		.4byte	0
 14897              	.LVUS11:
 14898 0a9a 01       		.uleb128 .LVU98
 14899 0a9b 00       		.uleb128 .LVU101
 14900              	.LLST11:
 14901 0a9c 1E000000 		.4byte	.LVL12
 14902 0aa0 24000000 		.4byte	.LVL14
 14903 0aa4 0200     		.2byte	0x2
 14904 0aa6 30       		.byte	0x30
 14905 0aa7 9F       		.byte	0x9f
 14906 0aa8 00000000 		.4byte	0
 14907 0aac 00000000 		.4byte	0
 14908              	.LVUS12:
 14909 0ab0 01       		.uleb128 .LVU98
 14910 0ab1 00       		.uleb128 .LVU101
 14911 0ab2 00       		.uleb128 .LVU101
 14912 0ab3 00       		.uleb128 .LVU101
 14913              	.LLST12:
 14914 0ab4 1E000000 		.4byte	.LVL12
 14915 0ab8 23000000 		.4byte	.LVL14-1
 14916 0abc 0100     		.2byte	0x1
 14917 0abe 50       		.byte	0x50
 14918 0abf 23000000 		.4byte	.LVL14-1
 14919 0ac3 24000000 		.4byte	.LVL14
 14920 0ac7 0400     		.2byte	0x4
 14921 0ac9 F3       		.byte	0xf3
 14922 0aca 01       		.uleb128 0x1
 14923 0acb 50       		.byte	0x50
 14924 0acc 9F       		.byte	0x9f
 14925 0acd 00000000 		.4byte	0
 14926 0ad1 00000000 		.4byte	0
 14927              	.LVUS8:
 14928 0ad5 00       		.uleb128 0
 14929 0ad6 00       		.uleb128 .LVU70
 14930 0ad7 00       		.uleb128 .LVU70
 14931 0ad8 00       		.uleb128 .LVU73
 14932 0ad9 00       		.uleb128 .LVU73
 14933 0ada 00       		.uleb128 .LVU75
 14934 0adb 00       		.uleb128 .LVU75
ARM GAS  /tmp/ccTxpxgR.s 			page 263


 14935 0adc 00       		.uleb128 0
 14936              	.LLST8:
 14937 0add 00000000 		.4byte	.LVL7
 14938 0ae1 08000000 		.4byte	.LVL8
 14939 0ae5 0100     		.2byte	0x1
 14940 0ae7 50       		.byte	0x50
 14941 0ae8 08000000 		.4byte	.LVL8
 14942 0aec 0C000000 		.4byte	.LVL9
 14943 0af0 0400     		.2byte	0x4
 14944 0af2 F3       		.byte	0xf3
 14945 0af3 01       		.uleb128 0x1
 14946 0af4 50       		.byte	0x50
 14947 0af5 9F       		.byte	0x9f
 14948 0af6 0C000000 		.4byte	.LVL9
 14949 0afa 10000000 		.4byte	.LVL10
 14950 0afe 0100     		.2byte	0x1
 14951 0b00 50       		.byte	0x50
 14952 0b01 10000000 		.4byte	.LVL10
 14953 0b05 16000000 		.4byte	.LFE153
 14954 0b09 0400     		.2byte	0x4
 14955 0b0b F3       		.byte	0xf3
 14956 0b0c 01       		.uleb128 0x1
 14957 0b0d 50       		.byte	0x50
 14958 0b0e 9F       		.byte	0x9f
 14959 0b0f 00000000 		.4byte	0
 14960 0b13 00000000 		.4byte	0
 14961              	.LVUS5:
 14962 0b17 00       		.uleb128 0
 14963 0b18 00       		.uleb128 .LVU64
 14964 0b19 00       		.uleb128 .LVU64
 14965 0b1a 00       		.uleb128 0
 14966              	.LLST5:
 14967 0b1b 00000000 		.4byte	.LVL4
 14968 0b1f 17000000 		.4byte	.LVL6-1
 14969 0b23 0100     		.2byte	0x1
 14970 0b25 50       		.byte	0x50
 14971 0b26 17000000 		.4byte	.LVL6-1
 14972 0b2a 1A000000 		.4byte	.LFE152
 14973 0b2e 0400     		.2byte	0x4
 14974 0b30 F3       		.byte	0xf3
 14975 0b31 01       		.uleb128 0x1
 14976 0b32 50       		.byte	0x50
 14977 0b33 9F       		.byte	0x9f
 14978 0b34 00000000 		.4byte	0
 14979 0b38 00000000 		.4byte	0
 14980              	.LVUS6:
 14981 0b3c 01       		.uleb128 .LVU62
 14982 0b3d 00       		.uleb128 .LVU64
 14983              	.LLST6:
 14984 0b3e 12000000 		.4byte	.LVL5
 14985 0b42 18000000 		.4byte	.LVL6
 14986 0b46 0300     		.2byte	0x3
 14987 0b48 09       		.byte	0x9
 14988 0b49 FE       		.byte	0xfe
 14989 0b4a 9F       		.byte	0x9f
 14990 0b4b 00000000 		.4byte	0
 14991 0b4f 00000000 		.4byte	0
ARM GAS  /tmp/ccTxpxgR.s 			page 264


 14992              	.LVUS7:
 14993 0b53 01       		.uleb128 .LVU62
 14994 0b54 00       		.uleb128 .LVU64
 14995 0b55 00       		.uleb128 .LVU64
 14996 0b56 00       		.uleb128 .LVU64
 14997              	.LLST7:
 14998 0b57 12000000 		.4byte	.LVL5
 14999 0b5b 17000000 		.4byte	.LVL6-1
 15000 0b5f 0100     		.2byte	0x1
 15001 0b61 50       		.byte	0x50
 15002 0b62 17000000 		.4byte	.LVL6-1
 15003 0b66 18000000 		.4byte	.LVL6
 15004 0b6a 0400     		.2byte	0x4
 15005 0b6c F3       		.byte	0xf3
 15006 0b6d 01       		.uleb128 0x1
 15007 0b6e 50       		.byte	0x50
 15008 0b6f 9F       		.byte	0x9f
 15009 0b70 00000000 		.4byte	0
 15010 0b74 00000000 		.4byte	0
 15011              	.LVUS0:
 15012 0b78 00       		.uleb128 0
 15013 0b79 00       		.uleb128 .LVU14
 15014 0b7a 00       		.uleb128 .LVU14
 15015 0b7b 00       		.uleb128 0
 15016              	.LLST0:
 15017 0b7c 00000000 		.4byte	.LVL0
 15018 0b80 08000000 		.4byte	.LVL1
 15019 0b84 0100     		.2byte	0x1
 15020 0b86 52       		.byte	0x52
 15021 0b87 08000000 		.4byte	.LVL1
 15022 0b8b 2C000000 		.4byte	.LFE151
 15023 0b8f 0300     		.2byte	0x3
 15024 0b91 72       		.byte	0x72
 15025 0b92 7C       		.sleb128 -4
 15026 0b93 9F       		.byte	0x9f
 15027 0b94 00000000 		.4byte	0
 15028 0b98 00000000 		.4byte	0
 15029              	.LVUS1:
 15030 0b9c 00       		.uleb128 0
 15031 0b9d 00       		.uleb128 .LVU17
 15032 0b9e 00       		.uleb128 .LVU17
 15033 0b9f 00       		.uleb128 0
 15034              	.LLST1:
 15035 0ba0 00000000 		.4byte	.LVL0
 15036 0ba4 0E000000 		.4byte	.LVL2
 15037 0ba8 0100     		.2byte	0x1
 15038 0baa 53       		.byte	0x53
 15039 0bab 0E000000 		.4byte	.LVL2
 15040 0baf 2C000000 		.4byte	.LFE151
 15041 0bb3 0200     		.2byte	0x2
 15042 0bb5 70       		.byte	0x70
 15043 0bb6 1C       		.sleb128 28
 15044 0bb7 00000000 		.4byte	0
 15045 0bbb 00000000 		.4byte	0
 15046              	.LVUS2:
 15047 0bbf 04       		.uleb128 .LVU4
 15048 0bc0 00       		.uleb128 .LVU24
ARM GAS  /tmp/ccTxpxgR.s 			page 265


 15049              	.LLST2:
 15050 0bc1 00000000 		.4byte	.LVL0
 15051 0bc5 1A000000 		.4byte	.LVL3
 15052 0bc9 0100     		.2byte	0x1
 15053 0bcb 50       		.byte	0x50
 15054 0bcc 00000000 		.4byte	0
 15055 0bd0 00000000 		.4byte	0
 15056              	.LVUS3:
 15057 0bd4 06       		.uleb128 .LVU6
 15058 0bd5 00       		.uleb128 .LVU24
 15059              	.LLST3:
 15060 0bd6 00000000 		.4byte	.LVL0
 15061 0bda 1A000000 		.4byte	.LVL3
 15062 0bde 0100     		.2byte	0x1
 15063 0be0 50       		.byte	0x50
 15064 0be1 00000000 		.4byte	0
 15065 0be5 00000000 		.4byte	0
 15066              	.LVUS4:
 15067 0be9 08       		.uleb128 .LVU8
 15068 0bea 00       		.uleb128 .LVU24
 15069              	.LLST4:
 15070 0beb 00000000 		.4byte	.LVL0
 15071 0bef 1A000000 		.4byte	.LVL3
 15072 0bf3 0100     		.2byte	0x1
 15073 0bf5 50       		.byte	0x50
 15074 0bf6 00000000 		.4byte	0
 15075 0bfa 00000000 		.4byte	0
 15076              	.LVUS13:
 15077 0bfe 00       		.uleb128 0
 15078 0bff 00       		.uleb128 .LVU110
 15079 0c00 00       		.uleb128 .LVU110
 15080 0c01 03       		.uleb128 .LVU135
 15081 0c02 03       		.uleb128 .LVU135
 15082 0c03 00       		.uleb128 0
 15083              	.LLST13:
 15084 0c04 00000000 		.4byte	.LVL15
 15085 0c08 08000000 		.4byte	.LVL16
 15086 0c0c 0100     		.2byte	0x1
 15087 0c0e 50       		.byte	0x50
 15088 0c0f 08000000 		.4byte	.LVL16
 15089 0c13 28000000 		.4byte	.LVL21
 15090 0c17 0100     		.2byte	0x1
 15091 0c19 54       		.byte	0x54
 15092 0c1a 28000000 		.4byte	.LVL21
 15093 0c1e 2A000000 		.4byte	.LFE156
 15094 0c22 0400     		.2byte	0x4
 15095 0c24 F3       		.byte	0xf3
 15096 0c25 01       		.uleb128 0x1
 15097 0c26 50       		.byte	0x50
 15098 0c27 9F       		.byte	0x9f
 15099 0c28 00000000 		.4byte	0
 15100 0c2c 00000000 		.4byte	0
 15101              	.LVUS14:
 15102 0c30 00       		.uleb128 0
 15103 0c31 00       		.uleb128 .LVU110
 15104 0c32 00       		.uleb128 .LVU110
 15105 0c33 03       		.uleb128 .LVU135
ARM GAS  /tmp/ccTxpxgR.s 			page 266


 15106 0c34 03       		.uleb128 .LVU135
 15107 0c35 00       		.uleb128 0
 15108              	.LLST14:
 15109 0c36 00000000 		.4byte	.LVL15
 15110 0c3a 08000000 		.4byte	.LVL16
 15111 0c3e 0100     		.2byte	0x1
 15112 0c40 51       		.byte	0x51
 15113 0c41 08000000 		.4byte	.LVL16
 15114 0c45 28000000 		.4byte	.LVL22
 15115 0c49 0100     		.2byte	0x1
 15116 0c4b 55       		.byte	0x55
 15117 0c4c 28000000 		.4byte	.LVL22
 15118 0c50 2A000000 		.4byte	.LFE156
 15119 0c54 0400     		.2byte	0x4
 15120 0c56 F3       		.byte	0xf3
 15121 0c57 01       		.uleb128 0x1
 15122 0c58 51       		.byte	0x51
 15123 0c59 9F       		.byte	0x9f
 15124 0c5a 00000000 		.4byte	0
 15125 0c5e 00000000 		.4byte	0
 15126              	.LVUS15:
 15127 0c62 00       		.uleb128 .LVU114
 15128 0c63 00       		.uleb128 .LVU117
 15129              	.LLST15:
 15130 0c64 10000000 		.4byte	.LVL17
 15131 0c68 14000000 		.4byte	.LVL18
 15132 0c6c 0100     		.2byte	0x1
 15133 0c6e 50       		.byte	0x50
 15134 0c6f 00000000 		.4byte	0
 15135 0c73 00000000 		.4byte	0
 15136              	.LVUS16:
 15137 0c77 01       		.uleb128 .LVU111
 15138 0c78 00       		.uleb128 .LVU114
 15139              	.LLST16:
 15140 0c79 08000000 		.4byte	.LVL16
 15141 0c7d 10000000 		.4byte	.LVL17
 15142 0c81 0100     		.2byte	0x1
 15143 0c83 55       		.byte	0x55
 15144 0c84 00000000 		.4byte	0
 15145 0c88 00000000 		.4byte	0
 15146              	.LVUS17:
 15147 0c8c 01       		.uleb128 .LVU111
 15148 0c8d 00       		.uleb128 .LVU114
 15149              	.LLST17:
 15150 0c8e 08000000 		.4byte	.LVL16
 15151 0c92 10000000 		.4byte	.LVL17
 15152 0c96 0100     		.2byte	0x1
 15153 0c98 54       		.byte	0x54
 15154 0c99 00000000 		.4byte	0
 15155 0c9d 00000000 		.4byte	0
 15156              	.LVUS18:
 15157 0ca1 01       		.uleb128 .LVU121
 15158 0ca2 01       		.uleb128 .LVU133
 15159              	.LLST18:
 15160 0ca3 1A000000 		.4byte	.LVL19
 15161 0ca7 28000000 		.4byte	.LVL20
 15162 0cab 0100     		.2byte	0x1
ARM GAS  /tmp/ccTxpxgR.s 			page 267


 15163 0cad 55       		.byte	0x55
 15164 0cae 00000000 		.4byte	0
 15165 0cb2 00000000 		.4byte	0
 15166              	.LVUS19:
 15167 0cb6 00       		.uleb128 .LVU120
 15168 0cb7 01       		.uleb128 .LVU133
 15169              	.LLST19:
 15170 0cb8 1A000000 		.4byte	.LVL19
 15171 0cbc 28000000 		.4byte	.LVL20
 15172 0cc0 0100     		.2byte	0x1
 15173 0cc2 54       		.byte	0x54
 15174 0cc3 00000000 		.4byte	0
 15175 0cc7 00000000 		.4byte	0
 15176              	.LVUS25:
 15177 0ccb 00       		.uleb128 0
 15178 0ccc 00       		.uleb128 .LVU246
 15179 0ccd 00       		.uleb128 .LVU246
 15180 0cce 00       		.uleb128 0
 15181              	.LLST25:
 15182 0ccf 00000000 		.4byte	.LVL28
 15183 0cd3 27000000 		.4byte	.LVL29-1
 15184 0cd7 0100     		.2byte	0x1
 15185 0cd9 50       		.byte	0x50
 15186 0cda 27000000 		.4byte	.LVL29-1
 15187 0cde 2A000000 		.4byte	.LFE158
 15188 0ce2 0400     		.2byte	0x4
 15189 0ce4 F3       		.byte	0xf3
 15190 0ce5 01       		.uleb128 0x1
 15191 0ce6 50       		.byte	0x50
 15192 0ce7 9F       		.byte	0x9f
 15193 0ce8 00000000 		.4byte	0
 15194 0cec 00000000 		.4byte	0
 15195              	.LVUS52:
 15196 0cf0 00       		.uleb128 0
 15197 0cf1 00       		.uleb128 .LVU599
 15198 0cf2 00       		.uleb128 .LVU599
 15199 0cf3 03       		.uleb128 .LVU623
 15200 0cf4 03       		.uleb128 .LVU623
 15201 0cf5 00       		.uleb128 0
 15202              	.LLST52:
 15203 0cf6 00000000 		.4byte	.LVL86
 15204 0cfa 08000000 		.4byte	.LVL87
 15205 0cfe 0100     		.2byte	0x1
 15206 0d00 50       		.byte	0x50
 15207 0d01 08000000 		.4byte	.LVL87
 15208 0d05 2A000000 		.4byte	.LVL92
 15209 0d09 0100     		.2byte	0x1
 15210 0d0b 54       		.byte	0x54
 15211 0d0c 2A000000 		.4byte	.LVL92
 15212 0d10 2C000000 		.4byte	.LFE166
 15213 0d14 0400     		.2byte	0x4
 15214 0d16 F3       		.byte	0xf3
 15215 0d17 01       		.uleb128 0x1
 15216 0d18 50       		.byte	0x50
 15217 0d19 9F       		.byte	0x9f
 15218 0d1a 00000000 		.4byte	0
 15219 0d1e 00000000 		.4byte	0
ARM GAS  /tmp/ccTxpxgR.s 			page 268


 15220              	.LVUS53:
 15221 0d22 00       		.uleb128 0
 15222 0d23 00       		.uleb128 .LVU599
 15223 0d24 00       		.uleb128 .LVU599
 15224 0d25 03       		.uleb128 .LVU623
 15225 0d26 03       		.uleb128 .LVU623
 15226 0d27 00       		.uleb128 0
 15227              	.LLST53:
 15228 0d28 00000000 		.4byte	.LVL86
 15229 0d2c 08000000 		.4byte	.LVL87
 15230 0d30 0100     		.2byte	0x1
 15231 0d32 51       		.byte	0x51
 15232 0d33 08000000 		.4byte	.LVL87
 15233 0d37 2A000000 		.4byte	.LVL93
 15234 0d3b 0100     		.2byte	0x1
 15235 0d3d 55       		.byte	0x55
 15236 0d3e 2A000000 		.4byte	.LVL93
 15237 0d42 2C000000 		.4byte	.LFE166
 15238 0d46 0400     		.2byte	0x4
 15239 0d48 F3       		.byte	0xf3
 15240 0d49 01       		.uleb128 0x1
 15241 0d4a 51       		.byte	0x51
 15242 0d4b 9F       		.byte	0x9f
 15243 0d4c 00000000 		.4byte	0
 15244 0d50 00000000 		.4byte	0
 15245              	.LVUS54:
 15246 0d54 00       		.uleb128 .LVU603
 15247 0d55 00       		.uleb128 .LVU606
 15248              	.LLST54:
 15249 0d56 10000000 		.4byte	.LVL88
 15250 0d5a 14000000 		.4byte	.LVL89
 15251 0d5e 0100     		.2byte	0x1
 15252 0d60 50       		.byte	0x50
 15253 0d61 00000000 		.4byte	0
 15254 0d65 00000000 		.4byte	0
 15255              	.LVUS55:
 15256 0d69 01       		.uleb128 .LVU600
 15257 0d6a 00       		.uleb128 .LVU603
 15258              	.LLST55:
 15259 0d6b 08000000 		.4byte	.LVL87
 15260 0d6f 10000000 		.4byte	.LVL88
 15261 0d73 0100     		.2byte	0x1
 15262 0d75 55       		.byte	0x55
 15263 0d76 00000000 		.4byte	0
 15264 0d7a 00000000 		.4byte	0
 15265              	.LVUS56:
 15266 0d7e 01       		.uleb128 .LVU600
 15267 0d7f 00       		.uleb128 .LVU603
 15268              	.LLST56:
 15269 0d80 08000000 		.4byte	.LVL87
 15270 0d84 10000000 		.4byte	.LVL88
 15271 0d88 0100     		.2byte	0x1
 15272 0d8a 54       		.byte	0x54
 15273 0d8b 00000000 		.4byte	0
 15274 0d8f 00000000 		.4byte	0
 15275              	.LVUS57:
 15276 0d93 01       		.uleb128 .LVU610
ARM GAS  /tmp/ccTxpxgR.s 			page 269


 15277 0d94 01       		.uleb128 .LVU621
 15278              	.LLST57:
 15279 0d95 1A000000 		.4byte	.LVL90
 15280 0d99 2A000000 		.4byte	.LVL91
 15281 0d9d 0100     		.2byte	0x1
 15282 0d9f 55       		.byte	0x55
 15283 0da0 00000000 		.4byte	0
 15284 0da4 00000000 		.4byte	0
 15285              	.LVUS58:
 15286 0da8 00       		.uleb128 .LVU609
 15287 0da9 01       		.uleb128 .LVU621
 15288              	.LLST58:
 15289 0daa 1A000000 		.4byte	.LVL90
 15290 0dae 2A000000 		.4byte	.LVL91
 15291 0db2 0100     		.2byte	0x1
 15292 0db4 54       		.byte	0x54
 15293 0db5 00000000 		.4byte	0
 15294 0db9 00000000 		.4byte	0
 15295              	.LVUS66:
 15296 0dbd 00       		.uleb128 0
 15297 0dbe 00       		.uleb128 .LVU739
 15298 0dbf 00       		.uleb128 .LVU739
 15299 0dc0 00       		.uleb128 0
 15300              	.LLST66:
 15301 0dc1 00000000 		.4byte	.LVL99
 15302 0dc5 29000000 		.4byte	.LVL100-1
 15303 0dc9 0100     		.2byte	0x1
 15304 0dcb 50       		.byte	0x50
 15305 0dcc 29000000 		.4byte	.LVL100-1
 15306 0dd0 2C000000 		.4byte	.LFE168
 15307 0dd4 0400     		.2byte	0x4
 15308 0dd6 F3       		.byte	0xf3
 15309 0dd7 01       		.uleb128 0x1
 15310 0dd8 50       		.byte	0x50
 15311 0dd9 9F       		.byte	0x9f
 15312 0dda 00000000 		.4byte	0
 15313 0dde 00000000 		.4byte	0
 15314              	.LVUS67:
 15315 0de2 00       		.uleb128 0
 15316 0de3 00       		.uleb128 .LVU739
 15317 0de4 00       		.uleb128 .LVU739
 15318 0de5 00       		.uleb128 0
 15319              	.LLST67:
 15320 0de6 00000000 		.4byte	.LVL99
 15321 0dea 29000000 		.4byte	.LVL100-1
 15322 0dee 0100     		.2byte	0x1
 15323 0df0 51       		.byte	0x51
 15324 0df1 29000000 		.4byte	.LVL100-1
 15325 0df5 2C000000 		.4byte	.LFE168
 15326 0df9 0400     		.2byte	0x4
 15327 0dfb F3       		.byte	0xf3
 15328 0dfc 01       		.uleb128 0x1
 15329 0dfd 51       		.byte	0x51
 15330 0dfe 9F       		.byte	0x9f
 15331 0dff 00000000 		.4byte	0
 15332 0e03 00000000 		.4byte	0
 15333              		.section	.debug_aranges,"",%progbits
ARM GAS  /tmp/ccTxpxgR.s 			page 270


 15334 0000 C4000000 		.4byte	0xc4
 15335 0004 0200     		.2byte	0x2
 15336 0006 00000000 		.4byte	.Ldebug_info0
 15337 000a 04       		.byte	0x4
 15338 000b 00       		.byte	0
 15339 000c 0000     		.2byte	0
 15340 000e 0000     		.2byte	0
 15341 0010 00000000 		.4byte	.LFB151
 15342 0014 2C000000 		.4byte	.LFE151-.LFB151
 15343 0018 00000000 		.4byte	.LFB152
 15344 001c 1A000000 		.4byte	.LFE152-.LFB152
 15345 0020 00000000 		.4byte	.LFB153
 15346 0024 16000000 		.4byte	.LFE153-.LFB153
 15347 0028 00000000 		.4byte	.LFB154
 15348 002c 26000000 		.4byte	.LFE154-.LFB154
 15349 0030 00000000 		.4byte	.LFB156
 15350 0034 2A000000 		.4byte	.LFE156-.LFB156
 15351 0038 00000000 		.4byte	.LFB155
 15352 003c 0C000000 		.4byte	.LFE155-.LFB155
 15353 0040 00000000 		.4byte	.LFB157
 15354 0044 2E000000 		.4byte	.LFE157-.LFB157
 15355 0048 00000000 		.4byte	.LFB158
 15356 004c 2A000000 		.4byte	.LFE158-.LFB158
 15357 0050 00000000 		.4byte	.LFB159
 15358 0054 52000000 		.4byte	.LFE159-.LFB159
 15359 0058 00000000 		.4byte	.LFB160
 15360 005c E4000000 		.4byte	.LFE160-.LFB160
 15361 0060 00000000 		.4byte	.LFB161
 15362 0064 2C000000 		.4byte	.LFE161-.LFB161
 15363 0068 00000000 		.4byte	.LFB162
 15364 006c 1C000000 		.4byte	.LFE162-.LFB162
 15365 0070 00000000 		.4byte	.LFB163
 15366 0074 1A000000 		.4byte	.LFE163-.LFB163
 15367 0078 00000000 		.4byte	.LFB164
 15368 007c 24000000 		.4byte	.LFE164-.LFB164
 15369 0080 00000000 		.4byte	.LFB166
 15370 0084 2C000000 		.4byte	.LFE166-.LFB166
 15371 0088 00000000 		.4byte	.LFB165
 15372 008c 0C000000 		.4byte	.LFE165-.LFB165
 15373 0090 00000000 		.4byte	.LFB167
 15374 0094 30000000 		.4byte	.LFE167-.LFB167
 15375 0098 00000000 		.4byte	.LFB168
 15376 009c 2C000000 		.4byte	.LFE168-.LFB168
 15377 00a0 00000000 		.4byte	.LFB169
 15378 00a4 62000000 		.4byte	.LFE169-.LFB169
 15379 00a8 00000000 		.4byte	.LFB170
 15380 00ac EA000000 		.4byte	.LFE170-.LFB170
 15381 00b0 00000000 		.4byte	.LFB171
 15382 00b4 42000000 		.4byte	.LFE171-.LFB171
 15383 00b8 00000000 		.4byte	.LFB172
 15384 00bc 3E000000 		.4byte	.LFE172-.LFB172
 15385 00c0 00000000 		.4byte	0
 15386 00c4 00000000 		.4byte	0
 15387              		.section	.debug_ranges,"",%progbits
 15388              	.Ldebug_ranges0:
 15389 0000 00000000 		.4byte	.LBB287
 15390 0004 00000000 		.4byte	.LBE287
ARM GAS  /tmp/ccTxpxgR.s 			page 271


 15391 0008 00000000 		.4byte	.LBB295
 15392 000c 00000000 		.4byte	.LBE295
 15393 0010 00000000 		.4byte	.LBB296
 15394 0014 00000000 		.4byte	.LBE296
 15395 0018 16000000 		.4byte	.LBB297
 15396 001c 1A000000 		.4byte	.LBE297
 15397 0020 00000000 		.4byte	0
 15398 0024 00000000 		.4byte	0
 15399 0028 02000000 		.4byte	.LBB298
 15400 002c 04000000 		.4byte	.LBE298
 15401 0030 12000000 		.4byte	.LBB301
 15402 0034 18000000 		.4byte	.LBE301
 15403 0038 00000000 		.4byte	0
 15404 003c 00000000 		.4byte	0
 15405 0040 00000000 		.4byte	.LBB317
 15406 0044 00000000 		.4byte	.LBE317
 15407 0048 00000000 		.4byte	.LBB329
 15408 004c 00000000 		.4byte	.LBE329
 15409 0050 00000000 		.4byte	.LBB330
 15410 0054 00000000 		.4byte	.LBE330
 15411 0058 00000000 		.4byte	.LBB331
 15412 005c 00000000 		.4byte	.LBE331
 15413 0060 02000000 		.4byte	.LBB332
 15414 0064 04000000 		.4byte	.LBE332
 15415 0068 00000000 		.4byte	0
 15416 006c 00000000 		.4byte	0
 15417 0070 08000000 		.4byte	.LBB333
 15418 0074 08000000 		.4byte	.LBE333
 15419 0078 08000000 		.4byte	.LBB342
 15420 007c 08000000 		.4byte	.LBE342
 15421 0080 08000000 		.4byte	.LBB343
 15422 0084 0A000000 		.4byte	.LBE343
 15423 0088 00000000 		.4byte	0
 15424 008c 00000000 		.4byte	0
 15425 0090 00000000 		.4byte	.LBB344
 15426 0094 00000000 		.4byte	.LBE344
 15427 0098 00000000 		.4byte	.LBB356
 15428 009c 00000000 		.4byte	.LBE356
 15429 00a0 00000000 		.4byte	.LBB357
 15430 00a4 00000000 		.4byte	.LBE357
 15431 00a8 00000000 		.4byte	.LBB358
 15432 00ac 00000000 		.4byte	.LBE358
 15433 00b0 02000000 		.4byte	.LBB359
 15434 00b4 04000000 		.4byte	.LBE359
 15435 00b8 00000000 		.4byte	0
 15436 00bc 00000000 		.4byte	0
 15437 00c0 2A000000 		.4byte	.LBB362
 15438 00c4 2A000000 		.4byte	.LBE362
 15439 00c8 2A000000 		.4byte	.LBB371
 15440 00cc 2A000000 		.4byte	.LBE371
 15441 00d0 2A000000 		.4byte	.LBB372
 15442 00d4 2C000000 		.4byte	.LBE372
 15443 00d8 00000000 		.4byte	0
 15444 00dc 00000000 		.4byte	0
 15445 00e0 00000000 		.4byte	.LBB373
 15446 00e4 00000000 		.4byte	.LBE373
 15447 00e8 00000000 		.4byte	.LBB385
ARM GAS  /tmp/ccTxpxgR.s 			page 272


 15448 00ec 00000000 		.4byte	.LBE385
 15449 00f0 00000000 		.4byte	.LBB386
 15450 00f4 00000000 		.4byte	.LBE386
 15451 00f8 00000000 		.4byte	.LBB387
 15452 00fc 00000000 		.4byte	.LBE387
 15453 0100 04000000 		.4byte	.LBB388
 15454 0104 06000000 		.4byte	.LBE388
 15455 0108 00000000 		.4byte	0
 15456 010c 00000000 		.4byte	0
 15457 0110 40000000 		.4byte	.LBB391
 15458 0114 40000000 		.4byte	.LBE391
 15459 0118 40000000 		.4byte	.LBB400
 15460 011c 40000000 		.4byte	.LBE400
 15461 0120 40000000 		.4byte	.LBB401
 15462 0124 42000000 		.4byte	.LBE401
 15463 0128 00000000 		.4byte	0
 15464 012c 00000000 		.4byte	0
 15465 0130 00000000 		.4byte	.LBB402
 15466 0134 00000000 		.4byte	.LBE402
 15467 0138 00000000 		.4byte	.LBB414
 15468 013c 00000000 		.4byte	.LBE414
 15469 0140 00000000 		.4byte	.LBB415
 15470 0144 00000000 		.4byte	.LBE415
 15471 0148 00000000 		.4byte	.LBB416
 15472 014c 00000000 		.4byte	.LBE416
 15473 0150 16000000 		.4byte	.LBB417
 15474 0154 18000000 		.4byte	.LBE417
 15475 0158 00000000 		.4byte	0
 15476 015c 00000000 		.4byte	0
 15477 0160 18000000 		.4byte	.LBB418
 15478 0164 18000000 		.4byte	.LBE418
 15479 0168 18000000 		.4byte	.LBB426
 15480 016c 18000000 		.4byte	.LBE426
 15481 0170 18000000 		.4byte	.LBB427
 15482 0174 18000000 		.4byte	.LBE427
 15483 0178 18000000 		.4byte	.LBB428
 15484 017c 1E000000 		.4byte	.LBE428
 15485 0180 00000000 		.4byte	0
 15486 0184 00000000 		.4byte	0
 15487 0188 1E000000 		.4byte	.LBB429
 15488 018c 20000000 		.4byte	.LBE429
 15489 0190 24000000 		.4byte	.LBB500
 15490 0194 2A000000 		.4byte	.LBE500
 15491 0198 2C000000 		.4byte	.LBB501
 15492 019c 72000000 		.4byte	.LBE501
 15493 01a0 72000000 		.4byte	.LBB502
 15494 01a4 72000000 		.4byte	.LBE502
 15495 01a8 72000000 		.4byte	.LBB503
 15496 01ac 78000000 		.4byte	.LBE503
 15497 01b0 78000000 		.4byte	.LBB504
 15498 01b4 78000000 		.4byte	.LBE504
 15499 01b8 78000000 		.4byte	.LBB505
 15500 01bc 78000000 		.4byte	.LBE505
 15501 01c0 78000000 		.4byte	.LBB506
 15502 01c4 7A000000 		.4byte	.LBE506
 15503 01c8 7A000000 		.4byte	.LBB507
 15504 01cc AC000000 		.4byte	.LBE507
ARM GAS  /tmp/ccTxpxgR.s 			page 273


 15505 01d0 AC000000 		.4byte	.LBB508
 15506 01d4 AC000000 		.4byte	.LBE508
 15507 01d8 AC000000 		.4byte	.LBB509
 15508 01dc AC000000 		.4byte	.LBE509
 15509 01e0 AC000000 		.4byte	.LBB510
 15510 01e4 D2000000 		.4byte	.LBE510
 15511 01e8 D2000000 		.4byte	.LBB511
 15512 01ec D2000000 		.4byte	.LBE511
 15513 01f0 D2000000 		.4byte	.LBB512
 15514 01f4 D4000000 		.4byte	.LBE512
 15515 01f8 00000000 		.4byte	0
 15516 01fc 00000000 		.4byte	0
 15517 0200 1E000000 		.4byte	.LBB430
 15518 0204 20000000 		.4byte	.LBE430
 15519 0208 24000000 		.4byte	.LBB463
 15520 020c 26000000 		.4byte	.LBE463
 15521 0210 28000000 		.4byte	.LBB468
 15522 0214 2A000000 		.4byte	.LBE468
 15523 0218 2C000000 		.4byte	.LBB469
 15524 021c 2E000000 		.4byte	.LBE469
 15525 0220 A6000000 		.4byte	.LBB494
 15526 0224 AC000000 		.4byte	.LBE494
 15527 0228 AC000000 		.4byte	.LBB495
 15528 022c AC000000 		.4byte	.LBE495
 15529 0230 AC000000 		.4byte	.LBB496
 15530 0234 AC000000 		.4byte	.LBE496
 15531 0238 AC000000 		.4byte	.LBB497
 15532 023c D2000000 		.4byte	.LBE497
 15533 0240 D2000000 		.4byte	.LBB498
 15534 0244 D2000000 		.4byte	.LBE498
 15535 0248 D2000000 		.4byte	.LBB499
 15536 024c D4000000 		.4byte	.LBE499
 15537 0250 00000000 		.4byte	0
 15538 0254 00000000 		.4byte	0
 15539 0258 1E000000 		.4byte	.LBB431
 15540 025c 20000000 		.4byte	.LBE431
 15541 0260 AC000000 		.4byte	.LBB448
 15542 0264 AC000000 		.4byte	.LBE448
 15543 0268 AC000000 		.4byte	.LBB449
 15544 026c AC000000 		.4byte	.LBE449
 15545 0270 AC000000 		.4byte	.LBB450
 15546 0274 AC000000 		.4byte	.LBE450
 15547 0278 AC000000 		.4byte	.LBB451
 15548 027c BE000000 		.4byte	.LBE451
 15549 0280 00000000 		.4byte	0
 15550 0284 00000000 		.4byte	0
 15551 0288 1E000000 		.4byte	.LBB432
 15552 028c 20000000 		.4byte	.LBE432
 15553 0290 AC000000 		.4byte	.LBB444
 15554 0294 AC000000 		.4byte	.LBE444
 15555 0298 AC000000 		.4byte	.LBB445
 15556 029c AC000000 		.4byte	.LBE445
 15557 02a0 AC000000 		.4byte	.LBB446
 15558 02a4 AC000000 		.4byte	.LBE446
 15559 02a8 AC000000 		.4byte	.LBB447
 15560 02ac B0000000 		.4byte	.LBE447
 15561 02b0 00000000 		.4byte	0
ARM GAS  /tmp/ccTxpxgR.s 			page 274


 15562 02b4 00000000 		.4byte	0
 15563 02b8 1E000000 		.4byte	.LBB433
 15564 02bc 20000000 		.4byte	.LBE433
 15565 02c0 AC000000 		.4byte	.LBB441
 15566 02c4 AC000000 		.4byte	.LBE441
 15567 02c8 AC000000 		.4byte	.LBB442
 15568 02cc AC000000 		.4byte	.LBE442
 15569 02d0 AC000000 		.4byte	.LBB443
 15570 02d4 B0000000 		.4byte	.LBE443
 15571 02d8 00000000 		.4byte	0
 15572 02dc 00000000 		.4byte	0
 15573 02e0 1E000000 		.4byte	.LBB434
 15574 02e4 20000000 		.4byte	.LBE434
 15575 02e8 AC000000 		.4byte	.LBB439
 15576 02ec AC000000 		.4byte	.LBE439
 15577 02f0 AC000000 		.4byte	.LBB440
 15578 02f4 B0000000 		.4byte	.LBE440
 15579 02f8 00000000 		.4byte	0
 15580 02fc 00000000 		.4byte	0
 15581 0300 1E000000 		.4byte	.LBB435
 15582 0304 20000000 		.4byte	.LBE435
 15583 0308 AC000000 		.4byte	.LBB438
 15584 030c B0000000 		.4byte	.LBE438
 15585 0310 00000000 		.4byte	0
 15586 0314 00000000 		.4byte	0
 15587 0318 D2000000 		.4byte	.LBB452
 15588 031c D2000000 		.4byte	.LBE452
 15589 0320 D2000000 		.4byte	.LBB461
 15590 0324 D2000000 		.4byte	.LBE461
 15591 0328 D2000000 		.4byte	.LBB462
 15592 032c D4000000 		.4byte	.LBE462
 15593 0330 00000000 		.4byte	0
 15594 0334 00000000 		.4byte	0
 15595 0338 26000000 		.4byte	.LBB464
 15596 033c 28000000 		.4byte	.LBE464
 15597 0340 2E000000 		.4byte	.LBB470
 15598 0344 32000000 		.4byte	.LBE470
 15599 0348 4A000000 		.4byte	.LBB471
 15600 034c 72000000 		.4byte	.LBE471
 15601 0350 00000000 		.4byte	0
 15602 0354 00000000 		.4byte	0
 15603 0358 72000000 		.4byte	.LBB472
 15604 035c 72000000 		.4byte	.LBE472
 15605 0360 72000000 		.4byte	.LBB481
 15606 0364 72000000 		.4byte	.LBE481
 15607 0368 72000000 		.4byte	.LBB482
 15608 036c 74000000 		.4byte	.LBE482
 15609 0370 00000000 		.4byte	0
 15610 0374 00000000 		.4byte	0
 15611 0378 78000000 		.4byte	.LBB483
 15612 037c 78000000 		.4byte	.LBE483
 15613 0380 78000000 		.4byte	.LBB491
 15614 0384 78000000 		.4byte	.LBE491
 15615 0388 78000000 		.4byte	.LBB492
 15616 038c 78000000 		.4byte	.LBE492
 15617 0390 78000000 		.4byte	.LBB493
 15618 0394 7A000000 		.4byte	.LBE493
ARM GAS  /tmp/ccTxpxgR.s 			page 275


 15619 0398 00000000 		.4byte	0
 15620 039c 00000000 		.4byte	0
 15621 03a0 00000000 		.4byte	.LBB513
 15622 03a4 00000000 		.4byte	.LBE513
 15623 03a8 00000000 		.4byte	.LBB521
 15624 03ac 00000000 		.4byte	.LBE521
 15625 03b0 00000000 		.4byte	.LBB522
 15626 03b4 00000000 		.4byte	.LBE522
 15627 03b8 1A000000 		.4byte	.LBB523
 15628 03bc 1E000000 		.4byte	.LBE523
 15629 03c0 00000000 		.4byte	0
 15630 03c4 00000000 		.4byte	0
 15631 03c8 02000000 		.4byte	.LBB524
 15632 03cc 04000000 		.4byte	.LBE524
 15633 03d0 10000000 		.4byte	.LBB528
 15634 03d4 12000000 		.4byte	.LBE528
 15635 03d8 16000000 		.4byte	.LBB529
 15636 03dc 1A000000 		.4byte	.LBE529
 15637 03e0 00000000 		.4byte	0
 15638 03e4 00000000 		.4byte	0
 15639 03e8 00000000 		.4byte	.LBB545
 15640 03ec 00000000 		.4byte	.LBE545
 15641 03f0 00000000 		.4byte	.LBB557
 15642 03f4 00000000 		.4byte	.LBE557
 15643 03f8 00000000 		.4byte	.LBB558
 15644 03fc 00000000 		.4byte	.LBE558
 15645 0400 00000000 		.4byte	.LBB559
 15646 0404 00000000 		.4byte	.LBE559
 15647 0408 02000000 		.4byte	.LBB560
 15648 040c 04000000 		.4byte	.LBE560
 15649 0410 00000000 		.4byte	0
 15650 0414 00000000 		.4byte	0
 15651 0418 08000000 		.4byte	.LBB561
 15652 041c 08000000 		.4byte	.LBE561
 15653 0420 08000000 		.4byte	.LBB570
 15654 0424 08000000 		.4byte	.LBE570
 15655 0428 08000000 		.4byte	.LBB571
 15656 042c 0A000000 		.4byte	.LBE571
 15657 0430 00000000 		.4byte	0
 15658 0434 00000000 		.4byte	0
 15659 0438 00000000 		.4byte	.LBB572
 15660 043c 00000000 		.4byte	.LBE572
 15661 0440 00000000 		.4byte	.LBB584
 15662 0444 00000000 		.4byte	.LBE584
 15663 0448 00000000 		.4byte	.LBB585
 15664 044c 00000000 		.4byte	.LBE585
 15665 0450 00000000 		.4byte	.LBB586
 15666 0454 00000000 		.4byte	.LBE586
 15667 0458 02000000 		.4byte	.LBB587
 15668 045c 04000000 		.4byte	.LBE587
 15669 0460 00000000 		.4byte	0
 15670 0464 00000000 		.4byte	0
 15671 0468 2C000000 		.4byte	.LBB590
 15672 046c 2C000000 		.4byte	.LBE590
 15673 0470 2C000000 		.4byte	.LBB599
 15674 0474 2C000000 		.4byte	.LBE599
 15675 0478 2C000000 		.4byte	.LBB600
ARM GAS  /tmp/ccTxpxgR.s 			page 276


 15676 047c 2E000000 		.4byte	.LBE600
 15677 0480 00000000 		.4byte	0
 15678 0484 00000000 		.4byte	0
 15679 0488 00000000 		.4byte	.LBB601
 15680 048c 00000000 		.4byte	.LBE601
 15681 0490 00000000 		.4byte	.LBB613
 15682 0494 00000000 		.4byte	.LBE613
 15683 0498 00000000 		.4byte	.LBB614
 15684 049c 00000000 		.4byte	.LBE614
 15685 04a0 00000000 		.4byte	.LBB615
 15686 04a4 00000000 		.4byte	.LBE615
 15687 04a8 06000000 		.4byte	.LBB616
 15688 04ac 08000000 		.4byte	.LBE616
 15689 04b0 00000000 		.4byte	0
 15690 04b4 00000000 		.4byte	0
 15691 04b8 1C000000 		.4byte	.LBB617
 15692 04bc 1C000000 		.4byte	.LBE617
 15693 04c0 1E000000 		.4byte	.LBB621
 15694 04c4 20000000 		.4byte	.LBE621
 15695 04c8 22000000 		.4byte	.LBB622
 15696 04cc 4A000000 		.4byte	.LBE622
 15697 04d0 00000000 		.4byte	0
 15698 04d4 00000000 		.4byte	0
 15699 04d8 4A000000 		.4byte	.LBB623
 15700 04dc 4A000000 		.4byte	.LBE623
 15701 04e0 4A000000 		.4byte	.LBB632
 15702 04e4 4A000000 		.4byte	.LBE632
 15703 04e8 4A000000 		.4byte	.LBB633
 15704 04ec 4C000000 		.4byte	.LBE633
 15705 04f0 00000000 		.4byte	0
 15706 04f4 00000000 		.4byte	0
 15707 04f8 5E000000 		.4byte	.LBB634
 15708 04fc 5E000000 		.4byte	.LBE634
 15709 0500 5E000000 		.4byte	.LBB643
 15710 0504 5E000000 		.4byte	.LBE643
 15711 0508 5E000000 		.4byte	.LBB644
 15712 050c 60000000 		.4byte	.LBE644
 15713 0510 00000000 		.4byte	0
 15714 0514 00000000 		.4byte	0
 15715 0518 00000000 		.4byte	.LBB645
 15716 051c 00000000 		.4byte	.LBE645
 15717 0520 00000000 		.4byte	.LBB657
 15718 0524 00000000 		.4byte	.LBE657
 15719 0528 00000000 		.4byte	.LBB658
 15720 052c 00000000 		.4byte	.LBE658
 15721 0530 00000000 		.4byte	.LBB659
 15722 0534 00000000 		.4byte	.LBE659
 15723 0538 16000000 		.4byte	.LBB660
 15724 053c 18000000 		.4byte	.LBE660
 15725 0540 00000000 		.4byte	0
 15726 0544 00000000 		.4byte	0
 15727 0548 18000000 		.4byte	.LBB661
 15728 054c 18000000 		.4byte	.LBE661
 15729 0550 18000000 		.4byte	.LBB669
 15730 0554 18000000 		.4byte	.LBE669
 15731 0558 18000000 		.4byte	.LBB670
 15732 055c 18000000 		.4byte	.LBE670
ARM GAS  /tmp/ccTxpxgR.s 			page 277


 15733 0560 18000000 		.4byte	.LBB671
 15734 0564 1E000000 		.4byte	.LBE671
 15735 0568 00000000 		.4byte	0
 15736 056c 00000000 		.4byte	0
 15737 0570 1E000000 		.4byte	.LBB672
 15738 0574 20000000 		.4byte	.LBE672
 15739 0578 24000000 		.4byte	.LBB747
 15740 057c 2A000000 		.4byte	.LBE747
 15741 0580 2C000000 		.4byte	.LBB748
 15742 0584 78000000 		.4byte	.LBE748
 15743 0588 78000000 		.4byte	.LBB749
 15744 058c 78000000 		.4byte	.LBE749
 15745 0590 78000000 		.4byte	.LBB750
 15746 0594 7E000000 		.4byte	.LBE750
 15747 0598 7E000000 		.4byte	.LBB751
 15748 059c 7E000000 		.4byte	.LBE751
 15749 05a0 7E000000 		.4byte	.LBB752
 15750 05a4 7E000000 		.4byte	.LBE752
 15751 05a8 7E000000 		.4byte	.LBB753
 15752 05ac 80000000 		.4byte	.LBE753
 15753 05b0 80000000 		.4byte	.LBB754
 15754 05b4 B2000000 		.4byte	.LBE754
 15755 05b8 B2000000 		.4byte	.LBB755
 15756 05bc B2000000 		.4byte	.LBE755
 15757 05c0 B2000000 		.4byte	.LBB756
 15758 05c4 B2000000 		.4byte	.LBE756
 15759 05c8 B2000000 		.4byte	.LBB757
 15760 05cc D8000000 		.4byte	.LBE757
 15761 05d0 D8000000 		.4byte	.LBB758
 15762 05d4 D8000000 		.4byte	.LBE758
 15763 05d8 D8000000 		.4byte	.LBB759
 15764 05dc DA000000 		.4byte	.LBE759
 15765 05e0 00000000 		.4byte	0
 15766 05e4 00000000 		.4byte	0
 15767 05e8 1E000000 		.4byte	.LBB673
 15768 05ec 20000000 		.4byte	.LBE673
 15769 05f0 24000000 		.4byte	.LBB706
 15770 05f4 26000000 		.4byte	.LBE706
 15771 05f8 28000000 		.4byte	.LBB713
 15772 05fc 2A000000 		.4byte	.LBE713
 15773 0600 2C000000 		.4byte	.LBB714
 15774 0604 2E000000 		.4byte	.LBE714
 15775 0608 AC000000 		.4byte	.LBB741
 15776 060c B2000000 		.4byte	.LBE741
 15777 0610 B2000000 		.4byte	.LBB742
 15778 0614 B2000000 		.4byte	.LBE742
 15779 0618 B2000000 		.4byte	.LBB743
 15780 061c B2000000 		.4byte	.LBE743
 15781 0620 B2000000 		.4byte	.LBB744
 15782 0624 D8000000 		.4byte	.LBE744
 15783 0628 D8000000 		.4byte	.LBB745
 15784 062c D8000000 		.4byte	.LBE745
 15785 0630 D8000000 		.4byte	.LBB746
 15786 0634 DA000000 		.4byte	.LBE746
 15787 0638 00000000 		.4byte	0
 15788 063c 00000000 		.4byte	0
 15789 0640 1E000000 		.4byte	.LBB674
ARM GAS  /tmp/ccTxpxgR.s 			page 278


 15790 0644 20000000 		.4byte	.LBE674
 15791 0648 B2000000 		.4byte	.LBB691
 15792 064c B2000000 		.4byte	.LBE691
 15793 0650 B2000000 		.4byte	.LBB692
 15794 0654 B2000000 		.4byte	.LBE692
 15795 0658 B2000000 		.4byte	.LBB693
 15796 065c B2000000 		.4byte	.LBE693
 15797 0660 B2000000 		.4byte	.LBB694
 15798 0664 C4000000 		.4byte	.LBE694
 15799 0668 00000000 		.4byte	0
 15800 066c 00000000 		.4byte	0
 15801 0670 1E000000 		.4byte	.LBB675
 15802 0674 20000000 		.4byte	.LBE675
 15803 0678 B2000000 		.4byte	.LBB687
 15804 067c B2000000 		.4byte	.LBE687
 15805 0680 B2000000 		.4byte	.LBB688
 15806 0684 B2000000 		.4byte	.LBE688
 15807 0688 B2000000 		.4byte	.LBB689
 15808 068c B2000000 		.4byte	.LBE689
 15809 0690 B2000000 		.4byte	.LBB690
 15810 0694 B6000000 		.4byte	.LBE690
 15811 0698 00000000 		.4byte	0
 15812 069c 00000000 		.4byte	0
 15813 06a0 1E000000 		.4byte	.LBB676
 15814 06a4 20000000 		.4byte	.LBE676
 15815 06a8 B2000000 		.4byte	.LBB684
 15816 06ac B2000000 		.4byte	.LBE684
 15817 06b0 B2000000 		.4byte	.LBB685
 15818 06b4 B2000000 		.4byte	.LBE685
 15819 06b8 B2000000 		.4byte	.LBB686
 15820 06bc B6000000 		.4byte	.LBE686
 15821 06c0 00000000 		.4byte	0
 15822 06c4 00000000 		.4byte	0
 15823 06c8 1E000000 		.4byte	.LBB677
 15824 06cc 20000000 		.4byte	.LBE677
 15825 06d0 B2000000 		.4byte	.LBB682
 15826 06d4 B2000000 		.4byte	.LBE682
 15827 06d8 B2000000 		.4byte	.LBB683
 15828 06dc B6000000 		.4byte	.LBE683
 15829 06e0 00000000 		.4byte	0
 15830 06e4 00000000 		.4byte	0
 15831 06e8 1E000000 		.4byte	.LBB678
 15832 06ec 20000000 		.4byte	.LBE678
 15833 06f0 B2000000 		.4byte	.LBB681
 15834 06f4 B6000000 		.4byte	.LBE681
 15835 06f8 00000000 		.4byte	0
 15836 06fc 00000000 		.4byte	0
 15837 0700 D8000000 		.4byte	.LBB695
 15838 0704 D8000000 		.4byte	.LBE695
 15839 0708 D8000000 		.4byte	.LBB704
 15840 070c D8000000 		.4byte	.LBE704
 15841 0710 D8000000 		.4byte	.LBB705
 15842 0714 DA000000 		.4byte	.LBE705
 15843 0718 00000000 		.4byte	0
 15844 071c 00000000 		.4byte	0
 15845 0720 26000000 		.4byte	.LBB707
 15846 0724 28000000 		.4byte	.LBE707
ARM GAS  /tmp/ccTxpxgR.s 			page 279


 15847 0728 2E000000 		.4byte	.LBB715
 15848 072c 32000000 		.4byte	.LBE715
 15849 0730 4A000000 		.4byte	.LBB716
 15850 0734 4A000000 		.4byte	.LBE716
 15851 0738 4C000000 		.4byte	.LBB717
 15852 073c 4E000000 		.4byte	.LBE717
 15853 0740 50000000 		.4byte	.LBB718
 15854 0744 78000000 		.4byte	.LBE718
 15855 0748 00000000 		.4byte	0
 15856 074c 00000000 		.4byte	0
 15857 0750 78000000 		.4byte	.LBB719
 15858 0754 78000000 		.4byte	.LBE719
 15859 0758 78000000 		.4byte	.LBB728
 15860 075c 78000000 		.4byte	.LBE728
 15861 0760 78000000 		.4byte	.LBB729
 15862 0764 7A000000 		.4byte	.LBE729
 15863 0768 00000000 		.4byte	0
 15864 076c 00000000 		.4byte	0
 15865 0770 7E000000 		.4byte	.LBB730
 15866 0774 7E000000 		.4byte	.LBE730
 15867 0778 7E000000 		.4byte	.LBB738
 15868 077c 7E000000 		.4byte	.LBE738
 15869 0780 7E000000 		.4byte	.LBB739
 15870 0784 7E000000 		.4byte	.LBE739
 15871 0788 7E000000 		.4byte	.LBB740
 15872 078c 80000000 		.4byte	.LBE740
 15873 0790 00000000 		.4byte	0
 15874 0794 00000000 		.4byte	0
 15875 0798 00000000 		.4byte	.LBB761
 15876 079c 00000000 		.4byte	.LBE761
 15877 07a0 00000000 		.4byte	.LBB773
 15878 07a4 00000000 		.4byte	.LBE773
 15879 07a8 00000000 		.4byte	.LBB774
 15880 07ac 00000000 		.4byte	.LBE774
 15881 07b0 00000000 		.4byte	.LBB775
 15882 07b4 00000000 		.4byte	.LBE775
 15883 07b8 02000000 		.4byte	.LBB776
 15884 07bc 04000000 		.4byte	.LBE776
 15885 07c0 00000000 		.4byte	0
 15886 07c4 00000000 		.4byte	0
 15887 07c8 0A000000 		.4byte	.LBB777
 15888 07cc 34000000 		.4byte	.LBE777
 15889 07d0 38000000 		.4byte	.LBB793
 15890 07d4 3E000000 		.4byte	.LBE793
 15891 07d8 00000000 		.4byte	0
 15892 07dc 00000000 		.4byte	0
 15893 07e0 12000000 		.4byte	.LBB778
 15894 07e4 34000000 		.4byte	.LBE778
 15895 07e8 38000000 		.4byte	.LBB781
 15896 07ec 3E000000 		.4byte	.LBE781
 15897 07f0 00000000 		.4byte	0
 15898 07f4 00000000 		.4byte	0
 15899 07f8 34000000 		.4byte	.LBB782
 15900 07fc 34000000 		.4byte	.LBE782
 15901 0800 34000000 		.4byte	.LBB791
 15902 0804 34000000 		.4byte	.LBE791
 15903 0808 34000000 		.4byte	.LBB792
ARM GAS  /tmp/ccTxpxgR.s 			page 280


 15904 080c 36000000 		.4byte	.LBE792
 15905 0810 00000000 		.4byte	0
 15906 0814 00000000 		.4byte	0
 15907 0818 00000000 		.4byte	.LFB151
 15908 081c 2C000000 		.4byte	.LFE151
 15909 0820 00000000 		.4byte	.LFB152
 15910 0824 1A000000 		.4byte	.LFE152
 15911 0828 00000000 		.4byte	.LFB153
 15912 082c 16000000 		.4byte	.LFE153
 15913 0830 00000000 		.4byte	.LFB154
 15914 0834 26000000 		.4byte	.LFE154
 15915 0838 00000000 		.4byte	.LFB156
 15916 083c 2A000000 		.4byte	.LFE156
 15917 0840 00000000 		.4byte	.LFB155
 15918 0844 0C000000 		.4byte	.LFE155
 15919 0848 00000000 		.4byte	.LFB157
 15920 084c 2E000000 		.4byte	.LFE157
 15921 0850 00000000 		.4byte	.LFB158
 15922 0854 2A000000 		.4byte	.LFE158
 15923 0858 00000000 		.4byte	.LFB159
 15924 085c 52000000 		.4byte	.LFE159
 15925 0860 00000000 		.4byte	.LFB160
 15926 0864 E4000000 		.4byte	.LFE160
 15927 0868 00000000 		.4byte	.LFB161
 15928 086c 2C000000 		.4byte	.LFE161
 15929 0870 00000000 		.4byte	.LFB162
 15930 0874 1C000000 		.4byte	.LFE162
 15931 0878 00000000 		.4byte	.LFB163
 15932 087c 1A000000 		.4byte	.LFE163
 15933 0880 00000000 		.4byte	.LFB164
 15934 0884 24000000 		.4byte	.LFE164
 15935 0888 00000000 		.4byte	.LFB166
 15936 088c 2C000000 		.4byte	.LFE166
 15937 0890 00000000 		.4byte	.LFB165
 15938 0894 0C000000 		.4byte	.LFE165
 15939 0898 00000000 		.4byte	.LFB167
 15940 089c 30000000 		.4byte	.LFE167
 15941 08a0 00000000 		.4byte	.LFB168
 15942 08a4 2C000000 		.4byte	.LFE168
 15943 08a8 00000000 		.4byte	.LFB169
 15944 08ac 62000000 		.4byte	.LFE169
 15945 08b0 00000000 		.4byte	.LFB170
 15946 08b4 EA000000 		.4byte	.LFE170
 15947 08b8 00000000 		.4byte	.LFB171
 15948 08bc 42000000 		.4byte	.LFE171
 15949 08c0 00000000 		.4byte	.LFB172
 15950 08c4 3E000000 		.4byte	.LFE172
 15951 08c8 00000000 		.4byte	0
 15952 08cc 00000000 		.4byte	0
 15953              		.section	.debug_line,"",%progbits
 15954              	.Ldebug_line0:
 15955 0000 E1180000 		.section	.debug_str,"MS",%progbits,1
 15955      03003506 
 15955      00000201 
 15955      FB0E0D00 
 15955      01010101 
 15956              	.LASF261:
ARM GAS  /tmp/ccTxpxgR.s 			page 281


 15957 0000 6F66665F 		.ascii	"off_ctx\000"
 15957      63747800 
 15958              	.LASF287:
 15959 0008 73746D33 		.ascii	"stm32_dma_stream_t\000"
 15959      325F646D 
 15959      615F7374 
 15959      7265616D 
 15959      5F7400
 15960              	.LASF4:
 15961 001b 73697A65 		.ascii	"size_t\000"
 15961      5F7400
 15962              	.LASF260:
 15963 0022 6F66665F 		.ascii	"off_prio\000"
 15963      7072696F 
 15963      00
 15964              	.LASF123:
 15965 002b 5F5F6C6F 		.ascii	"__locale_t\000"
 15965      63616C65 
 15965      5F7400
 15966              	.LASF207:
 15967 0036 54535452 		.ascii	"TSTR\000"
 15967      00
 15968              	.LASF24:
 15969 003b 5F5F7661 		.ascii	"__value\000"
 15969      6C756500 
 15970              	.LASF144:
 15971 0043 73797374 		.ascii	"systime_t\000"
 15971      696D655F 
 15971      7400
 15972              	.LASF269:
 15973 004d 6F66665F 		.ascii	"off_preempt\000"
 15973      70726565 
 15973      6D707400 
 15974              	.LASF412:
 15975 0059 74785F65 		.ascii	"tx_end_cb\000"
 15975      6E645F63 
 15975      6200
 15976              	.LASF80:
 15977 0063 5F5F7366 		.ascii	"__sf\000"
 15977      00
 15978              	.LASF324:
 15979 0068 4F535045 		.ascii	"OSPEEDR\000"
 15979      45445200 
 15980              	.LASF251:
 15981 0070 6F776E65 		.ascii	"owner\000"
 15981      7200
 15982              	.LASF85:
 15983 0076 5F726561 		.ascii	"_read\000"
 15983      6400
 15984              	.LASF139:
 15985 007c 74707269 		.ascii	"tprio_t\000"
 15985      6F5F7400 
 15986              	.LASF272:
 15987 0084 63685F64 		.ascii	"ch_debug\000"
 15987      65627567 
 15987      00
 15988              	.LASF529:
ARM GAS  /tmp/ccTxpxgR.s 			page 282


 15989 008d 6E657874 		.ascii	"next_timeout\000"
 15989      5F74696D 
 15989      656F7574 
 15989      00
 15990              	.LASF217:
 15991 009a 424B5032 		.ascii	"BKP2R\000"
 15991      5200
 15992              	.LASF86:
 15993 00a0 5F777269 		.ascii	"_write\000"
 15993      746500
 15994              	.LASF133:
 15995 00a7 696E7433 		.ascii	"int32_t\000"
 15995      325F7400 
 15996              	.LASF437:
 15997 00af 77726974 		.ascii	"writet\000"
 15997      657400
 15998              	.LASF574:
 15999 00b6 63685468 		.ascii	"chThdDequeueAllI\000"
 15999      64446571 
 15999      75657565 
 15999      416C6C49 
 15999      00
 16000              	.LASF77:
 16001 00c7 5F617363 		.ascii	"_asctime_buf\000"
 16001      74696D65 
 16001      5F627566 
 16001      00
 16002              	.LASF73:
 16003 00d4 5F637674 		.ascii	"_cvtlen\000"
 16003      6C656E00 
 16004              	.LASF399:
 16005 00dc 69327373 		.ascii	"i2sstate_t\000"
 16005      74617465 
 16005      5F7400
 16006              	.LASF170:
 16007 00e7 76746675 		.ascii	"vtfunc_t\000"
 16007      6E635F74 
 16007      00
 16008              	.LASF228:
 16009 00f0 52544F52 		.ascii	"RTOR\000"
 16009      00
 16010              	.LASF129:
 16011 00f5 5F676C6F 		.ascii	"_global_atexit\000"
 16011      62616C5F 
 16011      61746578 
 16011      697400
 16012              	.LASF176:
 16013 0104 63685F76 		.ascii	"ch_virtual_timers_list\000"
 16013      69727475 
 16013      616C5F74 
 16013      696D6572 
 16013      735F6C69 
 16014              	.LASF448:
 16015 011b 7373706F 		.ascii	"ssport\000"
 16015      727400
 16016              	.LASF455:
 16017 0122 696E5F70 		.ascii	"in_params\000"
ARM GAS  /tmp/ccTxpxgR.s 			page 283


 16017      6172616D 
 16017      7300
 16018              	.LASF422:
 16019 012c 52544344 		.ascii	"RTCD1\000"
 16019      3100
 16020              	.LASF531:
 16021 0132 5F5F6675 		.ascii	"__func__\000"
 16021      6E635F5F 
 16021      00
 16022              	.LASF34:
 16023 013b 5F5F746D 		.ascii	"__tm\000"
 16023      00
 16024              	.LASF121:
 16025 0140 5F776373 		.ascii	"_wcsrtombs_state\000"
 16025      72746F6D 
 16025      62735F73 
 16025      74617465 
 16025      00
 16026              	.LASF90:
 16027 0151 5F6E6275 		.ascii	"_nbuf\000"
 16027      6600
 16028              	.LASF35:
 16029 0157 5F5F746D 		.ascii	"__tm_sec\000"
 16029      5F736563 
 16029      00
 16030              	.LASF115:
 16031 0160 5F6C3634 		.ascii	"_l64a_buf\000"
 16031      615F6275 
 16031      6600
 16032              	.LASF389:
 16033 016a 74787074 		.ascii	"txptr\000"
 16033      7200
 16034              	.LASF218:
 16035 0170 424B5033 		.ascii	"BKP3R\000"
 16035      5200
 16036              	.LASF579:
 16037 0176 6F73616C 		.ascii	"osalThreadEnqueueTimeoutS\000"
 16037      54687265 
 16037      6164456E 
 16037      71756575 
 16037      6554696D 
 16038              	.LASF539:
 16039 0190 73697A65 		.ascii	"sizep\000"
 16039      7000
 16040              	.LASF365:
 16041 0196 67707473 		.ascii	"gptstate_t\000"
 16041      74617465 
 16041      5F7400
 16042              	.LASF352:
 16043 01a1 636F6E66 		.ascii	"config\000"
 16043      696700
 16044              	.LASF153:
 16045 01a8 73746174 		.ascii	"state\000"
 16045      6500
 16046              	.LASF507:
 16047 01ae 65705F6D 		.ascii	"ep_mode\000"
 16047      6F646500 
ARM GAS  /tmp/ccTxpxgR.s 			page 284


 16048              	.LASF342:
 16049 01b6 50454461 		.ascii	"PEData\000"
 16049      746100
 16050              	.LASF93:
 16051 01bd 5F6C6F63 		.ascii	"_lock\000"
 16051      6B00
 16052              	.LASF435:
 16053 01c3 70757474 		.ascii	"putt\000"
 16053      00
 16054              	.LASF500:
 16055 01c8 74786C61 		.ascii	"txlast\000"
 16055      737400
 16056              	.LASF451:
 16057 01cf 53504944 		.ascii	"SPID1\000"
 16057      3100
 16058              	.LASF414:
 16059 01d5 69327363 		.ascii	"i2scfgr\000"
 16059      66677200 
 16060              	.LASF187:
 16061 01dd 434E4454 		.ascii	"CNDTR\000"
 16061      5200
 16062              	.LASF102:
 16063 01e3 5F6D756C 		.ascii	"_mult\000"
 16063      7400
 16064              	.LASF219:
 16065 01e9 424B5034 		.ascii	"BKP4R\000"
 16065      5200
 16066              	.LASF240:
 16067 01ef 444D4152 		.ascii	"DMAR\000"
 16067      00
 16068              	.LASF356:
 16069 01f4 45585443 		.ascii	"EXTChannelConfig\000"
 16069      68616E6E 
 16069      656C436F 
 16069      6E666967 
 16069      00
 16070              	.LASF506:
 16071 0205 5553424F 		.ascii	"USBOutEndpointState\000"
 16071      7574456E 
 16071      64706F69 
 16071      6E745374 
 16071      61746500 
 16072              	.LASF560:
 16073 0219 6F73616C 		.ascii	"osalSysLock\000"
 16073      5379734C 
 16073      6F636B00 
 16074              	.LASF372:
 16075 0225 64696572 		.ascii	"dier\000"
 16075      00
 16076              	.LASF263:
 16077 022a 6F66665F 		.ascii	"off_older\000"
 16077      6F6C6465 
 16077      7200
 16078              	.LASF148:
 16079 0234 7072696F 		.ascii	"prio\000"
 16079      00
 16080              	.LASF559:
ARM GAS  /tmp/ccTxpxgR.s 			page 285


 16081 0239 6F73616C 		.ascii	"osalSysUnlock\000"
 16081      53797355 
 16081      6E6C6F63 
 16081      6B00
 16082              	.LASF581:
 16083 0247 5F5F6275 		.ascii	"__builtin_memcpy\000"
 16083      696C7469 
 16083      6E5F6D65 
 16083      6D637079 
 16083      00
 16084              	.LASF337:
 16085 0258 73746D33 		.ascii	"stm32_gpio_setup_t\000"
 16085      325F6770 
 16085      696F5F73 
 16085      65747570 
 16085      5F7400
 16086              	.LASF408:
 16087 026b 74785F64 		.ascii	"tx_dr\000"
 16087      7200
 16088              	.LASF447:
 16089 0271 656E645F 		.ascii	"end_cb\000"
 16089      636200
 16090              	.LASF21:
 16091 0278 5F5F7763 		.ascii	"__wch\000"
 16091      6800
 16092              	.LASF245:
 16093 027e 65786974 		.ascii	"exitcode\000"
 16093      636F6465 
 16093      00
 16094              	.LASF224:
 16095 0287 49325343 		.ascii	"I2SCFGR\000"
 16095      46475200 
 16096              	.LASF481:
 16097 028f 75736265 		.ascii	"usbep0state_t\000"
 16097      70307374 
 16097      6174655F 
 16097      7400
 16098              	.LASF5:
 16099 029d 5F5F7569 		.ascii	"__uint8_t\000"
 16099      6E74385F 
 16099      7400
 16100              	.LASF313:
 16101 02a7 715F746F 		.ascii	"q_top\000"
 16101      7000
 16102              	.LASF58:
 16103 02ad 5F66696C 		.ascii	"_file\000"
 16103      6500
 16104              	.LASF44:
 16105 02b3 5F6F6E5F 		.ascii	"_on_exit_args\000"
 16105      65786974 
 16105      5F617267 
 16105      7300
 16106              	.LASF438:
 16107 02c1 72656164 		.ascii	"readt\000"
 16107      7400
 16108              	.LASF411:
 16109 02c7 72785F62 		.ascii	"rx_buffer\000"
ARM GAS  /tmp/ccTxpxgR.s 			page 286


 16109      75666665 
 16109      7200
 16110              	.LASF312:
 16111 02d1 715F6275 		.ascii	"q_buffer\000"
 16111      66666572 
 16111      00
 16112              	.LASF483:
 16113 02da 5553425F 		.ascii	"USB_EVENT_ADDRESS\000"
 16113      4556454E 
 16113      545F4144 
 16113      44524553 
 16113      5300
 16114              	.LASF316:
 16115 02ec 715F6E6F 		.ascii	"q_notify\000"
 16115      74696679 
 16115      00
 16116              	.LASF440:
 16117 02f5 5350495F 		.ascii	"SPI_STOP\000"
 16117      53544F50 
 16117      00
 16118              	.LASF371:
 16119 02fe 63616C6C 		.ascii	"callback\000"
 16119      6261636B 
 16119      00
 16120              	.LASF117:
 16121 0307 5F6D6272 		.ascii	"_mbrlen_state\000"
 16121      6C656E5F 
 16121      73746174 
 16121      6500
 16122              	.LASF12:
 16123 0315 6C6F6E67 		.ascii	"long int\000"
 16123      20696E74 
 16123      00
 16124              	.LASF439:
 16125 031e 5350495F 		.ascii	"SPI_UNINIT\000"
 16125      554E494E 
 16125      495400
 16126              	.LASF569:
 16127 0329 706F7274 		.ascii	"port_unlock\000"
 16127      5F756E6C 
 16127      6F636B00 
 16128              	.LASF127:
 16129 0335 5F696D70 		.ascii	"_impure_ptr\000"
 16129      7572655F 
 16129      70747200 
 16130              	.LASF315:
 16131 0341 715F7264 		.ascii	"q_rdptr\000"
 16131      70747200 
 16132              	.LASF107:
 16133 0349 5F726573 		.ascii	"_result_k\000"
 16133      756C745F 
 16133      6B00
 16134              	.LASF55:
 16135 0353 5F73697A 		.ascii	"_size\000"
 16135      6500
 16136              	.LASF254:
 16137 0359 7A65726F 		.ascii	"zero\000"
ARM GAS  /tmp/ccTxpxgR.s 			page 287


 16137      00
 16138              	.LASF76:
 16139 035e 5F6C6F63 		.ascii	"_localtime_buf\000"
 16139      616C7469 
 16139      6D655F62 
 16139      756600
 16140              	.LASF374:
 16141 036d 47505444 		.ascii	"GPTD3\000"
 16141      3300
 16142              	.LASF345:
 16143 0373 696F706F 		.ascii	"ioportid_t\000"
 16143      72746964 
 16143      5F7400
 16144              	.LASF137:
 16145 037e 74737461 		.ascii	"tstate_t\000"
 16145      74655F74 
 16145      00
 16146              	.LASF157:
 16147 0387 6570656E 		.ascii	"epending\000"
 16147      64696E67 
 16147      00
 16148              	.LASF164:
 16149 0390 74687265 		.ascii	"threads_queue_t\000"
 16149      6164735F 
 16149      71756575 
 16149      655F7400 
 16150              	.LASF430:
 16151 03a0 6F717565 		.ascii	"oqueue\000"
 16151      756500
 16152              	.LASF499:
 16153 03a7 74786275 		.ascii	"txbuf\000"
 16153      6600
 16154              	.LASF230:
 16155 03ad 72656761 		.ascii	"regarm_t\000"
 16155      726D5F74 
 16155      00
 16156              	.LASF474:
 16157 03b6 5553425F 		.ascii	"USB_EP0_WAITING_SETUP\000"
 16157      4550305F 
 16157      57414954 
 16157      494E475F 
 16157      53455455 
 16158              	.LASF39:
 16159 03cc 5F5F746D 		.ascii	"__tm_mon\000"
 16159      5F6D6F6E 
 16159      00
 16160              	.LASF521:
 16161 03d5 736F665F 		.ascii	"sof_cb\000"
 16161      636200
 16162              	.LASF309:
 16163 03dc 696F5F71 		.ascii	"io_queue\000"
 16163      75657565 
 16163      00
 16164              	.LASF472:
 16165 03e5 5553425F 		.ascii	"USB_SUSPENDED\000"
 16165      53555350 
 16165      454E4445 
ARM GAS  /tmp/ccTxpxgR.s 			page 288


 16165      4400
 16166              	.LASF110:
 16167 03f3 5F6D6973 		.ascii	"_misc_reent\000"
 16167      635F7265 
 16167      656E7400 
 16168              	.LASF533:
 16169 03ff 6F627150 		.ascii	"obqPostFullBuffer\000"
 16169      6F737446 
 16169      756C6C42 
 16169      75666665 
 16169      7200
 16170              	.LASF188:
 16171 0411 43504152 		.ascii	"CPAR\000"
 16171      00
 16172              	.LASF431:
 16173 0416 75736172 		.ascii	"usart\000"
 16173      7400
 16174              	.LASF346:
 16175 041c 70616C5F 		.ascii	"pal_default_config\000"
 16175      64656661 
 16175      756C745F 
 16175      636F6E66 
 16175      696700
 16176              	.LASF350:
 16177 042f 65787473 		.ascii	"extstate_t\000"
 16177      74617465 
 16177      5F7400
 16178              	.LASF3:
 16179 043a 7369676E 		.ascii	"signed char\000"
 16179      65642063 
 16179      68617200 
 16180              	.LASF249:
 16181 0446 65776D61 		.ascii	"ewmask\000"
 16181      736B00
 16182              	.LASF130:
 16183 044d 75696E74 		.ascii	"uint8_t\000"
 16183      385F7400 
 16184              	.LASF234:
 16185 0455 534D4352 		.ascii	"SMCR\000"
 16185      00
 16186              	.LASF124:
 16187 045a 5F5F7366 		.ascii	"__sf_fake_stdin\000"
 16187      5F66616B 
 16187      655F7374 
 16187      64696E00 
 16188              	.LASF487:
 16189 046a 5553425F 		.ascii	"USB_EVENT_STALLED\000"
 16189      4556454E 
 16189      545F5354 
 16189      414C4C45 
 16189      4400
 16190              	.LASF141:
 16191 047c 6576656E 		.ascii	"eventmask_t\000"
 16191      746D6173 
 16191      6B5F7400 
 16192              	.LASF502:
 16193 0488 72787369 		.ascii	"rxsize\000"
ARM GAS  /tmp/ccTxpxgR.s 			page 289


 16193      7A6500
 16194              	.LASF247:
 16195 048f 77747472 		.ascii	"wttrp\000"
 16195      7000
 16196              	.LASF334:
 16197 0495 70757064 		.ascii	"pupdr\000"
 16197      7200
 16198              	.LASF203:
 16199 049b 52455345 		.ascii	"RESERVED1\000"
 16199      52564544 
 16199      3100
 16200              	.LASF6:
 16201 04a5 756E7369 		.ascii	"unsigned char\000"
 16201      676E6564 
 16201      20636861 
 16201      7200
 16202              	.LASF213:
 16203 04b3 52455345 		.ascii	"RESERVED3\000"
 16203      52564544 
 16203      3300
 16204              	.LASF214:
 16205 04bd 52455345 		.ascii	"RESERVED4\000"
 16205      52564544 
 16205      3400
 16206              	.LASF317:
 16207 04c7 715F6C69 		.ascii	"q_link\000"
 16207      6E6B00
 16208              	.LASF177:
 16209 04ce 6C617374 		.ascii	"lasttime\000"
 16209      74696D65 
 16209      00
 16210              	.LASF330:
 16211 04d7 73746D33 		.ascii	"stm32_gpio_t\000"
 16211      325F6770 
 16211      696F5F74 
 16211      00
 16212              	.LASF446:
 16213 04e4 73706963 		.ascii	"spicallback_t\000"
 16213      616C6C62 
 16213      61636B5F 
 16213      7400
 16214              	.LASF341:
 16215 04f2 50444461 		.ascii	"PDData\000"
 16215      746100
 16216              	.LASF192:
 16217 04f9 444D415F 		.ascii	"DMA_TypeDef\000"
 16217      54797065 
 16217      44656600 
 16218              	.LASF180:
 16219 0505 70616E69 		.ascii	"panic_msg\000"
 16219      635F6D73 
 16219      6700
 16220              	.LASF69:
 16221 050f 5F756E73 		.ascii	"_unspecified_locale_info\000"
 16221      70656369 
 16221      66696564 
 16221      5F6C6F63 
ARM GAS  /tmp/ccTxpxgR.s 			page 290


 16221      616C655F 
 16222              	.LASF398:
 16223 0528 4932535F 		.ascii	"I2S_COMPLETE\000"
 16223      434F4D50 
 16223      4C455445 
 16223      00
 16224              	.LASF61:
 16225 0535 5F726565 		.ascii	"_reent\000"
 16225      6E7400
 16226              	.LASF128:
 16227 053c 5F676C6F 		.ascii	"_global_impure_ptr\000"
 16227      62616C5F 
 16227      696D7075 
 16227      72655F70 
 16227      747200
 16228              	.LASF457:
 16229 054f 65703073 		.ascii	"ep0state\000"
 16229      74617465 
 16229      00
 16230              	.LASF552:
 16231 0558 69627152 		.ascii	"ibqResetI\000"
 16231      65736574 
 16231      4900
 16232              	.LASF178:
 16233 0562 73797374 		.ascii	"system_debug_t\000"
 16233      656D5F64 
 16233      65627567 
 16233      5F7400
 16234              	.LASF423:
 16235 0571 53445F55 		.ascii	"SD_UNINIT\000"
 16235      4E494E49 
 16235      5400
 16236              	.LASF379:
 16237 057b 4932435F 		.ascii	"I2C_ACTIVE_RX\000"
 16237      41435449 
 16237      56455F52 
 16237      5800
 16238              	.LASF520:
 16239 0589 72657175 		.ascii	"requests_hook_cb\000"
 16239      65737473 
 16239      5F686F6F 
 16239      6B5F6362 
 16239      00
 16240              	.LASF294:
 16241 059a 5F426F6F 		.ascii	"_Bool\000"
 16241      6C00
 16242              	.LASF205:
 16243 05a0 52455345 		.ascii	"RESERVED2\000"
 16243      52564544 
 16243      3200
 16244              	.LASF409:
 16245 05aa 69327363 		.ascii	"i2scallback_t\000"
 16245      616C6C62 
 16245      61636B5F 
 16245      7400
 16246              	.LASF540:
 16247 05b8 6F6E6679 		.ascii	"onfy\000"
ARM GAS  /tmp/ccTxpxgR.s 			page 291


 16247      00
 16248              	.LASF236:
 16249 05bd 43434D52 		.ascii	"CCMR1\000"
 16249      3100
 16250              	.LASF237:
 16251 05c3 43434D52 		.ascii	"CCMR2\000"
 16251      3200
 16252              	.LASF241:
 16253 05c9 43434D52 		.ascii	"CCMR3\000"
 16253      3300
 16254              	.LASF27:
 16255 05cf 63686172 		.ascii	"char\000"
 16255      00
 16256              	.LASF51:
 16257 05d4 5F666E73 		.ascii	"_fns\000"
 16257      00
 16258              	.LASF391:
 16259 05d9 72787074 		.ascii	"rxptr\000"
 16259      7200
 16260              	.LASF331:
 16261 05df 6D6F6465 		.ascii	"moder\000"
 16261      7200
 16262              	.LASF283:
 16263 05e5 6373656C 		.ascii	"cselr\000"
 16263      7200
 16264              	.LASF88:
 16265 05eb 5F636C6F 		.ascii	"_close\000"
 16265      736500
 16266              	.LASF459:
 16267 05f2 6570306E 		.ascii	"ep0n\000"
 16267      00
 16268              	.LASF191:
 16269 05f7 49464352 		.ascii	"IFCR\000"
 16269      00
 16270              	.LASF360:
 16271 05fc 4750545F 		.ascii	"GPT_UNINIT\000"
 16271      554E494E 
 16271      495400
 16272              	.LASF304:
 16273 0607 6C696E6B 		.ascii	"link\000"
 16273      00
 16274              	.LASF454:
 16275 060c 72656365 		.ascii	"receiving\000"
 16275      6976696E 
 16275      6700
 16276              	.LASF445:
 16277 0616 53504944 		.ascii	"SPIDriver\000"
 16277      72697665 
 16277      7200
 16278              	.LASF9:
 16279 0620 5F5F7569 		.ascii	"__uint16_t\000"
 16279      6E743136 
 16279      5F7400
 16280              	.LASF452:
 16281 062b 55534244 		.ascii	"USBDriver\000"
 16281      72697665 
 16281      7200
ARM GAS  /tmp/ccTxpxgR.s 			page 292


 16282              	.LASF436:
 16283 0635 67657474 		.ascii	"gett\000"
 16283      00
 16284              	.LASF246:
 16285 063a 77746F62 		.ascii	"wtobjp\000"
 16285      6A7000
 16286              	.LASF63:
 16287 0641 5F737464 		.ascii	"_stdin\000"
 16287      696E00
 16288              	.LASF386:
 16289 0648 6572726F 		.ascii	"errors\000"
 16289      727300
 16290              	.LASF201:
 16291 064f 50524552 		.ascii	"PRER\000"
 16291      00
 16292              	.LASF508:
 16293 0654 73657475 		.ascii	"setup_cb\000"
 16293      705F6362 
 16293      00
 16294              	.LASF490:
 16295 065d 75645F73 		.ascii	"ud_string\000"
 16295      7472696E 
 16295      6700
 16296              	.LASF578:
 16297 0667 2F6F7074 		.ascii	"/opt/nanovna/NanoVNA-H\000"
 16297      2F6E616E 
 16297      6F766E61 
 16297      2F4E616E 
 16297      6F564E41 
 16298              	.LASF154:
 16299 067e 666C6167 		.ascii	"flags\000"
 16299      7300
 16300              	.LASF541:
 16301 0684 69627152 		.ascii	"ibqReadTimeout\000"
 16301      65616454 
 16301      696D656F 
 16301      757400
 16302              	.LASF509:
 16303 0693 696E5F63 		.ascii	"in_cb\000"
 16303      6200
 16304              	.LASF297:
 16305 0699 62636F75 		.ascii	"bcounter\000"
 16305      6E746572 
 16305      00
 16306              	.LASF231:
 16307 06a2 73746B61 		.ascii	"stkalign_t\000"
 16307      6C69676E 
 16307      5F7400
 16308              	.LASF229:
 16309 06ad 55534152 		.ascii	"USART_TypeDef\000"
 16309      545F5479 
 16309      70654465 
 16309      6600
 16310              	.LASF421:
 16311 06bb 52544344 		.ascii	"RTCDriver\000"
 16311      72697665 
 16311      7200
ARM GAS  /tmp/ccTxpxgR.s 			page 293


 16312              	.LASF557:
 16313 06c5 74696D65 		.ascii	"time\000"
 16313      00
 16314              	.LASF575:
 16315 06ca 63685468 		.ascii	"chThdEnqueueTimeoutS\000"
 16315      64456E71 
 16315      75657565 
 16315      54696D65 
 16315      6F757453 
 16316              	.LASF418:
 16317 06df 5F74696D 		.ascii	"_timezone\000"
 16317      657A6F6E 
 16317      6500
 16318              	.LASF378:
 16319 06e9 4932435F 		.ascii	"I2C_ACTIVE_TX\000"
 16319      41435449 
 16319      56455F54 
 16319      5800
 16320              	.LASF299:
 16321 06f7 62726470 		.ascii	"brdptr\000"
 16321      747200
 16322              	.LASF494:
 16323 06fe 75736265 		.ascii	"usbeventcb_t\000"
 16323      76656E74 
 16323      63625F74 
 16323      00
 16324              	.LASF394:
 16325 070b 4932535F 		.ascii	"I2S_UNINIT\000"
 16325      554E494E 
 16325      495400
 16326              	.LASF572:
 16327 0716 5F5F656E 		.ascii	"__enable_irq\000"
 16327      61626C65 
 16327      5F697271 
 16327      00
 16328              	.LASF576:
 16329 0723 474E5520 		.ascii	"GNU C11 8.2.1 20181213 (release) [gcc-8-branch revi"
 16329      43313120 
 16329      382E322E 
 16329      31203230 
 16329      31383132 
 16330 0756 73696F6E 		.ascii	"sion 267074] -mcpu=cortex-m0 -mno-thumb-interwork -"
 16330      20323637 
 16330      3037345D 
 16330      202D6D63 
 16330      70753D63 
 16331 0789 6D746875 		.ascii	"mthumb -mfloat-abi=soft -march=armv6s-m -ggdb -O2 -"
 16331      6D62202D 
 16331      6D666C6F 
 16331      61742D61 
 16331      62693D73 
 16332 07bc 7374643D 		.ascii	"std=gnu11 -fomit-frame-pointer -falign-functions=16"
 16332      676E7531 
 16332      31202D66 
 16332      6F6D6974 
 16332      2D667261 
 16333 07ef 202D6673 		.ascii	" -fstack-usage -ffunction-sections -fdata-sections "
ARM GAS  /tmp/ccTxpxgR.s 			page 294


 16333      7461636B 
 16333      2D757361 
 16333      6765202D 
 16333      6666756E 
 16334 0822 2D666E6F 		.ascii	"-fno-common\000"
 16334      2D636F6D 
 16334      6D6F6E00 
 16335              	.LASF257:
 16336 082e 70747273 		.ascii	"ptrsize\000"
 16336      697A6500 
 16337              	.LASF393:
 16338 0836 49324344 		.ascii	"I2CD1\000"
 16338      3100
 16339              	.LASF242:
 16340 083c 43435852 		.ascii	"CCXR\000"
 16340      00
 16341              	.LASF567:
 16342 0841 706F7274 		.ascii	"port_timer_get_time\000"
 16342      5F74696D 
 16342      65725F67 
 16342      65745F74 
 16342      696D6500 
 16343              	.LASF407:
 16344 0855 72785F64 		.ascii	"rx_dr\000"
 16344      7200
 16345              	.LASF501:
 16346 085b 55534249 		.ascii	"USBInEndpointState\000"
 16346      6E456E64 
 16346      706F696E 
 16346      74537461 
 16346      746500
 16347              	.LASF270:
 16348 086e 6F66665F 		.ascii	"off_time\000"
 16348      74696D65 
 16348      00
 16349              	.LASF289:
 16350 0877 646D615F 		.ascii	"dma_func\000"
 16350      66756E63 
 16350      00
 16351              	.LASF143:
 16352 0880 636E745F 		.ascii	"cnt_t\000"
 16352      7400
 16353              	.LASF420:
 16354 0886 5F747A6E 		.ascii	"_tzname\000"
 16354      616D6500 
 16355              	.LASF467:
 16356 088e 5553425F 		.ascii	"USB_UNINIT\000"
 16356      554E494E 
 16356      495400
 16357              	.LASF491:
 16358 0899 55534244 		.ascii	"USBDescriptor\000"
 16358      65736372 
 16358      6970746F 
 16358      7200
 16359              	.LASF406:
 16360 08a7 7478646D 		.ascii	"txdmamode\000"
 16360      616D6F64 
ARM GAS  /tmp/ccTxpxgR.s 			page 295


 16360      6500
 16361              	.LASF84:
 16362 08b1 5F636F6F 		.ascii	"_cookie\000"
 16362      6B696500 
 16363              	.LASF461:
 16364 08b9 73657475 		.ascii	"setup\000"
 16364      7000
 16365              	.LASF56:
 16366 08bf 5F5F7346 		.ascii	"__sFILE_fake\000"
 16366      494C455F 
 16366      66616B65 
 16366      00
 16367              	.LASF248:
 16368 08cc 77746D74 		.ascii	"wtmtxp\000"
 16368      787000
 16369              	.LASF32:
 16370 08d3 5F776473 		.ascii	"_wds\000"
 16370      00
 16371              	.LASF488:
 16372 08d8 75736265 		.ascii	"usbevent_t\000"
 16372      76656E74 
 16372      5F7400
 16373              	.LASF168:
 16374 08e3 63685F72 		.ascii	"ch_ready_list\000"
 16374      65616479 
 16374      5F6C6973 
 16374      7400
 16375              	.LASF122:
 16376 08f1 5F5F6C6F 		.ascii	"__lock\000"
 16376      636B00
 16377              	.LASF78:
 16378 08f8 5F736967 		.ascii	"_sig_func\000"
 16378      5F66756E 
 16378      6300
 16379              	.LASF380:
 16380 0902 4932435F 		.ascii	"I2C_LOCKED\000"
 16380      4C4F434B 
 16380      454400
 16381              	.LASF348:
 16382 090d 4558545F 		.ascii	"EXT_STOP\000"
 16382      53544F50 
 16382      00
 16383              	.LASF321:
 16384 0916 636C6561 		.ascii	"clear\000"
 16384      7200
 16385              	.LASF333:
 16386 091c 6F737065 		.ascii	"ospeedr\000"
 16386      65647200 
 16387              	.LASF92:
 16388 0924 5F6F6666 		.ascii	"_offset\000"
 16388      73657400 
 16389              	.LASF470:
 16390 092c 5553425F 		.ascii	"USB_SELECTED\000"
 16390      53454C45 
 16390      43544544 
 16390      00
 16391              	.LASF74:
ARM GAS  /tmp/ccTxpxgR.s 			page 296


 16392 0939 5F637674 		.ascii	"_cvtbuf\000"
 16392      62756600 
 16393              	.LASF340:
 16394 0941 50434461 		.ascii	"PCData\000"
 16394      746100
 16395              	.LASF464:
 16396 0948 636F6E66 		.ascii	"configuration\000"
 16396      69677572 
 16396      6174696F 
 16396      6E00
 16397              	.LASF235:
 16398 0956 44494552 		.ascii	"DIER\000"
 16398      00
 16399              	.LASF385:
 16400 095b 49324344 		.ascii	"I2CDriver\000"
 16400      72697665 
 16400      7200
 16401              	.LASF498:
 16402 0965 7478636E 		.ascii	"txcnt\000"
 16402      7400
 16403              	.LASF311:
 16404 096b 715F636F 		.ascii	"q_counter\000"
 16404      756E7465 
 16404      7200
 16405              	.LASF336:
 16406 0975 61667268 		.ascii	"afrh\000"
 16406      00
 16407              	.LASF15:
 16408 097a 5F5F7569 		.ascii	"__uint64_t\000"
 16408      6E743634 
 16408      5F7400
 16409              	.LASF347:
 16410 0985 4558545F 		.ascii	"EXT_UNINIT\000"
 16410      554E494E 
 16410      495400
 16411              	.LASF266:
 16412 0990 6F66665F 		.ascii	"off_state\000"
 16412      73746174 
 16412      6500
 16413              	.LASF564:
 16414 099a 63685379 		.ascii	"chSysUnlock\000"
 16414      73556E6C 
 16414      6F636B00 
 16415              	.LASF545:
 16416 09a6 69627152 		.ascii	"ibqReleaseEmptyBufferS\000"
 16416      656C6561 
 16416      7365456D 
 16416      70747942 
 16416      75666665 
 16417              	.LASF108:
 16418 09bd 5F703573 		.ascii	"_p5s\000"
 16418      00
 16419              	.LASF14:
 16420 09c2 6C6F6E67 		.ascii	"long unsigned int\000"
 16420      20756E73 
 16420      69676E65 
 16420      6420696E 
ARM GAS  /tmp/ccTxpxgR.s 			page 297


 16420      7400
 16421              	.LASF259:
 16422 09d4 74687265 		.ascii	"threadsize\000"
 16422      61647369 
 16422      7A6500
 16423              	.LASF565:
 16424 09df 63685379 		.ascii	"chSysLock\000"
 16424      734C6F63 
 16424      6B00
 16425              	.LASF547:
 16426 09e9 6F627147 		.ascii	"obqGetEmptyBufferTimeoutS\000"
 16426      6574456D 
 16426      70747942 
 16426      75666665 
 16426      7254696D 
 16427              	.LASF220:
 16428 0a03 5254435F 		.ascii	"RTC_TypeDef\000"
 16428      54797065 
 16428      44656600 
 16429              	.LASF83:
 16430 0a0f 5F5F7346 		.ascii	"__sFILE\000"
 16430      494C4500 
 16431              	.LASF68:
 16432 0a17 5F5F7364 		.ascii	"__sdidinit\000"
 16432      6964696E 
 16432      697400
 16433              	.LASF95:
 16434 0a22 5F666C61 		.ascii	"_flags2\000"
 16434      67733200 
 16435              	.LASF463:
 16436 0a2a 61646472 		.ascii	"address\000"
 16436      65737300 
 16437              	.LASF332:
 16438 0a32 6F747970 		.ascii	"otyper\000"
 16438      657200
 16439              	.LASF186:
 16440 0a39 53797374 		.ascii	"SystemCoreClock\000"
 16440      656D436F 
 16440      7265436C 
 16440      6F636B00 
 16441              	.LASF284:
 16442 0a49 73686966 		.ascii	"shift\000"
 16442      7400
 16443              	.LASF369:
 16444 0a4f 67707466 		.ascii	"gptfreq_t\000"
 16444      7265715F 
 16444      7400
 16445              	.LASF281:
 16446 0a59 6368616E 		.ascii	"channel\000"
 16446      6E656C00 
 16447              	.LASF146:
 16448 0a61 63685F74 		.ascii	"ch_thread\000"
 16448      68726561 
 16448      6400
 16449              	.LASF456:
 16450 0a6b 6F75745F 		.ascii	"out_params\000"
 16450      70617261 
ARM GAS  /tmp/ccTxpxgR.s 			page 298


 16450      6D7300
 16451              	.LASF175:
 16452 0a76 76697274 		.ascii	"virtual_timers_list_t\000"
 16452      75616C5F 
 16452      74696D65 
 16452      72735F6C 
 16452      6973745F 
 16453              	.LASF252:
 16454 0a8c 63685F69 		.ascii	"ch_idle_thread_wa\000"
 16454      646C655F 
 16454      74687265 
 16454      61645F77 
 16454      6100
 16455              	.LASF126:
 16456 0a9e 5F5F7366 		.ascii	"__sf_fake_stderr\000"
 16456      5F66616B 
 16456      655F7374 
 16456      64657272 
 16456      00
 16457              	.LASF292:
 16458 0aaf 5F73746D 		.ascii	"_stm32_dma_streams\000"
 16458      33325F64 
 16458      6D615F73 
 16458      74726561 
 16458      6D7300
 16459              	.LASF62:
 16460 0ac2 5F657272 		.ascii	"_errno\000"
 16460      6E6F00
 16461              	.LASF395:
 16462 0ac9 4932535F 		.ascii	"I2S_STOP\000"
 16462      53544F50 
 16462      00
 16463              	.LASF471:
 16464 0ad2 5553425F 		.ascii	"USB_ACTIVE\000"
 16464      41435449 
 16464      564500
 16465              	.LASF171:
 16466 0add 76697274 		.ascii	"virtual_timer_t\000"
 16466      75616C5F 
 16466      74696D65 
 16466      725F7400 
 16467              	.LASF167:
 16468 0aed 72656164 		.ascii	"ready_list_t\000"
 16468      795F6C69 
 16468      73745F74 
 16468      00
 16469              	.LASF150:
 16470 0afa 6F6C6465 		.ascii	"older\000"
 16470      7200
 16471              	.LASF82:
 16472 0b00 5F736967 		.ascii	"_signal_buf\000"
 16472      6E616C5F 
 16472      62756600 
 16473              	.LASF327:
 16474 0b0c 4C434B52 		.ascii	"LCKR\000"
 16474      00
 16475              	.LASF159:
ARM GAS  /tmp/ccTxpxgR.s 			page 299


 16476 0b11 7265616C 		.ascii	"realprio\000"
 16476      7072696F 
 16476      00
 16477              	.LASF243:
 16478 0b1a 73746D33 		.ascii	"stm32_tim_t\000"
 16478      325F7469 
 16478      6D5F7400 
 16479              	.LASF367:
 16480 0b26 636C6F63 		.ascii	"clock\000"
 16480      6B00
 16481              	.LASF373:
 16482 0b2c 47505443 		.ascii	"GPTConfig\000"
 16482      6F6E6669 
 16482      6700
 16483              	.LASF433:
 16484 0b36 77726974 		.ascii	"write\000"
 16484      6500
 16485              	.LASF265:
 16486 0b3c 6F66665F 		.ascii	"off_stklimit\000"
 16486      73746B6C 
 16486      696D6974 
 16486      00
 16487              	.LASF528:
 16488 0b49 64656164 		.ascii	"deadline\000"
 16488      6C696E65 
 16488      00
 16489              	.LASF33:
 16490 0b52 5F426967 		.ascii	"_Bigint\000"
 16490      696E7400 
 16491              	.LASF415:
 16492 0b5a 69327370 		.ascii	"i2spr\000"
 16492      7200
 16493              	.LASF162:
 16494 0b60 63685F74 		.ascii	"ch_threads_list\000"
 16494      68726561 
 16494      64735F6C 
 16494      69737400 
 16495              	.LASF30:
 16496 0b70 5F6D6178 		.ascii	"_maxwds\000"
 16496      77647300 
 16497              	.LASF571:
 16498 0b78 5F5F6469 		.ascii	"__disable_irq\000"
 16498      7361626C 
 16498      655F6972 
 16498      7100
 16499              	.LASF497:
 16500 0b86 74787369 		.ascii	"txsize\000"
 16500      7A6500
 16501              	.LASF480:
 16502 0b8d 5553425F 		.ascii	"USB_EP0_ERROR\000"
 16502      4550305F 
 16502      4552524F 
 16502      5200
 16503              	.LASF549:
 16504 0b9b 69627147 		.ascii	"ibqGetFullBufferTimeout\000"
 16504      65744675 
 16504      6C6C4275 
ARM GAS  /tmp/ccTxpxgR.s 			page 300


 16504      66666572 
 16504      54696D65 
 16505              	.LASF71:
 16506 0bb3 5F5F636C 		.ascii	"__cleanup\000"
 16506      65616E75 
 16506      7000
 16507              	.LASF351:
 16508 0bbd 45585444 		.ascii	"EXTDriver\000"
 16508      72697665 
 16508      7200
 16509              	.LASF302:
 16510 0bc7 62756666 		.ascii	"buffers\000"
 16510      65727300 
 16511              	.LASF504:
 16512 0bcf 72786275 		.ascii	"rxbuf\000"
 16512      6600
 16513              	.LASF403:
 16514 0bd5 646D6172 		.ascii	"dmarx\000"
 16514      7800
 16515              	.LASF513:
 16516 0bdb 696E5F73 		.ascii	"in_state\000"
 16516      74617465 
 16516      00
 16517              	.LASF198:
 16518 0be4 52584452 		.ascii	"RXDR\000"
 16518      00
 16519              	.LASF555:
 16520 0be9 6F73616C 		.ascii	"osalThreadDequeueAllI\000"
 16520      54687265 
 16520      61644465 
 16520      71756575 
 16520      65416C6C 
 16521              	.LASF208:
 16522 0bff 54534452 		.ascii	"TSDR\000"
 16522      00
 16523              	.LASF13:
 16524 0c04 5F5F7569 		.ascii	"__uint32_t\000"
 16524      6E743332 
 16524      5F7400
 16525              	.LASF67:
 16526 0c0f 5F656D65 		.ascii	"_emergency\000"
 16526      7267656E 
 16526      637900
 16527              	.LASF518:
 16528 0c1a 6576656E 		.ascii	"event_cb\000"
 16528      745F6362 
 16528      00
 16529              	.LASF158:
 16530 0c23 6D74786C 		.ascii	"mtxlist\000"
 16530      69737400 
 16531              	.LASF204:
 16532 0c2b 414C524D 		.ascii	"ALRMAR\000"
 16532      415200
 16533              	.LASF441:
 16534 0c32 5350495F 		.ascii	"SPI_READY\000"
 16534      52454144 
 16534      5900
ARM GAS  /tmp/ccTxpxgR.s 			page 301


 16535              	.LASF1:
 16536 0c3c 6C6F6E67 		.ascii	"long long int\000"
 16536      206C6F6E 
 16536      6720696E 
 16536      7400
 16537              	.LASF199:
 16538 0c4a 54584452 		.ascii	"TXDR\000"
 16538      00
 16539              	.LASF417:
 16540 0c4f 49325344 		.ascii	"I2SD2\000"
 16540      3200
 16541              	.LASF469:
 16542 0c55 5553425F 		.ascii	"USB_READY\000"
 16542      52454144 
 16542      5900
 16543              	.LASF375:
 16544 0c5f 4932435F 		.ascii	"I2C_UNINIT\000"
 16544      554E494E 
 16544      495400
 16545              	.LASF52:
 16546 0c6a 5F6F6E5F 		.ascii	"_on_exit_args_ptr\000"
 16546      65786974 
 16546      5F617267 
 16546      735F7074 
 16546      7200
 16547              	.LASF325:
 16548 0c7c 50555044 		.ascii	"PUPDR\000"
 16548      5200
 16549              	.LASF366:
 16550 0c82 47505444 		.ascii	"GPTDriver\000"
 16550      72697665 
 16550      7200
 16551              	.LASF98:
 16552 0c8c 5F6E696F 		.ascii	"_niobs\000"
 16552      627300
 16553              	.LASF349:
 16554 0c93 4558545F 		.ascii	"EXT_ACTIVE\000"
 16554      41435449 
 16554      564500
 16555              	.LASF79:
 16556 0c9e 5F5F7367 		.ascii	"__sglue\000"
 16556      6C756500 
 16557              	.LASF458:
 16558 0ca6 6570306E 		.ascii	"ep0next\000"
 16558      65787400 
 16559              	.LASF580:
 16560 0cae 6D656D63 		.ascii	"memcpy\000"
 16560      707900
 16561              	.LASF577:
 16562 0cb5 43686962 		.ascii	"ChibiOS/os/hal/src/hal_buffers.c\000"
 16562      694F532F 
 16562      6F732F68 
 16562      616C2F73 
 16562      72632F68 
 16563              	.LASF544:
 16564 0cd6 6F627150 		.ascii	"obqPostFullBufferS\000"
 16564      6F737446 
ARM GAS  /tmp/ccTxpxgR.s 			page 302


 16564      756C6C42 
 16564      75666665 
 16564      725300
 16565              	.LASF227:
 16566 0ce9 47545052 		.ascii	"GTPR\000"
 16566      00
 16567              	.LASF72:
 16568 0cee 5F67616D 		.ascii	"_gamma_signgam\000"
 16568      6D615F73 
 16568      69676E67 
 16568      616D00
 16569              	.LASF358:
 16570 0cfd 45585443 		.ascii	"EXTConfig\000"
 16570      6F6E6669 
 16570      6700
 16571              	.LASF280:
 16572 0d07 6576656E 		.ascii	"event_source_t\000"
 16572      745F736F 
 16572      75726365 
 16572      5F7400
 16573              	.LASF493:
 16574 0d16 75736265 		.ascii	"usbepcallback_t\000"
 16574      7063616C 
 16574      6C626163 
 16574      6B5F7400 
 16575              	.LASF109:
 16576 0d26 5F667265 		.ascii	"_freelist\000"
 16576      656C6973 
 16576      7400
 16577              	.LASF432:
 16578 0d30 53657269 		.ascii	"SerialDriverVMT\000"
 16578      616C4472 
 16578      69766572 
 16578      564D5400 
 16579              	.LASF99:
 16580 0d40 5F696F62 		.ascii	"_iobs\000"
 16580      7300
 16581              	.LASF381:
 16582 0d46 69326373 		.ascii	"i2cstate_t\000"
 16582      74617465 
 16582      5F7400
 16583              	.LASF387:
 16584 0d51 6D757465 		.ascii	"mutex\000"
 16584      7800
 16585              	.LASF97:
 16586 0d57 5F676C75 		.ascii	"_glue\000"
 16586      6500
 16587              	.LASF210:
 16588 0d5d 43414C52 		.ascii	"CALR\000"
 16588      00
 16589              	.LASF31:
 16590 0d62 5F736967 		.ascii	"_sign\000"
 16590      6E00
 16591              	.LASF222:
 16592 0d68 52584352 		.ascii	"RXCRCR\000"
 16592      435200
 16593              	.LASF370:
ARM GAS  /tmp/ccTxpxgR.s 			page 303


 16594 0d6f 66726571 		.ascii	"frequency\000"
 16594      75656E63 
 16594      7900
 16595              	.LASF339:
 16596 0d79 50424461 		.ascii	"PBData\000"
 16596      746100
 16597              	.LASF405:
 16598 0d80 7278646D 		.ascii	"rxdmamode\000"
 16598      616D6F64 
 16598      6500
 16599              	.LASF527:
 16600 0d8a 74696D65 		.ascii	"timeout\000"
 16600      6F757400 
 16601              	.LASF359:
 16602 0d92 45585444 		.ascii	"EXTD1\000"
 16602      3100
 16603              	.LASF573:
 16604 0d98 63685468 		.ascii	"chThdDequeueNextI\000"
 16604      64446571 
 16604      75657565 
 16604      4E657874 
 16604      4900
 16605              	.LASF318:
 16606 0daa 716E6F74 		.ascii	"qnotify_t\000"
 16606      6966795F 
 16606      7400
 16607              	.LASF364:
 16608 0db4 4750545F 		.ascii	"GPT_ONESHOT\000"
 16608      4F4E4553 
 16608      484F5400 
 16609              	.LASF536:
 16610 0dc0 6F627147 		.ascii	"obqGetFullBufferI\000"
 16610      65744675 
 16610      6C6C4275 
 16610      66666572 
 16610      4900
 16611              	.LASF428:
 16612 0dd2 6576656E 		.ascii	"event\000"
 16612      7400
 16613              	.LASF404:
 16614 0dd8 646D6174 		.ascii	"dmatx\000"
 16614      7800
 16615              	.LASF322:
 16616 0dde 4D4F4445 		.ascii	"MODER\000"
 16616      5200
 16617              	.LASF125:
 16618 0de4 5F5F7366 		.ascii	"__sf_fake_stdout\000"
 16618      5F66616B 
 16618      655F7374 
 16618      646F7574 
 16618      00
 16619              	.LASF426:
 16620 0df5 73647374 		.ascii	"sdstate_t\000"
 16620      6174655F 
 16620      7400
 16621              	.LASF328:
 16622 0dff 4146524C 		.ascii	"AFRL\000"
ARM GAS  /tmp/ccTxpxgR.s 			page 304


 16622      00
 16623              	.LASF262:
 16624 0e04 6F66665F 		.ascii	"off_newer\000"
 16624      6E657765 
 16624      7200
 16625              	.LASF285:
 16626 0e0e 73656C66 		.ascii	"selfindex\000"
 16626      696E6465 
 16626      7800
 16627              	.LASF0:
 16628 0e18 756E7369 		.ascii	"unsigned int\000"
 16628      676E6564 
 16628      20696E74 
 16628      00
 16629              	.LASF402:
 16630 0e25 65787463 		.ascii	"extcfg\000"
 16630      666700
 16631              	.LASF450:
 16632 0e2c 53504943 		.ascii	"SPIConfig\000"
 16632      6F6E6669 
 16632      6700
 16633              	.LASF522:
 16634 0e36 55534243 		.ascii	"USBConfig\000"
 16634      6F6E6669 
 16634      6700
 16635              	.LASF442:
 16636 0e40 5350495F 		.ascii	"SPI_ACTIVE\000"
 16636      41435449 
 16636      564500
 16637              	.LASF306:
 16638 0e4b 696E7075 		.ascii	"input_buffers_queue_t\000"
 16638      745F6275 
 16638      66666572 
 16638      735F7175 
 16638      6575655F 
 16639              	.LASF155:
 16640 0e61 72656673 		.ascii	"refs\000"
 16640      00
 16641              	.LASF357:
 16642 0e66 6368616E 		.ascii	"channels\000"
 16642      6E656C73 
 16642      00
 16643              	.LASF486:
 16644 0e6f 5553425F 		.ascii	"USB_EVENT_WAKEUP\000"
 16644      4556454E 
 16644      545F5741 
 16644      4B455550 
 16644      00
 16645              	.LASF537:
 16646 0e80 6F627152 		.ascii	"obqResetI\000"
 16646      65736574 
 16646      4900
 16647              	.LASF305:
 16648 0e8a 62716E6F 		.ascii	"bqnotify_t\000"
 16648      74696679 
 16648      5F7400
 16649              	.LASF413:
ARM GAS  /tmp/ccTxpxgR.s 			page 305


 16650 0e95 72785F65 		.ascii	"rx_end_cb\000"
 16650      6E645F63 
 16650      6200
 16651              	.LASF288:
 16652 0e9f 73746D33 		.ascii	"stm32_dmaisr_t\000"
 16652      325F646D 
 16652      61697372 
 16652      5F7400
 16653              	.LASF410:
 16654 0eae 74785F62 		.ascii	"tx_buffer\000"
 16654      75666665 
 16654      7200
 16655              	.LASF120:
 16656 0eb8 5F776372 		.ascii	"_wcrtomb_state\000"
 16656      746F6D62 
 16656      5F737461 
 16656      746500
 16657              	.LASF516:
 16658 0ec7 73657475 		.ascii	"setup_buf\000"
 16658      705F6275 
 16658      6600
 16659              	.LASF392:
 16660 0ed1 72786279 		.ascii	"rxbytes\000"
 16660      74657300 
 16661              	.LASF38:
 16662 0ed9 5F5F746D 		.ascii	"__tm_mday\000"
 16662      5F6D6461 
 16662      7900
 16663              	.LASF489:
 16664 0ee3 75645F73 		.ascii	"ud_size\000"
 16664      697A6500 
 16665              	.LASF534:
 16666 0eeb 6F627147 		.ascii	"obqGetEmptyBufferTimeout\000"
 16666      6574456D 
 16666      70747942 
 16666      75666665 
 16666      7254696D 
 16667              	.LASF89:
 16668 0f04 5F756275 		.ascii	"_ubuf\000"
 16668      6600
 16669              	.LASF189:
 16670 0f0a 434D4152 		.ascii	"CMAR\000"
 16670      00
 16671              	.LASF65:
 16672 0f0f 5F737464 		.ascii	"_stderr\000"
 16672      65727200 
 16673              	.LASF196:
 16674 0f17 54494D45 		.ascii	"TIMEOUTR\000"
 16674      4F555452 
 16674      00
 16675              	.LASF543:
 16676 0f20 69627147 		.ascii	"ibqGetTimeout\000"
 16676      65745469 
 16676      6D656F75 
 16676      7400
 16677              	.LASF113:
 16678 0f2e 5F776374 		.ascii	"_wctomb_state\000"
ARM GAS  /tmp/ccTxpxgR.s 			page 306


 16678      6F6D625F 
 16678      73746174 
 16678      6500
 16679              	.LASF94:
 16680 0f3c 5F6D6273 		.ascii	"_mbstate\000"
 16680      74617465 
 16680      00
 16681              	.LASF169:
 16682 0f45 63757272 		.ascii	"current\000"
 16682      656E7400 
 16683              	.LASF104:
 16684 0f4d 5F72616E 		.ascii	"_rand_next\000"
 16684      645F6E65 
 16684      787400
 16685              	.LASF510:
 16686 0f58 6F75745F 		.ascii	"out_cb\000"
 16686      636200
 16687              	.LASF57:
 16688 0f5f 5F666C61 		.ascii	"_flags\000"
 16688      677300
 16689              	.LASF561:
 16690 0f66 63685468 		.ascii	"chThdQueueObjectInit\000"
 16690      64517565 
 16690      75654F62 
 16690      6A656374 
 16690      496E6974 
 16691              	.LASF160:
 16692 0f7b 74687265 		.ascii	"thread_reference_t\000"
 16692      61645F72 
 16692      65666572 
 16692      656E6365 
 16692      5F7400
 16693              	.LASF49:
 16694 0f8e 5F617465 		.ascii	"_atexit\000"
 16694      78697400 
 16695              	.LASF468:
 16696 0f96 5553425F 		.ascii	"USB_STOP\000"
 16696      53544F50 
 16696      00
 16697              	.LASF503:
 16698 0f9f 7278636E 		.ascii	"rxcnt\000"
 16698      7400
 16699              	.LASF511:
 16700 0fa5 696E5F6D 		.ascii	"in_maxsize\000"
 16700      61787369 
 16700      7A6500
 16701              	.LASF197:
 16702 0fb0 50454352 		.ascii	"PECR\000"
 16702      00
 16703              	.LASF542:
 16704 0fb5 69627170 		.ascii	"ibqp\000"
 16704      00
 16705              	.LASF298:
 16706 0fba 62777270 		.ascii	"bwrptr\000"
 16706      747200
 16707              	.LASF556:
 16708 0fc1 6F73616C 		.ascii	"osalThreadDequeueNextI\000"
ARM GAS  /tmp/ccTxpxgR.s 			page 307


 16708      54687265 
 16708      61644465 
 16708      71756575 
 16708      654E6578 
 16709              	.LASF548:
 16710 0fd8 69627147 		.ascii	"ibqGetFullBufferTimeoutS\000"
 16710      65744675 
 16710      6C6C4275 
 16710      66666572 
 16710      54696D65 
 16711              	.LASF23:
 16712 0ff1 5F5F636F 		.ascii	"__count\000"
 16712      756E7400 
 16713              	.LASF514:
 16714 0ff9 6F75745F 		.ascii	"out_state\000"
 16714      73746174 
 16714      6500
 16715              	.LASF335:
 16716 1003 6166726C 		.ascii	"afrl\000"
 16716      00
 16717              	.LASF291:
 16718 1008 646D615F 		.ascii	"dma_isr_redir_t\000"
 16718      6973725F 
 16718      72656469 
 16718      725F7400 
 16719              	.LASF41:
 16720 1018 5F5F746D 		.ascii	"__tm_wday\000"
 16720      5F776461 
 16720      7900
 16721              	.LASF354:
 16722 1022 65787463 		.ascii	"extcallback_t\000"
 16722      616C6C62 
 16722      61636B5F 
 16722      7400
 16723              	.LASF300:
 16724 1030 62746F70 		.ascii	"btop\000"
 16724      00
 16725              	.LASF145:
 16726 1035 74687265 		.ascii	"thread_t\000"
 16726      61645F74 
 16726      00
 16727              	.LASF515:
 16728 103e 65705F62 		.ascii	"ep_buffers\000"
 16728      75666665 
 16728      727300
 16729              	.LASF524:
 16730 1049 6F627170 		.ascii	"obqp\000"
 16730      00
 16731              	.LASF2:
 16732 104e 6C6F6E67 		.ascii	"long double\000"
 16732      20646F75 
 16732      626C6500 
 16733              	.LASF525:
 16734 105a 6F627154 		.ascii	"obqTryFlushI\000"
 16734      7279466C 
 16734      75736849 
 16734      00
ARM GAS  /tmp/ccTxpxgR.s 			page 308


 16735              	.LASF278:
 16736 1067 77666C61 		.ascii	"wflags\000"
 16736      677300
 16737              	.LASF42:
 16738 106e 5F5F746D 		.ascii	"__tm_yday\000"
 16738      5F796461 
 16738      7900
 16739              	.LASF530:
 16740 1078 6F627150 		.ascii	"obqPutTimeout\000"
 16740      75745469 
 16740      6D656F75 
 16740      7400
 16741              	.LASF563:
 16742 1086 63685654 		.ascii	"chVTGetSystemTimeX\000"
 16742      47657453 
 16742      79737465 
 16742      6D54696D 
 16742      655800
 16743              	.LASF476:
 16744 1099 5553425F 		.ascii	"USB_EP0_WAITING_TX0\000"
 16744      4550305F 
 16744      57414954 
 16744      494E475F 
 16744      54583000 
 16745              	.LASF233:
 16746 10ad 706F7274 		.ascii	"port_intctx\000"
 16746      5F696E74 
 16746      63747800 
 16747              	.LASF101:
 16748 10b9 5F736565 		.ascii	"_seed\000"
 16748      6400
 16749              	.LASF87:
 16750 10bf 5F736565 		.ascii	"_seek\000"
 16750      6B00
 16751              	.LASF282:
 16752 10c5 636D6173 		.ascii	"cmask\000"
 16752      6B00
 16753              	.LASF384:
 16754 10cb 49324343 		.ascii	"I2CConfig\000"
 16754      6F6E6669 
 16754      6700
 16755              	.LASF19:
 16756 10d5 5F66706F 		.ascii	"_fpos_t\000"
 16756      735F7400 
 16757              	.LASF22:
 16758 10dd 5F5F7763 		.ascii	"__wchb\000"
 16758      686200
 16759              	.LASF190:
 16760 10e4 444D415F 		.ascii	"DMA_Channel_TypeDef\000"
 16760      4368616E 
 16760      6E656C5F 
 16760      54797065 
 16760      44656600 
 16761              	.LASF554:
 16762 10f8 696E6679 		.ascii	"infy\000"
 16762      00
 16763              	.LASF172:
ARM GAS  /tmp/ccTxpxgR.s 			page 309


 16764 10fd 63685F76 		.ascii	"ch_virtual_timer\000"
 16764      69727475 
 16764      616C5F74 
 16764      696D6572 
 16764      00
 16765              	.LASF114:
 16766 110e 5F6D6274 		.ascii	"_mbtowc_state\000"
 16766      6F77635F 
 16766      73746174 
 16766      6500
 16767              	.LASF568:
 16768 111c 73745F6C 		.ascii	"st_lld_get_counter\000"
 16768      6C645F67 
 16768      65745F63 
 16768      6F756E74 
 16768      657200
 16769              	.LASF303:
 16770 112f 6E6F7469 		.ascii	"notify\000"
 16770      667900
 16771              	.LASF390:
 16772 1136 74786279 		.ascii	"txbytes\000"
 16772      74657300 
 16773              	.LASF255:
 16774 113e 73697A65 		.ascii	"size\000"
 16774      00
 16775              	.LASF16:
 16776 1143 6C6F6E67 		.ascii	"long long unsigned int\000"
 16776      206C6F6E 
 16776      6720756E 
 16776      7369676E 
 16776      65642069 
 16777              	.LASF546:
 16778 115a 69627152 		.ascii	"ibqReleaseEmptyBuffer\000"
 16778      656C6561 
 16778      7365456D 
 16778      70747942 
 16778      75666665 
 16779              	.LASF301:
 16780 1170 6273697A 		.ascii	"bsize\000"
 16780      6500
 16781              	.LASF338:
 16782 1176 50414461 		.ascii	"PAData\000"
 16782      746100
 16783              	.LASF475:
 16784 117d 5553425F 		.ascii	"USB_EP0_TX\000"
 16784      4550305F 
 16784      545800
 16785              	.LASF132:
 16786 1188 75696E74 		.ascii	"uint16_t\000"
 16786      31365F74 
 16786      00
 16787              	.LASF264:
 16788 1191 6F66665F 		.ascii	"off_name\000"
 16788      6E616D65 
 16788      00
 16789              	.LASF46:
 16790 119a 5F64736F 		.ascii	"_dso_handle\000"
ARM GAS  /tmp/ccTxpxgR.s 			page 310


 16790      5F68616E 
 16790      646C6500 
 16791              	.LASF140:
 16792 11a6 6D73675F 		.ascii	"msg_t\000"
 16792      7400
 16793              	.LASF165:
 16794 11ac 63685F74 		.ascii	"ch_threads_queue\000"
 16794      68726561 
 16794      64735F71 
 16794      75657565 
 16794      00
 16795              	.LASF517:
 16796 11bd 55534245 		.ascii	"USBEndpointConfig\000"
 16796      6E64706F 
 16796      696E7443 
 16796      6F6E6669 
 16796      6700
 16797              	.LASF100:
 16798 11cf 5F72616E 		.ascii	"_rand48\000"
 16798      64343800 
 16799              	.LASF142:
 16800 11d7 6576656E 		.ascii	"eventflags_t\000"
 16800      74666C61 
 16800      67735F74 
 16800      00
 16801              	.LASF238:
 16802 11e4 43434552 		.ascii	"CCER\000"
 16802      00
 16803              	.LASF64:
 16804 11e9 5F737464 		.ascii	"_stdout\000"
 16804      6F757400 
 16805              	.LASF362:
 16806 11f1 4750545F 		.ascii	"GPT_READY\000"
 16806      52454144 
 16806      5900
 16807              	.LASF173:
 16808 11fb 64656C74 		.ascii	"delta\000"
 16808      6100
 16809              	.LASF363:
 16810 1201 4750545F 		.ascii	"GPT_CONTINUOUS\000"
 16810      434F4E54 
 16810      494E554F 
 16810      555300
 16811              	.LASF91:
 16812 1210 5F626C6B 		.ascii	"_blksize\000"
 16812      73697A65 
 16812      00
 16813              	.LASF396:
 16814 1219 4932535F 		.ascii	"I2S_READY\000"
 16814      52454144 
 16814      5900
 16815              	.LASF329:
 16816 1223 41465248 		.ascii	"AFRH\000"
 16816      00
 16817              	.LASF54:
 16818 1228 5F626173 		.ascii	"_base\000"
 16818      6500
ARM GAS  /tmp/ccTxpxgR.s 			page 311


 16819              	.LASF147:
 16820 122e 71756575 		.ascii	"queue\000"
 16820      6500
 16821              	.LASF286:
 16822 1234 76656374 		.ascii	"vector\000"
 16822      6F7200
 16823              	.LASF111:
 16824 123b 5F737472 		.ascii	"_strtok_last\000"
 16824      746F6B5F 
 16824      6C617374 
 16824      00
 16825              	.LASF211:
 16826 1248 54414643 		.ascii	"TAFCR\000"
 16826      5200
 16827              	.LASF200:
 16828 124e 4932435F 		.ascii	"I2C_TypeDef\000"
 16828      54797065 
 16828      44656600 
 16829              	.LASF118:
 16830 125a 5F6D6272 		.ascii	"_mbrtowc_state\000"
 16830      746F7763 
 16830      5F737461 
 16830      746500
 16831              	.LASF535:
 16832 1269 6F627152 		.ascii	"obqReleaseEmptyBufferI\000"
 16832      656C6561 
 16832      7365456D 
 16832      70747942 
 16832      75666665 
 16833              	.LASF185:
 16834 1280 6D61696E 		.ascii	"mainthread\000"
 16834      74687265 
 16834      616400
 16835              	.LASF274:
 16836 128b 6576656E 		.ascii	"event_listener_t\000"
 16836      745F6C69 
 16836      7374656E 
 16836      65725F74 
 16836      00
 16837              	.LASF526:
 16838 129c 6F627157 		.ascii	"obqWriteTimeout\000"
 16838      72697465 
 16838      54696D65 
 16838      6F757400 
 16839              	.LASF26:
 16840 12ac 5F666C6F 		.ascii	"_flock_t\000"
 16840      636B5F74 
 16840      00
 16841              	.LASF397:
 16842 12b5 4932535F 		.ascii	"I2S_ACTIVE\000"
 16842      41435449 
 16842      564500
 16843              	.LASF256:
 16844 12c0 76657273 		.ascii	"version\000"
 16844      696F6E00 
 16845              	.LASF96:
 16846 12c8 5F5F4649 		.ascii	"__FILE\000"
ARM GAS  /tmp/ccTxpxgR.s 			page 312


 16846      4C4500
 16847              	.LASF7:
 16848 12cf 5F5F696E 		.ascii	"__int16_t\000"
 16848      7431365F 
 16848      7400
 16849              	.LASF25:
 16850 12d9 5F6D6273 		.ascii	"_mbstate_t\000"
 16850      74617465 
 16850      5F7400
 16851              	.LASF75:
 16852 12e4 5F723438 		.ascii	"_r48\000"
 16852      00
 16853              	.LASF152:
 16854 12e9 77616261 		.ascii	"wabase\000"
 16854      736500
 16855              	.LASF473:
 16856 12f0 75736273 		.ascii	"usbstate_t\000"
 16856      74617465 
 16856      5F7400
 16857              	.LASF20:
 16858 12fb 77696E74 		.ascii	"wint_t\000"
 16858      5F7400
 16859              	.LASF427:
 16860 1302 53657269 		.ascii	"SerialDriver\000"
 16860      616C4472 
 16860      69766572 
 16860      00
 16861              	.LASF484:
 16862 130f 5553425F 		.ascii	"USB_EVENT_CONFIGURED\000"
 16862      4556454E 
 16862      545F434F 
 16862      4E464947 
 16862      55524544 
 16863              	.LASF323:
 16864 1324 4F545950 		.ascii	"OTYPER\000"
 16864      455200
 16865              	.LASF479:
 16866 132b 5553425F 		.ascii	"USB_EP0_SENDING_STS\000"
 16866      4550305F 
 16866      53454E44 
 16866      494E475F 
 16866      53545300 
 16867              	.LASF29:
 16868 133f 5F6E6578 		.ascii	"_next\000"
 16868      7400
 16869              	.LASF523:
 16870 1345 55534244 		.ascii	"USBD1\000"
 16870      3100
 16871              	.LASF60:
 16872 134b 5F646174 		.ascii	"_data\000"
 16872      6100
 16873              	.LASF310:
 16874 1351 715F7761 		.ascii	"q_waiting\000"
 16874      6974696E 
 16874      6700
 16875              	.LASF223:
 16876 135b 54584352 		.ascii	"TXCRCR\000"
ARM GAS  /tmp/ccTxpxgR.s 			page 313


 16876      435200
 16877              	.LASF226:
 16878 1362 5350495F 		.ascii	"SPI_TypeDef\000"
 16878      54797065 
 16878      44656600 
 16879              	.LASF183:
 16880 136e 726C6973 		.ascii	"rlist\000"
 16880      7400
 16881              	.LASF136:
 16882 1374 746D6F64 		.ascii	"tmode_t\000"
 16882      655F7400 
 16883              	.LASF221:
 16884 137c 43524350 		.ascii	"CRCPR\000"
 16884      5200
 16885              	.LASF193:
 16886 1382 4F415231 		.ascii	"OAR1\000"
 16886      00
 16887              	.LASF194:
 16888 1387 4F415232 		.ascii	"OAR2\000"
 16888      00
 16889              	.LASF353:
 16890 138c 65787063 		.ascii	"expchannel_t\000"
 16890      68616E6E 
 16890      656C5F74 
 16890      00
 16891              	.LASF496:
 16892 1399 75736267 		.ascii	"usbgetdescriptor_t\000"
 16892      65746465 
 16892      73637269 
 16892      70746F72 
 16892      5F7400
 16893              	.LASF400:
 16894 13ac 49325344 		.ascii	"I2SDriver\000"
 16894      72697665 
 16894      7200
 16895              	.LASF416:
 16896 13b6 49325343 		.ascii	"I2SConfig\000"
 16896      6F6E6669 
 16896      6700
 16897              	.LASF425:
 16898 13c0 53445F52 		.ascii	"SD_READY\000"
 16898      45414459 
 16898      00
 16899              	.LASF401:
 16900 13c9 69327365 		.ascii	"i2sext\000"
 16900      787400
 16901              	.LASF388:
 16902 13d0 74687265 		.ascii	"thread\000"
 16902      616400
 16903              	.LASF151:
 16904 13d7 6E616D65 		.ascii	"name\000"
 16904      00
 16905              	.LASF570:
 16906 13dc 706F7274 		.ascii	"port_lock\000"
 16906      5F6C6F63 
 16906      6B00
 16907              	.LASF276:
ARM GAS  /tmp/ccTxpxgR.s 			page 314


 16908 13e6 6C697374 		.ascii	"listener\000"
 16908      656E6572 
 16908      00
 16909              	.LASF206:
 16910 13ef 53484946 		.ascii	"SHIFTR\000"
 16910      545200
 16911              	.LASF553:
 16912 13f6 6962714F 		.ascii	"ibqObjectInit\000"
 16912      626A6563 
 16912      74496E69 
 16912      7400
 16913              	.LASF562:
 16914 1404 6F73616C 		.ascii	"osalOsGetSystemTimeX\000"
 16914      4F734765 
 16914      74537973 
 16914      74656D54 
 16914      696D6558 
 16915              	.LASF112:
 16916 1419 5F6D626C 		.ascii	"_mblen_state\000"
 16916      656E5F73 
 16916      74617465 
 16916      00
 16917              	.LASF293:
 16918 1426 5F73746D 		.ascii	"_stm32_dma_isr_redir\000"
 16918      33325F64 
 16918      6D615F69 
 16918      73725F72 
 16918      65646972 
 16919              	.LASF8:
 16920 143b 73686F72 		.ascii	"short int\000"
 16920      7420696E 
 16920      7400
 16921              	.LASF279:
 16922 1445 6576656E 		.ascii	"event_source\000"
 16922      745F736F 
 16922      75726365 
 16922      00
 16923              	.LASF135:
 16924 1452 75696E74 		.ascii	"uint64_t\000"
 16924      36345F74 
 16924      00
 16925              	.LASF355:
 16926 145b 6D6F6465 		.ascii	"mode\000"
 16926      00
 16927              	.LASF174:
 16928 1460 66756E63 		.ascii	"func\000"
 16928      00
 16929              	.LASF250:
 16930 1465 63685F6D 		.ascii	"ch_mutex\000"
 16930      75746578 
 16930      00
 16931              	.LASF482:
 16932 146e 5553425F 		.ascii	"USB_EVENT_RESET\000"
 16932      4556454E 
 16932      545F5245 
 16932      53455400 
 16933              	.LASF131:
ARM GAS  /tmp/ccTxpxgR.s 			page 315


 16934 147e 696E7431 		.ascii	"int16_t\000"
 16934      365F7400 
 16935              	.LASF429:
 16936 1486 69717565 		.ascii	"iqueue\000"
 16936      756500
 16937              	.LASF47:
 16938 148d 5F666E74 		.ascii	"_fntypes\000"
 16938      79706573 
 16938      00
 16939              	.LASF179:
 16940 1496 63685F73 		.ascii	"ch_system_debug\000"
 16940      79737465 
 16940      6D5F6465 
 16940      62756700 
 16941              	.LASF40:
 16942 14a6 5F5F746D 		.ascii	"__tm_year\000"
 16942      5F796561 
 16942      7200
 16943              	.LASF308:
 16944 14b0 696F5F71 		.ascii	"io_queue_t\000"
 16944      75657565 
 16944      5F7400
 16945              	.LASF495:
 16946 14bb 75736272 		.ascii	"usbreqhandler_t\000"
 16946      65716861 
 16946      6E646C65 
 16946      725F7400 
 16947              	.LASF326:
 16948 14cb 42535252 		.ascii	"BSRR\000"
 16948      00
 16949              	.LASF551:
 16950 14d0 69627147 		.ascii	"ibqGetEmptyBufferI\000"
 16950      6574456D 
 16950      70747942 
 16950      75666665 
 16950      724900
 16951              	.LASF344:
 16952 14e3 50414C43 		.ascii	"PALConfig\000"
 16952      6F6E6669 
 16952      6700
 16953              	.LASF492:
 16954 14ed 75736263 		.ascii	"usbcallback_t\000"
 16954      616C6C62 
 16954      61636B5F 
 16954      7400
 16955              	.LASF290:
 16956 14fb 646D615F 		.ascii	"dma_param\000"
 16956      70617261 
 16956      6D00
 16957              	.LASF532:
 16958 1505 6F627146 		.ascii	"obqFlush\000"
 16958      6C757368 
 16958      00
 16959              	.LASF295:
 16960 150e 696F5F62 		.ascii	"io_buffers_queue_t\000"
 16960      75666665 
 16960      72735F71 
ARM GAS  /tmp/ccTxpxgR.s 			page 316


 16960      75657565 
 16960      5F7400
 16961              	.LASF59:
 16962 1521 5F6C6266 		.ascii	"_lbfsize\000"
 16962      73697A65 
 16962      00
 16963              	.LASF184:
 16964 152a 76746C69 		.ascii	"vtlist\000"
 16964      737400
 16965              	.LASF66:
 16966 1531 5F696E63 		.ascii	"_inc\000"
 16966      00
 16967              	.LASF50:
 16968 1536 5F696E64 		.ascii	"_ind\000"
 16968      00
 16969              	.LASF156:
 16970 153b 77616974 		.ascii	"waiting\000"
 16970      696E6700 
 16971              	.LASF53:
 16972 1543 5F5F7362 		.ascii	"__sbuf\000"
 16972      756600
 16973              	.LASF48:
 16974 154a 5F69735F 		.ascii	"_is_cxa\000"
 16974      63786100 
 16975              	.LASF17:
 16976 1552 5F4C4F43 		.ascii	"_LOCK_T\000"
 16976      4B5F5400 
 16977              	.LASF273:
 16978 155a 6D757465 		.ascii	"mutex_t\000"
 16978      785F7400 
 16979              	.LASF566:
 16980 1562 71756575 		.ascii	"queue_init\000"
 16980      655F696E 
 16980      697400
 16981              	.LASF138:
 16982 156d 74726566 		.ascii	"trefs_t\000"
 16982      735F7400 
 16983              	.LASF232:
 16984 1575 706F7274 		.ascii	"port_context\000"
 16984      5F636F6E 
 16984      74657874 
 16984      00
 16985              	.LASF161:
 16986 1582 74687265 		.ascii	"threads_list_t\000"
 16986      6164735F 
 16986      6C697374 
 16986      5F7400
 16987              	.LASF382:
 16988 1591 69326366 		.ascii	"i2cflags_t\000"
 16988      6C616773 
 16988      5F7400
 16989              	.LASF296:
 16990 159c 696F5F62 		.ascii	"io_buffers_queue\000"
 16990      75666665 
 16990      72735F71 
 16990      75657565 
 16990      00
ARM GAS  /tmp/ccTxpxgR.s 			page 317


 16991              	.LASF105:
 16992 15ad 5F6D7072 		.ascii	"_mprec\000"
 16992      656300
 16993              	.LASF462:
 16994 15b4 73746174 		.ascii	"status\000"
 16994      757300
 16995              	.LASF81:
 16996 15bb 5F6D6973 		.ascii	"_misc\000"
 16996      6300
 16997              	.LASF182:
 16998 15c1 63685F73 		.ascii	"ch_system\000"
 16998      79737465 
 16998      6D00
 16999              	.LASF70:
 17000 15cb 5F6C6F63 		.ascii	"_locale\000"
 17000      616C6500 
 17001              	.LASF28:
 17002 15d3 5F5F554C 		.ascii	"__ULong\000"
 17002      6F6E6700 
 17003              	.LASF149:
 17004 15db 6E657765 		.ascii	"newer\000"
 17004      7200
 17005              	.LASF239:
 17006 15e1 42445452 		.ascii	"BDTR\000"
 17006      00
 17007              	.LASF434:
 17008 15e6 72656164 		.ascii	"read\000"
 17008      00
 17009              	.LASF550:
 17010 15eb 69627150 		.ascii	"ibqPostFullBufferI\000"
 17010      6F737446 
 17010      756C6C42 
 17010      75666665 
 17010      724900
 17011              	.LASF383:
 17012 15fe 74696D69 		.ascii	"timingr\000"
 17012      6E677200 
 17013              	.LASF134:
 17014 1606 75696E74 		.ascii	"uint32_t\000"
 17014      33325F74 
 17014      00
 17015              	.LASF466:
 17016 160f 75736265 		.ascii	"usbep_t\000"
 17016      705F7400 
 17017              	.LASF225:
 17018 1617 49325350 		.ascii	"I2SPR\000"
 17018      5200
 17019              	.LASF106:
 17020 161d 5F726573 		.ascii	"_result\000"
 17020      756C7400 
 17021              	.LASF319:
 17022 1625 696E7075 		.ascii	"input_queue_t\000"
 17022      745F7175 
 17022      6575655F 
 17022      7400
 17023              	.LASF512:
 17024 1633 6F75745F 		.ascii	"out_maxsize\000"
ARM GAS  /tmp/ccTxpxgR.s 			page 318


 17024      6D617873 
 17024      697A6500 
 17025              	.LASF377:
 17026 163f 4932435F 		.ascii	"I2C_READY\000"
 17026      52454144 
 17026      5900
 17027              	.LASF443:
 17028 1649 5350495F 		.ascii	"SPI_COMPLETE\000"
 17028      434F4D50 
 17028      4C455445 
 17028      00
 17029              	.LASF505:
 17030 1656 7278706B 		.ascii	"rxpkts\000"
 17030      747300
 17031              	.LASF268:
 17032 165d 6F66665F 		.ascii	"off_refs\000"
 17032      72656673 
 17032      00
 17033              	.LASF343:
 17034 1666 50464461 		.ascii	"PFData\000"
 17034      746100
 17035              	.LASF18:
 17036 166d 5F6F6666 		.ascii	"_off_t\000"
 17036      5F7400
 17037              	.LASF275:
 17038 1674 6576656E 		.ascii	"event_listener\000"
 17038      745F6C69 
 17038      7374656E 
 17038      657200
 17039              	.LASF244:
 17040 1683 7264796D 		.ascii	"rdymsg\000"
 17040      736700
 17041              	.LASF103:
 17042 168a 5F616464 		.ascii	"_add\000"
 17042      00
 17043              	.LASF314:
 17044 168f 715F7772 		.ascii	"q_wrptr\000"
 17044      70747200 
 17045              	.LASF361:
 17046 1697 4750545F 		.ascii	"GPT_STOP\000"
 17046      53544F50 
 17046      00
 17047              	.LASF10:
 17048 16a0 73686F72 		.ascii	"short unsigned int\000"
 17048      7420756E 
 17048      7369676E 
 17048      65642069 
 17048      6E7400
 17049              	.LASF37:
 17050 16b3 5F5F746D 		.ascii	"__tm_hour\000"
 17050      5F686F75 
 17050      7200
 17051              	.LASF202:
 17052 16bd 57555452 		.ascii	"WUTR\000"
 17052      00
 17053              	.LASF307:
 17054 16c2 6F757470 		.ascii	"output_buffers_queue_t\000"
ARM GAS  /tmp/ccTxpxgR.s 			page 319


 17054      75745F62 
 17054      75666665 
 17054      72735F71 
 17054      75657565 
 17055              	.LASF519:
 17056 16d9 6765745F 		.ascii	"get_descriptor_cb\000"
 17056      64657363 
 17056      72697074 
 17056      6F725F63 
 17056      6200
 17057              	.LASF181:
 17058 16eb 63685F73 		.ascii	"ch_system_t\000"
 17058      79737465 
 17058      6D5F7400 
 17059              	.LASF271:
 17060 16f7 63686465 		.ascii	"chdebug_t\000"
 17060      6275675F 
 17060      7400
 17061              	.LASF444:
 17062 1701 73706973 		.ascii	"spistate_t\000"
 17062      74617465 
 17062      5F7400
 17063              	.LASF485:
 17064 170c 5553425F 		.ascii	"USB_EVENT_SUSPEND\000"
 17064      4556454E 
 17064      545F5355 
 17064      5350454E 
 17064      4400
 17065              	.LASF453:
 17066 171e 7472616E 		.ascii	"transmitting\000"
 17066      736D6974 
 17066      74696E67 
 17066      00
 17067              	.LASF119:
 17068 172b 5F6D6273 		.ascii	"_mbsrtowcs_state\000"
 17068      72746F77 
 17068      63735F73 
 17068      74617465 
 17068      00
 17069              	.LASF320:
 17070 173c 6F757470 		.ascii	"output_queue_t\000"
 17070      75745F71 
 17070      75657565 
 17070      5F7400
 17071              	.LASF166:
 17072 174b 70726576 		.ascii	"prev\000"
 17072      00
 17073              	.LASF258:
 17074 1750 74696D65 		.ascii	"timesize\000"
 17074      73697A65 
 17074      00
 17075              	.LASF460:
 17076 1759 65703065 		.ascii	"ep0endcb\000"
 17076      6E646362 
 17076      00
 17077              	.LASF11:
 17078 1762 5F5F696E 		.ascii	"__int32_t\000"
ARM GAS  /tmp/ccTxpxgR.s 			page 320


 17078      7433325F 
 17078      7400
 17079              	.LASF424:
 17080 176c 53445F53 		.ascii	"SD_STOP\000"
 17080      544F5000 
 17081              	.LASF538:
 17082 1774 6F62714F 		.ascii	"obqObjectInit\000"
 17082      626A6563 
 17082      74496E69 
 17082      7400
 17083              	.LASF558:
 17084 1782 6F73616C 		.ascii	"osalThreadQueueObjectInit\000"
 17084      54687265 
 17084      61645175 
 17084      6575654F 
 17084      626A6563 
 17085              	.LASF215:
 17086 179c 424B5030 		.ascii	"BKP0R\000"
 17086      5200
 17087              	.LASF267:
 17088 17a2 6F66665F 		.ascii	"off_flags\000"
 17088      666C6167 
 17088      7300
 17089              	.LASF449:
 17090 17ac 73737061 		.ascii	"sspad\000"
 17090      6400
 17091              	.LASF45:
 17092 17b2 5F666E61 		.ascii	"_fnargs\000"
 17092      72677300 
 17093              	.LASF209:
 17094 17ba 54535353 		.ascii	"TSSSR\000"
 17094      5200
 17095              	.LASF43:
 17096 17c0 5F5F746D 		.ascii	"__tm_isdst\000"
 17096      5F697364 
 17096      737400
 17097              	.LASF477:
 17098 17cb 5553425F 		.ascii	"USB_EP0_WAITING_STS\000"
 17098      4550305F 
 17098      57414954 
 17098      494E475F 
 17098      53545300 
 17099              	.LASF376:
 17100 17df 4932435F 		.ascii	"I2C_STOP\000"
 17100      53544F50 
 17100      00
 17101              	.LASF277:
 17102 17e8 6576656E 		.ascii	"events\000"
 17102      747300
 17103              	.LASF163:
 17104 17ef 6E657874 		.ascii	"next\000"
 17104      00
 17105              	.LASF419:
 17106 17f4 5F646179 		.ascii	"_daylight\000"
 17106      6C696768 
 17106      7400
 17107              	.LASF465:
ARM GAS  /tmp/ccTxpxgR.s 			page 321


 17108 17fe 706D6E65 		.ascii	"pmnext\000"
 17108      787400
 17109              	.LASF36:
 17110 1805 5F5F746D 		.ascii	"__tm_min\000"
 17110      5F6D696E 
 17110      00
 17111              	.LASF212:
 17112 180e 414C524D 		.ascii	"ALRMASSR\000"
 17112      41535352 
 17112      00
 17113              	.LASF253:
 17114 1817 6964656E 		.ascii	"identifier\000"
 17114      74696669 
 17114      657200
 17115              	.LASF116:
 17116 1822 5F676574 		.ascii	"_getdate_err\000"
 17116      64617465 
 17116      5F657272 
 17116      00
 17117              	.LASF368:
 17118 182f 67707463 		.ascii	"gptcallback_t\000"
 17118      616C6C62 
 17118      61636B5F 
 17118      7400
 17119              	.LASF478:
 17120 183d 5553425F 		.ascii	"USB_EP0_RX\000"
 17120      4550305F 
 17120      525800
 17121              	.LASF195:
 17122 1848 54494D49 		.ascii	"TIMINGR\000"
 17122      4E475200 
 17123              	.LASF216:
 17124 1850 424B5031 		.ascii	"BKP1R\000"
 17124      5200
 17125              		.ident	"GCC: (GNU Tools for Arm Embedded Processors 8-2018-q4-major) 8.2.1 20181213 (release) [gcc
ARM GAS  /tmp/ccTxpxgR.s 			page 322


DEFINED SYMBOLS
                            *ABS*:0000000000000000 hal_buffers.c
     /tmp/ccTxpxgR.s:16     .text.ibqObjectInit:0000000000000000 $t
     /tmp/ccTxpxgR.s:25     .text.ibqObjectInit:0000000000000000 ibqObjectInit
     /tmp/ccTxpxgR.s:139    .text.ibqResetI:0000000000000000 $t
     /tmp/ccTxpxgR.s:147    .text.ibqResetI:0000000000000000 ibqResetI
     /tmp/ccTxpxgR.s:205    .text.ibqGetEmptyBufferI:0000000000000000 $t
     /tmp/ccTxpxgR.s:213    .text.ibqGetEmptyBufferI:0000000000000000 ibqGetEmptyBufferI
     /tmp/ccTxpxgR.s:252    .text.ibqPostFullBufferI:0000000000000000 $t
     /tmp/ccTxpxgR.s:260    .text.ibqPostFullBufferI:0000000000000000 ibqPostFullBufferI
     /tmp/ccTxpxgR.s:328    .text.ibqGetFullBufferTimeoutS:0000000000000000 $t
     /tmp/ccTxpxgR.s:336    .text.ibqGetFullBufferTimeoutS:0000000000000000 ibqGetFullBufferTimeoutS
     /tmp/ccTxpxgR.s:427    .text.ibqGetFullBufferTimeout:0000000000000000 $t
     /tmp/ccTxpxgR.s:435    .text.ibqGetFullBufferTimeout:0000000000000000 ibqGetFullBufferTimeout
     /tmp/ccTxpxgR.s:562    .text.ibqReleaseEmptyBuffer:0000000000000000 $t
     /tmp/ccTxpxgR.s:570    .text.ibqReleaseEmptyBuffer:0000000000000000 ibqReleaseEmptyBuffer
     /tmp/ccTxpxgR.s:741    .text.ibqReleaseEmptyBufferS:0000000000000000 $t
     /tmp/ccTxpxgR.s:749    .text.ibqReleaseEmptyBufferS:0000000000000000 ibqReleaseEmptyBufferS
     /tmp/ccTxpxgR.s:813    .text.ibqGetTimeout:0000000000000000 $t
     /tmp/ccTxpxgR.s:821    .text.ibqGetTimeout:0000000000000000 ibqGetTimeout
     /tmp/ccTxpxgR.s:1039   .text.ibqReadTimeout:0000000000000000 $t
     /tmp/ccTxpxgR.s:1047   .text.ibqReadTimeout:0000000000000000 ibqReadTimeout
     /tmp/ccTxpxgR.s:1661   .text.obqObjectInit:0000000000000000 $t
     /tmp/ccTxpxgR.s:1669   .text.obqObjectInit:0000000000000000 obqObjectInit
     /tmp/ccTxpxgR.s:1779   .text.obqResetI:0000000000000000 $t
     /tmp/ccTxpxgR.s:1787   .text.obqResetI:0000000000000000 obqResetI
     /tmp/ccTxpxgR.s:1852   .text.obqGetFullBufferI:0000000000000000 $t
     /tmp/ccTxpxgR.s:1860   .text.obqGetFullBufferI:0000000000000000 obqGetFullBufferI
     /tmp/ccTxpxgR.s:1903   .text.obqReleaseEmptyBufferI:0000000000000000 $t
     /tmp/ccTxpxgR.s:1911   .text.obqReleaseEmptyBufferI:0000000000000000 obqReleaseEmptyBufferI
     /tmp/ccTxpxgR.s:1974   .text.obqGetEmptyBufferTimeoutS:0000000000000000 $t
     /tmp/ccTxpxgR.s:1982   .text.obqGetEmptyBufferTimeoutS:0000000000000000 obqGetEmptyBufferTimeoutS
     /tmp/ccTxpxgR.s:2073   .text.obqGetEmptyBufferTimeout:0000000000000000 $t
     /tmp/ccTxpxgR.s:2081   .text.obqGetEmptyBufferTimeout:0000000000000000 obqGetEmptyBufferTimeout
     /tmp/ccTxpxgR.s:2205   .text.obqPostFullBuffer:0000000000000000 $t
     /tmp/ccTxpxgR.s:2213   .text.obqPostFullBuffer:0000000000000000 obqPostFullBuffer
     /tmp/ccTxpxgR.s:2388   .text.obqPostFullBufferS:0000000000000000 $t
     /tmp/ccTxpxgR.s:2396   .text.obqPostFullBufferS:0000000000000000 obqPostFullBufferS
     /tmp/ccTxpxgR.s:2463   .text.obqPutTimeout:0000000000000000 $t
     /tmp/ccTxpxgR.s:2471   .text.obqPutTimeout:0000000000000000 obqPutTimeout
     /tmp/ccTxpxgR.s:2761   .text.obqWriteTimeout:0000000000000000 $t
     /tmp/ccTxpxgR.s:2769   .text.obqWriteTimeout:0000000000000000 obqWriteTimeout
     /tmp/ccTxpxgR.s:3400   .text.obqTryFlushI:0000000000000000 $t
     /tmp/ccTxpxgR.s:3408   .text.obqTryFlushI:0000000000000000 obqTryFlushI
     /tmp/ccTxpxgR.s:3499   .text.obqFlush:0000000000000000 $t
     /tmp/ccTxpxgR.s:3507   .text.obqFlush:0000000000000000 obqFlush

UNDEFINED SYMBOLS
chThdDequeueAllI
chThdDequeueNextI
chThdEnqueueTimeoutS
memcpy
