ARM GAS  /tmp/ccwzNW6c.s 			page 1


   1              		.cpu cortex-m0
   2              		.eabi_attribute 20, 1
   3              		.eabi_attribute 21, 1
   4              		.eabi_attribute 23, 3
   5              		.eabi_attribute 24, 1
   6              		.eabi_attribute 25, 1
   7              		.eabi_attribute 26, 1
   8              		.eabi_attribute 30, 2
   9              		.eabi_attribute 34, 0
  10              		.eabi_attribute 18, 4
  11              		.file	"nvic.c"
  12              		.text
  13              	.Ltext0:
  14              		.cfi_sections	.debug_frame
  15              		.section	.text.nvicEnableVector,"ax",%progbits
  16              		.align	1
  17              		.p2align 4,,15
  18              		.global	nvicEnableVector
  19              		.arch armv6s-m
  20              		.syntax unified
  21              		.code	16
  22              		.thumb_func
  23              		.fpu softvfp
  24              		.type	nvicEnableVector, %function
  25              	nvicEnableVector:
  26              	.LVL0:
  27              	.LFB151:
  28              		.file 1 "ChibiOS/os/hal/ports/common/ARMCMx/nvic.c"
  29              		.loc 1 57 50 view -0
  30              		.cfi_startproc
  31              		@ args = 0, pretend = 0, frame = 0
  32              		@ frame_needed = 0, uses_anonymous_args = 0
  33              		.loc 1 60 3 view .LVU1
  34 0000 0F4A     		ldr	r2, .L3
  35              		.loc 1 57 50 is_stmt 0 view .LVU2
  36 0002 70B5     		push	{r4, r5, r6, lr}
  37              		.cfi_def_cfa_offset 16
  38              		.cfi_offset 4, -16
  39              		.cfi_offset 5, -12
  40              		.cfi_offset 6, -8
  41              		.cfi_offset 14, -4
  42 0004 9446     		mov	ip, r2
  43              		.loc 1 60 61 view .LVU3
  44 0006 0322     		movs	r2, #3
  45              		.loc 1 60 58 view .LVU4
  46 0008 FF25     		movs	r5, #255
  47              		.loc 1 60 35 view .LVU5
  48 000a C026     		movs	r6, #192
  49              		.loc 1 60 61 view .LVU6
  50 000c 0240     		ands	r2, r0
  51 000e D200     		lsls	r2, r2, #3
  52              		.loc 1 60 58 view .LVU7
  53 0010 9540     		lsls	r5, r5, r2
  54              		.loc 1 61 27 view .LVU8
  55 0012 8901     		lsls	r1, r1, #6
  56              	.LVL1:
  57              		.loc 1 61 52 view .LVU9
ARM GAS  /tmp/ccwzNW6c.s 			page 2


  58 0014 9140     		lsls	r1, r1, r2
  59              		.loc 1 60 36 view .LVU10
  60 0016 8308     		lsrs	r3, r0, #2
  61 0018 9B00     		lsls	r3, r3, #2
  62 001a 6344     		add	r3, r3, ip
  63              		.loc 1 60 35 view .LVU11
  64 001c B600     		lsls	r6, r6, #2
  65 001e 9C59     		ldr	r4, [r3, r6]
  66              		.loc 1 65 34 view .LVU12
  67 0020 1F22     		movs	r2, #31
  68              		.loc 1 60 48 view .LVU13
  69 0022 AC43     		bics	r4, r5
  70              		.loc 1 60 77 view .LVU14
  71 0024 0C43     		orrs	r4, r1
  72              		.loc 1 60 24 view .LVU15
  73 0026 9C51     		str	r4, [r3, r6]
  74              		.loc 1 65 3 is_stmt 1 view .LVU16
  75              		.loc 1 65 28 is_stmt 0 view .LVU17
  76 0028 0123     		movs	r3, #1
  77              		.loc 1 65 34 view .LVU18
  78 002a 0240     		ands	r2, r0
  79              		.loc 1 65 28 view .LVU19
  80 002c 9340     		lsls	r3, r3, r2
  81              		.loc 1 65 23 view .LVU20
  82 002e C022     		movs	r2, #192
  83              		.loc 1 65 16 view .LVU21
  84 0030 4009     		lsrs	r0, r0, #5
  85              	.LVL2:
  86              		.loc 1 65 16 view .LVU22
  87 0032 8000     		lsls	r0, r0, #2
  88 0034 6044     		add	r0, r0, ip
  89              		.loc 1 65 23 view .LVU23
  90 0036 5200     		lsls	r2, r2, #1
  91 0038 8350     		str	r3, [r0, r2]
  92              		.loc 1 66 3 is_stmt 1 view .LVU24
  93              		.loc 1 67 1 is_stmt 0 view .LVU25
  94              		@ sp needed
  95              		.loc 1 66 23 view .LVU26
  96 003a 0360     		str	r3, [r0]
  97              		.loc 1 67 1 view .LVU27
  98 003c 70BD     		pop	{r4, r5, r6, pc}
  99              	.L4:
 100 003e C046     		.align	2
 101              	.L3:
 102 0040 00E100E0 		.word	-536813312
 103              		.cfi_endproc
 104              	.LFE151:
 105              		.size	nvicEnableVector, .-nvicEnableVector
 106              		.section	.text.nvicDisableVector,"ax",%progbits
 107              		.align	1
 108              		.p2align 4,,15
 109              		.global	nvicDisableVector
 110              		.syntax unified
 111              		.code	16
 112              		.thumb_func
 113              		.fpu softvfp
 114              		.type	nvicDisableVector, %function
ARM GAS  /tmp/ccwzNW6c.s 			page 3


 115              	nvicDisableVector:
 116              	.LVL3:
 117              	.LFB152:
 118              		.loc 1 74 36 is_stmt 1 view -0
 119              		.cfi_startproc
 120              		@ args = 0, pretend = 0, frame = 0
 121              		@ frame_needed = 0, uses_anonymous_args = 0
 122              		.loc 1 76 3 view .LVU29
 123              		.loc 1 76 34 is_stmt 0 view .LVU30
 124 0000 1F21     		movs	r1, #31
 125              		.loc 1 76 28 view .LVU31
 126 0002 0122     		movs	r2, #1
 127              		.loc 1 76 34 view .LVU32
 128 0004 0140     		ands	r1, r0
 129              		.loc 1 76 28 view .LVU33
 130 0006 8A40     		lsls	r2, r2, r1
 131              		.loc 1 76 16 view .LVU34
 132 0008 4309     		lsrs	r3, r0, #5
 133              		.loc 1 76 23 view .LVU35
 134 000a 0A49     		ldr	r1, .L6
 135 000c 2033     		adds	r3, r3, #32
 136 000e 9B00     		lsls	r3, r3, #2
 137              		.loc 1 74 36 view .LVU36
 138 0010 10B5     		push	{r4, lr}
 139              		.cfi_def_cfa_offset 8
 140              		.cfi_offset 4, -8
 141              		.cfi_offset 14, -4
 142              		.loc 1 76 23 view .LVU37
 143 0012 5A50     		str	r2, [r3, r1]
 144              		.loc 1 78 3 is_stmt 1 view .LVU38
 145              		.loc 1 78 60 is_stmt 0 view .LVU39
 146 0014 0322     		movs	r2, #3
 147              		.loc 1 78 35 view .LVU40
 148 0016 8308     		lsrs	r3, r0, #2
 149              		.loc 1 78 60 view .LVU41
 150 0018 0240     		ands	r2, r0
 151              		.loc 1 78 57 view .LVU42
 152 001a FF20     		movs	r0, #255
 153              	.LVL4:
 154              		.loc 1 78 57 view .LVU43
 155 001c 8C46     		mov	ip, r1
 156              		.loc 1 78 34 view .LVU44
 157 001e C024     		movs	r4, #192
 158              		.loc 1 78 60 view .LVU45
 159 0020 D200     		lsls	r2, r2, #3
 160              		.loc 1 78 57 view .LVU46
 161 0022 9040     		lsls	r0, r0, r2
 162 0024 9B00     		lsls	r3, r3, #2
 163 0026 6344     		add	r3, r3, ip
 164              		.loc 1 78 34 view .LVU47
 165 0028 A400     		lsls	r4, r4, #2
 166 002a 1959     		ldr	r1, [r3, r4]
 167              		.loc 1 82 1 view .LVU48
 168              		@ sp needed
 169              		.loc 1 78 47 view .LVU49
 170 002c 8143     		bics	r1, r0
 171              		.loc 1 78 24 view .LVU50
ARM GAS  /tmp/ccwzNW6c.s 			page 4


 172 002e 1951     		str	r1, [r3, r4]
 173              		.loc 1 82 1 view .LVU51
 174 0030 10BD     		pop	{r4, pc}
 175              	.L7:
 176 0032 C046     		.align	2
 177              	.L6:
 178 0034 00E100E0 		.word	-536813312
 179              		.cfi_endproc
 180              	.LFE152:
 181              		.size	nvicDisableVector, .-nvicDisableVector
 182              		.section	.text.nvicSetSystemHandlerPriority,"ax",%progbits
 183              		.align	1
 184              		.p2align 4,,15
 185              		.global	nvicSetSystemHandlerPriority
 186              		.syntax unified
 187              		.code	16
 188              		.thumb_func
 189              		.fpu softvfp
 190              		.type	nvicSetSystemHandlerPriority, %function
 191              	nvicSetSystemHandlerPriority:
 192              	.LVL5:
 193              	.LFB153:
 194              		.loc 1 90 68 is_stmt 1 view -0
 195              		.cfi_startproc
 196              		@ args = 0, pretend = 0, frame = 0
 197              		@ frame_needed = 0, uses_anonymous_args = 0
 198              		.loc 1 92 3 view .LVU53
 199              		.loc 1 92 3 view .LVU54
 200              		.loc 1 95 3 view .LVU55
 201 0000 0A4A     		ldr	r2, .L9
 202              		.loc 1 95 43 is_stmt 0 view .LVU56
 203 0002 0F23     		movs	r3, #15
 204 0004 9446     		mov	ip, r2
 205              		.loc 1 95 75 view .LVU57
 206 0006 0322     		movs	r2, #3
 207              		.loc 1 95 43 view .LVU58
 208 0008 0340     		ands	r3, r0
 209              		.loc 1 95 75 view .LVU59
 210 000a 1040     		ands	r0, r2
 211              	.LVL6:
 212              		.loc 1 95 75 view .LVU60
 213 000c C000     		lsls	r0, r0, #3
 214              		.loc 1 95 72 view .LVU61
 215 000e FC32     		adds	r2, r2, #252
 216 0010 8240     		lsls	r2, r2, r0
 217              		.loc 1 96 34 view .LVU62
 218 0012 8901     		lsls	r1, r1, #6
 219              	.LVL7:
 220              		.loc 1 96 59 view .LVU63
 221 0014 8140     		lsls	r1, r1, r0
 222              		.loc 1 95 43 view .LVU64
 223 0016 083B     		subs	r3, r3, #8
 224 0018 9B08     		lsrs	r3, r3, #2
 225 001a 9B00     		lsls	r3, r3, #2
 226              		.loc 1 90 68 view .LVU65
 227 001c 10B5     		push	{r4, lr}
 228              		.cfi_def_cfa_offset 8
ARM GAS  /tmp/ccwzNW6c.s 			page 5


 229              		.cfi_offset 4, -8
 230              		.cfi_offset 14, -4
 231 001e 6344     		add	r3, r3, ip
 232              		.loc 1 95 42 view .LVU66
 233 0020 DC69     		ldr	r4, [r3, #28]
 234              		.loc 1 102 1 view .LVU67
 235              		@ sp needed
 236              		.loc 1 95 62 view .LVU68
 237 0022 9443     		bics	r4, r2
 238              		.loc 1 95 97 view .LVU69
 239 0024 0C43     		orrs	r4, r1
 240              		.loc 1 95 31 view .LVU70
 241 0026 DC61     		str	r4, [r3, #28]
 242              		.loc 1 102 1 view .LVU71
 243 0028 10BD     		pop	{r4, pc}
 244              	.L10:
 245 002a C046     		.align	2
 246              	.L9:
 247 002c 00ED00E0 		.word	-536810240
 248              		.cfi_endproc
 249              	.LFE153:
 250              		.size	nvicSetSystemHandlerPriority, .-nvicSetSystemHandlerPriority
 251              		.section	.text.nvicClearPending,"ax",%progbits
 252              		.align	1
 253              		.p2align 4,,15
 254              		.global	nvicClearPending
 255              		.syntax unified
 256              		.code	16
 257              		.thumb_func
 258              		.fpu softvfp
 259              		.type	nvicClearPending, %function
 260              	nvicClearPending:
 261              	.LVL8:
 262              	.LFB154:
 263              		.loc 1 109 35 is_stmt 1 view -0
 264              		.cfi_startproc
 265              		@ args = 0, pretend = 0, frame = 0
 266              		@ frame_needed = 0, uses_anonymous_args = 0
 267              		@ link register save eliminated.
 268              		.loc 1 111 3 view .LVU73
 269              		.loc 1 111 32 is_stmt 0 view .LVU74
 270 0000 1F22     		movs	r2, #31
 271              		.loc 1 111 16 view .LVU75
 272 0002 4309     		lsrs	r3, r0, #5
 273              		.loc 1 111 32 view .LVU76
 274 0004 1040     		ands	r0, r2
 275              	.LVL9:
 276              		.loc 1 111 26 view .LVU77
 277 0006 1E3A     		subs	r2, r2, #30
 278 0008 8240     		lsls	r2, r2, r0
 279              		.loc 1 111 22 view .LVU78
 280 000a 0249     		ldr	r1, .L12
 281 000c 6033     		adds	r3, r3, #96
 282 000e 9B00     		lsls	r3, r3, #2
 283 0010 5A50     		str	r2, [r3, r1]
 284              		.loc 1 112 1 view .LVU79
 285              		@ sp needed
ARM GAS  /tmp/ccwzNW6c.s 			page 6


 286 0012 7047     		bx	lr
 287              	.L13:
 288              		.align	2
 289              	.L12:
 290 0014 00E100E0 		.word	-536813312
 291              		.cfi_endproc
 292              	.LFE154:
 293              		.size	nvicClearPending, .-nvicClearPending
 294              		.text
 295              	.Letext0:
 296              		.file 2 "/opt/nanovna/gcc-arm-none-eabi-8-2018-q4-major/lib/gcc/arm-none-eabi/8.2.1/include/stddef
 297              		.file 3 "/opt/nanovna/gcc-arm-none-eabi-8-2018-q4-major/arm-none-eabi/include/machine/_default_typ
 298              		.file 4 "/opt/nanovna/gcc-arm-none-eabi-8-2018-q4-major/arm-none-eabi/include/sys/_stdint.h"
 299              		.file 5 "ChibiOS/os/common/ports/ARMCMx/compilers/GCC/chtypes.h"
 300              		.file 6 "ChibiOS/os/rt/include/chsystypes.h"
 301              		.file 7 "ChibiOS/os/rt/include/chschd.h"
 302              		.file 8 "ChibiOS/os/common/ext/CMSIS/include/core_cm0.h"
 303              		.file 9 "ChibiOS/os/common/ext/CMSIS/ST/STM32F0xx/stm32f072xb.h"
 304              		.file 10 "ChibiOS/os/common/ports/ARMCMx/chcore.h"
 305              		.file 11 "ChibiOS/os/common/ports/ARMCMx/chcore_v6m.h"
 306              		.file 12 "ChibiOS/os/hal/ports/STM32/LLD/TIMv1/stm32_tim.h"
 307              		.file 13 "ChibiOS/os/rt/include/chmtx.h"
 308              		.file 14 "ChibiOS/os/common/ext/CMSIS/ST/STM32F0xx/system_stm32f0xx.h"
 309              		.file 15 "ChibiOS/os/rt/include/chsys.h"
 310              		.file 16 "ChibiOS/os/rt/include/chregistry.h"
 311              		.file 17 "ChibiOS/os/rt/include/chevents.h"
 312              		.file 18 "ChibiOS/os/hal/ports/STM32/LLD/DMAv1/stm32_dma.h"
 313              		.file 19 "ChibiOS/os/hal/include/hal_queues.h"
 314              		.file 20 "ChibiOS/os/hal/ports/STM32/LLD/GPIOv2/hal_pal_lld.h"
 315              		.file 21 "ChibiOS/os/hal/include/hal_ext.h"
 316              		.file 22 "ChibiOS/os/hal/ports/STM32/LLD/EXTIv1/hal_ext_lld.h"
 317              		.file 23 "ChibiOS/os/hal/include/hal_gpt.h"
 318              		.file 24 "ChibiOS/os/hal/ports/STM32/LLD/TIMv1/hal_gpt_lld.h"
 319              		.file 25 "ChibiOS/os/hal/include/hal_i2c.h"
 320              		.file 26 "ChibiOS/os/hal/ports/STM32/LLD/I2Cv2/hal_i2c_lld.h"
 321              		.file 27 "ChibiOS/os/hal/include/hal_i2s.h"
 322              		.file 28 "ChibiOS/os/hal/ports/STM32/LLD/SPIv2/hal_i2s_lld.h"
 323              		.file 29 "/opt/nanovna/gcc-arm-none-eabi-8-2018-q4-major/arm-none-eabi/include/sys/lock.h"
 324              		.file 30 "/opt/nanovna/gcc-arm-none-eabi-8-2018-q4-major/arm-none-eabi/include/sys/_types.h"
 325              		.file 31 "/opt/nanovna/gcc-arm-none-eabi-8-2018-q4-major/arm-none-eabi/include/sys/reent.h"
 326              		.file 32 "/opt/nanovna/gcc-arm-none-eabi-8-2018-q4-major/arm-none-eabi/include/time.h"
 327              		.file 33 "ChibiOS/os/hal/include/hal_rtc.h"
 328              		.file 34 "ChibiOS/os/hal/ports/STM32/LLD/RTCv2/hal_rtc_lld.h"
 329              		.file 35 "ChibiOS/os/hal/include/hal_serial.h"
 330              		.file 36 "ChibiOS/os/hal/ports/STM32/LLD/USARTv2/hal_serial_lld.h"
 331              		.file 37 "ChibiOS/os/hal/include/hal_spi.h"
 332              		.file 38 "ChibiOS/os/hal/ports/STM32/LLD/SPIv2/hal_spi_lld.h"
 333              		.file 39 "ChibiOS/os/hal/include/hal_usb.h"
 334              		.file 40 "ChibiOS/os/hal/ports/STM32/LLD/USBv1/hal_usb_lld.h"