ARM GAS  /tmp/ccLkBuQr.s 			page 1


   1              		.cpu cortex-m0
   2              		.eabi_attribute 20, 1
   3              		.eabi_attribute 21, 1
   4              		.eabi_attribute 23, 3
   5              		.eabi_attribute 24, 1
   6              		.eabi_attribute 25, 1
   7              		.eabi_attribute 26, 1
   8              		.eabi_attribute 30, 2
   9              		.eabi_attribute 34, 0
  10              		.eabi_attribute 18, 4
  11              		.file	"plot.c"
  12              		.text
  13              	.Ltext0:
  14              		.cfi_sections	.debug_frame
  15              		.global	__aeabi_fcmplt
  16              		.global	__aeabi_f2d
  17              		.global	__aeabi_dcmplt
  18              		.global	__aeabi_dmul
  19              		.global	__aeabi_d2f
  20              		.global	__aeabi_fmul
  21              		.global	__aeabi_fdiv
  22              		.global	__aeabi_f2iz
  23              		.section	.text.string_value_with_prefix,"ax",%progbits
  24              		.align	1
  25              		.p2align 4,,15
  26              		.arch armv6s-m
  27              		.syntax unified
  28              		.code	16
  29              		.thumb_func
  30              		.fpu softvfp
  31              		.type	string_value_with_prefix, %function
  32              	string_value_with_prefix:
  33              	.LVL0:
  34              	.LFB168:
  35              		.file 1 "plot.c"
  36              		.loc 1 563 1 view -0
  37              		.cfi_startproc
  38              		@ args = 0, pretend = 0, frame = 0
  39              		@ frame_needed = 0, uses_anonymous_args = 0
  40              		.loc 1 564 3 view .LVU1
  41              		.loc 1 565 3 view .LVU2
  42              		.loc 1 566 3 view .LVU3
  43              		.loc 1 563 1 is_stmt 0 view .LVU4
  44 0000 F0B5     		push	{r4, r5, r6, r7, lr}
  45              		.cfi_def_cfa_offset 20
  46              		.cfi_offset 4, -20
  47              		.cfi_offset 5, -16
  48              		.cfi_offset 6, -12
  49              		.cfi_offset 7, -8
  50              		.cfi_offset 14, -4
  51 0002 CE46     		mov	lr, r9
  52 0004 4746     		mov	r7, r8
  53 0006 80B5     		push	{r7, lr}
  54              		.cfi_def_cfa_offset 28
  55              		.cfi_offset 8, -28
  56              		.cfi_offset 9, -24
  57 0008 0500     		movs	r5, r0
ARM GAS  /tmp/ccLkBuQr.s 			page 2


  58 000a 83B0     		sub	sp, sp, #12
  59              		.cfi_def_cfa_offset 40
  60              		.loc 1 563 1 view .LVU5
  61 000c 8946     		mov	r9, r1
  62              		.loc 1 566 6 view .LVU6
  63 000e 101C     		adds	r0, r2, #0
  64              	.LVL1:
  65              		.loc 1 566 6 view .LVU7
  66 0010 0021     		movs	r1, #0
  67              	.LVL2:
  68              		.loc 1 563 1 view .LVU8
  69 0012 141C     		adds	r4, r2, #0
  70 0014 9846     		mov	r8, r3
  71              		.loc 1 566 6 view .LVU9
  72 0016 FFF7FEFF 		bl	__aeabi_fcmplt
  73              	.LVL3:
  74              		.loc 1 566 6 view .LVU10
  75 001a 0028     		cmp	r0, #0
  76 001c 09D0     		beq	.L2
  77              		.loc 1 567 5 is_stmt 1 view .LVU11
  78              		.loc 1 567 9 is_stmt 0 view .LVU12
  79 001e 8023     		movs	r3, #128
  80 0020 1B06     		lsls	r3, r3, #24
  81 0022 9C46     		mov	ip, r3
  82              		.loc 1 568 12 view .LVU13
  83 0024 2D23     		movs	r3, #45
  84 0026 2B70     		strb	r3, [r5]
  85              		.loc 1 569 8 view .LVU14
  86 0028 2E3B     		subs	r3, r3, #46
  87              		.loc 1 567 9 view .LVU15
  88 002a 6444     		add	r4, r4, ip
  89              	.LVL4:
  90              		.loc 1 568 5 is_stmt 1 view .LVU16
  91              		.loc 1 569 5 view .LVU17
  92              		.loc 1 569 8 is_stmt 0 view .LVU18
  93 002c 9C46     		mov	ip, r3
  94              		.loc 1 568 9 view .LVU19
  95 002e 0135     		adds	r5, r5, #1
  96              	.LVL5:
  97              		.loc 1 569 8 view .LVU20
  98 0030 E144     		add	r9, r9, ip
  99              	.LVL6:
 100              	.L2:
 101              		.loc 1 571 3 is_stmt 1 view .LVU21
 102              		.loc 1 571 11 is_stmt 0 view .LVU22
 103 0032 201C     		adds	r0, r4, #0
 104 0034 FFF7FEFF 		bl	__aeabi_f2d
 105              	.LVL7:
 106              		.loc 1 571 6 view .LVU23
 107 0038 5E4A     		ldr	r2, .L53
 108 003a 5F4B     		ldr	r3, .L53+4
 109              		.loc 1 571 11 view .LVU24
 110 003c 0600     		movs	r6, r0
 111 003e 0F00     		movs	r7, r1
 112              		.loc 1 571 6 view .LVU25
 113 0040 FFF7FEFF 		bl	__aeabi_dcmplt
 114              	.LVL8:
ARM GAS  /tmp/ccLkBuQr.s 			page 3


 115 0044 0028     		cmp	r0, #0
 116 0046 3CD0     		beq	.L39
 117              		.loc 1 572 5 is_stmt 1 view .LVU26
 118              	.LVL9:
 119              		.loc 1 573 5 view .LVU27
 120              		.loc 1 573 9 is_stmt 0 view .LVU28
 121 0048 5C4A     		ldr	r2, .L53+8
 122 004a 5D4B     		ldr	r3, .L53+12
 123 004c 3000     		movs	r0, r6
 124 004e 3900     		movs	r1, r7
 125 0050 FFF7FEFF 		bl	__aeabi_dmul
 126              	.LVL10:
 127 0054 FFF7FEFF 		bl	__aeabi_d2f
 128              	.LVL11:
 129              		.loc 1 572 12 view .LVU29
 130 0058 6626     		movs	r6, #102
 131              		.loc 1 573 9 view .LVU30
 132 005a 041C     		adds	r4, r0, #0
 133              	.LVL12:
 134              	.L6:
 135              		.loc 1 599 3 is_stmt 1 view .LVU31
 136              		.loc 1 599 6 is_stmt 0 view .LVU32
 137 005c 5949     		ldr	r1, .L53+16
 138 005e 201C     		adds	r0, r4, #0
 139 0060 FFF7FEFF 		bl	__aeabi_fcmplt
 140              	.LVL13:
 141 0064 0028     		cmp	r0, #0
 142 0066 45D1     		bne	.L49
 143              	.L46:
 144              		.loc 1 601 10 is_stmt 1 view .LVU33
 145              		.loc 1 601 13 is_stmt 0 view .LVU34
 146 0068 5749     		ldr	r1, .L53+20
 147 006a 201C     		adds	r0, r4, #0
 148 006c FFF7FEFF 		bl	__aeabi_fcmplt
 149              	.LVL14:
 150 0070 0028     		cmp	r0, #0
 151 0072 1BD1     		bne	.L50
 152              		.loc 1 604 5 is_stmt 1 view .LVU35
 153              		.loc 1 604 9 is_stmt 0 view .LVU36
 154 0074 201C     		adds	r0, r4, #0
 155 0076 FFF7FEFF 		bl	__aeabi_f2iz
 156              	.LVL15:
 157 007a 544A     		ldr	r2, .L53+24
 158 007c 0300     		movs	r3, r0
 159 007e 4946     		mov	r1, r9
 160 0080 2800     		movs	r0, r5
 161 0082 FFF7FEFF 		bl	chsnprintf
 162              	.LVL16:
 163              	.L21:
 164              		.loc 1 607 3 is_stmt 1 view .LVU37
 165 0086 431C     		adds	r3, r0, #1
 166 0088 2918     		adds	r1, r5, r0
 167 008a EA18     		adds	r2, r5, r3
 168              		.loc 1 607 6 is_stmt 0 view .LVU38
 169 008c 002E     		cmp	r6, #0
 170 008e 03D0     		beq	.L24
 171              		.loc 1 608 5 is_stmt 1 view .LVU39
ARM GAS  /tmp/ccLkBuQr.s 			page 4


 172              	.LVL17:
 173              		.loc 1 608 5 is_stmt 0 view .LVU40
 174 0090 831C     		adds	r3, r0, #2
 175              	.LVL18:
 176              		.loc 1 608 14 view .LVU41
 177 0092 0E70     		strb	r6, [r1]
 178 0094 1100     		movs	r1, r2
 179 0096 EA18     		adds	r2, r5, r3
 180              	.LVL19:
 181              	.L24:
 182              		.loc 1 609 3 is_stmt 1 view .LVU42
 183              		.loc 1 610 5 view .LVU43
 184              		.loc 1 610 14 is_stmt 0 view .LVU44
 185 0098 4046     		mov	r0, r8
 186 009a 0870     		strb	r0, [r1]
 187              		.loc 1 611 3 is_stmt 1 view .LVU45
 188              		.loc 1 611 10 is_stmt 0 view .LVU46
 189 009c 0021     		movs	r1, #0
 190              		.loc 1 613 1 view .LVU47
 191 009e 1800     		movs	r0, r3
 192              		.loc 1 611 10 view .LVU48
 193 00a0 1170     		strb	r1, [r2]
 194              		.loc 1 612 3 is_stmt 1 view .LVU49
 195              		.loc 1 613 1 is_stmt 0 view .LVU50
 196 00a2 03B0     		add	sp, sp, #12
 197              		@ sp needed
 198              	.LVL20:
 199              	.LVL21:
 200              	.LVL22:
 201              	.LVL23:
 202              		.loc 1 613 1 view .LVU51
 203 00a4 0CBC     		pop	{r2, r3}
 204 00a6 9046     		mov	r8, r2
 205 00a8 9946     		mov	r9, r3
 206 00aa F0BD     		pop	{r4, r5, r6, r7, pc}
 207              	.LVL24:
 208              	.L50:
 209              		.loc 1 602 5 is_stmt 1 view .LVU52
 210              		.loc 1 602 9 is_stmt 0 view .LVU53
 211 00ac 201C     		adds	r0, r4, #0
 212 00ae FFF7FEFF 		bl	__aeabi_f2d
 213              	.LVL25:
 214 00b2 474A     		ldr	r2, .L53+28
 215 00b4 0090     		str	r0, [sp]
 216 00b6 0191     		str	r1, [sp, #4]
 217 00b8 4946     		mov	r1, r9
 218 00ba 2800     		movs	r0, r5
 219 00bc FFF7FEFF 		bl	chsnprintf
 220              	.LVL26:
 221              		.loc 1 602 9 view .LVU54
 222 00c0 E1E7     		b	.L21
 223              	.LVL27:
 224              	.L39:
 225              		.loc 1 574 10 is_stmt 1 view .LVU55
 226              		.loc 1 574 13 is_stmt 0 view .LVU56
 227 00c2 444A     		ldr	r2, .L53+32
 228 00c4 444B     		ldr	r3, .L53+36
ARM GAS  /tmp/ccLkBuQr.s 			page 5


 229 00c6 3000     		movs	r0, r6
 230 00c8 3900     		movs	r1, r7
 231 00ca FFF7FEFF 		bl	__aeabi_dcmplt
 232              	.LVL28:
 233 00ce 0028     		cmp	r0, #0
 234 00d0 1BD0     		beq	.L40
 235              		.loc 1 575 5 is_stmt 1 view .LVU57
 236              	.LVL29:
 237              		.loc 1 576 5 view .LVU58
 238              		.loc 1 576 9 is_stmt 0 view .LVU59
 239 00d2 A222     		movs	r2, #162
 240 00d4 414B     		ldr	r3, .L53+40
 241 00d6 1206     		lsls	r2, r2, #24
 242 00d8 3000     		movs	r0, r6
 243 00da 3900     		movs	r1, r7
 244 00dc FFF7FEFF 		bl	__aeabi_dmul
 245              	.LVL30:
 246 00e0 FFF7FEFF 		bl	__aeabi_d2f
 247              	.LVL31:
 248 00e4 041C     		adds	r4, r0, #0
 249              	.LVL32:
 250              		.loc 1 599 6 view .LVU60
 251 00e6 3749     		ldr	r1, .L53+16
 252 00e8 201C     		adds	r0, r4, #0
 253              		.loc 1 575 12 view .LVU61
 254 00ea 7026     		movs	r6, #112
 255              	.LVL33:
 256              		.loc 1 599 3 is_stmt 1 view .LVU62
 257              		.loc 1 599 6 is_stmt 0 view .LVU63
 258 00ec FFF7FEFF 		bl	__aeabi_fcmplt
 259              	.LVL34:
 260              		.loc 1 599 6 view .LVU64
 261 00f0 0028     		cmp	r0, #0
 262 00f2 B9D0     		beq	.L46
 263              	.L49:
 264              		.loc 1 600 5 is_stmt 1 view .LVU65
 265              		.loc 1 600 9 is_stmt 0 view .LVU66
 266 00f4 201C     		adds	r0, r4, #0
 267 00f6 FFF7FEFF 		bl	__aeabi_f2d
 268              	.LVL35:
 269 00fa 394A     		ldr	r2, .L53+44
 270 00fc 0090     		str	r0, [sp]
 271 00fe 0191     		str	r1, [sp, #4]
 272 0100 4946     		mov	r1, r9
 273 0102 2800     		movs	r0, r5
 274 0104 FFF7FEFF 		bl	chsnprintf
 275              	.LVL36:
 276              		.loc 1 600 9 view .LVU67
 277 0108 BDE7     		b	.L21
 278              	.LVL37:
 279              	.L40:
 280              		.loc 1 577 10 is_stmt 1 view .LVU68
 281              		.loc 1 577 13 is_stmt 0 view .LVU69
 282 010a 364A     		ldr	r2, .L53+48
 283 010c 364B     		ldr	r3, .L53+52
 284 010e 3000     		movs	r0, r6
 285 0110 3900     		movs	r1, r7
ARM GAS  /tmp/ccLkBuQr.s 			page 6


 286 0112 FFF7FEFF 		bl	__aeabi_dcmplt
 287              	.LVL38:
 288 0116 0028     		cmp	r0, #0
 289 0118 0ED1     		bne	.L51
 290              		.loc 1 580 10 is_stmt 1 view .LVU70
 291              		.loc 1 580 13 is_stmt 0 view .LVU71
 292 011a 344A     		ldr	r2, .L53+56
 293 011c 344B     		ldr	r3, .L53+60
 294 011e 3000     		movs	r0, r6
 295 0120 3900     		movs	r1, r7
 296 0122 FFF7FEFF 		bl	__aeabi_dcmplt
 297              	.LVL39:
 298 0126 0028     		cmp	r0, #0
 299 0128 0DD0     		beq	.L42
 300              		.loc 1 581 5 is_stmt 1 view .LVU72
 301              	.LVL40:
 302              		.loc 1 582 5 view .LVU73
 303              		.loc 1 582 9 is_stmt 0 view .LVU74
 304 012a 201C     		adds	r0, r4, #0
 305 012c 3149     		ldr	r1, .L53+64
 306 012e FFF7FEFF 		bl	__aeabi_fmul
 307              	.LVL41:
 308              		.loc 1 581 12 view .LVU75
 309 0132 1D26     		movs	r6, #29
 310              		.loc 1 582 9 view .LVU76
 311 0134 041C     		adds	r4, r0, #0
 312              	.LVL42:
 313              		.loc 1 582 9 view .LVU77
 314 0136 91E7     		b	.L6
 315              	.LVL43:
 316              	.L51:
 317              		.loc 1 578 5 is_stmt 1 view .LVU78
 318              		.loc 1 579 5 view .LVU79
 319              		.loc 1 579 9 is_stmt 0 view .LVU80
 320 0138 201C     		adds	r0, r4, #0
 321 013a 2F49     		ldr	r1, .L53+68
 322 013c FFF7FEFF 		bl	__aeabi_fmul
 323              	.LVL44:
 324              		.loc 1 578 12 view .LVU81
 325 0140 6E26     		movs	r6, #110
 326              		.loc 1 579 9 view .LVU82
 327 0142 041C     		adds	r4, r0, #0
 328              	.LVL45:
 329              		.loc 1 579 9 view .LVU83
 330 0144 8AE7     		b	.L6
 331              	.LVL46:
 332              	.L42:
 333              		.loc 1 583 10 is_stmt 1 view .LVU84
 334              		.loc 1 583 13 is_stmt 0 view .LVU85
 335 0146 FE21     		movs	r1, #254
 336 0148 201C     		adds	r0, r4, #0
 337 014a 8905     		lsls	r1, r1, #22
 338 014c FFF7FEFF 		bl	__aeabi_fcmplt
 339              	.LVL47:
 340              		.loc 1 585 9 view .LVU86
 341 0150 2A49     		ldr	r1, .L53+72
 342              		.loc 1 583 13 view .LVU87
ARM GAS  /tmp/ccLkBuQr.s 			page 7


 343 0152 0028     		cmp	r0, #0
 344 0154 13D1     		bne	.L52
 345              		.loc 1 586 10 is_stmt 1 view .LVU88
 346              		.loc 1 586 13 is_stmt 0 view .LVU89
 347 0156 201C     		adds	r0, r4, #0
 348 0158 FFF7FEFF 		bl	__aeabi_fcmplt
 349              	.LVL48:
 350              		.loc 1 587 12 view .LVU90
 351 015c 0026     		movs	r6, #0
 352              		.loc 1 586 13 view .LVU91
 353 015e 0028     		cmp	r0, #0
 354 0160 00D0     		beq	.LCB317
 355 0162 7BE7     		b	.L6	@long jump
 356              	.LCB317:
 357              		.loc 1 588 10 is_stmt 1 view .LVU92
 358              		.loc 1 588 13 is_stmt 0 view .LVU93
 359 0164 2349     		ldr	r1, .L53+64
 360 0166 201C     		adds	r0, r4, #0
 361 0168 FFF7FEFF 		bl	__aeabi_fcmplt
 362              	.LVL49:
 363 016c 0028     		cmp	r0, #0
 364 016e 0CD0     		beq	.L44
 365              		.loc 1 589 5 is_stmt 1 view .LVU94
 366              	.LVL50:
 367              		.loc 1 590 5 view .LVU95
 368              		.loc 1 590 9 is_stmt 0 view .LVU96
 369 0170 201C     		adds	r0, r4, #0
 370 0172 2249     		ldr	r1, .L53+72
 371 0174 FFF7FEFF 		bl	__aeabi_fdiv
 372              	.LVL51:
 373              		.loc 1 589 12 view .LVU97
 374 0178 6B36     		adds	r6, r6, #107
 375              		.loc 1 590 9 view .LVU98
 376 017a 041C     		adds	r4, r0, #0
 377              	.LVL52:
 378              		.loc 1 590 9 view .LVU99
 379 017c 6EE7     		b	.L6
 380              	.LVL53:
 381              	.L52:
 382              		.loc 1 584 5 is_stmt 1 view .LVU100
 383              		.loc 1 585 5 view .LVU101
 384              		.loc 1 585 9 is_stmt 0 view .LVU102
 385 017e 201C     		adds	r0, r4, #0
 386 0180 FFF7FEFF 		bl	__aeabi_fmul
 387              	.LVL54:
 388              		.loc 1 584 12 view .LVU103
 389 0184 6D26     		movs	r6, #109
 390              		.loc 1 585 9 view .LVU104
 391 0186 041C     		adds	r4, r0, #0
 392              	.LVL55:
 393              		.loc 1 585 9 view .LVU105
 394 0188 68E7     		b	.L6
 395              	.LVL56:
 396              	.L44:
 397              		.loc 1 591 10 is_stmt 1 view .LVU106
 398              		.loc 1 591 13 is_stmt 0 view .LVU107
 399 018a 1B49     		ldr	r1, .L53+68
ARM GAS  /tmp/ccLkBuQr.s 			page 8


 400 018c 201C     		adds	r0, r4, #0
 401 018e FFF7FEFF 		bl	__aeabi_fcmplt
 402              	.LVL57:
 403 0192 0028     		cmp	r0, #0
 404 0194 06D0     		beq	.L45
 405              		.loc 1 592 5 is_stmt 1 view .LVU108
 406              	.LVL58:
 407              		.loc 1 593 5 view .LVU109
 408              		.loc 1 593 9 is_stmt 0 view .LVU110
 409 0196 201C     		adds	r0, r4, #0
 410 0198 1649     		ldr	r1, .L53+64
 411 019a FFF7FEFF 		bl	__aeabi_fdiv
 412              	.LVL59:
 413              		.loc 1 592 12 view .LVU111
 414 019e 4D26     		movs	r6, #77
 415              		.loc 1 593 9 view .LVU112
 416 01a0 041C     		adds	r4, r0, #0
 417              	.LVL60:
 418              		.loc 1 593 9 view .LVU113
 419 01a2 5BE7     		b	.L6
 420              	.LVL61:
 421              	.L45:
 422              		.loc 1 595 5 is_stmt 1 view .LVU114
 423              		.loc 1 596 5 view .LVU115
 424              		.loc 1 596 9 is_stmt 0 view .LVU116
 425 01a4 201C     		adds	r0, r4, #0
 426 01a6 1449     		ldr	r1, .L53+68
 427 01a8 FFF7FEFF 		bl	__aeabi_fdiv
 428              	.LVL62:
 429              		.loc 1 595 12 view .LVU117
 430 01ac 4726     		movs	r6, #71
 431              		.loc 1 596 9 view .LVU118
 432 01ae 041C     		adds	r4, r0, #0
 433              	.LVL63:
 434              		.loc 1 596 9 view .LVU119
 435 01b0 54E7     		b	.L6
 436              	.L54:
 437 01b2 C046     		.align	2
 438              	.L53:
 439 01b4 11EA2D81 		.word	-2127697391
 440 01b8 9997713D 		.word	1030854553
 441 01bc 00003426 		.word	640942080
 442 01c0 F56B0C43 		.word	1124887541
 443 01c4 00002041 		.word	1092616192
 444 01c8 0000C842 		.word	1120403456
 445 01cc 10000000 		.word	.LC4
 446 01d0 08000000 		.word	.LC2
 447 01d4 95D626E8 		.word	-400107883
 448 01d8 0B2E113E 		.word	1041313291
 449 01dc 941A6D42 		.word	1114446484
 450 01e0 00000000 		.word	.LC0
 451 01e4 8DEDB5A0 		.word	-1598689907
 452 01e8 F7C6B03E 		.word	1051772663
 453 01ec FCA9F1D2 		.word	-755914244
 454 01f0 4D62503F 		.word	1062232653
 455 01f4 00247449 		.word	1232348160
 456 01f8 286B6E4E 		.word	1315859240
ARM GAS  /tmp/ccLkBuQr.s 			page 9


 457 01fc 00007A44 		.word	1148846080
 458              		.cfi_endproc
 459              	.LFE168:
 460              		.size	string_value_with_prefix, .-string_value_with_prefix
 461              		.global	__aeabi_uidiv
 462              		.global	__aeabi_idiv
 463              		.global	__aeabi_uidivmod
 464              		.global	__aeabi_idivmod
 465              		.section	.text.frequency_string,"ax",%progbits
 466              		.align	1
 467              		.p2align 4,,15
 468              		.syntax unified
 469              		.code	16
 470              		.thumb_func
 471              		.fpu softvfp
 472              		.type	frequency_string, %function
 473              	frequency_string:
 474              	.LVL64:
 475              	.LFB205:
 476              		.loc 1 1744 1 is_stmt 1 view -0
 477              		.cfi_startproc
 478              		@ args = 0, pretend = 0, frame = 0
 479              		@ frame_needed = 0, uses_anonymous_args = 0
 480              		.loc 1 1745 3 view .LVU121
 481              		.loc 1 1744 1 is_stmt 0 view .LVU122
 482 0000 F0B5     		push	{r4, r5, r6, r7, lr}
 483              		.cfi_def_cfa_offset 20
 484              		.cfi_offset 4, -20
 485              		.cfi_offset 5, -16
 486              		.cfi_offset 6, -12
 487              		.cfi_offset 7, -8
 488              		.cfi_offset 14, -4
 489 0002 0500     		movs	r5, r0
 490 0004 83B0     		sub	sp, sp, #12
 491              		.cfi_def_cfa_offset 32
 492              		.loc 1 1744 1 view .LVU123
 493 0006 0E00     		movs	r6, r1
 494 0008 141E     		subs	r4, r2, #0
 495              		.loc 1 1745 6 view .LVU124
 496 000a 04DA     		bge	.L56
 497              		.loc 1 1746 5 is_stmt 1 view .LVU125
 498              		.loc 1 1747 12 is_stmt 0 view .LVU126
 499 000c 2D23     		movs	r3, #45
 500              		.loc 1 1746 10 view .LVU127
 501 000e 5442     		rsbs	r4, r2, #0
 502              	.LVL65:
 503              		.loc 1 1747 5 is_stmt 1 view .LVU128
 504              		.loc 1 1747 12 is_stmt 0 view .LVU129
 505 0010 0370     		strb	r3, [r0]
 506              		.loc 1 1748 5 is_stmt 1 view .LVU130
 507              		.loc 1 1748 9 is_stmt 0 view .LVU131
 508 0012 013E     		subs	r6, r6, #1
 509              	.LVL66:
 510              		.loc 1 1747 9 view .LVU132
 511 0014 0135     		adds	r5, r5, #1
 512              	.LVL67:
 513              	.L56:
ARM GAS  /tmp/ccLkBuQr.s 			page 10


 514              		.loc 1 1750 3 is_stmt 1 view .LVU133
 515              		.loc 1 1750 6 is_stmt 0 view .LVU134
 516 0016 194B     		ldr	r3, .L62
 517 0018 9C42     		cmp	r4, r3
 518 001a 28DD     		ble	.L60
 519              		.loc 1 1752 10 is_stmt 1 view .LVU135
 520 001c FA21     		movs	r1, #250
 521 001e 2000     		movs	r0, r4
 522 0020 8900     		lsls	r1, r1, #2
 523 0022 FFF7FEFF 		bl	__aeabi_idiv
 524              	.LVL68:
 525              		.loc 1 1752 13 is_stmt 0 view .LVU136
 526 0026 164B     		ldr	r3, .L62+4
 527 0028 0700     		movs	r7, r0
 528 002a 9C42     		cmp	r4, r3
 529 002c 12DD     		ble	.L61
 530              		.loc 1 1761 5 is_stmt 1 view .LVU137
 531              		.loc 1 1762 26 is_stmt 0 view .LVU138
 532 002e 1549     		ldr	r1, .L62+8
 533 0030 2000     		movs	r0, r4
 534 0032 FFF7FEFF 		bl	__aeabi_idiv
 535              	.LVL69:
 536              		.loc 1 1763 35 view .LVU139
 537 0036 FA21     		movs	r1, #250
 538              		.loc 1 1762 26 view .LVU140
 539 0038 0400     		movs	r4, r0
 540              	.LVL70:
 541              		.loc 1 1763 35 view .LVU141
 542 003a 8900     		lsls	r1, r1, #2
 543 003c 3800     		movs	r0, r7
 544 003e FFF7FEFF 		bl	__aeabi_idivmod
 545              	.LVL71:
 546              		.loc 1 1761 5 view .LVU142
 547 0042 2300     		movs	r3, r4
 548 0044 0091     		str	r1, [sp]
 549 0046 104A     		ldr	r2, .L62+12
 550 0048 3100     		movs	r1, r6
 551 004a 2800     		movs	r0, r5
 552 004c FFF7FEFF 		bl	chsnprintf
 553              	.LVL72:
 554              	.L55:
 555              		.loc 1 1765 1 view .LVU143
 556 0050 03B0     		add	sp, sp, #12
 557              		@ sp needed
 558              	.LVL73:
 559              	.LVL74:
 560              		.loc 1 1765 1 view .LVU144
 561 0052 F0BD     		pop	{r4, r5, r6, r7, pc}
 562              	.LVL75:
 563              	.L61:
 564              		.loc 1 1753 5 is_stmt 1 view .LVU145
 565              		.loc 1 1755 25 is_stmt 0 view .LVU146
 566 0054 FA21     		movs	r1, #250
 567 0056 2000     		movs	r0, r4
 568 0058 8900     		lsls	r1, r1, #2
 569 005a FFF7FEFF 		bl	__aeabi_idivmod
 570              	.LVL76:
ARM GAS  /tmp/ccLkBuQr.s 			page 11


 571              		.loc 1 1753 5 view .LVU147
 572 005e 3B00     		movs	r3, r7
 573 0060 0091     		str	r1, [sp]
 574 0062 0A4A     		ldr	r2, .L62+16
 575 0064 3100     		movs	r1, r6
 576 0066 2800     		movs	r0, r5
 577 0068 FFF7FEFF 		bl	chsnprintf
 578              	.LVL77:
 579 006c F0E7     		b	.L55
 580              	.L60:
 581              		.loc 1 1751 5 is_stmt 1 view .LVU148
 582 006e 2300     		movs	r3, r4
 583 0070 074A     		ldr	r2, .L62+20
 584 0072 3100     		movs	r1, r6
 585 0074 2800     		movs	r0, r5
 586 0076 FFF7FEFF 		bl	chsnprintf
 587              	.LVL78:
 588 007a E9E7     		b	.L55
 589              	.L63:
 590              		.align	2
 591              	.L62:
 592 007c E7030000 		.word	999
 593 0080 3F420F00 		.word	999999
 594 0084 40420F00 		.word	1000000
 595 0088 14000000 		.word	.LC10
 596 008c 08000000 		.word	.LC8
 597 0090 00000000 		.word	.LC6
 598              		.cfi_endproc
 599              	.LFE205:
 600              		.size	frequency_string, .-frequency_string
 601              		.global	__aeabi_fadd
 602              		.global	__aeabi_fcmpgt
 603              		.global	__aeabi_fsub
 604              		.section	.text.swr,"ax",%progbits
 605              		.align	1
 606              		.p2align 4,,15
 607              		.syntax unified
 608              		.code	16
 609              		.thumb_func
 610              		.fpu softvfp
 611              		.type	swr, %function
 612              	swr:
 613              	.LVL79:
 614              	.LFB163:
 615              		.loc 1 475 1 view -0
 616              		.cfi_startproc
 617              		@ args = 0, pretend = 0, frame = 0
 618              		@ frame_needed = 0, uses_anonymous_args = 0
 619              		.loc 1 476 3 view .LVU150
 620              		.loc 1 476 20 is_stmt 0 view .LVU151
 621 0000 0368     		ldr	r3, [r0]
 622              		.loc 1 475 1 view .LVU152
 623 0002 70B5     		push	{r4, r5, r6, lr}
 624              		.cfi_def_cfa_offset 16
 625              		.cfi_offset 4, -16
 626              		.cfi_offset 5, -12
 627              		.cfi_offset 6, -8
ARM GAS  /tmp/ccLkBuQr.s 			page 12


 628              		.cfi_offset 14, -4
 629              		.loc 1 476 23 view .LVU153
 630 0004 191C     		adds	r1, r3, #0
 631              		.loc 1 476 32 view .LVU154
 632 0006 4468     		ldr	r4, [r0, #4]
 633              		.loc 1 476 23 view .LVU155
 634 0008 181C     		adds	r0, r3, #0
 635              	.LVL80:
 636              		.loc 1 476 23 view .LVU156
 637 000a FFF7FEFF 		bl	__aeabi_fmul
 638              	.LVL81:
 639              		.loc 1 476 35 view .LVU157
 640 000e 211C     		adds	r1, r4, #0
 641              		.loc 1 476 23 view .LVU158
 642 0010 051C     		adds	r5, r0, #0
 643              		.loc 1 476 35 view .LVU159
 644 0012 201C     		adds	r0, r4, #0
 645 0014 FFF7FEFF 		bl	__aeabi_fmul
 646              	.LVL82:
 647 0018 011C     		adds	r1, r0, #0
 648              		.loc 1 476 13 view .LVU160
 649 001a 281C     		adds	r0, r5, #0
 650 001c FFF7FEFF 		bl	__aeabi_fadd
 651              	.LVL83:
 652 0020 FFF7FEFF 		bl	sqrtf
 653              	.LVL84:
 654              		.loc 1 477 6 view .LVU161
 655 0024 FE21     		movs	r1, #254
 656 0026 8905     		lsls	r1, r1, #22
 657              		.loc 1 476 13 view .LVU162
 658 0028 041C     		adds	r4, r0, #0
 659              	.LVL85:
 660              		.loc 1 477 3 is_stmt 1 view .LVU163
 661              		.loc 1 477 6 is_stmt 0 view .LVU164
 662 002a FFF7FEFF 		bl	__aeabi_fcmpgt
 663              	.LVL86:
 664              		.loc 1 477 6 view .LVU165
 665 002e 0028     		cmp	r0, #0
 666 0030 0FD1     		bne	.L66
 667              		.loc 1 479 3 is_stmt 1 view .LVU166
 668              		.loc 1 479 13 is_stmt 0 view .LVU167
 669 0032 FE21     		movs	r1, #254
 670 0034 201C     		adds	r0, r4, #0
 671 0036 8905     		lsls	r1, r1, #22
 672 0038 FFF7FEFF 		bl	__aeabi_fadd
 673              	.LVL87:
 674 003c 051C     		adds	r5, r0, #0
 675              		.loc 1 479 21 view .LVU168
 676 003e FE20     		movs	r0, #254
 677 0040 211C     		adds	r1, r4, #0
 678 0042 8005     		lsls	r0, r0, #22
 679 0044 FFF7FEFF 		bl	__aeabi_fsub
 680              	.LVL88:
 681 0048 011C     		adds	r1, r0, #0
 682              		.loc 1 479 17 view .LVU169
 683 004a 281C     		adds	r0, r5, #0
 684 004c FFF7FEFF 		bl	__aeabi_fdiv
ARM GAS  /tmp/ccLkBuQr.s 			page 13


 685              	.LVL89:
 686              	.L64:
 687              		.loc 1 480 1 view .LVU170
 688              		@ sp needed
 689              	.LVL90:
 690              		.loc 1 480 1 view .LVU171
 691 0050 70BD     		pop	{r4, r5, r6, pc}
 692              	.LVL91:
 693              	.L66:
 694              		.loc 1 478 12 view .LVU172
 695 0052 FF20     		movs	r0, #255
 696 0054 C005     		lsls	r0, r0, #23
 697 0056 FBE7     		b	.L64
 698              		.cfi_endproc
 699              	.LFE163:
 700              		.size	swr, .-swr
 701              		.section	.text.cell_drawline,"ax",%progbits
 702              		.align	1
 703              		.p2align 4,,15
 704              		.syntax unified
 705              		.code	16
 706              		.thumb_func
 707              		.fpu softvfp
 708              		.type	cell_drawline, %function
 709              	cell_drawline:
 710              	.LVL92:
 711              	.LFB185:
 712              		.loc 1 868 1 is_stmt 1 view -0
 713              		.cfi_startproc
 714              		@ args = 12, pretend = 0, frame = 8
 715              		@ frame_needed = 0, uses_anonymous_args = 0
 716              		.loc 1 869 5 view .LVU174
 717              		.loc 1 868 1 is_stmt 0 view .LVU175
 718 0000 F0B5     		push	{r4, r5, r6, r7, lr}
 719              		.cfi_def_cfa_offset 20
 720              		.cfi_offset 4, -20
 721              		.cfi_offset 5, -16
 722              		.cfi_offset 6, -12
 723              		.cfi_offset 7, -8
 724              		.cfi_offset 14, -4
 725 0002 4546     		mov	r5, r8
 726 0004 5746     		mov	r7, r10
 727 0006 DE46     		mov	lr, fp
 728 0008 4E46     		mov	r6, r9
 729 000a E0B5     		push	{r5, r6, r7, lr}
 730              		.cfi_def_cfa_offset 36
 731              		.cfi_offset 8, -36
 732              		.cfi_offset 9, -32
 733              		.cfi_offset 10, -28
 734              		.cfi_offset 11, -24
 735 000c 83B0     		sub	sp, sp, #12
 736              		.cfi_def_cfa_offset 48
 737              		.loc 1 868 1 view .LVU176
 738 000e 8046     		mov	r8, r0
 739              	.LVL93:
 740              		.loc 1 868 1 view .LVU177
 741 0010 0C9C     		ldr	r4, [sp, #48]
ARM GAS  /tmp/ccLkBuQr.s 			page 14


 742 0012 0800     		movs	r0, r1
 743              	.LVL94:
 744              	.LBB218:
 745              	.LBI218:
 746              		.loc 1 849 23 is_stmt 1 view .LVU178
 747              	.LBB219:
 748              		.loc 1 851 5 view .LVU179
 749              		.loc 1 852 5 view .LVU180
 750              	.LBE219:
 751              	.LBE218:
 752              		.loc 1 868 1 is_stmt 0 view .LVU181
 753 0014 0D9F     		ldr	r7, [sp, #52]
 754              	.LBB222:
 755              	.LBB220:
 756              		.loc 1 853 14 view .LVU182
 757 0016 0125     		movs	r5, #1
 758              		.loc 1 852 8 view .LVU183
 759 0018 002A     		cmp	r2, #0
 760 001a 03DB     		blt	.L68
 761              		.loc 1 855 5 is_stmt 1 view .LVU184
 762              		.loc 1 851 13 is_stmt 0 view .LVU185
 763 001c 0025     		movs	r5, #0
 764              		.loc 1 855 8 view .LVU186
 765 001e 9045     		cmp	r8, r2
 766 0020 00DA     		bge	.LCB670
 767 0022 A9E0     		b	.L103	@long jump
 768              	.LCB670:
 769              	.L68:
 770              	.LVL95:
 771              		.loc 1 858 5 is_stmt 1 view .LVU187
 772              		.loc 1 858 8 is_stmt 0 view .LVU188
 773 0024 002B     		cmp	r3, #0
 774 0026 00DA     		bge	.LCB675
 775 0028 AAE0     		b	.L104	@long jump
 776              	.LCB675:
 777              	.L69:
 778              		.loc 1 861 5 is_stmt 1 view .LVU189
 779              		.loc 1 861 8 is_stmt 0 view .LVU190
 780 002a 9842     		cmp	r0, r3
 781 002c 00DA     		bge	.LCB680
 782 002e A0E0     		b	.L105	@long jump
 783              	.LCB680:
 784              	.LVL96:
 785              	.L70:
 786              		.loc 1 864 5 is_stmt 1 view .LVU191
 787              		.loc 1 864 5 is_stmt 0 view .LVU192
 788              	.LBE220:
 789              	.LBE222:
 790              		.loc 1 870 5 is_stmt 1 view .LVU193
 791              	.LBB223:
 792              	.LBI223:
 793              		.loc 1 849 23 view .LVU194
 794              	.LBB224:
 795              		.loc 1 851 5 view .LVU195
 796              		.loc 1 852 5 view .LVU196
 797              		.loc 1 853 14 is_stmt 0 view .LVU197
 798 0030 0121     		movs	r1, #1
ARM GAS  /tmp/ccLkBuQr.s 			page 15


 799              		.loc 1 852 8 view .LVU198
 800 0032 002C     		cmp	r4, #0
 801 0034 03DB     		blt	.L71
 802              		.loc 1 855 5 is_stmt 1 view .LVU199
 803              		.loc 1 851 13 is_stmt 0 view .LVU200
 804 0036 0021     		movs	r1, #0
 805              		.loc 1 855 8 view .LVU201
 806 0038 A045     		cmp	r8, r4
 807 003a 00DA     		bge	.LCB713
 808 003c 92E0     		b	.L106	@long jump
 809              	.LCB713:
 810              	.L71:
 811              	.LVL97:
 812              		.loc 1 858 5 is_stmt 1 view .LVU202
 813              		.loc 1 858 8 is_stmt 0 view .LVU203
 814 003e 002F     		cmp	r7, #0
 815 0040 00DA     		bge	.LCB722
 816 0042 93E0     		b	.L107	@long jump
 817              	.LCB722:
 818              	.L72:
 819              		.loc 1 861 5 is_stmt 1 view .LVU204
 820              		.loc 1 861 8 is_stmt 0 view .LVU205
 821 0044 B842     		cmp	r0, r7
 822 0046 00DA     		bge	.LCB727
 823 0048 9DE0     		b	.L108	@long jump
 824              	.LCB727:
 825              	.L73:
 826              		.loc 1 864 5 is_stmt 1 view .LVU206
 827              	.LVL98:
 828              		.loc 1 864 5 is_stmt 0 view .LVU207
 829              	.LBE224:
 830              	.LBE223:
 831              		.loc 1 872 5 is_stmt 1 view .LVU208
 832              		.loc 1 872 8 is_stmt 0 view .LVU209
 833 004a 0D42     		tst	r5, r1
 834 004c 3AD1     		bne	.L67
 835              	.LVL99:
 836              	.LBB227:
 837              	.LBI227:
 838              		.loc 1 867 13 is_stmt 1 view .LVU210
 839              	.LBB228:
 840              		.loc 1 877 5 view .LVU211
 841              		.loc 1 877 8 is_stmt 0 view .LVU212
 842 004e A242     		cmp	r2, r4
 843 0050 05DD     		ble	.L76
 844 0052 1900     		movs	r1, r3
 845              	.LVL100:
 846              		.loc 1 877 8 view .LVU213
 847 0054 3B00     		movs	r3, r7
 848              	.LVL101:
 849              		.loc 1 877 8 view .LVU214
 850 0056 0F00     		movs	r7, r1
 851              	.LVL102:
 852              		.loc 1 877 8 view .LVU215
 853 0058 1100     		movs	r1, r2
 854              	.LVL103:
 855              		.loc 1 877 8 view .LVU216
ARM GAS  /tmp/ccLkBuQr.s 			page 16


 856 005a 2200     		movs	r2, r4
 857              	.LVL104:
 858              		.loc 1 877 8 view .LVU217
 859 005c 0C00     		movs	r4, r1
 860              	.LVL105:
 861              	.L76:
 862              		.loc 1 879 21 is_stmt 1 view .LVU218
 863              		.loc 1 882 5 view .LVU219
 864              		.loc 1 884 25 is_stmt 0 view .LVU220
 865 005e 0121     		movs	r1, #1
 866              		.loc 1 882 9 view .LVU221
 867 0060 A61A     		subs	r6, r4, r2
 868              	.LVL106:
 869              		.loc 1 883 5 is_stmt 1 view .LVU222
 870              		.loc 1 883 9 is_stmt 0 view .LVU223
 871 0062 FD1A     		subs	r5, r7, r3
 872              	.LVL107:
 873              		.loc 1 884 5 is_stmt 1 view .LVU224
 874              		.loc 1 884 25 is_stmt 0 view .LVU225
 875 0064 8C46     		mov	ip, r1
 876 0066 002D     		cmp	r5, #0
 877 0068 00DC     		bgt	.LCB800
 878 006a 8FE0     		b	.L109	@long jump
 879              	.LCB800:
 880              	.LVL108:
 881              		.loc 1 885 5 is_stmt 1 view .LVU226
 882              		.loc 1 887 5 view .LVU227
 883              		.loc 1 889 5 view .LVU228
 884              		.loc 1 889 8 is_stmt 0 view .LVU229
 885 006c AE42     		cmp	r6, r5
 886 006e 30DB     		blt	.L78
 887              	.LVL109:
 888              	.L111:
 889              		.loc 1 890 9 is_stmt 1 view .LVU230
 890              		.loc 1 890 16 is_stmt 0 view .LVU231
 891 0070 6D00     		lsls	r5, r5, #1
 892              		.loc 1 890 11 view .LVU232
 893 0072 A91B     		subs	r1, r5, r6
 894              	.LVL110:
 895              		.loc 1 891 9 is_stmt 1 view .LVU233
 896              		.loc 1 891 15 is_stmt 0 view .LVU234
 897 0074 9442     		cmp	r4, r2
 898 0076 63D0     		beq	.L84
 899              		.loc 1 896 25 view .LVU235
 900 0078 7600     		lsls	r6, r6, #1
 901              	.LVL111:
 902              		.loc 1 892 78 view .LVU236
 903 007a 474F     		ldr	r7, .L112
 904              	.LVL112:
 905              		.loc 1 892 78 view .LVU237
 906 007c B346     		mov	fp, r6
 907 007e 6646     		mov	r6, ip
 908 0080 B946     		mov	r9, r7
 909 0082 8446     		mov	ip, r0
 910              	.LVL113:
 911              		.loc 1 892 78 view .LVU238
 912 0084 0096     		str	r6, [sp]
ARM GAS  /tmp/ccLkBuQr.s 			page 17


 913              	.LVL114:
 914              	.L82:
 915              		.loc 1 892 13 is_stmt 1 view .LVU239
 916              		.loc 1 892 16 is_stmt 0 view .LVU240
 917 0086 002B     		cmp	r3, #0
 918 0088 0FDB     		blt	.L80
 919              		.loc 1 892 25 view .LVU241
 920 008a 9C45     		cmp	ip, r3
 921 008c 0DDD     		ble	.L80
 922              		.loc 1 892 35 view .LVU242
 923 008e 002A     		cmp	r2, #0
 924 0090 0BDB     		blt	.L80
 925              		.loc 1 892 46 view .LVU243
 926 0092 9045     		cmp	r8, r2
 927 0094 09DD     		ble	.L80
 928              		.loc 1 892 58 is_stmt 1 view .LVU244
 929              		.loc 1 892 78 is_stmt 0 view .LVU245
 930 0096 4746     		mov	r7, r8
 931 0098 5F43     		muls	r7, r3
 932 009a BF18     		adds	r7, r7, r2
 933 009c 7E00     		lsls	r6, r7, #1
 934 009e 4F46     		mov	r7, r9
 935 00a0 0E98     		ldr	r0, [sp, #56]
 936 00a2 F75B     		ldrh	r7, [r6, r7]
 937 00a4 0743     		orrs	r7, r0
 938 00a6 4846     		mov	r0, r9
 939 00a8 3752     		strh	r7, [r6, r0]
 940              	.L80:
 941              		.loc 1 893 13 is_stmt 1 view .LVU246
 942              		.loc 1 893 15 is_stmt 0 view .LVU247
 943 00aa 0132     		adds	r2, r2, #1
 944              	.LVL115:
 945              		.loc 1 894 13 is_stmt 1 view .LVU248
 946              		.loc 1 895 13 view .LVU249
 947              		.loc 1 895 16 is_stmt 0 view .LVU250
 948 00ac 4919     		adds	r1, r1, r5
 949 00ae 04D4     		bmi	.L81
 950              	.LVL116:
 951              		.loc 1 896 17 is_stmt 1 view .LVU251
 952              		.loc 1 896 19 is_stmt 0 view .LVU252
 953 00b0 5846     		mov	r0, fp
 954 00b2 091A     		subs	r1, r1, r0
 955              	.LVL117:
 956              		.loc 1 897 17 is_stmt 1 view .LVU253
 957              		.loc 1 897 20 is_stmt 0 view .LVU254
 958 00b4 0098     		ldr	r0, [sp]
 959 00b6 8246     		mov	r10, r0
 960 00b8 5344     		add	r3, r3, r10
 961              	.LVL118:
 962              	.L81:
 963              		.loc 1 891 15 view .LVU255
 964 00ba 9442     		cmp	r4, r2
 965 00bc E3D1     		bne	.L82
 966              		.loc 1 891 15 view .LVU256
 967 00be 6046     		mov	r0, ip
 968              		.loc 1 900 9 is_stmt 1 view .LVU257
 969              		.loc 1 912 9 view .LVU258
ARM GAS  /tmp/ccLkBuQr.s 			page 18


 970              		.loc 1 912 12 is_stmt 0 view .LVU259
 971 00c0 002B     		cmp	r3, #0
 972 00c2 3FDA     		bge	.L110
 973              	.LVL119:
 974              	.L67:
 975              		.loc 1 912 12 view .LVU260
 976              	.LBE228:
 977              	.LBE227:
 978              		.loc 1 914 1 view .LVU261
 979 00c4 03B0     		add	sp, sp, #12
 980              		@ sp needed
 981              	.LVL120:
 982              		.loc 1 914 1 view .LVU262
 983 00c6 3CBC     		pop	{r2, r3, r4, r5}
 984 00c8 9046     		mov	r8, r2
 985 00ca 9946     		mov	r9, r3
 986 00cc A246     		mov	r10, r4
 987 00ce AB46     		mov	fp, r5
 988 00d0 F0BD     		pop	{r4, r5, r6, r7, pc}
 989              	.LVL121:
 990              	.L78:
 991              	.LBB231:
 992              	.LBB229:
 993              		.loc 1 902 9 is_stmt 1 view .LVU263
 994              		.loc 1 902 16 is_stmt 0 view .LVU264
 995 00d2 7600     		lsls	r6, r6, #1
 996              	.LVL122:
 997              		.loc 1 902 11 view .LVU265
 998 00d4 741B     		subs	r4, r6, r5
 999              	.LVL123:
 1000              		.loc 1 903 9 is_stmt 1 view .LVU266
 1001              		.loc 1 903 15 is_stmt 0 view .LVU267
 1002 00d6 9F42     		cmp	r7, r3
 1003 00d8 32D0     		beq	.L84
 1004              		.loc 1 908 25 view .LVU268
 1005 00da 6900     		lsls	r1, r5, #1
 1006              	.LVL124:
 1007              		.loc 1 908 25 view .LVU269
 1008 00dc 8A46     		mov	r10, r1
 1009 00de 6546     		mov	r5, ip
 1010 00e0 4146     		mov	r1, r8
 1011 00e2 6943     		muls	r1, r5
 1012              		.loc 1 904 78 view .LVU270
 1013 00e4 5546     		mov	r5, r10
 1014 00e6 8946     		mov	r9, r1
 1015 00e8 4146     		mov	r1, r8
 1016 00ea 0196     		str	r6, [sp, #4]
 1017 00ec 6646     		mov	r6, ip
 1018 00ee 0D97     		str	r7, [sp, #52]
 1019              	.LVL125:
 1020              		.loc 1 904 78 view .LVU271
 1021 00f0 AC46     		mov	ip, r5
 1022              	.LVL126:
 1023              		.loc 1 904 78 view .LVU272
 1024 00f2 4F46     		mov	r7, r9
 1025              	.LVL127:
 1026              		.loc 1 904 78 view .LVU273
ARM GAS  /tmp/ccLkBuQr.s 			page 19


 1027 00f4 8146     		mov	r9, r0
 1028 00f6 5943     		muls	r1, r3
 1029 00f8 0096     		str	r6, [sp]
 1030              	.LVL128:
 1031              	.L87:
 1032              		.loc 1 904 13 is_stmt 1 view .LVU274
 1033              		.loc 1 904 16 is_stmt 0 view .LVU275
 1034 00fa 002B     		cmp	r3, #0
 1035 00fc 12DB     		blt	.L85
 1036              		.loc 1 904 25 view .LVU276
 1037 00fe 9945     		cmp	r9, r3
 1038 0100 10DD     		ble	.L85
 1039              		.loc 1 904 35 view .LVU277
 1040 0102 002A     		cmp	r2, #0
 1041 0104 0EDB     		blt	.L85
 1042              		.loc 1 904 46 view .LVU278
 1043 0106 9045     		cmp	r8, r2
 1044 0108 0CDD     		ble	.L85
 1045              		.loc 1 904 58 is_stmt 1 view .LVU279
 1046              		.loc 1 904 78 is_stmt 0 view .LVU280
 1047 010a 8818     		adds	r0, r1, r2
 1048 010c 4000     		lsls	r0, r0, #1
 1049 010e 8246     		mov	r10, r0
 1050 0110 5546     		mov	r5, r10
 1051 0112 2148     		ldr	r0, .L112
 1052 0114 285A     		ldrh	r0, [r5, r0]
 1053 0116 0E9D     		ldr	r5, [sp, #56]
 1054 0118 2843     		orrs	r0, r5
 1055 011a 8346     		mov	fp, r0
 1056 011c 5546     		mov	r5, r10
 1057 011e 5E46     		mov	r6, fp
 1058 0120 1D48     		ldr	r0, .L112
 1059 0122 2E52     		strh	r6, [r5, r0]
 1060              	.L85:
 1061              		.loc 1 905 13 is_stmt 1 view .LVU281
 1062              		.loc 1 905 16 is_stmt 0 view .LVU282
 1063 0124 0098     		ldr	r0, [sp]
 1064 0126 8246     		mov	r10, r0
 1065              		.loc 1 907 16 view .LVU283
 1066 0128 0198     		ldr	r0, [sp, #4]
 1067              		.loc 1 905 16 view .LVU284
 1068 012a 5344     		add	r3, r3, r10
 1069              	.LVL129:
 1070              		.loc 1 906 13 is_stmt 1 view .LVU285
 1071              		.loc 1 907 13 view .LVU286
 1072              		.loc 1 907 16 is_stmt 0 view .LVU287
 1073 012c 2418     		adds	r4, r4, r0
 1074 012e 02D4     		bmi	.L86
 1075              	.LVL130:
 1076              		.loc 1 908 17 is_stmt 1 view .LVU288
 1077              		.loc 1 908 19 is_stmt 0 view .LVU289
 1078 0130 6046     		mov	r0, ip
 1079              		.loc 1 909 19 view .LVU290
 1080 0132 0132     		adds	r2, r2, #1
 1081              	.LVL131:
 1082              		.loc 1 908 19 view .LVU291
 1083 0134 241A     		subs	r4, r4, r0
ARM GAS  /tmp/ccLkBuQr.s 			page 20


 1084              	.LVL132:
 1085              		.loc 1 909 17 is_stmt 1 view .LVU292
 1086              	.L86:
 1087              		.loc 1 903 15 is_stmt 0 view .LVU293
 1088 0136 0D98     		ldr	r0, [sp, #52]
 1089 0138 C919     		adds	r1, r1, r7
 1090 013a 9842     		cmp	r0, r3
 1091 013c DDD1     		bne	.L87
 1092              		.loc 1 903 15 view .LVU294
 1093 013e 4846     		mov	r0, r9
 1094              	.LVL133:
 1095              	.L84:
 1096              		.loc 1 912 9 is_stmt 1 view .LVU295
 1097              		.loc 1 912 12 is_stmt 0 view .LVU296
 1098 0140 002B     		cmp	r3, #0
 1099 0142 BFDB     		blt	.L67
 1100              	.L110:
 1101              		.loc 1 912 21 view .LVU297
 1102 0144 9842     		cmp	r0, r3
 1103 0146 BDDD     		ble	.L67
 1104              		.loc 1 912 31 view .LVU298
 1105 0148 002A     		cmp	r2, #0
 1106 014a BBDB     		blt	.L67
 1107              		.loc 1 912 42 view .LVU299
 1108 014c 9045     		cmp	r8, r2
 1109 014e B9DD     		ble	.L67
 1110              		.loc 1 912 54 is_stmt 1 view .LVU300
 1111              		.loc 1 912 74 is_stmt 0 view .LVU301
 1112 0150 4146     		mov	r1, r8
 1113 0152 4B43     		muls	r3, r1
 1114              	.LVL134:
 1115              		.loc 1 912 74 view .LVU302
 1116 0154 1049     		ldr	r1, .L112
 1117 0156 9A18     		adds	r2, r3, r2
 1118              	.LVL135:
 1119              		.loc 1 912 74 view .LVU303
 1120 0158 5200     		lsls	r2, r2, #1
 1121 015a 535A     		ldrh	r3, [r2, r1]
 1122 015c 0E98     		ldr	r0, [sp, #56]
 1123              	.LVL136:
 1124              		.loc 1 912 74 view .LVU304
 1125 015e 0343     		orrs	r3, r0
 1126 0160 5352     		strh	r3, [r2, r1]
 1127 0162 AFE7     		b	.L67
 1128              	.LVL137:
 1129              	.L106:
 1130              		.loc 1 912 74 view .LVU305
 1131              	.LBE229:
 1132              	.LBE231:
 1133              	.LBB232:
 1134              	.LBB225:
 1135              		.loc 1 856 14 view .LVU306
 1136 0164 0231     		adds	r1, r1, #2
 1137              	.LVL138:
 1138              		.loc 1 858 5 is_stmt 1 view .LVU307
 1139              		.loc 1 858 8 is_stmt 0 view .LVU308
 1140 0166 002F     		cmp	r7, #0
ARM GAS  /tmp/ccLkBuQr.s 			page 21


 1141 0168 00DB     		blt	.LCB1145
 1142 016a 6BE7     		b	.L72	@long jump
 1143              	.LCB1145:
 1144              	.L107:
 1145              		.loc 1 859 9 is_stmt 1 view .LVU309
 1146              		.loc 1 859 14 is_stmt 0 view .LVU310
 1147 016c 0426     		movs	r6, #4
 1148 016e 3143     		orrs	r1, r6
 1149              	.LVL139:
 1150              		.loc 1 859 14 view .LVU311
 1151 0170 6BE7     		b	.L73
 1152              	.LVL140:
 1153              	.L105:
 1154              		.loc 1 859 14 view .LVU312
 1155              	.LBE225:
 1156              	.LBE232:
 1157              	.LBB233:
 1158              	.LBB221:
 1159              		.loc 1 862 9 is_stmt 1 view .LVU313
 1160              		.loc 1 862 14 is_stmt 0 view .LVU314
 1161 0172 0821     		movs	r1, #8
 1162 0174 0D43     		orrs	r5, r1
 1163              	.LVL141:
 1164              		.loc 1 862 14 view .LVU315
 1165 0176 5BE7     		b	.L70
 1166              	.LVL142:
 1167              	.L103:
 1168              		.loc 1 856 14 view .LVU316
 1169 0178 0235     		adds	r5, r5, #2
 1170              	.LVL143:
 1171              		.loc 1 858 5 is_stmt 1 view .LVU317
 1172              		.loc 1 858 8 is_stmt 0 view .LVU318
 1173 017a 002B     		cmp	r3, #0
 1174 017c 00DB     		blt	.LCB1196
 1175 017e 54E7     		b	.L69	@long jump
 1176              	.LCB1196:
 1177              	.L104:
 1178              		.loc 1 859 9 is_stmt 1 view .LVU319
 1179              		.loc 1 859 14 is_stmt 0 view .LVU320
 1180 0180 0421     		movs	r1, #4
 1181 0182 0D43     		orrs	r5, r1
 1182              	.LVL144:
 1183              		.loc 1 859 14 view .LVU321
 1184 0184 54E7     		b	.L70
 1185              	.LVL145:
 1186              	.L108:
 1187              		.loc 1 859 14 view .LVU322
 1188              	.LBE221:
 1189              	.LBE233:
 1190              	.LBB234:
 1191              	.LBB226:
 1192              		.loc 1 862 9 is_stmt 1 view .LVU323
 1193              		.loc 1 862 14 is_stmt 0 view .LVU324
 1194 0186 0826     		movs	r6, #8
 1195 0188 3143     		orrs	r1, r6
 1196              	.LVL146:
 1197              		.loc 1 862 14 view .LVU325
ARM GAS  /tmp/ccLkBuQr.s 			page 22


 1198 018a 5EE7     		b	.L73
 1199              	.LVL147:
 1200              	.L109:
 1201              		.loc 1 862 14 view .LVU326
 1202              	.LBE226:
 1203              	.LBE234:
 1204              	.LBB235:
 1205              	.LBB230:
 1206              		.loc 1 884 25 view .LVU327
 1207 018c 0239     		subs	r1, r1, #2
 1208 018e DD1B     		subs	r5, r3, r7
 1209              	.LVL148:
 1210              		.loc 1 884 25 view .LVU328
 1211 0190 8C46     		mov	ip, r1
 1212              	.LVL149:
 1213              		.loc 1 885 5 is_stmt 1 view .LVU329
 1214              		.loc 1 887 5 view .LVU330
 1215              		.loc 1 889 5 view .LVU331
 1216              		.loc 1 889 8 is_stmt 0 view .LVU332
 1217 0192 AE42     		cmp	r6, r5
 1218 0194 9DDB     		blt	.L78
 1219 0196 6BE7     		b	.L111
 1220              	.L113:
 1221              		.align	2
 1222              	.L112:
 1223 0198 00000000 		.word	spi_buffer
 1224              	.LBE230:
 1225              	.LBE235:
 1226              		.cfi_endproc
 1227              	.LFE185:
 1228              		.size	cell_drawline, .-cell_drawline
 1229              		.section	.text.cell_drawchar_7x13,"ax",%progbits
 1230              		.align	1
 1231              		.p2align 4,,15
 1232              		.syntax unified
 1233              		.code	16
 1234              		.thumb_func
 1235              		.fpu softvfp
 1236              		.type	cell_drawchar_7x13, %function
 1237              	cell_drawchar_7x13:
 1238              	.LVL150:
 1239              	.LFB201:
 1240              		.loc 1 1614 1 is_stmt 1 view -0
 1241              		.cfi_startproc
 1242              		@ args = 12, pretend = 0, frame = 8
 1243              		@ frame_needed = 0, uses_anonymous_args = 0
 1244              		.loc 1 1614 1 is_stmt 0 view .LVU334
 1245 0000 F0B5     		push	{r4, r5, r6, r7, lr}
 1246              		.cfi_def_cfa_offset 20
 1247              		.cfi_offset 4, -20
 1248              		.cfi_offset 5, -16
 1249              		.cfi_offset 6, -12
 1250              		.cfi_offset 7, -8
 1251              		.cfi_offset 14, -4
 1252 0002 4546     		mov	r5, r8
 1253 0004 5746     		mov	r7, r10
 1254 0006 DE46     		mov	lr, fp
ARM GAS  /tmp/ccLkBuQr.s 			page 23


 1255 0008 4E46     		mov	r6, r9
 1256 000a E0B5     		push	{r5, r6, r7, lr}
 1257              		.cfi_def_cfa_offset 36
 1258              		.cfi_offset 8, -36
 1259              		.cfi_offset 9, -32
 1260              		.cfi_offset 10, -28
 1261              		.cfi_offset 11, -24
 1262 000c 83B0     		sub	sp, sp, #12
 1263              		.cfi_def_cfa_offset 48
 1264              		.loc 1 1614 1 view .LVU335
 1265 000e 0CAC     		add	r4, sp, #48
 1266              	.LVL151:
 1267              		.loc 1 1614 1 view .LVU336
 1268 0010 20CC     		ldmia	r4!, {r5}
 1269              	.LVL152:
 1270              		.loc 1 1614 1 view .LVU337
 1271 0012 9846     		mov	r8, r3
 1272              		.loc 1 1615 3 is_stmt 1 view .LVU338
 1273              		.loc 1 1616 3 view .LVU339
 1274              		.loc 1 1617 3 view .LVU340
 1275              		.loc 1 1614 1 is_stmt 0 view .LVU341
 1276 0014 2388     		ldrh	r3, [r4]
 1277              	.LVL153:
 1278              		.loc 1 1614 1 view .LVU342
 1279 0016 0091     		str	r1, [sp]
 1280 0018 9A46     		mov	r10, r3
 1281              		.loc 1 1617 6 view .LVU343
 1282 001a 2B00     		movs	r3, r5
 1283 001c 0C33     		adds	r3, r3, #12
 1284 001e 44DB     		blt	.L114
 1285              		.loc 1 1617 16 discriminator 1 view .LVU344
 1286 0020 8D42     		cmp	r5, r1
 1287 0022 42DA     		bge	.L114
 1288              		.loc 1 1617 26 discriminator 2 view .LVU345
 1289 0024 4346     		mov	r3, r8
 1290 0026 0633     		adds	r3, r3, #6
 1291 0028 3FDB     		blt	.L114
 1292              		.loc 1 1617 37 discriminator 3 view .LVU346
 1293 002a 8045     		cmp	r8, r0
 1294 002c 3DDA     		bge	.L114
 1295 002e 2E00     		movs	r6, r5
 1296 0030 4300     		lsls	r3, r0, #1
 1297 0032 5E43     		muls	r6, r3
 1298 0034 0193     		str	r3, [sp, #4]
 1299 0036 0D23     		movs	r3, #13
 1300 0038 1F4C     		ldr	r4, .L126
 1301              	.LVL154:
 1302              		.loc 1 1617 37 discriminator 3 view .LVU347
 1303 003a 9946     		mov	r9, r3
 1304 003c 3619     		adds	r6, r6, r4
 1305              	.LBB238:
 1306              	.LBB239:
 1307              		.loc 1 1622 28 view .LVU348
 1308 003e 5400     		lsls	r4, r2, #1
 1309 0040 A418     		adds	r4, r4, r2
 1310 0042 A400     		lsls	r4, r4, #2
 1311 0044 A218     		adds	r2, r4, r2
ARM GAS  /tmp/ccLkBuQr.s 			page 24


 1312              	.LVL155:
 1313              		.loc 1 1622 28 view .LVU349
 1314 0046 521B     		subs	r2, r2, r5
 1315 0048 5200     		lsls	r2, r2, #1
 1316 004a 9446     		mov	ip, r2
 1317 004c 4346     		mov	r3, r8
 1318 004e 1B4C     		ldr	r4, .L126+4
 1319 0050 A944     		add	r9, r9, r5
 1320 0052 A444     		add	ip, ip, r4
 1321 0054 DF1D     		adds	r7, r3, #7
 1322 0056 05E0     		b	.L120
 1323              	.LVL156:
 1324              	.L116:
 1325              		.loc 1 1622 28 view .LVU350
 1326 0058 019B     		ldr	r3, [sp, #4]
 1327 005a 0135     		adds	r5, r5, #1
 1328              	.LVL157:
 1329              		.loc 1 1622 28 view .LVU351
 1330 005c 9B46     		mov	fp, r3
 1331 005e 5E44     		add	r6, r6, fp
 1332              		.loc 1 1619 3 view .LVU352
 1333 0060 4D45     		cmp	r5, r9
 1334 0062 22D0     		beq	.L114
 1335              	.LVL158:
 1336              	.L120:
 1337              		.loc 1 1620 5 is_stmt 1 view .LVU353
 1338              		.loc 1 1620 8 is_stmt 0 view .LVU354
 1339 0064 002D     		cmp	r5, #0
 1340 0066 F7DB     		blt	.L116
 1341              		.loc 1 1620 21 view .LVU355
 1342 0068 009B     		ldr	r3, [sp]
 1343 006a AB42     		cmp	r3, r5
 1344 006c F4DD     		ble	.L116
 1345              		.loc 1 1622 5 is_stmt 1 view .LVU356
 1346              		.loc 1 1622 10 is_stmt 0 view .LVU357
 1347 006e 6346     		mov	r3, ip
 1348 0070 6A00     		lsls	r2, r5, #1
 1349 0072 9C5A     		ldrh	r4, [r3, r2]
 1350              	.LVL159:
 1351              		.loc 1 1623 5 is_stmt 1 view .LVU358
 1352              		.loc 1 1623 8 is_stmt 0 view .LVU359
 1353 0074 0E9B     		ldr	r3, [sp, #56]
 1354 0076 002B     		cmp	r3, #0
 1355 0078 01D0     		beq	.L117
 1356              		.loc 1 1624 7 is_stmt 1 view .LVU360
 1357              		.loc 1 1624 12 is_stmt 0 view .LVU361
 1358 007a E443     		mvns	r4, r4
 1359              	.LVL160:
 1360              		.loc 1 1624 12 view .LVU362
 1361 007c A4B2     		uxth	r4, r4
 1362              	.LVL161:
 1363              	.L117:
 1364              		.loc 1 1624 12 view .LVU363
 1365 007e 4246     		mov	r2, r8
 1366              	.L119:
 1367              	.LVL162:
 1368              		.loc 1 1626 7 is_stmt 1 view .LVU364
ARM GAS  /tmp/ccLkBuQr.s 			page 25


 1369              		.loc 1 1626 10 is_stmt 0 view .LVU365
 1370 0080 002A     		cmp	r2, #0
 1371 0082 07DB     		blt	.L118
 1372              		.loc 1 1626 22 view .LVU366
 1373 0084 9042     		cmp	r0, r2
 1374 0086 05DD     		ble	.L118
 1375              		.loc 1 1626 35 view .LVU367
 1376 0088 23B2     		sxth	r3, r4
 1377 008a 002B     		cmp	r3, #0
 1378 008c 02DA     		bge	.L118
 1379              		.loc 1 1627 9 is_stmt 1 view .LVU368
 1380              		.loc 1 1627 37 is_stmt 0 view .LVU369
 1381 008e 5146     		mov	r1, r10
 1382 0090 5300     		lsls	r3, r2, #1
 1383 0092 F152     		strh	r1, [r6, r3]
 1384              	.L118:
 1385              		.loc 1 1628 7 is_stmt 1 view .LVU370
 1386              		.loc 1 1628 12 is_stmt 0 view .LVU371
 1387 0094 6400     		lsls	r4, r4, #1
 1388              	.LVL163:
 1389              		.loc 1 1628 12 view .LVU372
 1390 0096 0132     		adds	r2, r2, #1
 1391              	.LVL164:
 1392              		.loc 1 1628 12 view .LVU373
 1393 0098 A4B2     		uxth	r4, r4
 1394              	.LVL165:
 1395              		.loc 1 1625 5 view .LVU374
 1396 009a 9742     		cmp	r7, r2
 1397 009c F0D1     		bne	.L119
 1398              	.LVL166:
 1399              		.loc 1 1625 5 view .LVU375
 1400 009e 019B     		ldr	r3, [sp, #4]
 1401 00a0 0135     		adds	r5, r5, #1
 1402              	.LVL167:
 1403              		.loc 1 1625 5 view .LVU376
 1404 00a2 9B46     		mov	fp, r3
 1405 00a4 5E44     		add	r6, r6, fp
 1406              		.loc 1 1619 3 view .LVU377
 1407 00a6 4D45     		cmp	r5, r9
 1408 00a8 DCD1     		bne	.L120
 1409              	.LVL168:
 1410              	.L114:
 1411              		.loc 1 1619 3 view .LVU378
 1412              	.LBE239:
 1413              	.LBE238:
 1414              		.loc 1 1631 1 view .LVU379
 1415 00aa 03B0     		add	sp, sp, #12
 1416              	.LVL169:
 1417              		.loc 1 1631 1 view .LVU380
 1418              		@ sp needed
 1419              	.LVL170:
 1420              		.loc 1 1631 1 view .LVU381
 1421 00ac 3CBC     		pop	{r2, r3, r4, r5}
 1422 00ae 9046     		mov	r8, r2
 1423 00b0 9946     		mov	r9, r3
 1424 00b2 A246     		mov	r10, r4
 1425 00b4 AB46     		mov	fp, r5
ARM GAS  /tmp/ccLkBuQr.s 			page 26


 1426 00b6 F0BD     		pop	{r4, r5, r6, r7, pc}
 1427              	.L127:
 1428              		.align	2
 1429              	.L126:
 1430 00b8 00000000 		.word	spi_buffer
 1431 00bc 00000000 		.word	x7x13b_bits
 1432              		.cfi_endproc
 1433              	.LFE201:
 1434              		.size	cell_drawchar_7x13, .-cell_drawchar_7x13
 1435              		.global	__aeabi_ui2f
 1436              		.global	__aeabi_ddiv
 1437              		.section	.text.group_delay.constprop.11,"ax",%progbits
 1438              		.align	1
 1439              		.p2align 4,,15
 1440              		.syntax unified
 1441              		.code	16
 1442              		.thumb_func
 1443              		.fpu softvfp
 1444              		.type	group_delay.constprop.11, %function
 1445              	group_delay.constprop.11:
 1446              	.LVL171:
 1447              	.LFB217:
 1448              		.loc 1 441 14 is_stmt 1 view -0
 1449              		.cfi_startproc
 1450              		@ args = 0, pretend = 0, frame = 0
 1451              		@ frame_needed = 0, uses_anonymous_args = 0
 1452              		.loc 1 441 14 is_stmt 0 view .LVU383
 1453 0000 F8B5     		push	{r3, r4, r5, r6, r7, lr}
 1454              		.cfi_def_cfa_offset 24
 1455              		.cfi_offset 3, -24
 1456              		.cfi_offset 4, -20
 1457              		.cfi_offset 5, -16
 1458              		.cfi_offset 6, -12
 1459              		.cfi_offset 7, -8
 1460              		.cfi_offset 14, -4
 1461 0002 4746     		mov	r7, r8
 1462 0004 CE46     		mov	lr, r9
 1463 0006 0600     		movs	r6, r0
 1464              	.LVL172:
 1465              		.loc 1 443 5 is_stmt 1 view .LVU384
 1466              		.loc 1 444 5 view .LVU385
 1467              		.loc 1 445 5 view .LVU386
 1468 0008 2A4B     		ldr	r3, .L132
 1469              	.LVL173:
 1470              		.loc 1 441 14 is_stmt 0 view .LVU387
 1471 000a 80B5     		push	{r7, lr}
 1472              		.cfi_def_cfa_offset 32
 1473              		.cfi_offset 8, -32
 1474              		.cfi_offset 9, -28
 1475 000c D400     		lsls	r4, r2, #3
 1476 000e 9700     		lsls	r7, r2, #2
 1477              		.loc 1 445 23 view .LVU388
 1478 0010 0139     		subs	r1, r1, #1
 1479              	.LVL174:
 1480              		.loc 1 445 23 view .LVU389
 1481 0012 D859     		ldr	r0, [r3, r7]
 1482              	.LVL175:
ARM GAS  /tmp/ccLkBuQr.s 			page 27


 1483              		.loc 1 445 23 view .LVU390
 1484 0014 3519     		adds	r5, r6, r4
 1485              		.loc 1 445 8 view .LVU391
 1486 0016 9142     		cmp	r1, r2
 1487 0018 41D0     		beq	.L131
 1488              		.loc 1 451 9 is_stmt 1 view .LVU392
 1489              		.loc 1 451 22 is_stmt 0 view .LVU393
 1490 001a 0433     		adds	r3, r3, #4
 1491              	.LVL176:
 1492              		.loc 1 451 32 view .LVU394
 1493 001c DB59     		ldr	r3, [r3, r7]
 1494              		.loc 1 453 18 view .LVU395
 1495 001e 0834     		adds	r4, r4, #8
 1496              		.loc 1 451 32 view .LVU396
 1497 0020 181A     		subs	r0, r3, r0
 1498              		.loc 1 451 16 view .LVU397
 1499 0022 FFF7FEFF 		bl	__aeabi_ui2f
 1500              	.LVL177:
 1501              		.loc 1 453 11 view .LVU398
 1502 0026 3419     		adds	r4, r6, r4
 1503              		.loc 1 451 16 view .LVU399
 1504 0028 071C     		adds	r7, r0, #0
 1505              	.LVL178:
 1506              		.loc 1 452 9 is_stmt 1 view .LVU400
 1507              		.loc 1 453 9 view .LVU401
 1508              	.L130:
 1509              		.loc 1 458 5 view .LVU402
 1510              		.loc 1 458 21 is_stmt 0 view .LVU403
 1511 002a 6B68     		ldr	r3, [r5, #4]
 1512              		.loc 1 458 16 view .LVU404
 1513 002c 2668     		ldr	r6, [r4]
 1514              	.LVL179:
 1515              		.loc 1 458 33 view .LVU405
 1516 002e 2D68     		ldr	r5, [r5]
 1517              	.LVL180:
 1518              		.loc 1 459 19 view .LVU406
 1519 0030 301C     		adds	r0, r6, #0
 1520              	.LVL181:
 1521              		.loc 1 459 19 view .LVU407
 1522 0032 291C     		adds	r1, r5, #0
 1523              		.loc 1 458 21 view .LVU408
 1524 0034 9846     		mov	r8, r3
 1525              		.loc 1 459 19 view .LVU409
 1526 0036 FFF7FEFF 		bl	__aeabi_fmul
 1527              	.LVL182:
 1528              		.loc 1 458 28 view .LVU410
 1529 003a 6468     		ldr	r4, [r4, #4]
 1530              	.LVL183:
 1531              		.loc 1 459 5 is_stmt 1 view .LVU411
 1532              		.loc 1 460 5 view .LVU412
 1533              		.loc 1 459 19 is_stmt 0 view .LVU413
 1534 003c 8146     		mov	r9, r0
 1535              		.loc 1 459 31 view .LVU414
 1536 003e 211C     		adds	r1, r4, #0
 1537 0040 4046     		mov	r0, r8
 1538 0042 FFF7FEFF 		bl	__aeabi_fmul
 1539              	.LVL184:
ARM GAS  /tmp/ccLkBuQr.s 			page 28


 1540 0046 011C     		adds	r1, r0, #0
 1541              		.loc 1 459 11 view .LVU415
 1542 0048 4846     		mov	r0, r9
 1543 004a FFF7FEFF 		bl	__aeabi_fadd
 1544              	.LVL185:
 1545              		.loc 1 458 19 view .LVU416
 1546 004e 4146     		mov	r1, r8
 1547              		.loc 1 459 11 view .LVU417
 1548 0050 8146     		mov	r9, r0
 1549              		.loc 1 458 19 view .LVU418
 1550 0052 301C     		adds	r0, r6, #0
 1551 0054 FFF7FEFF 		bl	__aeabi_fmul
 1552              	.LVL186:
 1553              		.loc 1 458 31 view .LVU419
 1554 0058 291C     		adds	r1, r5, #0
 1555              		.loc 1 458 19 view .LVU420
 1556 005a 061C     		adds	r6, r0, #0
 1557              	.LVL187:
 1558              		.loc 1 458 31 view .LVU421
 1559 005c 201C     		adds	r0, r4, #0
 1560 005e FFF7FEFF 		bl	__aeabi_fmul
 1561              	.LVL188:
 1562 0062 011C     		adds	r1, r0, #0
 1563              		.loc 1 458 11 view .LVU422
 1564 0064 301C     		adds	r0, r6, #0
 1565 0066 FFF7FEFF 		bl	__aeabi_fsub
 1566              	.LVL189:
 1567              		.loc 1 460 12 view .LVU423
 1568 006a 4946     		mov	r1, r9
 1569 006c FFF7FEFF 		bl	atan2f
 1570              	.LVL190:
 1571 0070 FFF7FEFF 		bl	__aeabi_f2d
 1572              	.LVL191:
 1573 0074 0400     		movs	r4, r0
 1574              		.loc 1 460 37 view .LVU424
 1575 0076 381C     		adds	r0, r7, #0
 1576              		.loc 1 460 12 view .LVU425
 1577 0078 0D00     		movs	r5, r1
 1578              		.loc 1 460 37 view .LVU426
 1579 007a FFF7FEFF 		bl	__aeabi_f2d
 1580              	.LVL192:
 1581 007e 0E4A     		ldr	r2, .L132+4
 1582 0080 0E4B     		ldr	r3, .L132+8
 1583 0082 FFF7FEFF 		bl	__aeabi_dmul
 1584              	.LVL193:
 1585 0086 0200     		movs	r2, r0
 1586 0088 0B00     		movs	r3, r1
 1587              		.loc 1 460 25 view .LVU427
 1588 008a 2000     		movs	r0, r4
 1589 008c 2900     		movs	r1, r5
 1590 008e FFF7FEFF 		bl	__aeabi_ddiv
 1591              	.LVL194:
 1592 0092 FFF7FEFF 		bl	__aeabi_d2f
 1593              	.LVL195:
 1594              		.loc 1 461 1 view .LVU428
 1595              		@ sp needed
 1596              	.LVL196:
ARM GAS  /tmp/ccLkBuQr.s 			page 29


 1597              		.loc 1 461 1 view .LVU429
 1598 0096 0CBC     		pop	{r2, r3}
 1599 0098 9046     		mov	r8, r2
 1600 009a 9946     		mov	r9, r3
 1601 009c F8BD     		pop	{r3, r4, r5, r6, r7, pc}
 1602              	.LVL197:
 1603              	.L131:
 1604              		.loc 1 446 9 is_stmt 1 view .LVU430
 1605              		.loc 1 446 36 is_stmt 0 view .LVU431
 1606 009e 043B     		subs	r3, r3, #4
 1607              	.LVL198:
 1608              		.loc 1 446 30 view .LVU432
 1609 00a0 DB59     		ldr	r3, [r3, r7]
 1610              	.LVL199:
 1611              		.loc 1 446 30 view .LVU433
 1612 00a2 C01A     		subs	r0, r0, r3
 1613              		.loc 1 446 16 view .LVU434
 1614 00a4 FFF7FEFF 		bl	__aeabi_ui2f
 1615              	.LVL200:
 1616              		.loc 1 447 18 view .LVU435
 1617 00a8 2300     		movs	r3, r4
 1618 00aa 083B     		subs	r3, r3, #8
 1619              		.loc 1 448 11 view .LVU436
 1620 00ac 2C00     		movs	r4, r5
 1621              		.loc 1 446 16 view .LVU437
 1622 00ae 071C     		adds	r7, r0, #0
 1623              	.LVL201:
 1624              		.loc 1 447 9 is_stmt 1 view .LVU438
 1625              		.loc 1 448 9 view .LVU439
 1626              		.loc 1 447 11 is_stmt 0 view .LVU440
 1627 00b0 F518     		adds	r5, r6, r3
 1628              	.LVL202:
 1629              		.loc 1 447 11 view .LVU441
 1630 00b2 BAE7     		b	.L130
 1631              	.L133:
 1632              		.align	2
 1633              	.L132:
 1634 00b4 10000000 		.word	current_props+16
 1635 00b8 182D4454 		.word	1413754136
 1636 00bc FB211940 		.word	1075388923
 1637              		.cfi_endproc
 1638              	.LFE217:
 1639              		.size	group_delay.constprop.11, .-group_delay.constprop.11
 1640              		.section	.text.markmap_marker.part.2,"ax",%progbits
 1641              		.align	1
 1642              		.p2align 4,,15
 1643              		.syntax unified
 1644              		.code	16
 1645              		.thumb_func
 1646              		.fpu softvfp
 1647              		.type	markmap_marker.part.2, %function
 1648              	markmap_marker.part.2:
 1649              	.LVL203:
 1650              	.LFB214:
 1651              		.loc 1 1117 13 is_stmt 1 view -0
 1652              		.cfi_startproc
 1653              		@ args = 0, pretend = 0, frame = 8
ARM GAS  /tmp/ccLkBuQr.s 			page 30


 1654              		@ frame_needed = 0, uses_anonymous_args = 0
 1655              	.LBB265:
 1656              		.loc 1 1125 41 is_stmt 0 view .LVU443
 1657 0000 8D21     		movs	r1, #141
 1658 0002 8900     		lsls	r1, r1, #2
 1659 0004 8C46     		mov	ip, r1
 1660              	.LBE265:
 1661              		.loc 1 1117 13 view .LVU444
 1662 0006 F0B5     		push	{r4, r5, r6, r7, lr}
 1663              		.cfi_def_cfa_offset 20
 1664              		.cfi_offset 4, -20
 1665              		.cfi_offset 5, -16
 1666              		.cfi_offset 6, -12
 1667              		.cfi_offset 7, -8
 1668              		.cfi_offset 14, -4
 1669 0008 4546     		mov	r5, r8
 1670 000a DE46     		mov	lr, fp
 1671 000c 5746     		mov	r7, r10
 1672 000e 4E46     		mov	r6, r9
 1673              	.LBB316:
 1674              		.loc 1 1125 41 view .LVU445
 1675 0010 5649     		ldr	r1, .L158
 1676 0012 6044     		add	r0, r0, ip
 1677              	.LVL204:
 1678              		.loc 1 1125 41 view .LVU446
 1679 0014 8C46     		mov	ip, r1
 1680              	.LBE316:
 1681              		.loc 1 1117 13 view .LVU447
 1682 0016 E0B5     		push	{r5, r6, r7, lr}
 1683              		.cfi_def_cfa_offset 36
 1684              		.cfi_offset 8, -36
 1685              		.cfi_offset 9, -32
 1686              		.cfi_offset 10, -28
 1687              		.cfi_offset 11, -24
 1688 0018 554A     		ldr	r2, .L158+4
 1689              	.LBB317:
 1690              		.loc 1 1128 15 view .LVU448
 1691 001a 5649     		ldr	r1, .L158+8
 1692              	.LBB266:
 1693              	.LBB267:
 1694              	.LBB268:
 1695              	.LBB269:
 1696              		.loc 1 745 33 view .LVU449
 1697 001c 564B     		ldr	r3, .L158+12
 1698              	.LBE269:
 1699              	.LBE268:
 1700              	.LBE267:
 1701              	.LBE266:
 1702              		.loc 1 1125 41 view .LVU450
 1703 001e C000     		lsls	r0, r0, #3
 1704              	.LVL205:
 1705              		.loc 1 1125 41 view .LVU451
 1706 0020 1018     		adds	r0, r2, r0
 1707              	.LBB279:
 1708              	.LBB276:
 1709              	.LBB273:
 1710              	.LBB270:
ARM GAS  /tmp/ccLkBuQr.s 			page 31


 1711              		.loc 1 745 33 view .LVU452
 1712 0022 1B88     		ldrh	r3, [r3]
 1713              	.LBE270:
 1714              	.LBE273:
 1715              	.LBE276:
 1716              	.LBE279:
 1717              		.loc 1 1125 41 view .LVU453
 1718 0024 6044     		add	r0, r0, ip
 1719              		.loc 1 1128 15 view .LVU454
 1720 0026 8C46     		mov	ip, r1
 1721              	.LBB280:
 1722              	.LBB281:
 1723              	.LBB282:
 1724              	.LBB283:
 1725              		.loc 1 745 33 view .LVU455
 1726 0028 5449     		ldr	r1, .L158+16
 1727              	.LBE283:
 1728              	.LBE282:
 1729              	.LBE281:
 1730              	.LBE280:
 1731              	.LBE317:
 1732              		.loc 1 1117 13 view .LVU456
 1733 002a 83B0     		sub	sp, sp, #12
 1734              		.cfi_def_cfa_offset 48
 1735              	.LBB318:
 1736              	.LBB293:
 1737              	.LBB277:
 1738              	.LBB274:
 1739              	.LBB271:
 1740              		.loc 1 745 33 view .LVU457
 1741 002c 0193     		str	r3, [sp, #4]
 1742              	.LBE271:
 1743              	.LBE274:
 1744              	.LBE277:
 1745              	.LBE293:
 1746              	.LBB294:
 1747              	.LBB290:
 1748              	.LBB287:
 1749              	.LBB284:
 1750 002e 8846     		mov	r8, r1
 1751              	.LBE284:
 1752              	.LBE287:
 1753              	.LBE290:
 1754              	.LBE294:
 1755              	.LBE318:
 1756              		.loc 1 1122 12 view .LVU458
 1757 0030 0023     		movs	r3, #0
 1758              	.LBB319:
 1759              	.LBB295:
 1760              	.LBB296:
 1761              	.LBB297:
 1762              	.LBB298:
 1763              		.loc 1 745 33 view .LVU459
 1764 0032 0090     		str	r0, [sp]
 1765              	.LVL206:
 1766              	.L141:
 1767              		.loc 1 745 33 view .LVU460
ARM GAS  /tmp/ccLkBuQr.s 			page 32


 1768              	.LBE298:
 1769              	.LBE297:
 1770              	.LBE296:
 1771              	.LBE295:
 1772              		.loc 1 1123 9 is_stmt 1 view .LVU461
 1773              		.loc 1 1123 12 is_stmt 0 view .LVU462
 1774 0034 1178     		ldrb	r1, [r2]
 1775 0036 0029     		cmp	r1, #0
 1776 0038 6FD0     		beq	.L136
 1777              		.loc 1 1125 9 is_stmt 1 view .LVU463
 1778              		.loc 1 1125 18 is_stmt 0 view .LVU464
 1779 003a 0099     		ldr	r1, [sp]
 1780 003c 0024     		movs	r4, #0
 1781 003e 0C5F     		ldrsh	r4, [r1, r4]
 1782              	.LVL207:
 1783              		.loc 1 1126 9 is_stmt 1 view .LVU465
 1784              		.loc 1 1126 12 is_stmt 0 view .LVU466
 1785 0040 642C     		cmp	r4, #100
 1786 0042 6AD8     		bhi	.L136
 1787              		.loc 1 1128 9 is_stmt 1 view .LVU467
 1788              		.loc 1 1128 15 is_stmt 0 view .LVU468
 1789 0044 6521     		movs	r1, #101
 1790 0046 5943     		muls	r1, r3
 1791 0048 0919     		adds	r1, r1, r4
 1792 004a 6446     		mov	r4, ip
 1793              	.LVL208:
 1794              		.loc 1 1128 15 view .LVU469
 1795 004c 8900     		lsls	r1, r1, #2
 1796 004e 0D59     		ldr	r5, [r1, r4]
 1797              	.LVL209:
 1798              		.loc 1 1129 9 is_stmt 1 view .LVU470
 1799              		.loc 1 1129 17 is_stmt 0 view .LVU471
 1800 0050 F824     		movs	r4, #248
 1801 0052 1F27     		movs	r7, #31
 1802 0054 6E09     		lsrs	r6, r5, #5
 1803 0056 A90D     		lsrs	r1, r5, #22
 1804 0058 A400     		lsls	r4, r4, #2
 1805 005a 3E40     		ands	r6, r7
 1806 005c 2140     		ands	r1, r4
 1807 005e 3143     		orrs	r1, r6
 1808              	.LVL210:
 1809              		.loc 1 1130 9 is_stmt 1 view .LVU472
 1810              		.loc 1 1130 17 is_stmt 0 view .LVU473
 1811 0060 6E0C     		lsrs	r6, r5, #17
 1812 0062 3440     		ands	r4, r6
 1813 0064 3D40     		ands	r5, r7
 1814              	.LVL211:
 1815              		.loc 1 1130 17 view .LVU474
 1816 0066 2C43     		orrs	r4, r5
 1817              	.LVL212:
 1818              		.loc 1 1131 9 is_stmt 1 view .LVU475
 1819              		.loc 1 1131 13 is_stmt 0 view .LVU476
 1820 0068 4D11     		asrs	r5, r1, #5
 1821 006a A946     		mov	r9, r5
 1822              	.LVL213:
 1823              		.loc 1 1132 9 is_stmt 1 view .LVU477
 1824              		.loc 1 1132 13 is_stmt 0 view .LVU478
ARM GAS  /tmp/ccLkBuQr.s 			page 33


 1825 006c 6611     		asrs	r6, r4, #5
 1826              	.LVL214:
 1827              		.loc 1 1133 9 is_stmt 1 view .LVU479
 1828              	.LBB302:
 1829              	.LBI266:
 1830              		.loc 1 742 20 view .LVU480
 1831              	.LBB278:
 1832              		.loc 1 744 3 view .LVU481
 1833 006e 3940     		ands	r1, r7
 1834              	.LVL215:
 1835              		.loc 1 744 6 is_stmt 0 view .LVU482
 1836 0070 072E     		cmp	r6, #7
 1837 0072 28DC     		bgt	.L138
 1838              		.loc 1 744 33 view .LVU483
 1839 0074 0F2D     		cmp	r5, #15
 1840 0076 0FDC     		bgt	.L139
 1841              	.LVL216:
 1842              	.LBB275:
 1843              	.LBI268:
 1844              		.loc 1 742 20 is_stmt 1 view .LVU484
 1845              	.LBB272:
 1846              		.loc 1 745 5 view .LVU485
 1847              		.loc 1 745 37 is_stmt 0 view .LVU486
 1848 0078 4846     		mov	r0, r9
 1849              		.loc 1 745 33 view .LVU487
 1850 007a 404D     		ldr	r5, .L158+16
 1851              	.LVL217:
 1852              		.loc 1 745 37 view .LVU488
 1853 007c 1E3F     		subs	r7, r7, #30
 1854              	.LVL218:
 1855              		.loc 1 745 33 view .LVU489
 1856 007e AA46     		mov	r10, r5
 1857              		.loc 1 745 37 view .LVU490
 1858 0080 8740     		lsls	r7, r7, r0
 1859              		.loc 1 745 33 view .LVU491
 1860 0082 5046     		mov	r0, r10
 1861              	.LVL219:
 1862              		.loc 1 745 37 view .LVU492
 1863 0084 BB46     		mov	fp, r7
 1864              		.loc 1 745 33 view .LVU493
 1865 0086 019D     		ldr	r5, [sp, #4]
 1866 0088 ED00     		lsls	r5, r5, #3
 1867 008a AD19     		adds	r5, r5, r6
 1868 008c 6D00     		lsls	r5, r5, #1
 1869 008e 2F5A     		ldrh	r7, [r5, r0]
 1870 0090 5846     		mov	r0, fp
 1871 0092 0743     		orrs	r7, r0
 1872 0094 5046     		mov	r0, r10
 1873 0096 2F52     		strh	r7, [r5, r0]
 1874              	.LVL220:
 1875              	.L139:
 1876              		.loc 1 745 33 view .LVU494
 1877              	.LBE272:
 1878              	.LBE275:
 1879              	.LBE278:
 1880              	.LBE302:
 1881              		.loc 1 1134 9 is_stmt 1 view .LVU495
ARM GAS  /tmp/ccLkBuQr.s 			page 34


 1882              		.loc 1 1134 12 is_stmt 0 view .LVU496
 1883 0098 0529     		cmp	r1, #5
 1884 009a 49DD     		ble	.L146
 1885              		.loc 1 1136 9 is_stmt 1 view .LVU497
 1886              		.loc 1 1136 12 is_stmt 0 view .LVU498
 1887 009c 1A29     		cmp	r1, #26
 1888 009e 12DD     		ble	.L138
 1889              		.loc 1 1137 13 is_stmt 1 view .LVU499
 1890 00a0 4846     		mov	r0, r9
 1891 00a2 471C     		adds	r7, r0, #1
 1892              	.LVL221:
 1893              	.LBB303:
 1894              	.LBI303:
 1895              		.loc 1 742 20 view .LVU500
 1896              	.LBB304:
 1897              		.loc 1 744 3 view .LVU501
 1898              		.loc 1 744 33 is_stmt 0 view .LVU502
 1899 00a4 0F2F     		cmp	r7, #15
 1900 00a6 0EDC     		bgt	.L138
 1901              	.LVL222:
 1902              	.L150:
 1903              	.LBB305:
 1904              	.LBI305:
 1905              		.loc 1 742 20 is_stmt 1 view .LVU503
 1906              	.LBB306:
 1907              		.loc 1 745 5 view .LVU504
 1908              		.loc 1 745 33 is_stmt 0 view .LVU505
 1909 00a8 3448     		ldr	r0, .L158+16
 1910              	.LVL223:
 1911              		.loc 1 745 33 view .LVU506
 1912 00aa 8246     		mov	r10, r0
 1913 00ac 0198     		ldr	r0, [sp, #4]
 1914 00ae C500     		lsls	r5, r0, #3
 1915              		.loc 1 745 37 view .LVU507
 1916 00b0 0120     		movs	r0, #1
 1917 00b2 B840     		lsls	r0, r0, r7
 1918 00b4 8346     		mov	fp, r0
 1919              		.loc 1 745 33 view .LVU508
 1920 00b6 5046     		mov	r0, r10
 1921 00b8 AD19     		adds	r5, r5, r6
 1922 00ba 6D00     		lsls	r5, r5, #1
 1923 00bc 2F5A     		ldrh	r7, [r5, r0]
 1924              	.LVL224:
 1925              		.loc 1 745 33 view .LVU509
 1926 00be 5846     		mov	r0, fp
 1927 00c0 0743     		orrs	r7, r0
 1928 00c2 5046     		mov	r0, r10
 1929 00c4 2F52     		strh	r7, [r5, r0]
 1930              	.LVL225:
 1931              	.L138:
 1932              		.loc 1 745 33 view .LVU510
 1933              	.LBE306:
 1934              	.LBE305:
 1935              	.LBE304:
 1936              	.LBE303:
 1937              		.loc 1 1138 9 is_stmt 1 view .LVU511
 1938              		.loc 1 1138 15 is_stmt 0 view .LVU512
ARM GAS  /tmp/ccLkBuQr.s 			page 35


 1939 00c6 1F25     		movs	r5, #31
 1940              	.LVL226:
 1941              		.loc 1 1138 15 view .LVU513
 1942 00c8 2C40     		ands	r4, r5
 1943              	.LVL227:
 1944              		.loc 1 1138 12 view .LVU514
 1945 00ca 0B2C     		cmp	r4, #11
 1946 00cc 25DC     		bgt	.L136
 1947              		.loc 1 1139 13 is_stmt 1 view .LVU515
 1948 00ce 013E     		subs	r6, r6, #1
 1949              	.LVL228:
 1950              	.LBB307:
 1951              	.LBI307:
 1952              		.loc 1 742 20 view .LVU516
 1953              	.LBB308:
 1954              		.loc 1 744 3 view .LVU517
 1955              		.loc 1 744 6 is_stmt 0 view .LVU518
 1956 00d0 072E     		cmp	r6, #7
 1957 00d2 22D8     		bhi	.L136
 1958              		.loc 1 744 33 view .LVU519
 1959 00d4 4846     		mov	r0, r9
 1960 00d6 0F28     		cmp	r0, #15
 1961 00d8 0CDC     		bgt	.L140
 1962              	.LVL229:
 1963              	.LBB309:
 1964              	.LBI309:
 1965              		.loc 1 742 20 is_stmt 1 view .LVU520
 1966              	.LBB310:
 1967              		.loc 1 745 5 view .LVU521
 1968              		.loc 1 745 33 is_stmt 0 view .LVU522
 1969 00da 2848     		ldr	r0, .L158+16
 1970              	.LVL230:
 1971              		.loc 1 745 37 view .LVU523
 1972 00dc 0127     		movs	r7, #1
 1973              		.loc 1 745 33 view .LVU524
 1974 00de 8246     		mov	r10, r0
 1975 00e0 0198     		ldr	r0, [sp, #4]
 1976 00e2 C400     		lsls	r4, r0, #3
 1977              		.loc 1 745 37 view .LVU525
 1978 00e4 4846     		mov	r0, r9
 1979 00e6 8740     		lsls	r7, r7, r0
 1980              		.loc 1 745 33 view .LVU526
 1981 00e8 5046     		mov	r0, r10
 1982 00ea A419     		adds	r4, r4, r6
 1983 00ec 6400     		lsls	r4, r4, #1
 1984 00ee 255A     		ldrh	r5, [r4, r0]
 1985              	.LVL231:
 1986              		.loc 1 745 33 view .LVU527
 1987 00f0 3D43     		orrs	r5, r7
 1988 00f2 2552     		strh	r5, [r4, r0]
 1989              	.LVL232:
 1990              	.L140:
 1991              		.loc 1 745 33 view .LVU528
 1992              	.LBE310:
 1993              	.LBE309:
 1994              	.LBE308:
 1995              	.LBE307:
ARM GAS  /tmp/ccLkBuQr.s 			page 36


 1996              		.loc 1 1140 13 is_stmt 1 view .LVU529
 1997              		.loc 1 1140 16 is_stmt 0 view .LVU530
 1998 00f4 0529     		cmp	r1, #5
 1999 00f6 21DC     		bgt	.L156
 2000              		.loc 1 1141 17 is_stmt 1 view .LVU531
 2001              	.LVL233:
 2002              	.LBB311:
 2003              	.LBI295:
 2004              		.loc 1 742 20 view .LVU532
 2005              	.LBB301:
 2006              		.loc 1 744 3 view .LVU533
 2007              		.loc 1 744 23 is_stmt 0 view .LVU534
 2008 00f8 4946     		mov	r1, r9
 2009 00fa 4C1E     		subs	r4, r1, #1
 2010 00fc 0DD3     		bcc	.L136
 2011              	.LVL234:
 2012              		.loc 1 744 33 view .LVU535
 2013 00fe 0F2C     		cmp	r4, #15
 2014 0100 0BDC     		bgt	.L136
 2015              	.LVL235:
 2016              	.LBB300:
 2017              	.LBI297:
 2018              		.loc 1 742 20 is_stmt 1 view .LVU536
 2019              	.LBB299:
 2020              		.loc 1 745 5 view .LVU537
 2021              		.loc 1 745 33 is_stmt 0 view .LVU538
 2022 0102 0199     		ldr	r1, [sp, #4]
 2023              	.LVL236:
 2024              		.loc 1 745 33 view .LVU539
 2025 0104 1D48     		ldr	r0, .L158+16
 2026 0106 C900     		lsls	r1, r1, #3
 2027 0108 8E19     		adds	r6, r1, r6
 2028              	.LVL237:
 2029              		.loc 1 745 37 view .LVU540
 2030 010a 0121     		movs	r1, #1
 2031 010c A140     		lsls	r1, r1, r4
 2032 010e 0C00     		movs	r4, r1
 2033              	.LVL238:
 2034              		.loc 1 745 33 view .LVU541
 2035 0110 1A49     		ldr	r1, .L158+16
 2036 0112 7600     		lsls	r6, r6, #1
 2037 0114 715A     		ldrh	r1, [r6, r1]
 2038 0116 2143     		orrs	r1, r4
 2039 0118 3152     		strh	r1, [r6, r0]
 2040              	.LVL239:
 2041              	.L136:
 2042              		.loc 1 745 33 view .LVU542
 2043              	.LBE299:
 2044              	.LBE300:
 2045              	.LBE301:
 2046              	.LBE311:
 2047              	.LBE319:
 2048              		.loc 1 1122 35 view .LVU543
 2049 011a 0133     		adds	r3, r3, #1
 2050              	.LVL240:
 2051              		.loc 1 1122 35 view .LVU544
 2052 011c 0C32     		adds	r2, r2, #12
ARM GAS  /tmp/ccLkBuQr.s 			page 37


 2053              		.loc 1 1122 5 view .LVU545
 2054 011e 042B     		cmp	r3, #4
 2055 0120 88D1     		bne	.L141
 2056              	.L157:
 2057              		.loc 1 1146 1 view .LVU546
 2058 0122 03B0     		add	sp, sp, #12
 2059              		@ sp needed
 2060 0124 3CBC     		pop	{r2, r3, r4, r5}
 2061 0126 9046     		mov	r8, r2
 2062 0128 9946     		mov	r9, r3
 2063 012a A246     		mov	r10, r4
 2064 012c AB46     		mov	fp, r5
 2065 012e F0BD     		pop	{r4, r5, r6, r7, pc}
 2066              	.LVL241:
 2067              	.L146:
 2068              	.LBB320:
 2069              		.loc 1 1135 13 is_stmt 1 view .LVU547
 2070              	.LBB312:
 2071              	.LBI312:
 2072              		.loc 1 742 20 view .LVU548
 2073              	.LBB313:
 2074              		.loc 1 744 3 view .LVU549
 2075              		.loc 1 744 23 is_stmt 0 view .LVU550
 2076 0130 4846     		mov	r0, r9
 2077 0132 471E     		subs	r7, r0, #1
 2078 0134 C7D3     		bcc	.L138
 2079              	.LVL242:
 2080              		.loc 1 744 33 view .LVU551
 2081 0136 0F2F     		cmp	r7, #15
 2082 0138 C5DC     		bgt	.L138
 2083 013a B5E7     		b	.L150
 2084              	.LVL243:
 2085              	.L156:
 2086              		.loc 1 744 33 view .LVU552
 2087              	.LBE313:
 2088              	.LBE312:
 2089              		.loc 1 1142 13 is_stmt 1 view .LVU553
 2090              		.loc 1 1142 16 is_stmt 0 view .LVU554
 2091 013c 1A29     		cmp	r1, #26
 2092 013e ECDD     		ble	.L136
 2093              		.loc 1 1143 17 is_stmt 1 view .LVU555
 2094 0140 4C46     		mov	r4, r9
 2095 0142 0134     		adds	r4, r4, #1
 2096              	.LVL244:
 2097              	.LBB314:
 2098              	.LBI280:
 2099              		.loc 1 742 20 view .LVU556
 2100              	.LBB291:
 2101              		.loc 1 744 3 view .LVU557
 2102              		.loc 1 744 33 is_stmt 0 view .LVU558
 2103 0144 0F2C     		cmp	r4, #15
 2104 0146 E8DC     		bgt	.L136
 2105              	.LVL245:
 2106              	.LBB288:
 2107              	.LBI282:
 2108              		.loc 1 742 20 is_stmt 1 view .LVU559
 2109              	.LBB285:
ARM GAS  /tmp/ccLkBuQr.s 			page 38


 2110              		.loc 1 745 5 view .LVU560
 2111              		.loc 1 745 33 is_stmt 0 view .LVU561
 2112 0148 0199     		ldr	r1, [sp, #4]
 2113 014a 4046     		mov	r0, r8
 2114 014c C900     		lsls	r1, r1, #3
 2115 014e 8E19     		adds	r6, r1, r6
 2116              	.LVL246:
 2117              		.loc 1 745 37 view .LVU562
 2118 0150 0121     		movs	r1, #1
 2119 0152 A140     		lsls	r1, r1, r4
 2120 0154 0C00     		movs	r4, r1
 2121              	.LVL247:
 2122              		.loc 1 745 33 view .LVU563
 2123 0156 4146     		mov	r1, r8
 2124 0158 7600     		lsls	r6, r6, #1
 2125 015a 715A     		ldrh	r1, [r6, r1]
 2126              	.LBE285:
 2127              	.LBE288:
 2128              	.LBE291:
 2129              	.LBE314:
 2130              	.LBE320:
 2131              		.loc 1 1122 35 view .LVU564
 2132 015c 0133     		adds	r3, r3, #1
 2133              	.LVL248:
 2134              	.LBB321:
 2135              	.LBB315:
 2136              	.LBB292:
 2137              	.LBB289:
 2138              	.LBB286:
 2139              		.loc 1 745 33 view .LVU565
 2140 015e 2143     		orrs	r1, r4
 2141 0160 3152     		strh	r1, [r6, r0]
 2142 0162 0C32     		adds	r2, r2, #12
 2143              	.LBE286:
 2144              	.LBE289:
 2145              	.LBE292:
 2146              	.LBE315:
 2147              	.LBE321:
 2148              		.loc 1 1122 5 view .LVU566
 2149 0164 042B     		cmp	r3, #4
 2150 0166 00D0     		beq	.LCB2155
 2151 0168 64E7     		b	.L141	@long jump
 2152              	.LCB2155:
 2153 016a DAE7     		b	.L157
 2154              	.L159:
 2155              		.align	2
 2156              	.L158:
 2157 016c 92EEFFFF 		.word	-4462
 2158 0170 70110000 		.word	current_props+4464
 2159 0174 00000000 		.word	trace_index
 2160 0178 00000000 		.word	.LANCHOR0
 2161 017c 00000000 		.word	.LANCHOR1
 2162              		.cfi_endproc
 2163              	.LFE214:
 2164              		.size	markmap_marker.part.2, .-markmap_marker.part.2
 2165              		.section	.text.update_grid,"ax",%progbits
 2166              		.align	1
ARM GAS  /tmp/ccLkBuQr.s 			page 39


 2167              		.p2align 4,,15
 2168              		.global	update_grid
 2169              		.syntax unified
 2170              		.code	16
 2171              		.thumb_func
 2172              		.fpu softvfp
 2173              		.type	update_grid, %function
 2174              	update_grid:
 2175              	.LFB152:
 2176              		.loc 1 65 1 is_stmt 1 view -0
 2177              		.cfi_startproc
 2178              		@ args = 0, pretend = 0, frame = 0
 2179              		@ frame_needed = 0, uses_anonymous_args = 0
 2180              		.loc 1 66 3 view .LVU568
 2181              	.LVL249:
 2182              		.loc 1 67 3 view .LVU569
 2183              		.loc 1 68 3 view .LVU570
 2184              		.loc 1 69 3 view .LVU571
 2185              		.loc 1 65 1 is_stmt 0 view .LVU572
 2186 0000 F0B5     		push	{r4, r5, r6, r7, lr}
 2187              		.cfi_def_cfa_offset 20
 2188              		.cfi_offset 4, -20
 2189              		.cfi_offset 5, -16
 2190              		.cfi_offset 6, -12
 2191              		.cfi_offset 7, -8
 2192              		.cfi_offset 14, -4
 2193 0002 C646     		mov	lr, r8
 2194              		.loc 1 69 7 view .LVU573
 2195 0004 394B     		ldr	r3, .L169
 2196              		.loc 1 65 1 view .LVU574
 2197 0006 00B5     		push	{lr}
 2198              		.cfi_def_cfa_offset 24
 2199              		.cfi_offset 8, -24
 2200              		.loc 1 69 7 view .LVU575
 2201 0008 9D68     		ldr	r5, [r3, #8]
 2202 000a 5B68     		ldr	r3, [r3, #4]
 2203 000c 9846     		mov	r8, r3
 2204              		.loc 1 69 6 view .LVU576
 2205 000e 002D     		cmp	r5, #0
 2206 0010 64DD     		ble	.L161
 2207              		.loc 1 70 5 is_stmt 1 view .LVU577
 2208              	.LVL250:
 2209              		.loc 1 71 5 view .LVU578
 2210              		.loc 1 71 11 is_stmt 0 view .LVU579
 2211 0012 ED1A     		subs	r5, r5, r3
 2212              	.LVL251:
 2213              	.L162:
 2214              		.loc 1 65 1 view .LVU580
 2215 0014 364C     		ldr	r4, .L169+4
 2216              	.LVL252:
 2217              		.loc 1 78 5 is_stmt 1 view .LVU581
 2218              		.loc 1 79 15 is_stmt 0 view .LVU582
 2219 0016 2800     		movs	r0, r5
 2220              		.loc 1 78 10 view .LVU583
 2221 0018 A600     		lsls	r6, r4, #2
 2222 001a 3619     		adds	r6, r6, r4
 2223              	.LVL253:
ARM GAS  /tmp/ccLkBuQr.s 			page 40


 2224              		.loc 1 79 5 is_stmt 1 view .LVU584
 2225              		.loc 1 79 15 is_stmt 0 view .LVU585
 2226 001c 3100     		movs	r1, r6
 2227              		.loc 1 65 1 view .LVU586
 2228 001e 0627     		movs	r7, #6
 2229              		.loc 1 79 15 view .LVU587
 2230 0020 FFF7FEFF 		bl	__aeabi_idiv
 2231              	.LVL254:
 2232              		.loc 1 79 8 view .LVU588
 2233 0024 0328     		cmp	r0, #3
 2234 0026 1CDC     		bgt	.L166
 2235              	.L168:
 2236              		.loc 1 81 5 is_stmt 1 view .LVU589
 2237              		.loc 1 81 10 is_stmt 0 view .LVU590
 2238 0028 6600     		lsls	r6, r4, #1
 2239              	.LVL255:
 2240              		.loc 1 82 5 is_stmt 1 view .LVU591
 2241              		.loc 1 82 15 is_stmt 0 view .LVU592
 2242 002a 3100     		movs	r1, r6
 2243 002c 2800     		movs	r0, r5
 2244 002e FFF7FEFF 		bl	__aeabi_idiv
 2245              	.LVL256:
 2246              		.loc 1 82 8 view .LVU593
 2247 0032 0328     		cmp	r0, #3
 2248 0034 15DC     		bgt	.L166
 2249              		.loc 1 84 5 is_stmt 1 view .LVU594
 2250              	.LVL257:
 2251              		.loc 1 85 5 view .LVU595
 2252              		.loc 1 85 15 is_stmt 0 view .LVU596
 2253 0036 2100     		movs	r1, r4
 2254 0038 2800     		movs	r0, r5
 2255 003a FFF7FEFF 		bl	__aeabi_idiv
 2256              	.LVL258:
 2257              		.loc 1 85 8 view .LVU597
 2258 003e 0328     		cmp	r0, #3
 2259 0040 10DC     		bgt	.L163
 2260              		.loc 1 87 5 is_stmt 1 view .LVU598
 2261              		.loc 1 87 12 is_stmt 0 view .LVU599
 2262 0042 0A21     		movs	r1, #10
 2263 0044 2000     		movs	r0, r4
 2264 0046 013F     		subs	r7, r7, #1
 2265 0048 FFF7FEFF 		bl	__aeabi_idiv
 2266              	.LVL259:
 2267              		.loc 1 77 9 view .LVU600
 2268 004c 002F     		cmp	r7, #0
 2269 004e 09D0     		beq	.L163
 2270              		.loc 1 87 12 view .LVU601
 2271 0050 0400     		movs	r4, r0
 2272              	.LVL260:
 2273              		.loc 1 78 5 is_stmt 1 view .LVU602
 2274              		.loc 1 78 10 is_stmt 0 view .LVU603
 2275 0052 A600     		lsls	r6, r4, #2
 2276 0054 3619     		adds	r6, r6, r4
 2277              	.LVL261:
 2278              		.loc 1 79 5 is_stmt 1 view .LVU604
 2279              		.loc 1 79 15 is_stmt 0 view .LVU605
 2280 0056 3100     		movs	r1, r6
ARM GAS  /tmp/ccLkBuQr.s 			page 41


 2281 0058 2800     		movs	r0, r5
 2282              	.LVL262:
 2283              		.loc 1 79 15 view .LVU606
 2284 005a FFF7FEFF 		bl	__aeabi_idiv
 2285              	.LVL263:
 2286              		.loc 1 79 8 view .LVU607
 2287 005e 0328     		cmp	r0, #3
 2288 0060 E2DD     		ble	.L168
 2289              	.L166:
 2290              		.loc 1 81 10 view .LVU608
 2291 0062 3400     		movs	r4, r6
 2292              	.LVL264:
 2293              	.L163:
 2294              		.loc 1 89 3 is_stmt 1 view .LVU609
 2295              		.loc 1 91 3 view .LVU610
 2296              		.loc 1 91 38 is_stmt 0 view .LVU611
 2297 0064 4046     		mov	r0, r8
 2298 0066 2100     		movs	r1, r4
 2299 0068 FFF7FEFF 		bl	__aeabi_idivmod
 2300              	.LVL265:
 2301 006c 0800     		movs	r0, r1
 2302              		.loc 1 91 47 view .LVU612
 2303 006e 6421     		movs	r1, #100
 2304 0070 FFF7FEFF 		bl	__aeabi_idiv
 2305              	.LVL266:
 2306              		.loc 1 91 27 view .LVU613
 2307 0074 C600     		lsls	r6, r0, #3
 2308 0076 3618     		adds	r6, r6, r0
 2309 0078 3601     		lsls	r6, r6, #4
 2310 007a 3618     		adds	r6, r6, r0
 2311              		.loc 1 91 63 view .LVU614
 2312 007c 6421     		movs	r1, #100
 2313 007e 2800     		movs	r0, r5
 2314 0080 FFF7FEFF 		bl	__aeabi_idiv
 2315              	.LVL267:
 2316              		.loc 1 91 27 view .LVU615
 2317 0084 7600     		lsls	r6, r6, #1
 2318              		.loc 1 91 63 view .LVU616
 2319 0086 0100     		movs	r1, r0
 2320              		.loc 1 91 54 view .LVU617
 2321 0088 3000     		movs	r0, r6
 2322 008a FFF7FEFF 		bl	__aeabi_idiv
 2323              	.LVL268:
 2324              		.loc 1 91 15 view .LVU618
 2325 008e 194B     		ldr	r3, .L169+8
 2326              		.loc 1 92 35 view .LVU619
 2327 0090 6421     		movs	r1, #100
 2328              		.loc 1 91 15 view .LVU620
 2329 0092 1880     		strh	r0, [r3]
 2330              		.loc 1 92 3 is_stmt 1 view .LVU621
 2331              		.loc 1 92 35 is_stmt 0 view .LVU622
 2332 0094 2000     		movs	r0, r4
 2333 0096 FFF7FEFF 		bl	__aeabi_idiv
 2334              	.LVL269:
 2335              		.loc 1 92 51 view .LVU623
 2336 009a FA21     		movs	r1, #250
 2337              		.loc 1 92 26 view .LVU624
ARM GAS  /tmp/ccLkBuQr.s 			page 42


 2338 009c C400     		lsls	r4, r0, #3
 2339              	.LVL270:
 2340              		.loc 1 92 26 view .LVU625
 2341 009e 2418     		adds	r4, r4, r0
 2342 00a0 2401     		lsls	r4, r4, #4
 2343 00a2 2418     		adds	r4, r4, r0
 2344              		.loc 1 92 51 view .LVU626
 2345 00a4 8900     		lsls	r1, r1, #2
 2346 00a6 2800     		movs	r0, r5
 2347 00a8 FFF7FEFF 		bl	__aeabi_idiv
 2348              	.LVL271:
 2349              		.loc 1 92 26 view .LVU627
 2350 00ac 6400     		lsls	r4, r4, #1
 2351              		.loc 1 92 51 view .LVU628
 2352 00ae 0100     		movs	r1, r0
 2353              		.loc 1 92 42 view .LVU629
 2354 00b0 2000     		movs	r0, r4
 2355 00b2 FFF7FEFF 		bl	__aeabi_idiv
 2356              	.LVL272:
 2357              		.loc 1 92 14 view .LVU630
 2358 00b6 104B     		ldr	r3, .L169+12
 2359              	.LBB322:
 2360              	.LBB323:
 2361              		.loc 1 771 3 view .LVU631
 2362 00b8 1022     		movs	r2, #16
 2363              	.LBE323:
 2364              	.LBE322:
 2365              		.loc 1 92 14 view .LVU632
 2366 00ba 1880     		strh	r0, [r3]
 2367              		.loc 1 94 3 is_stmt 1 view .LVU633
 2368              	.LBB325:
 2369              	.LBI322:
 2370              		.loc 1 769 13 view .LVU634
 2371              	.LBB324:
 2372              		.loc 1 771 3 view .LVU635
 2373              		.loc 1 771 17 is_stmt 0 view .LVU636
 2374 00bc 0F4B     		ldr	r3, .L169+16
 2375 00be 1048     		ldr	r0, .L169+20
 2376 00c0 1B88     		ldrh	r3, [r3]
 2377              		.loc 1 771 3 view .LVU637
 2378 00c2 FF21     		movs	r1, #255
 2379              		.loc 1 771 17 view .LVU638
 2380 00c4 1B01     		lsls	r3, r3, #4
 2381 00c6 C018     		adds	r0, r0, r3
 2382              		.loc 1 771 3 view .LVU639
 2383 00c8 FFF7FEFF 		bl	memset
 2384              	.LVL273:
 2385              	.LBE324:
 2386              	.LBE325:
 2387              		.loc 1 95 3 is_stmt 1 view .LVU640
 2388              		.loc 1 95 18 is_stmt 0 view .LVU641
 2389 00cc 0221     		movs	r1, #2
 2390 00ce 0D4A     		ldr	r2, .L169+24
 2391              		.loc 1 96 1 view .LVU642
 2392              		@ sp needed
 2393              		.loc 1 95 18 view .LVU643
 2394 00d0 1388     		ldrh	r3, [r2]
ARM GAS  /tmp/ccLkBuQr.s 			page 43


 2395 00d2 0B43     		orrs	r3, r1
 2396 00d4 1380     		strh	r3, [r2]
 2397              	.LVL274:
 2398              	.LVL275:
 2399              		.loc 1 96 1 view .LVU644
 2400 00d6 04BC     		pop	{r2}
 2401 00d8 9046     		mov	r8, r2
 2402 00da F0BD     		pop	{r4, r5, r6, r7, pc}
 2403              	.LVL276:
 2404              	.L161:
 2405              		.loc 1 73 5 is_stmt 1 view .LVU645
 2406              		.loc 1 74 12 is_stmt 0 view .LVU646
 2407 00dc 4246     		mov	r2, r8
 2408              		.loc 1 73 11 view .LVU647
 2409 00de 6D42     		rsbs	r5, r5, #0
 2410              	.LVL277:
 2411              		.loc 1 74 5 is_stmt 1 view .LVU648
 2412              		.loc 1 74 32 is_stmt 0 view .LVU649
 2413 00e0 EB0F     		lsrs	r3, r5, #31
 2414 00e2 5B19     		adds	r3, r3, r5
 2415 00e4 5B10     		asrs	r3, r3, #1
 2416              		.loc 1 74 12 view .LVU650
 2417 00e6 D31A     		subs	r3, r2, r3
 2418 00e8 9846     		mov	r8, r3
 2419              	.LVL278:
 2420              		.loc 1 74 12 view .LVU651
 2421 00ea 93E7     		b	.L162
 2422              	.L170:
 2423              		.align	2
 2424              	.L169:
 2425 00ec 00000000 		.word	current_props
 2426 00f0 00E1F505 		.word	100000000
 2427 00f4 00000000 		.word	.LANCHOR2
 2428 00f8 00000000 		.word	.LANCHOR3
 2429 00fc 00000000 		.word	.LANCHOR0
 2430 0100 00000000 		.word	.LANCHOR1
 2431 0104 00000000 		.word	redraw_request
 2432              		.cfi_endproc
 2433              	.LFE152:
 2434              		.size	update_grid, .-update_grid
 2435              		.section	.text.trace_get_info,"ax",%progbits
 2436              		.align	1
 2437              		.p2align 4,,15
 2438              		.global	trace_get_info
 2439              		.syntax unified
 2440              		.code	16
 2441              		.thumb_func
 2442              		.fpu softvfp
 2443              		.type	trace_get_info, %function
 2444              	trace_get_info:
 2445              	.LVL279:
 2446              	.LFB173:
 2447              		.loc 1 709 1 is_stmt 1 view -0
 2448              		.cfi_startproc
 2449              		@ args = 0, pretend = 0, frame = 0
 2450              		@ frame_needed = 0, uses_anonymous_args = 0
 2451              		.loc 1 710 3 view .LVU653
ARM GAS  /tmp/ccLkBuQr.s 			page 44


 2452              		.loc 1 709 1 is_stmt 0 view .LVU654
 2453 0000 F0B5     		push	{r4, r5, r6, r7, lr}
 2454              		.cfi_def_cfa_offset 20
 2455              		.cfi_offset 4, -20
 2456              		.cfi_offset 5, -16
 2457              		.cfi_offset 6, -12
 2458              		.cfi_offset 7, -8
 2459              		.cfi_offset 14, -4
 2460 0002 0400     		movs	r4, r0
 2461 0004 83B0     		sub	sp, sp, #12
 2462              		.cfi_def_cfa_offset 32
 2463              		.loc 1 709 1 view .LVU655
 2464 0006 1600     		movs	r6, r2
 2465 0008 0D00     		movs	r5, r1
 2466              		.loc 1 710 22 view .LVU656
 2467 000a FFF7FEFF 		bl	get_trace_typename
 2468              	.LVL280:
 2469              		.loc 1 712 19 view .LVU657
 2470 000e 6300     		lsls	r3, r4, #1
 2471 0010 1B19     		adds	r3, r3, r4
 2472 0012 9A00     		lsls	r2, r3, #2
 2473 0014 244B     		ldr	r3, .L178
 2474              		.loc 1 710 22 view .LVU658
 2475 0016 0700     		movs	r7, r0
 2476              	.LVL281:
 2477              		.loc 1 711 3 is_stmt 1 view .LVU659
 2478              		.loc 1 712 3 view .LVU660
 2479              		.loc 1 712 19 is_stmt 0 view .LVU661
 2480 0018 9B18     		adds	r3, r3, r2
 2481 001a 244A     		ldr	r2, .L178+4
 2482 001c 9446     		mov	ip, r2
 2483 001e 6344     		add	r3, r3, ip
 2484 0020 1B78     		ldrb	r3, [r3]
 2485              		.loc 1 712 3 view .LVU662
 2486 0022 012B     		cmp	r3, #1
 2487 0024 13D0     		beq	.L172
 2488 0026 002B     		cmp	r3, #0
 2489 0028 30D0     		beq	.L173
 2490 002a 033B     		subs	r3, r3, #3
 2491 002c 012B     		cmp	r3, #1
 2492 002e 1BD8     		bhi	.L174
 2493              		.loc 1 722 5 is_stmt 1 view .LVU663
 2494              		.loc 1 722 45 is_stmt 0 view .LVU664
 2495 0030 2000     		movs	r0, r4
 2496              	.LVL282:
 2497              		.loc 1 722 45 view .LVU665
 2498 0032 FFF7FEFF 		bl	get_trace_scale
 2499              	.LVL283:
 2500              		.loc 1 722 5 view .LVU666
 2501 0036 FFF7FEFF 		bl	__aeabi_f2d
 2502              	.LVL284:
 2503 003a 3B00     		movs	r3, r7
 2504 003c 0090     		str	r0, [sp]
 2505 003e 0191     		str	r1, [sp, #4]
 2506 0040 1B4A     		ldr	r2, .L178+8
 2507 0042 3100     		movs	r1, r6
 2508 0044 2800     		movs	r0, r5
ARM GAS  /tmp/ccLkBuQr.s 			page 45


 2509 0046 FFF7FEFF 		bl	chsnprintf
 2510              	.LVL285:
 2511              		.loc 1 723 5 is_stmt 1 view .LVU667
 2512              	.L171:
 2513              		.loc 1 729 1 is_stmt 0 view .LVU668
 2514 004a 03B0     		add	sp, sp, #12
 2515              		@ sp needed
 2516              	.LVL286:
 2517              	.LVL287:
 2518              		.loc 1 729 1 view .LVU669
 2519 004c F0BD     		pop	{r4, r5, r6, r7, pc}
 2520              	.LVL288:
 2521              	.L172:
 2522              		.loc 1 717 5 is_stmt 1 view .LVU670
 2523              		.loc 1 717 59 is_stmt 0 view .LVU671
 2524 004e 2000     		movs	r0, r4
 2525              	.LVL289:
 2526              		.loc 1 717 59 view .LVU672
 2527 0050 FFF7FEFF 		bl	get_trace_scale
 2528              	.LVL290:
 2529              		.loc 1 717 5 view .LVU673
 2530 0054 FFF7FEFF 		bl	__aeabi_f2iz
 2531              	.LVL291:
 2532 0058 3B00     		movs	r3, r7
 2533 005a 0090     		str	r0, [sp]
 2534 005c 154A     		ldr	r2, .L178+12
 2535 005e 3100     		movs	r1, r6
 2536 0060 2800     		movs	r0, r5
 2537 0062 FFF7FEFF 		bl	chsnprintf
 2538              	.LVL292:
 2539              		.loc 1 718 5 is_stmt 1 view .LVU674
 2540 0066 F0E7     		b	.L171
 2541              	.LVL293:
 2542              	.L174:
 2543              		.loc 1 725 5 view .LVU675
 2544              		.loc 1 725 9 is_stmt 0 view .LVU676
 2545 0068 0300     		movs	r3, r0
 2546 006a 3100     		movs	r1, r6
 2547 006c 124A     		ldr	r2, .L178+16
 2548 006e 2800     		movs	r0, r5
 2549              	.LVL294:
 2550              		.loc 1 725 9 view .LVU677
 2551 0070 FFF7FEFF 		bl	chsnprintf
 2552              	.LVL295:
 2553              		.loc 1 726 5 is_stmt 1 view .LVU678
 2554 0074 2D18     		adds	r5, r5, r0
 2555              	.LVL296:
 2556              		.loc 1 726 5 is_stmt 0 view .LVU679
 2557 0076 361A     		subs	r6, r6, r0
 2558              	.LVL297:
 2559              		.loc 1 726 5 view .LVU680
 2560 0078 2000     		movs	r0, r4
 2561              	.LVL298:
 2562              		.loc 1 726 5 view .LVU681
 2563 007a FFF7FEFF 		bl	get_trace_scale
 2564              	.LVL299:
 2565 007e 2F23     		movs	r3, #47
ARM GAS  /tmp/ccLkBuQr.s 			page 46


 2566 0080 021C     		adds	r2, r0, #0
 2567 0082 3100     		movs	r1, r6
 2568 0084 2800     		movs	r0, r5
 2569 0086 FFF7FEFF 		bl	string_value_with_prefix
 2570              	.LVL300:
 2571              		.loc 1 727 5 is_stmt 1 view .LVU682
 2572              		.loc 1 729 1 is_stmt 0 view .LVU683
 2573 008a DEE7     		b	.L171
 2574              	.LVL301:
 2575              	.L173:
 2576              		.loc 1 714 5 is_stmt 1 view .LVU684
 2577              		.loc 1 714 49 is_stmt 0 view .LVU685
 2578 008c 2000     		movs	r0, r4
 2579              	.LVL302:
 2580              		.loc 1 714 49 view .LVU686
 2581 008e FFF7FEFF 		bl	get_trace_scale
 2582              	.LVL303:
 2583              		.loc 1 714 5 view .LVU687
 2584 0092 FFF7FEFF 		bl	__aeabi_f2iz
 2585              	.LVL304:
 2586 0096 3B00     		movs	r3, r7
 2587 0098 0090     		str	r0, [sp]
 2588 009a 084A     		ldr	r2, .L178+20
 2589 009c 3100     		movs	r1, r6
 2590 009e 2800     		movs	r0, r5
 2591 00a0 FFF7FEFF 		bl	chsnprintf
 2592              	.LVL305:
 2593              		.loc 1 715 5 is_stmt 1 view .LVU688
 2594 00a4 D1E7     		b	.L171
 2595              	.L179:
 2596 00a6 C046     		.align	2
 2597              	.L178:
 2598 00a8 00000000 		.word	current_props
 2599 00ac 71110000 		.word	4465
 2600 00b0 14000000 		.word	.LC34
 2601 00b4 0C000000 		.word	.LC32
 2602 00b8 20000000 		.word	.LC36
 2603 00bc 00000000 		.word	.LC30
 2604              		.cfi_endproc
 2605              	.LFE173:
 2606              		.size	trace_get_info, .-trace_get_info
 2607              		.global	__aeabi_fcmpeq
 2608              		.global	__aeabi_ui2d
 2609              		.global	__aeabi_i2f
 2610              		.global	__aeabi_i2d
 2611              		.global	__aeabi_dadd
 2612              		.section	.text.draw_all_cells,"ax",%progbits
 2613              		.align	1
 2614              		.p2align 4,,15
 2615              		.syntax unified
 2616              		.code	16
 2617              		.thumb_func
 2618              		.fpu softvfp
 2619              		.type	draw_all_cells, %function
 2620              	draw_all_cells:
 2621              	.LVL306:
 2622              	.LFB196:
ARM GAS  /tmp/ccLkBuQr.s 			page 47


 2623              		.loc 1 1291 1 view -0
 2624              		.cfi_startproc
 2625              		@ args = 0, pretend = 0, frame = 160
 2626              		@ frame_needed = 0, uses_anonymous_args = 0
 2627              		.loc 1 1292 3 view .LVU690
 2628              		.loc 1 1293 3 view .LVU691
 2629              		.loc 1 1291 1 is_stmt 0 view .LVU692
 2630 0000 F0B5     		push	{r4, r5, r6, r7, lr}
 2631              		.cfi_def_cfa_offset 20
 2632              		.cfi_offset 4, -20
 2633              		.cfi_offset 5, -16
 2634              		.cfi_offset 6, -12
 2635              		.cfi_offset 7, -8
 2636              		.cfi_offset 14, -4
 2637 0002 DE46     		mov	lr, fp
 2638 0004 5746     		mov	r7, r10
 2639 0006 4E46     		mov	r6, r9
 2640 0008 4546     		mov	r5, r8
 2641 000a E0B5     		push	{r5, r6, r7, lr}
 2642              		.cfi_def_cfa_offset 36
 2643              		.cfi_offset 8, -36
 2644              		.cfi_offset 9, -32
 2645              		.cfi_offset 10, -28
 2646              		.cfi_offset 11, -24
 2647              		.loc 1 1293 40 view .LVU693
 2648 000c CA4B     		ldr	r3, .L481
 2649              		.loc 1 1291 1 view .LVU694
 2650 000e ADB0     		sub	sp, sp, #180
 2651              		.cfi_def_cfa_offset 216
 2652              		.loc 1 1293 40 view .LVU695
 2653 0010 1A68     		ldr	r2, [r3]
 2654              		.loc 1 1291 1 view .LVU696
 2655 0012 2490     		str	r0, [sp, #144]
 2656              		.loc 1 1293 3 view .LVU697
 2657 0014 002A     		cmp	r2, #0
 2658 0016 01DC     		bgt	.LCB2583
 2659 0018 00F001FF 		bl	.L182	@far jump
 2660              	.LCB2583:
 2661 001c 9723     		movs	r3, #151
 2662 001e 5B42     		rsbs	r3, r3, #0
 2663 0020 1193     		str	r3, [sp, #68]
 2664 0022 9233     		adds	r3, r3, #146
 2665 0024 0C93     		str	r3, [sp, #48]
 2666 0026 2033     		adds	r3, r3, #32
 2667 0028 1793     		str	r3, [sp, #92]
 2668 002a C449     		ldr	r1, .L481+4
 2669              		.loc 1 1293 10 view .LVU698
 2670 002c 0023     		movs	r3, #0
 2671 002e 8C46     		mov	ip, r1
 2672 0030 1893     		str	r3, [sp, #96]
 2673 0032 C34B     		ldr	r3, .L481+8
 2674 0034 6344     		add	r3, r3, ip
 2675 0036 1B93     		str	r3, [sp, #108]
 2676              	.LVL307:
 2677              	.L181:
 2678              		.loc 1 1294 44 view .LVU699
 2679 0038 C24B     		ldr	r3, .L481+12
ARM GAS  /tmp/ccLkBuQr.s 			page 48


 2680 003a 1C68     		ldr	r4, [r3]
 2681              		.loc 1 1294 5 view .LVU700
 2682 003c 002C     		cmp	r4, #0
 2683 003e 01DC     		bgt	.LCB2609
 2684 0040 00F0D6FE 		bl	.L310	@far jump
 2685              	.LCB2609:
 2686              	.LBB458:
 2687              	.LBB459:
 2688              		.loc 1 750 19 view .LVU701
 2689 0044 0123     		movs	r3, #1
 2690 0046 1899     		ldr	r1, [sp, #96]
 2691 0048 8B40     		lsls	r3, r3, r1
 2692 004a 4901     		lsls	r1, r1, #5
 2693 004c 8B46     		mov	fp, r1
 2694 004e 0821     		movs	r1, #8
 2695              		.loc 1 750 12 view .LVU702
 2696 0050 98B2     		uxth	r0, r3
 2697 0052 1690     		str	r0, [sp, #88]
 2698 0054 0C98     		ldr	r0, [sp, #48]
 2699              	.LBE459:
 2700              	.LBE458:
 2701              	.LBB461:
 2702              	.LBB462:
 2703              	.LBB463:
 2704              	.LBB464:
 2705              	.LBB465:
 2706              	.LBB466:
 2707              	.LBB467:
 2708              	.LBB468:
 2709              		.loc 1 745 33 view .LVU703
 2710 0056 1BB2     		sxth	r3, r3
 2711 0058 091A     		subs	r1, r1, r0
 2712 005a 2191     		str	r1, [sp, #132]
 2713 005c 3921     		movs	r1, #57
 2714 005e 091A     		subs	r1, r1, r0
 2715 0060 2091     		str	r1, [sp, #128]
 2716 0062 C421     		movs	r1, #196
 2717 0064 091A     		subs	r1, r1, r0
 2718 0066 1F91     		str	r1, [sp, #124]
 2719 0068 2293     		str	r3, [sp, #136]
 2720 006a D221     		movs	r1, #210
 2721 006c B64B     		ldr	r3, .L481+16
 2722 006e 091A     		subs	r1, r1, r0
 2723 0070 0993     		str	r3, [sp, #36]
 2724              	.LBE468:
 2725              	.LBE467:
 2726              	.LBE466:
 2727              	.LBE465:
 2728              	.LBE464:
 2729              	.LBE463:
 2730              	.LBE462:
 2731              	.LBE461:
 2732              		.loc 1 1294 12 view .LVU704
 2733 0072 0023     		movs	r3, #0
 2734 0074 1E91     		str	r1, [sp, #120]
 2735 0076 BD21     		movs	r1, #189
 2736 0078 0893     		str	r3, [sp, #32]
ARM GAS  /tmp/ccLkBuQr.s 			page 49


 2737 007a 5B46     		mov	r3, fp
 2738 007c 091A     		subs	r1, r1, r0
 2739 007e 1230     		adds	r0, r0, #18
 2740 0080 2391     		str	r1, [sp, #140]
 2741 0082 1C90     		str	r0, [sp, #112]
 2742 0084 0693     		str	r3, [sp, #24]
 2743 0086 1EE0     		b	.L308
 2744              	.LVL308:
 2745              	.L464:
 2746              	.LBB776:
 2747              	.LBB772:
 2748              		.loc 1 1173 5 is_stmt 1 view .LVU705
 2749              		.loc 1 1173 7 is_stmt 0 view .LVU706
 2750 0088 0C99     		ldr	r1, [sp, #48]
 2751              		.loc 1 1174 6 view .LVU707
 2752 008a 2033     		adds	r3, r3, #32
 2753              	.LVL309:
 2754              		.loc 1 1173 7 view .LVU708
 2755 008c 511A     		subs	r1, r2, r1
 2756 008e 8B46     		mov	fp, r1
 2757              	.LVL310:
 2758              		.loc 1 1174 3 is_stmt 1 view .LVU709
 2759              		.loc 1 1174 6 is_stmt 0 view .LVU710
 2760 0090 A342     		cmp	r3, r4
 2761 0092 01DD     		ble	.LCB2690
 2762 0094 00F0A1FC 		bl	.L186	@far jump
 2763              	.LCB2690:
 2764              		.loc 1 1176 3 is_stmt 1 view .LVU711
 2765              		.loc 1 1176 6 is_stmt 0 view .LVU712
 2766 0098 0029     		cmp	r1, #0
 2767 009a 01DD     		ble	.LCB2695
 2768 009c 00F005FF 		bl	.L463	@far jump
 2769              	.LCB2695:
 2770              	.LVL311:
 2771              	.L184:
 2772              		.loc 1 1176 6 view .LVU713
 2773              	.LBE772:
 2774              	.LBE776:
 2775              		.loc 1 1294 44 discriminator 2 view .LVU714
 2776 00a0 A84B     		ldr	r3, .L481+12
 2777              		.loc 1 1294 63 discriminator 2 view .LVU715
 2778 00a2 089D     		ldr	r5, [sp, #32]
 2779              		.loc 1 1294 44 discriminator 2 view .LVU716
 2780 00a4 1C68     		ldr	r4, [r3]
 2781 00a6 099B     		ldr	r3, [sp, #36]
 2782 00a8 2100     		movs	r1, r4
 2783 00aa 0233     		adds	r3, r3, #2
 2784 00ac 0993     		str	r3, [sp, #36]
 2785              		.loc 1 1294 48 discriminator 2 view .LVU717
 2786 00ae 1F23     		movs	r3, #31
 2787              		.loc 1 1294 44 discriminator 2 view .LVU718
 2788 00b0 1F31     		adds	r1, r1, #31
 2789              		.loc 1 1294 48 discriminator 2 view .LVU719
 2790 00b2 C817     		asrs	r0, r1, #31
 2791 00b4 0340     		ands	r3, r0
 2792              		.loc 1 1294 63 discriminator 2 view .LVU720
 2793 00b6 0135     		adds	r5, r5, #1
ARM GAS  /tmp/ccLkBuQr.s 			page 50


 2794              		.loc 1 1294 48 discriminator 2 view .LVU721
 2795 00b8 5B18     		adds	r3, r3, r1
 2796              		.loc 1 1294 63 discriminator 2 view .LVU722
 2797 00ba 0895     		str	r5, [sp, #32]
 2798              	.LVL312:
 2799              		.loc 1 1294 48 discriminator 2 view .LVU723
 2800 00bc 5B11     		asrs	r3, r3, #5
 2801              		.loc 1 1294 5 discriminator 2 view .LVU724
 2802 00be AB42     		cmp	r3, r5
 2803 00c0 01DC     		bgt	.LCB2725
 2804 00c2 00F095FE 		bl	.L310	@far jump
 2805              	.LCB2725:
 2806              	.LVL313:
 2807              	.L308:
 2808              		.loc 1 1295 7 is_stmt 1 view .LVU725
 2809              	.LBB777:
 2810              	.LBI458:
 2811              		.loc 1 748 19 view .LVU726
 2812              	.LBB460:
 2813              		.loc 1 750 3 view .LVU727
 2814              		.loc 1 751 3 view .LVU728
 2815              		.loc 1 751 10 is_stmt 0 view .LVU729
 2816 00c6 0999     		ldr	r1, [sp, #36]
 2817              		.loc 1 751 32 view .LVU730
 2818 00c8 1698     		ldr	r0, [sp, #88]
 2819              		.loc 1 751 10 view .LVU731
 2820 00ca 0B88     		ldrh	r3, [r1]
 2821              		.loc 1 751 32 view .LVU732
 2822 00cc 0342     		tst	r3, r0
 2823 00ce 02D1     		bne	.L183
 2824 00d0 0B8A     		ldrh	r3, [r1, #16]
 2825 00d2 0342     		tst	r3, r0
 2826 00d4 E4D0     		beq	.L184
 2827              	.L183:
 2828              	.LBE460:
 2829              	.LBE777:
 2830              		.loc 1 1296 9 is_stmt 1 view .LVU733
 2831              	.LVL314:
 2832              	.LBB778:
 2833              	.LBI461:
 2834              		.loc 1 1160 13 view .LVU734
 2835              	.LBB773:
 2836              		.loc 1 1162 3 view .LVU735
 2837              		.loc 1 1163 3 view .LVU736
 2838 00d6 089B     		ldr	r3, [sp, #32]
 2839              		.loc 1 1172 6 is_stmt 0 view .LVU737
 2840 00d8 1799     		ldr	r1, [sp, #92]
 2841 00da 5B01     		lsls	r3, r3, #5
 2842 00dc 0493     		str	r3, [sp, #16]
 2843              	.LVL315:
 2844              		.loc 1 1164 3 is_stmt 1 view .LVU738
 2845              		.loc 1 1165 3 view .LVU739
 2846              		.loc 1 1166 3 view .LVU740
 2847              		.loc 1 1167 3 view .LVU741
 2848              		.loc 1 1168 3 view .LVU742
 2849              		.loc 1 1169 3 view .LVU743
 2850              		.loc 1 1170 3 view .LVU744
ARM GAS  /tmp/ccLkBuQr.s 			page 51


 2851              		.loc 1 1172 3 view .LVU745
 2852              		.loc 1 1172 6 is_stmt 0 view .LVU746
 2853 00de 9142     		cmp	r1, r2
 2854 00e0 D2DC     		bgt	.L464
 2855              		.loc 1 1174 3 is_stmt 1 view .LVU747
 2856              		.loc 1 1174 6 is_stmt 0 view .LVU748
 2857 00e2 049B     		ldr	r3, [sp, #16]
 2858              		.loc 1 1174 6 view .LVU749
 2859 00e4 2033     		adds	r3, r3, #32
 2860              	.LVL316:
 2861              		.loc 1 1174 6 view .LVU750
 2862 00e6 A342     		cmp	r3, r4
 2863 00e8 01DD     		ble	.LCB2790
 2864 00ea 00F06AFC 		bl	.L313	@far jump
 2865              	.LCB2790:
 2866              		.loc 1 1165 7 view .LVU751
 2867 00ee 2023     		movs	r3, #32
 2868 00f0 9B46     		mov	fp, r3
 2869              		.loc 1 1166 7 view .LVU752
 2870 00f2 9A46     		mov	r10, r3
 2871              	.LVL317:
 2872              	.L187:
 2873              		.loc 1 1179 3 is_stmt 1 view .LVU753
 2874 00f4 9548     		ldr	r0, .L481+20
 2875 00f6 FFF7FEFF 		bl	chMtxLock
 2876              	.LVL318:
 2877              		.loc 1 1180 3 view .LVU754
 2878              		.loc 1 1181 3 view .LVU755
 2879              		.loc 1 1181 3 is_stmt 0 view .LVU756
 2880 00fa 954B     		ldr	r3, .L481+24
 2881              		.loc 1 1180 12 view .LVU757
 2882 00fc 0026     		movs	r6, #0
 2883 00fe 1900     		movs	r1, r3
 2884              		.loc 1 1192 17 view .LVU758
 2885 0100 0120     		movs	r0, #1
 2886              		.loc 1 1190 17 view .LVU759
 2887 0102 0825     		movs	r5, #8
 2888              		.loc 1 1186 17 view .LVU760
 2889 0104 0224     		movs	r4, #2
 2890 0106 0F93     		str	r3, [sp, #60]
 2891 0108 3031     		adds	r1, r1, #48
 2892              	.LVL319:
 2893              	.L192:
 2894              		.loc 1 1182 5 is_stmt 1 view .LVU761
 2895              		.loc 1 1182 8 is_stmt 0 view .LVU762
 2896 010a 1A78     		ldrb	r2, [r3]
 2897 010c 002A     		cmp	r2, #0
 2898 010e 09D0     		beq	.L189
 2899              		.loc 1 1185 5 is_stmt 1 view .LVU763
 2900              		.loc 1 1185 17 is_stmt 0 view .LVU764
 2901 0110 5A78     		ldrb	r2, [r3, #1]
 2902              		.loc 1 1185 8 view .LVU765
 2903 0112 032A     		cmp	r2, #3
 2904 0114 01D1     		bne	.LCB2827
 2905 0116 00F04EFC 		bl	.L465	@far jump
 2906              	.LCB2827:
 2907              		.loc 1 1189 10 is_stmt 1 view .LVU766
ARM GAS  /tmp/ccLkBuQr.s 			page 52


 2908              		.loc 1 1189 13 is_stmt 0 view .LVU767
 2909 011a 042A     		cmp	r2, #4
 2910 011c 01D1     		bne	.LCB2830
 2911 011e 00F04DFC 		bl	.L466	@far jump
 2912              	.LCB2830:
 2913              		.loc 1 1192 7 is_stmt 1 view .LVU768
 2914              		.loc 1 1192 17 is_stmt 0 view .LVU769
 2915 0122 0643     		orrs	r6, r0
 2916              	.LVL320:
 2917              	.L189:
 2918              		.loc 1 1192 17 view .LVU770
 2919 0124 0C33     		adds	r3, r3, #12
 2920              		.loc 1 1181 3 view .LVU771
 2921 0126 9942     		cmp	r1, r3
 2922 0128 EFD1     		bne	.L192
 2923              		.loc 1 1195 3 is_stmt 1 view .LVU772
 2924 012a 8022     		movs	r2, #128
 2925 012c 894B     		ldr	r3, .L481+28
 2926 012e 9201     		lsls	r2, r2, #6
 2927 0130 5A83     		strh	r2, [r3, #26]
 2928              		.loc 1 1195 3 view .LVU773
 2929 0132 1A83     		strh	r2, [r3, #24]
 2930              		.loc 1 1195 8 view .LVU774
 2931              		.loc 1 1197 3 view .LVU775
 2932              		.loc 1 1197 6 is_stmt 0 view .LVU776
 2933 0134 F307     		lsls	r3, r6, #31
 2934 0136 01D4     		bmi	.LCB2858
 2935 0138 00F07CFE 		bl	.L193	@far jump
 2936              	.LCB2858:
 2937              	.LVL321:
 2938              		.loc 1 1197 6 view .LVU777
 2939 013c 864B     		ldr	r3, .L481+32
 2940              	.LBB598:
 2941              	.LBB599:
 2942              	.LBB600:
 2943              		.loc 1 371 33 view .LVU778
 2944 013e 0C9C     		ldr	r4, [sp, #48]
 2945 0140 1993     		str	r3, [sp, #100]
 2946 0142 9F88     		ldrh	r7, [r3, #4]
 2947 0144 854B     		ldr	r3, .L481+36
 2948 0146 0022     		movs	r2, #0
 2949 0148 9B5E     		ldrsh	r3, [r3, r2]
 2950 014a 0793     		str	r3, [sp, #28]
 2951 014c 844B     		ldr	r3, .L481+40
 2952 014e 1A93     		str	r3, [sp, #104]
 2953 0150 1D00     		movs	r5, r3
 2954 0152 069B     		ldr	r3, [sp, #24]
 2955 0154 053B     		subs	r3, r3, #5
 2956 0156 0D93     		str	r3, [sp, #52]
 2957 0158 5B44     		add	r3, r3, fp
 2958 015a 9846     		mov	r8, r3
 2959              		.loc 1 371 12 view .LVU779
 2960 015c 814B     		ldr	r3, .L481+44
 2961 015e 0022     		movs	r2, #0
 2962 0160 9B5E     		ldrsh	r3, [r3, r2]
 2963 0162 3A00     		movs	r2, r7
 2964 0164 0A93     		str	r3, [sp, #40]
ARM GAS  /tmp/ccLkBuQr.s 			page 53


 2965 0166 5B46     		mov	r3, fp
 2966 0168 5B00     		lsls	r3, r3, #1
 2967 016a 0593     		str	r3, [sp, #20]
 2968              		.loc 1 369 14 view .LVU780
 2969 016c 2423     		movs	r3, #36
 2970 016e FF33     		adds	r3, r3, #255
 2971 0170 9946     		mov	r9, r3
 2972 0172 5346     		mov	r3, r10
 2973 0174 4746     		mov	r7, r8
 2974 0176 B246     		mov	r10, r6
 2975 0178 9046     		mov	r8, r2
 2976 017a 1E00     		movs	r6, r3
 2977              	.LVL322:
 2978              	.L194:
 2979              		.loc 1 369 14 view .LVU781
 2980              	.LBE600:
 2981              	.LBE599:
 2982              		.loc 1 1199 7 is_stmt 1 view .LVU782
 2983              	.LBB605:
 2984              	.LBI599:
 2985              		.loc 1 364 12 view .LVU783
 2986              	.LBB601:
 2987              		.loc 1 366 3 view .LVU784
 2988              		.loc 1 367 3 view .LVU785
 2989              		.loc 1 367 6 is_stmt 0 view .LVU786
 2990 017c 002C     		cmp	r4, #0
 2991 017e 00DA     		bge	.LCB2911
 2992 0180 48E3     		b	.L323	@long jump
 2993              	.LCB2911:
 2994              		.loc 1 369 3 is_stmt 1 view .LVU787
 2995              		.loc 1 369 6 is_stmt 0 view .LVU788
 2996 0182 00D1     		bne	.LCB2914
 2997 0184 D0E2     		b	.L325	@long jump
 2998              	.LCB2914:
 2999              		.loc 1 369 14 view .LVU789
 3000 0186 4C45     		cmp	r4, r9
 3001 0188 00D1     		bne	.LCB2916
 3002 018a CDE2     		b	.L325	@long jump
 3003              	.LCB2916:
 3004              		.loc 1 371 3 is_stmt 1 view .LVU790
 3005              		.loc 1 371 33 is_stmt 0 view .LVU791
 3006 018c 0A9B     		ldr	r3, [sp, #40]
 3007 018e 0799     		ldr	r1, [sp, #28]
 3008 0190 1B19     		adds	r3, r3, r4
 3009 0192 9800     		lsls	r0, r3, #2
 3010 0194 C018     		adds	r0, r0, r3
 3011 0196 4000     		lsls	r0, r0, #1
 3012 0198 FFF7FEFF 		bl	__aeabi_idivmod
 3013              	.LVL323:
 3014              		.loc 1 371 6 view .LVU792
 3015 019c 0020     		movs	r0, #0
 3016 019e 0929     		cmp	r1, #9
 3017 01a0 00DC     		bgt	.LCB2927
 3018 01a2 C1E2     		b	.L325	@long jump
 3019              	.LCB2927:
 3020              	.L196:
 3021              	.LVL324:
ARM GAS  /tmp/ccLkBuQr.s 			page 54


 3022              		.loc 1 371 6 view .LVU793
 3023              	.LBE601:
 3024              	.LBE605:
 3025              		.loc 1 1200 7 is_stmt 1 view .LVU794
 3026              	.LBB606:
 3027              	.LBB602:
 3028              		.loc 1 371 6 is_stmt 0 view .LVU795
 3029 01a4 2A00     		movs	r2, r5
 3030              	.LBE602:
 3031              	.LBE606:
 3032              		.loc 1 1200 14 view .LVU796
 3033 01a6 0023     		movs	r3, #0
 3034              	.LVL325:
 3035              	.L197:
 3036              		.loc 1 1201 9 is_stmt 1 view .LVU797
 3037 01a8 0599     		ldr	r1, [sp, #20]
 3038              		.loc 1 1200 27 is_stmt 0 view .LVU798
 3039 01aa 0133     		adds	r3, r3, #1
 3040              	.LVL326:
 3041              		.loc 1 1200 27 view .LVU799
 3042 01ac 8C46     		mov	ip, r1
 3043              		.loc 1 1201 31 view .LVU800
 3044 01ae 1080     		strh	r0, [r2]
 3045 01b0 6244     		add	r2, r2, ip
 3046              		.loc 1 1200 7 view .LVU801
 3047 01b2 B342     		cmp	r3, r6
 3048 01b4 F8D1     		bne	.L197
 3049              	.LVL327:
 3050              		.loc 1 1200 7 view .LVU802
 3051 01b6 0134     		adds	r4, r4, #1
 3052              	.LVL328:
 3053              		.loc 1 1200 7 view .LVU803
 3054 01b8 0235     		adds	r5, r5, #2
 3055              	.LBE598:
 3056              		.loc 1 1198 5 view .LVU804
 3057 01ba BC42     		cmp	r4, r7
 3058 01bc DED1     		bne	.L194
 3059 01be 3300     		movs	r3, r6
 3060              	.LVL329:
 3061              		.loc 1 1198 5 view .LVU805
 3062 01c0 049C     		ldr	r4, [sp, #16]
 3063              	.LVL330:
 3064              		.loc 1 1198 5 view .LVU806
 3065 01c2 5646     		mov	r6, r10
 3066 01c4 9A46     		mov	r10, r3
 3067 01c6 2300     		movs	r3, r4
 3068 01c8 5344     		add	r3, r3, r10
 3069 01ca 9946     		mov	r9, r3
 3070 01cc 0D9B     		ldr	r3, [sp, #52]
 3071 01ce 4746     		mov	r7, r8
 3072 01d0 5B44     		add	r3, r3, fp
 3073 01d2 0793     		str	r3, [sp, #28]
 3074              	.LBB609:
 3075              		.loc 1 1206 12 view .LVU807
 3076 01d4 2423     		movs	r3, #36
 3077 01d6 FF33     		adds	r3, r3, #255
 3078 01d8 9846     		mov	r8, r3
ARM GAS  /tmp/ccLkBuQr.s 			page 55


 3079 01da 3B00     		movs	r3, r7
 3080 01dc 4F46     		mov	r7, r9
 3081 01de B146     		mov	r9, r6
 3082 01e0 1E00     		movs	r6, r3
 3083 01e2 1A9D     		ldr	r5, [sp, #104]
 3084              	.L195:
 3085              	.LVL331:
 3086              		.loc 1 1204 7 is_stmt 1 view .LVU808
 3087              	.LBB610:
 3088              	.LBI610:
 3089              		.loc 1 376 12 view .LVU809
 3090              	.LBB611:
 3091              		.loc 1 378 3 view .LVU810
 3092              		.loc 1 379 3 view .LVU811
 3093              		.loc 1 381 3 view .LVU812
 3094              		.loc 1 381 10 is_stmt 0 view .LVU813
 3095 01e4 1D21     		movs	r1, #29
 3096 01e6 2000     		movs	r0, r4
 3097 01e8 FFF7FEFF 		bl	__aeabi_idivmod
 3098              	.LVL332:
 3099              		.loc 1 381 6 view .LVU814
 3100 01ec 0029     		cmp	r1, #0
 3101 01ee 00D1     		bne	.LCB3005
 3102 01f0 9CE2     		b	.L199	@long jump
 3103              	.LCB3005:
 3104 01f2 0020     		movs	r0, #0
 3105              	.L200:
 3106              	.LVL333:
 3107              		.loc 1 381 6 view .LVU815
 3108              	.LBE611:
 3109              	.LBE610:
 3110              		.loc 1 1205 7 is_stmt 1 view .LVU816
 3111              		.loc 1 1205 7 is_stmt 0 view .LVU817
 3112              	.LBE609:
 3113              		.loc 1 1198 5 view .LVU818
 3114 01f4 2A00     		movs	r2, r5
 3115 01f6 0C9B     		ldr	r3, [sp, #48]
 3116              	.LVL334:
 3117              	.L203:
 3118              	.LBB614:
 3119              		.loc 1 1206 9 is_stmt 1 view .LVU819
 3120              		.loc 1 1206 12 is_stmt 0 view .LVU820
 3121 01f8 4345     		cmp	r3, r8
 3122 01fa 02D8     		bhi	.L202
 3123              		.loc 1 1207 11 is_stmt 1 view .LVU821
 3124              		.loc 1 1207 33 is_stmt 0 view .LVU822
 3125 01fc 1188     		ldrh	r1, [r2]
 3126 01fe 0143     		orrs	r1, r0
 3127 0200 1180     		strh	r1, [r2]
 3128              	.L202:
 3129              	.LVL335:
 3130              		.loc 1 1205 7 view .LVU823
 3131 0202 0799     		ldr	r1, [sp, #28]
 3132 0204 0133     		adds	r3, r3, #1
 3133              	.LVL336:
 3134              		.loc 1 1205 7 view .LVU824
 3135 0206 0232     		adds	r2, r2, #2
ARM GAS  /tmp/ccLkBuQr.s 			page 56


 3136 0208 8B42     		cmp	r3, r1
 3137 020a F5D1     		bne	.L203
 3138              	.LVL337:
 3139              		.loc 1 1205 7 view .LVU825
 3140 020c 059B     		ldr	r3, [sp, #20]
 3141              	.LVL338:
 3142              		.loc 1 1205 7 view .LVU826
 3143 020e 0134     		adds	r4, r4, #1
 3144              	.LVL339:
 3145              		.loc 1 1205 7 view .LVU827
 3146 0210 9C46     		mov	ip, r3
 3147 0212 6544     		add	r5, r5, ip
 3148              	.LBE614:
 3149              		.loc 1 1203 5 view .LVU828
 3150 0214 A742     		cmp	r7, r4
 3151 0216 E5D1     		bne	.L195
 3152 0218 4E46     		mov	r6, r9
 3153              	.LVL340:
 3154              	.L201:
 3155              		.loc 1 1212 3 is_stmt 1 view .LVU829
 3156              		.loc 1 1212 6 is_stmt 0 view .LVU830
 3157 021a 0E23     		movs	r3, #14
 3158 021c 3342     		tst	r3, r6
 3159 021e 5AD0     		beq	.L205
 3160              	.LBB615:
 3161              	.LBB616:
 3162              	.LBB617:
 3163              		.loc 1 115 17 view .LVU831
 3164 0220 199B     		ldr	r3, [sp, #100]
 3165 0222 049C     		ldr	r4, [sp, #16]
 3166 0224 9B88     		ldrh	r3, [r3, #4]
 3167 0226 743C     		subs	r4, r4, #116
 3168 0228 9C46     		mov	ip, r3
 3169 022a 1A9B     		ldr	r3, [sp, #104]
 3170 022c 6146     		mov	r1, ip
 3171 022e 9846     		mov	r8, r3
 3172 0230 2300     		movs	r3, r4
 3173 0232 5344     		add	r3, r3, r10
 3174 0234 0D93     		str	r3, [sp, #52]
 3175 0236 0223     		movs	r3, #2
 3176 0238 3340     		ands	r3, r6
 3177 023a 0793     		str	r3, [sp, #28]
 3178 023c 069B     		ldr	r3, [sp, #24]
 3179 023e 973B     		subs	r3, r3, #151
 3180 0240 5B44     		add	r3, r3, fp
 3181 0242 0E93     		str	r3, [sp, #56]
 3182              	.LBE617:
 3183              	.LBE616:
 3184              		.loc 1 1221 17 view .LVU832
 3185 0244 0823     		movs	r3, #8
 3186 0246 3340     		ands	r3, r6
 3187 0248 1093     		str	r3, [sp, #64]
 3188 024a 5346     		mov	r3, r10
 3189 024c DA46     		mov	r10, fp
 3190 024e 1D93     		str	r3, [sp, #116]
 3191              	.L206:
 3192              	.LVL341:
ARM GAS  /tmp/ccLkBuQr.s 			page 57


 3193              	.LBB639:
 3194              	.LBB634:
 3195              	.LBB618:
 3196              	.LBB619:
 3197              		.loc 1 100 18 view .LVU833
 3198 0250 2300     		movs	r3, r4
 3199 0252 6343     		muls	r3, r4
 3200 0254 9B46     		mov	fp, r3
 3201              	.LBE619:
 3202              	.LBE618:
 3203              	.LBE634:
 3204              	.LBE639:
 3205              	.LBB640:
 3206              	.LBB641:
 3207              		.loc 1 182 7 view .LVU834
 3208 0256 2300     		movs	r3, r4
 3209 0258 3A3B     		subs	r3, r3, #58
 3210              	.LBB642:
 3211              	.LBB643:
 3212              		.loc 1 100 18 view .LVU835
 3213 025a 5B43     		muls	r3, r3
 3214 025c 9C46     		mov	ip, r3
 3215              	.LBE643:
 3216              	.LBE642:
 3217              		.loc 1 193 7 view .LVU836
 3218 025e 2300     		movs	r3, r4
 3219 0260 743B     		subs	r3, r3, #116
 3220              	.LBB645:
 3221              	.LBB646:
 3222              		.loc 1 100 18 view .LVU837
 3223 0262 5B43     		muls	r3, r3
 3224 0264 1293     		str	r3, [sp, #72]
 3225              	.LBE646:
 3226              	.LBE645:
 3227              		.loc 1 202 7 view .LVU838
 3228 0266 2300     		movs	r3, r4
 3229 0268 E833     		adds	r3, r3, #232
 3230              	.LBB648:
 3231              	.LBB649:
 3232              		.loc 1 100 18 view .LVU839
 3233 026a 5B43     		muls	r3, r3
 3234 026c 1493     		str	r3, [sp, #80]
 3235              	.LBE649:
 3236              	.LBE648:
 3237              		.loc 1 204 7 view .LVU840
 3238 026e 2300     		movs	r3, r4
 3239              	.LBB651:
 3240              	.LBB652:
 3241              		.loc 1 100 18 view .LVU841
 3242 0270 2500     		movs	r5, r4
 3243              	.LBE652:
 3244              	.LBE651:
 3245              		.loc 1 180 7 view .LVU842
 3246 0272 2700     		movs	r7, r4
 3247              	.LBB656:
 3248              	.LBB657:
 3249              		.loc 1 100 18 view .LVU843
ARM GAS  /tmp/ccLkBuQr.s 			page 58


 3250 0274 4646     		mov	r6, r8
 3251 0276 5846     		mov	r0, fp
 3252              	.LBE657:
 3253              	.LBE656:
 3254              		.loc 1 204 7 view .LVU844
 3255 0278 E83B     		subs	r3, r3, #232
 3256              	.LBB661:
 3257              	.LBB658:
 3258              		.loc 1 100 18 view .LVU845
 3259 027a 5B43     		muls	r3, r3
 3260              	.LBE658:
 3261              	.LBE661:
 3262              	.LBB662:
 3263              	.LBB653:
 3264 027c 7435     		adds	r5, r5, #116
 3265              	.LBE653:
 3266              	.LBE662:
 3267              		.loc 1 180 7 view .LVU846
 3268 027e 3A37     		adds	r7, r7, #58
 3269              	.LBB663:
 3270              	.LBB654:
 3271              		.loc 1 100 18 view .LVU847
 3272 0280 6D43     		muls	r5, r5
 3273              	.LBE654:
 3274              	.LBE663:
 3275              	.LBB664:
 3276              	.LBB665:
 3277 0282 7F43     		muls	r7, r7
 3278              	.LBE665:
 3279              	.LBE664:
 3280              	.LBB668:
 3281              	.LBB659:
 3282 0284 1593     		str	r3, [sp, #84]
 3283 0286 119A     		ldr	r2, [sp, #68]
 3284              	.LBE659:
 3285              	.LBE668:
 3286              	.LBE641:
 3287              	.LBE640:
 3288              	.LBB689:
 3289              	.LBB635:
 3290              		.loc 1 140 14 view .LVU848
 3291 0288 6342     		rsbs	r3, r4, #0
 3292 028a 1393     		str	r3, [sp, #76]
 3293 028c 0A95     		str	r5, [sp, #40]
 3294              	.LVL342:
 3295              	.L213:
 3296              		.loc 1 140 14 view .LVU849
 3297              	.LBE635:
 3298              	.LBE689:
 3299              		.loc 1 1215 9 is_stmt 1 view .LVU850
 3300              		.loc 1 1216 9 view .LVU851
 3301              		.loc 1 1216 12 is_stmt 0 view .LVU852
 3302 028e 079B     		ldr	r3, [sp, #28]
 3303 0290 002B     		cmp	r3, #0
 3304 0292 00D1     		bne	.LCB3195
 3305 0294 98E1     		b	.L207	@long jump
 3306              	.LCB3195:
ARM GAS  /tmp/ccLkBuQr.s 			page 59


 3307              		.loc 1 1217 11 is_stmt 1 view .LVU853
 3308              	.LVL343:
 3309              	.LBB690:
 3310              	.LBI640:
 3311              		.loc 1 156 12 view .LVU854
 3312              	.LBB687:
 3313              		.loc 1 158 3 view .LVU855
 3314              		.loc 1 159 3 view .LVU856
 3315              		.loc 1 162 3 view .LVU857
 3316              		.loc 1 163 3 view .LVU858
 3317              		.loc 1 166 3 view .LVU859
 3318              	.LBB669:
 3319              	.LBI669:
 3320              		.loc 1 98 12 view .LVU860
 3321              	.LBB670:
 3322              		.loc 1 100 3 view .LVU861
 3323              		.loc 1 100 12 is_stmt 0 view .LVU862
 3324 0296 1300     		movs	r3, r2
 3325              		.loc 1 100 7 view .LVU863
 3326 0298 334D     		ldr	r5, .L481+48
 3327              		.loc 1 100 12 view .LVU864
 3328 029a 5343     		muls	r3, r2
 3329              		.loc 1 100 7 view .LVU865
 3330 029c A946     		mov	r9, r5
 3331              		.loc 1 100 15 view .LVU866
 3332 029e 1B18     		adds	r3, r3, r0
 3333              		.loc 1 100 7 view .LVU867
 3334 02a0 4B44     		add	r3, r3, r9
 3335              	.LVL344:
 3336              		.loc 1 101 3 is_stmt 1 view .LVU868
 3337              		.loc 1 101 6 is_stmt 0 view .LVU869
 3338 02a2 1D00     		movs	r5, r3
 3339 02a4 7335     		adds	r5, r5, #115
 3340 02a6 00DA     		bge	.LCB3227
 3341 02a8 CFE1     		b	.L208	@long jump
 3342              	.LCB3227:
 3343              	.LVL345:
 3344              	.L461:
 3345              		.loc 1 101 6 view .LVU870
 3346              	.LBE670:
 3347              	.LBE669:
 3348              	.LBE687:
 3349              	.LBE690:
 3350              	.LBB691:
 3351              	.LBB636:
 3352              	.LBB622:
 3353              	.LBB620:
 3354              		.loc 1 103 3 is_stmt 1 view .LVU871
 3355              		.loc 1 103 6 is_stmt 0 view .LVU872
 3356 02aa 742B     		cmp	r3, #116
 3357 02ac 00DD     		ble	.LCB3246
 3358 02ae CAE1     		b	.L352	@long jump
 3359              	.LCB3246:
 3360              	.L349:
 3361              	.LBE620:
 3362              	.LBE622:
 3363              		.loc 1 140 14 view .LVU873
ARM GAS  /tmp/ccLkBuQr.s 			page 60


 3364 02b0 0B00     		movs	r3, r1
 3365              	.LVL346:
 3366              	.L210:
 3367              		.loc 1 140 14 view .LVU874
 3368              	.LBE636:
 3369              	.LBE691:
 3370              		.loc 1 1223 9 is_stmt 1 view .LVU875
 3371              		.loc 1 1223 31 is_stmt 0 view .LVU876
 3372 02b2 3588     		ldrh	r5, [r6]
 3373 02b4 0132     		adds	r2, r2, #1
 3374              	.LVL347:
 3375              		.loc 1 1223 31 view .LVU877
 3376 02b6 2B43     		orrs	r3, r5
 3377              	.LVL348:
 3378              		.loc 1 1223 31 view .LVU878
 3379 02b8 3380     		strh	r3, [r6]
 3380              	.LVL349:
 3381              		.loc 1 1223 31 view .LVU879
 3382              	.LBE615:
 3383              		.loc 1 1214 7 view .LVU880
 3384 02ba 0E9B     		ldr	r3, [sp, #56]
 3385 02bc 0236     		adds	r6, r6, #2
 3386 02be 9342     		cmp	r3, r2
 3387 02c0 E5D1     		bne	.L213
 3388              	.LVL350:
 3389              		.loc 1 1214 7 view .LVU881
 3390 02c2 059B     		ldr	r3, [sp, #20]
 3391 02c4 0134     		adds	r4, r4, #1
 3392              	.LVL351:
 3393              		.loc 1 1214 7 view .LVU882
 3394 02c6 9C46     		mov	ip, r3
 3395              		.loc 1 1213 5 view .LVU883
 3396 02c8 0D9B     		ldr	r3, [sp, #52]
 3397 02ca E044     		add	r8, r8, ip
 3398 02cc A342     		cmp	r3, r4
 3399 02ce BFD1     		bne	.L206
 3400 02d0 1D9B     		ldr	r3, [sp, #116]
 3401 02d2 D346     		mov	fp, r10
 3402 02d4 9A46     		mov	r10, r3
 3403              	.LVL352:
 3404              	.L205:
 3405              		.loc 1 1227 3 is_stmt 1 view .LVU884
 3406 02d6 8022     		movs	r2, #128
 3407 02d8 1E4B     		ldr	r3, .L481+28
 3408 02da 9201     		lsls	r2, r2, #6
 3409 02dc 5A83     		strh	r2, [r3, #26]
 3410              		.loc 1 1227 3 view .LVU885
 3411 02de 1A83     		strh	r2, [r3, #24]
 3412              		.loc 1 1227 8 view .LVU886
 3413              		.loc 1 1231 3 view .LVU887
 3414              	.LVL353:
 3415              		.loc 1 1231 3 is_stmt 0 view .LVU888
 3416 02e0 199B     		ldr	r3, [sp, #100]
 3417              	.LBB695:
 3418              	.LBB696:
 3419              		.loc 1 961 5 view .LVU889
 3420 02e2 F826     		movs	r6, #248
ARM GAS  /tmp/ccLkBuQr.s 			page 61


 3421 02e4 0E93     		str	r3, [sp, #56]
 3422              	.LBE696:
 3423              	.LBE695:
 3424              		.loc 1 1227 3 view .LVU890
 3425 02e6 0793     		str	r3, [sp, #28]
 3426 02e8 204B     		ldr	r3, .L481+52
 3427              	.LBB704:
 3428              	.LBB697:
 3429              		.loc 1 961 5 view .LVU891
 3430 02ea 069F     		ldr	r7, [sp, #24]
 3431              	.LBE697:
 3432              	.LBE704:
 3433              		.loc 1 1227 3 view .LVU892
 3434 02ec 9846     		mov	r8, r3
 3435 02ee 0F9B     		ldr	r3, [sp, #60]
 3436              	.LBB705:
 3437              	.LBB698:
 3438              		.loc 1 961 5 view .LVU893
 3439 02f0 B600     		lsls	r6, r6, #2
 3440              	.LBE698:
 3441              	.LBE705:
 3442              		.loc 1 1227 3 view .LVU894
 3443 02f2 9946     		mov	r9, r3
 3444 02f4 0023     		movs	r3, #0
 3445 02f6 0A93     		str	r3, [sp, #40]
 3446              	.LBB706:
 3447              	.LBB699:
 3448              		.loc 1 961 5 view .LVU895
 3449 02f8 5B46     		mov	r3, fp
 3450 02fa 3740     		ands	r7, r6
 3451 02fc 1093     		str	r3, [sp, #64]
 3452              	.LVL354:
 3453              	.L215:
 3454              		.loc 1 961 5 view .LVU896
 3455              	.LBE699:
 3456              	.LBE706:
 3457              		.loc 1 1232 5 is_stmt 1 view .LVU897
 3458              		.loc 1 1232 8 is_stmt 0 view .LVU898
 3459 02fe 4B46     		mov	r3, r9
 3460 0300 1B78     		ldrb	r3, [r3]
 3461 0302 002B     		cmp	r3, #0
 3462 0304 55D0     		beq	.L217
 3463              		.loc 1 1234 5 is_stmt 1 view .LVU899
 3464              		.loc 1 1234 36 is_stmt 0 view .LVU900
 3465 0306 4B46     		mov	r3, r9
 3466 0308 5B78     		ldrb	r3, [r3, #1]
 3467              		.loc 1 1234 8 view .LVU901
 3468 030a 033B     		subs	r3, r3, #3
 3469 030c 012B     		cmp	r3, #1
 3470 030e 50D9     		bls	.L217
 3471              		.loc 1 1237 5 is_stmt 1 view .LVU902
 3472              	.LVL355:
 3473              	.LBB707:
 3474              	.LBI695:
 3475              		.loc 1 956 12 view .LVU903
 3476              	.LBB700:
 3477              		.loc 1 958 3 view .LVU904
ARM GAS  /tmp/ccLkBuQr.s 			page 62


 3478              		.loc 1 959 3 view .LVU905
 3479              		.loc 1 960 3 view .LVU906
 3480              		.loc 1 960 7 is_stmt 0 view .LVU907
 3481 0310 174B     		ldr	r3, .L481+56
 3482 0312 0C22     		movs	r2, #12
 3483 0314 9A5E     		ldrsh	r2, [r3, r2]
 3484              	.LVL356:
 3485              		.loc 1 961 3 is_stmt 1 view .LVU908
 3486              		.loc 1 962 3 view .LVU909
 3487              		.loc 1 963 3 view .LVU910
 3488              		.loc 1 963 9 is_stmt 0 view .LVU911
 3489 0316 002A     		cmp	r2, #0
 3490 0318 01DC     		bgt	.LCB3369
 3491 031a 00F09DFF 		bl	.L467	@far jump
 3492              	.LCB3369:
 3493              		.loc 1 964 5 is_stmt 1 view .LVU912
 3494              		.loc 1 965 14 is_stmt 0 view .LVU913
 3495 031e 4346     		mov	r3, r8
 3496              		.loc 1 964 7 view .LVU914
 3497 0320 5410     		asrs	r4, r2, #1
 3498              	.LVL357:
 3499              		.loc 1 965 5 is_stmt 1 view .LVU915
 3500              		.loc 1 965 14 is_stmt 0 view .LVU916
 3501 0322 A000     		lsls	r0, r4, #2
 3502 0324 C358     		ldr	r3, [r0, r3]
 3503 0326 9B0D     		lsrs	r3, r3, #22
 3504 0328 3340     		ands	r3, r6
 3505              		.loc 1 965 8 view .LVU917
 3506 032a BB42     		cmp	r3, r7
 3507 032c 00D1     		bne	.LCB3381
 3508 032e 74E2     		b	.L320	@long jump
 3509              	.LCB3381:
 3510              		.loc 1 959 7 view .LVU918
 3511 0330 0021     		movs	r1, #0
 3512 0332 4546     		mov	r5, r8
 3513 0334 2FE0     		b	.L222
 3514              	.L482:
 3515 0336 C046     		.align	2
 3516              	.L481:
 3517 0338 00000000 		.word	.LANCHOR4
 3518 033c FA040000 		.word	1274
 3519 0340 00000000 		.word	x7x13b_bits
 3520 0344 00000000 		.word	.LANCHOR5
 3521 0348 00000000 		.word	.LANCHOR1
 3522 034c 00000000 		.word	mutex_ili9341
 3523 0350 70110000 		.word	current_props+4464
 3524 0354 00080048 		.word	1207961600
 3525 0358 00000000 		.word	config
 3526 035c 00000000 		.word	.LANCHOR3
 3527 0360 00000000 		.word	spi_buffer
 3528 0364 00000000 		.word	.LANCHOR2
 3529 0368 70CBFFFF 		.word	-13456
 3530 036c 00000000 		.word	trace_index
 3531 0370 00000000 		.word	current_props
 3532              	.LVL358:
 3533              	.L468:
 3534              		.loc 1 968 7 is_stmt 1 view .LVU919
ARM GAS  /tmp/ccLkBuQr.s 			page 63


 3535              		.loc 1 968 20 is_stmt 0 view .LVU920
 3536 0374 631C     		adds	r3, r4, #1
 3537              		.loc 1 968 10 view .LVU921
 3538 0376 9342     		cmp	r3, r2
 3539 0378 14D0     		beq	.L224
 3540              		.loc 1 968 10 view .LVU922
 3541 037a 1A00     		movs	r2, r3
 3542              	.LVL359:
 3543              		.loc 1 963 9 view .LVU923
 3544 037c 8A42     		cmp	r2, r1
 3545 037e 11DD     		ble	.L224
 3546              	.L226:
 3547              		.loc 1 964 5 is_stmt 1 view .LVU924
 3548              		.loc 1 964 15 is_stmt 0 view .LVU925
 3549 0380 5318     		adds	r3, r2, r1
 3550              		.loc 1 964 7 view .LVU926
 3551 0382 DC0F     		lsrs	r4, r3, #31
 3552              	.LVL360:
 3553              		.loc 1 964 7 view .LVU927
 3554 0384 E418     		adds	r4, r4, r3
 3555              	.LVL361:
 3556              		.loc 1 964 7 view .LVU928
 3557 0386 6410     		asrs	r4, r4, #1
 3558              	.LVL362:
 3559              		.loc 1 965 5 is_stmt 1 view .LVU929
 3560              		.loc 1 965 14 is_stmt 0 view .LVU930
 3561 0388 A000     		lsls	r0, r4, #2
 3562 038a 4359     		ldr	r3, [r0, r5]
 3563 038c 9B0D     		lsrs	r3, r3, #22
 3564 038e 3340     		ands	r3, r6
 3565              		.loc 1 965 8 view .LVU931
 3566 0390 9F42     		cmp	r7, r3
 3567 0392 00D1     		bne	.LCB3444
 3568 0394 40E2     		b	.L452	@long jump
 3569              	.LCB3444:
 3570              	.LVL363:
 3571              	.L222:
 3572              		.loc 1 967 10 is_stmt 1 view .LVU932
 3573              		.loc 1 967 13 is_stmt 0 view .LVU933
 3574 0396 9F42     		cmp	r7, r3
 3575 0398 ECDB     		blt	.L468
 3576              		.loc 1 972 7 is_stmt 1 view .LVU934
 3577              		.loc 1 972 10 is_stmt 0 view .LVU935
 3578 039a 8C42     		cmp	r4, r1
 3579 039c 02D0     		beq	.L224
 3580 039e 2100     		movs	r1, r4
 3581              	.LVL364:
 3582              		.loc 1 963 9 view .LVU936
 3583 03a0 8A42     		cmp	r2, r1
 3584 03a2 EDDC     		bgt	.L226
 3585              	.L224:
 3586              		.loc 1 978 12 view .LVU937
 3587 03a4 4359     		ldr	r3, [r0, r5]
 3588 03a6 A846     		mov	r8, r5
 3589              		.loc 1 978 3 is_stmt 1 view .LVU938
 3590              		.loc 1 978 12 is_stmt 0 view .LVU939
 3591 03a8 9B0D     		lsrs	r3, r3, #22
ARM GAS  /tmp/ccLkBuQr.s 			page 64


 3592 03aa 3340     		ands	r3, r6
 3593              		.loc 1 978 6 view .LVU940
 3594 03ac 9F42     		cmp	r7, r3
 3595 03ae 00D1     		bne	.LCB3478
 3596 03b0 33E2     		b	.L320	@long jump
 3597              	.LCB3478:
 3598              	.LVL365:
 3599              	.L217:
 3600              		.loc 1 978 6 view .LVU941
 3601 03b2 0C23     		movs	r3, #12
 3602 03b4 9C46     		mov	ip, r3
 3603 03b6 8933     		adds	r3, r3, #137
 3604 03b8 FF33     		adds	r3, r3, #255
 3605 03ba E144     		add	r9, r9, ip
 3606 03bc 9C46     		mov	ip, r3
 3607 03be 079B     		ldr	r3, [sp, #28]
 3608 03c0 E044     		add	r8, r8, ip
 3609 03c2 0233     		adds	r3, r3, #2
 3610 03c4 0793     		str	r3, [sp, #28]
 3611 03c6 0A9B     		ldr	r3, [sp, #40]
 3612 03c8 6533     		adds	r3, r3, #101
 3613 03ca 1A00     		movs	r2, r3
 3614 03cc 0A93     		str	r3, [sp, #40]
 3615              	.LBE700:
 3616              	.LBE707:
 3617              		.loc 1 1231 3 view .LVU942
 3618 03ce 6245     		cmp	r2, ip
 3619 03d0 95D1     		bne	.L215
 3620 03d2 109B     		ldr	r3, [sp, #64]
 3621 03d4 0F9F     		ldr	r7, [sp, #60]
 3622 03d6 9B46     		mov	fp, r3
 3623              		.loc 1 1255 10 view .LVU943
 3624 03d8 0023     		movs	r3, #0
 3625 03da 9846     		mov	r8, r3
 3626 03dc 0D92     		str	r2, [sp, #52]
 3627              	.L216:
 3628              	.LVL366:
 3629              	.LBB708:
 3630              		.loc 1 1256 5 is_stmt 1 view .LVU944
 3631              		.loc 1 1257 5 view .LVU945
 3632              		.loc 1 1257 8 is_stmt 0 view .LVU946
 3633 03de 3B78     		ldrb	r3, [r7]
 3634 03e0 002B     		cmp	r3, #0
 3635 03e2 04D0     		beq	.L236
 3636              		.loc 1 1259 5 is_stmt 1 view .LVU947
 3637              		.loc 1 1259 36 is_stmt 0 view .LVU948
 3638 03e4 7B78     		ldrb	r3, [r7, #1]
 3639              		.loc 1 1259 8 view .LVU949
 3640 03e6 033B     		subs	r3, r3, #3
 3641 03e8 012B     		cmp	r3, #1
 3642 03ea 00D8     		bhi	.LCB3530
 3643 03ec 99E2     		b	.L469	@long jump
 3644              	.LCB3530:
 3645              	.LVL367:
 3646              	.L236:
 3647              		.loc 1 1259 8 view .LVU950
 3648              	.LBE708:
ARM GAS  /tmp/ccLkBuQr.s 			page 65


 3649              		.loc 1 1255 33 view .LVU951
 3650 03ee 0123     		movs	r3, #1
 3651 03f0 9C46     		mov	ip, r3
 3652 03f2 E044     		add	r8, r8, ip
 3653              	.LVL368:
 3654              		.loc 1 1255 3 view .LVU952
 3655 03f4 4346     		mov	r3, r8
 3656 03f6 0C37     		adds	r7, r7, #12
 3657 03f8 042B     		cmp	r3, #4
 3658 03fa F0D1     		bne	.L216
 3659              		.loc 1 1276 3 is_stmt 1 view .LVU953
 3660 03fc 8022     		movs	r2, #128
 3661 03fe CC4B     		ldr	r3, .L483
 3662 0400 9201     		lsls	r2, r2, #6
 3663 0402 5A83     		strh	r2, [r3, #26]
 3664              		.loc 1 1276 3 view .LVU954
 3665 0404 1A83     		strh	r2, [r3, #24]
 3666              		.loc 1 1276 8 view .LVU955
 3667              		.loc 1 1278 3 view .LVU956
 3668              	.LVL369:
 3669              	.LBB714:
 3670              	.LBI714:
 3671              		.loc 1 1097 13 view .LVU957
 3672              	.LBB715:
 3673              		.loc 1 1099 3 view .LVU958
 3674              		.loc 1 1100 3 view .LVU959
 3675              		.loc 1 1101 3 view .LVU960
 3676              		.loc 1 1102 3 view .LVU961
 3677              		.loc 1 1102 10 is_stmt 0 view .LVU962
 3678 0406 0023     		movs	r3, #0
 3679              	.LBB716:
 3680              	.LBB717:
 3681              	.LBB718:
 3682              	.LBB719:
 3683              	.LBB720:
 3684              	.LBB721:
 3685              		.loc 1 1055 23 view .LVU963
 3686 0408 D946     		mov	r9, fp
 3687 040a 9846     		mov	r8, r3
 3688              	.LVL370:
 3689              		.loc 1 1055 23 view .LVU964
 3690 040c C94F     		ldr	r7, .L483+4
 3691              	.LVL371:
 3692              	.L239:
 3693              		.loc 1 1055 23 view .LVU965
 3694              	.LBE721:
 3695              	.LBE720:
 3696              	.LBE719:
 3697              	.LBE718:
 3698              	.LBE717:
 3699              	.LBE716:
 3700              		.loc 1 1103 5 is_stmt 1 view .LVU966
 3701              		.loc 1 1103 8 is_stmt 0 view .LVU967
 3702 040e 0023     		movs	r3, #0
 3703 0410 FB56     		ldrsb	r3, [r7, r3]
 3704 0412 002B     		cmp	r3, #0
 3705 0414 00D0     		beq	.LCB3593
ARM GAS  /tmp/ccLkBuQr.s 			page 66


 3706 0416 B9E1     		b	.L238	@long jump
 3707              	.LCB3593:
 3708              	.LVL372:
 3709              	.L243:
 3710              		.loc 1 1102 34 view .LVU968
 3711 0418 0123     		movs	r3, #1
 3712 041a 9C46     		mov	ip, r3
 3713 041c E044     		add	r8, r8, ip
 3714              	.LVL373:
 3715              		.loc 1 1102 3 view .LVU969
 3716 041e 4346     		mov	r3, r8
 3717 0420 0837     		adds	r7, r7, #8
 3718 0422 042B     		cmp	r3, #4
 3719 0424 F3D1     		bne	.L239
 3720              	.LBE715:
 3721              	.LBE714:
 3722              	.LBB739:
 3723              	.LBB592:
 3724              		.loc 1 1656 6 view .LVU970
 3725 0426 0899     		ldr	r1, [sp, #32]
 3726 0428 CB46     		mov	fp, r9
 3727              	.LVL374:
 3728              		.loc 1 1656 6 view .LVU971
 3729              	.LBE592:
 3730              	.LBE739:
 3731              		.loc 1 1280 3 is_stmt 1 view .LVU972
 3732              	.LBB740:
 3733              	.LBI463:
 3734              		.loc 1 1652 13 view .LVU973
 3735              	.LBB593:
 3736              		.loc 1 1654 3 view .LVU974
 3737              		.loc 1 1655 3 view .LVU975
 3738              		.loc 1 1656 3 view .LVU976
 3739              		.loc 1 1656 6 is_stmt 0 view .LVU977
 3740 042a 0129     		cmp	r1, #1
 3741 042c 00DD     		ble	.LCB3631
 3742 042e B5E0     		b	.L300	@long jump
 3743              	.LCB3631:
 3744              	.LVL375:
 3745              		.loc 1 1658 3 is_stmt 1 view .LVU978
 3746              		.loc 1 1658 7 is_stmt 0 view .LVU979
 3747 0430 8E23     		movs	r3, #142
 3748 0432 C14A     		ldr	r2, .L483+8
 3749 0434 5B01     		lsls	r3, r3, #5
 3750 0436 D358     		ldr	r3, [r2, r3]
 3751              		.loc 1 1658 6 view .LVU980
 3752 0438 002B     		cmp	r3, #0
 3753 043a 00DA     		bge	.LCB3640
 3754 043c AEE0     		b	.L300	@long jump
 3755              	.LCB3640:
 3756              		.loc 1 1660 3 is_stmt 1 view .LVU981
 3757              		.loc 1 1660 35 is_stmt 0 view .LVU982
 3758 043e 8D22     		movs	r2, #141
 3759 0440 9200     		lsls	r2, r2, #2
 3760 0442 9446     		mov	ip, r2
 3761 0444 BC4A     		ldr	r2, .L483+8
 3762 0446 6344     		add	r3, r3, ip
ARM GAS  /tmp/ccLkBuQr.s 			page 67


 3763 0448 9446     		mov	ip, r2
 3764 044a DB00     		lsls	r3, r3, #3
 3765 044c 6344     		add	r3, r3, ip
 3766 044e 0222     		movs	r2, #2
 3767 0450 9B5E     		ldrsh	r3, [r3, r2]
 3768              	.LBB472:
 3769              	.LBB473:
 3770              	.LBB474:
 3771              		.loc 1 699 36 view .LVU983
 3772 0452 DA00     		lsls	r2, r3, #3
 3773              	.LBE474:
 3774              	.LBE473:
 3775              	.LBE472:
 3776              		.loc 1 1660 35 view .LVU984
 3777 0454 1393     		str	r3, [sp, #76]
 3778              	.LVL376:
 3779              		.loc 1 1661 3 is_stmt 1 view .LVU985
 3780              		.loc 1 1662 3 view .LVU986
 3781              	.LBB539:
 3782              	.LBB516:
 3783              	.LBB507:
 3784              		.loc 1 699 36 is_stmt 0 view .LVU987
 3785 0456 1492     		str	r2, [sp, #80]
 3786              		.loc 1 687 39 view .LVU988
 3787 0458 9A00     		lsls	r2, r3, #2
 3788 045a 6346     		mov	r3, ip
 3789              	.LVL377:
 3790              		.loc 1 687 39 view .LVU989
 3791 045c 1033     		adds	r3, r3, #16
 3792 045e D318     		adds	r3, r2, r3
 3793 0460 1993     		str	r3, [sp, #100]
 3794 0462 4B01     		lsls	r3, r1, #5
 3795 0464 5B42     		rsbs	r3, r3, #0
 3796 0466 1593     		str	r3, [sp, #84]
 3797 0468 0133     		adds	r3, r3, #1
 3798 046a 1293     		str	r3, [sp, #72]
 3799 046c 0F9B     		ldr	r3, [sp, #60]
 3800              	.LBE507:
 3801              	.LBE516:
 3802              	.LBE539:
 3803              		.loc 1 1661 7 view .LVU990
 3804 046e 0022     		movs	r2, #0
 3805 0470 9946     		mov	r9, r3
 3806              	.LVL378:
 3807              		.loc 1 1661 7 view .LVU991
 3808 0472 0D92     		str	r2, [sp, #52]
 3809              		.loc 1 1662 10 view .LVU992
 3810 0474 0792     		str	r2, [sp, #28]
 3811              	.LVL379:
 3812              	.L275:
 3813              	.LBB540:
 3814              		.loc 1 1663 5 is_stmt 1 view .LVU993
 3815 0476 0D9B     		ldr	r3, [sp, #52]
 3816 0478 9C46     		mov	ip, r3
 3817 047a 5C00     		lsls	r4, r3, #1
 3818 047c 6444     		add	r4, r4, ip
 3819 047e A400     		lsls	r4, r4, #2
ARM GAS  /tmp/ccLkBuQr.s 			page 68


 3820 0480 6444     		add	r4, r4, ip
 3821 0482 049B     		ldr	r3, [sp, #16]
 3822 0484 1094     		str	r4, [sp, #64]
 3823 0486 0134     		adds	r4, r4, #1
 3824 0488 E41A     		subs	r4, r4, r3
 3825              		.loc 1 1663 8 is_stmt 0 view .LVU994
 3826 048a 4B46     		mov	r3, r9
 3827 048c 1B78     		ldrb	r3, [r3]
 3828 048e 002B     		cmp	r3, #0
 3829 0490 00D0     		beq	.LCB3716
 3830 0492 AAE2     		b	.L470	@long jump
 3831              	.LCB3716:
 3832              	.L250:
 3833              		.loc 1 1663 8 view .LVU995
 3834 0494 0C22     		movs	r2, #12
 3835 0496 9446     		mov	ip, r2
 3836              	.LBE540:
 3837              		.loc 1 1662 33 view .LVU996
 3838 0498 079B     		ldr	r3, [sp, #28]
 3839 049a 0E9A     		ldr	r2, [sp, #56]
 3840 049c 0133     		adds	r3, r3, #1
 3841 049e 0232     		adds	r2, r2, #2
 3842 04a0 0793     		str	r3, [sp, #28]
 3843              	.LVL380:
 3844              		.loc 1 1662 33 view .LVU997
 3845 04a2 E144     		add	r9, r9, ip
 3846 04a4 0E92     		str	r2, [sp, #56]
 3847              		.loc 1 1662 3 view .LVU998
 3848 04a6 042B     		cmp	r3, #4
 3849 04a8 E5D1     		bne	.L275
 3850              		.loc 1 1684 8 view .LVU999
 3851 04aa A44B     		ldr	r3, .L483+12
 3852              	.LVL381:
 3853              		.loc 1 1684 8 view .LVU1000
 3854 04ac A24A     		ldr	r2, .L483+8
 3855 04ae 0021     		movs	r1, #0
 3856 04b0 D058     		ldr	r0, [r2, r3]
 3857 04b2 A146     		mov	r9, r4
 3858              		.loc 1 1682 3 is_stmt 1 view .LVU1001
 3859              	.LVL382:
 3860              		.loc 1 1683 5 view .LVU1002
 3861              		.loc 1 1684 5 view .LVU1003
 3862              		.loc 1 1684 8 is_stmt 0 view .LVU1004
 3863 04b4 FFF7FEFF 		bl	__aeabi_fcmpeq
 3864              	.LVL383:
 3865 04b8 0028     		cmp	r0, #0
 3866 04ba 01D1     		bne	.LCB3747
 3867 04bc 00F0E6FD 		bl	.L276	@far jump
 3868              	.LCB3747:
 3869              	.L284:
 3870              		.loc 1 1702 3 is_stmt 1 view .LVU1005
 3871              	.LVL384:
 3872              		.loc 1 1703 3 view .LVU1006
 3873              		.loc 1 1704 3 view .LVU1007
 3874              		.loc 1 1705 3 view .LVU1008
 3875              		.loc 1 1706 3 view .LVU1009
 3876              		.loc 1 1706 38 is_stmt 0 view .LVU1010
ARM GAS  /tmp/ccLkBuQr.s 			page 69


 3877 04c0 8E23     		movs	r3, #142
 3878              		.loc 1 1706 3 view .LVU1011
 3879 04c2 9D4A     		ldr	r2, .L483+8
 3880              		.loc 1 1706 38 view .LVU1012
 3881 04c4 5B01     		lsls	r3, r3, #5
 3882              		.loc 1 1706 3 view .LVU1013
 3883 04c6 D358     		ldr	r3, [r2, r3]
 3884 04c8 1821     		movs	r1, #24
 3885 04ca 0133     		adds	r3, r3, #1
 3886 04cc 9C4A     		ldr	r2, .L483+16
 3887 04ce 26A8     		add	r0, sp, #152
 3888 04d0 FFF7FEFF 		bl	chsnprintf
 3889              	.LVL385:
 3890              		.loc 1 1707 3 is_stmt 1 view .LVU1014
 3891              	.LBB541:
 3892              	.LBI541:
 3893              		.loc 1 1633 13 view .LVU1015
 3894              	.LBB542:
 3895              		.loc 1 1635 3 view .LVU1016
 3896              		.loc 1 1635 10 is_stmt 0 view .LVU1017
 3897 04d4 22AB     		add	r3, sp, #136
 3898 04d6 1A7C     		ldrb	r2, [r3, #16]
 3899              		.loc 1 1635 9 view .LVU1018
 3900 04d8 1F9C     		ldr	r4, [sp, #124]
 3901 04da 26AD     		add	r5, sp, #152
 3902              	.LVL386:
 3903              		.loc 1 1635 9 view .LVU1019
 3904 04dc 002A     		cmp	r2, #0
 3905 04de 11D0     		beq	.L278
 3906 04e0 129B     		ldr	r3, [sp, #72]
 3907              		.loc 1 1636 5 view .LVU1020
 3908 04e2 0027     		movs	r7, #0
 3909 04e4 9846     		mov	r8, r3
 3910 04e6 974E     		ldr	r6, .L483+20
 3911              	.LVL387:
 3912              	.L277:
 3913              		.loc 1 1636 5 is_stmt 1 view .LVU1021
 3914 04e8 4346     		mov	r3, r8
 3915 04ea 0297     		str	r7, [sp, #8]
 3916 04ec 0093     		str	r3, [sp]
 3917 04ee 0196     		str	r6, [sp, #4]
 3918 04f0 2300     		movs	r3, r4
 3919 04f2 5146     		mov	r1, r10
 3920 04f4 5846     		mov	r0, fp
 3921              		.loc 1 1638 8 is_stmt 0 view .LVU1022
 3922 04f6 0135     		adds	r5, r5, #1
 3923              	.LVL388:
 3924              		.loc 1 1636 5 view .LVU1023
 3925 04f8 FFF7FEFF 		bl	cell_drawchar_7x13
 3926              	.LVL389:
 3927              		.loc 1 1637 5 is_stmt 1 view .LVU1024
 3928              		.loc 1 1635 10 is_stmt 0 view .LVU1025
 3929 04fc 2A78     		ldrb	r2, [r5]
 3930              		.loc 1 1637 7 view .LVU1026
 3931 04fe 0734     		adds	r4, r4, #7
 3932              	.LVL390:
 3933              		.loc 1 1638 5 is_stmt 1 view .LVU1027
ARM GAS  /tmp/ccLkBuQr.s 			page 70


 3934              		.loc 1 1635 9 is_stmt 0 view .LVU1028
 3935 0500 002A     		cmp	r2, #0
 3936 0502 F1D1     		bne	.L277
 3937              	.LVL391:
 3938              	.L278:
 3939              		.loc 1 1635 9 view .LVU1029
 3940              	.LBE542:
 3941              	.LBE541:
 3942              		.loc 1 1708 3 is_stmt 1 view .LVU1030
 3943              		.loc 1 1709 3 view .LVU1031
 3944              		.loc 1 1709 8 is_stmt 0 view .LVU1032
 3945 0504 904B     		ldr	r3, .L483+24
 3946              		.loc 1 1709 6 view .LVU1033
 3947 0506 8C4A     		ldr	r2, .L483+8
 3948 0508 D35C     		ldrb	r3, [r2, r3]
 3949 050a DB07     		lsls	r3, r3, #31
 3950 050c 01D5     		bpl	.LCB3844
 3951 050e 00F046FD 		bl	.L471	@far jump
 3952              	.LCB3844:
 3953              		.loc 1 1710 5 is_stmt 1 view .LVU1034
 3954              		.loc 1 1710 50 is_stmt 0 view .LVU1035
 3955 0512 139B     		ldr	r3, [sp, #76]
 3956              		.loc 1 1710 5 view .LVU1036
 3957 0514 884A     		ldr	r2, .L483+8
 3958              		.loc 1 1710 50 view .LVU1037
 3959 0516 0433     		adds	r3, r3, #4
 3960 0518 9B00     		lsls	r3, r3, #2
 3961              		.loc 1 1710 5 view .LVU1038
 3962 051a D258     		ldr	r2, [r2, r3]
 3963 051c 1821     		movs	r1, #24
 3964 051e 26A8     		add	r0, sp, #152
 3965 0520 FFF7FEFF 		bl	frequency_string
 3966              	.LVL392:
 3967              	.L287:
 3968              	.LBB543:
 3969              	.LBB544:
 3970              		.loc 1 1635 10 view .LVU1039
 3971 0524 22AB     		add	r3, sp, #136
 3972 0526 1A7C     		ldrb	r2, [r3, #16]
 3973              		.loc 1 1635 9 view .LVU1040
 3974 0528 1E9C     		ldr	r4, [sp, #120]
 3975 052a 26AD     		add	r5, sp, #152
 3976              	.LVL393:
 3977              		.loc 1 1635 9 view .LVU1041
 3978 052c 002A     		cmp	r2, #0
 3979 052e 11D0     		beq	.L291
 3980 0530 129B     		ldr	r3, [sp, #72]
 3981              		.loc 1 1636 5 view .LVU1042
 3982 0532 0027     		movs	r7, #0
 3983 0534 9846     		mov	r8, r3
 3984 0536 834E     		ldr	r6, .L483+20
 3985              	.LVL394:
 3986              	.L288:
 3987              		.loc 1 1636 5 is_stmt 1 view .LVU1043
 3988 0538 4346     		mov	r3, r8
 3989 053a 0297     		str	r7, [sp, #8]
 3990 053c 0093     		str	r3, [sp]
ARM GAS  /tmp/ccLkBuQr.s 			page 71


 3991 053e 0196     		str	r6, [sp, #4]
 3992 0540 2300     		movs	r3, r4
 3993 0542 5146     		mov	r1, r10
 3994 0544 5846     		mov	r0, fp
 3995              		.loc 1 1638 8 is_stmt 0 view .LVU1044
 3996 0546 0135     		adds	r5, r5, #1
 3997              	.LVL395:
 3998              		.loc 1 1636 5 view .LVU1045
 3999 0548 FFF7FEFF 		bl	cell_drawchar_7x13
 4000              	.LVL396:
 4001              		.loc 1 1637 5 is_stmt 1 view .LVU1046
 4002              		.loc 1 1635 10 is_stmt 0 view .LVU1047
 4003 054c 2A78     		ldrb	r2, [r5]
 4004              		.loc 1 1637 7 view .LVU1048
 4005 054e 0734     		adds	r4, r4, #7
 4006              	.LVL397:
 4007              		.loc 1 1638 5 is_stmt 1 view .LVU1049
 4008              		.loc 1 1635 9 is_stmt 0 view .LVU1050
 4009 0550 002A     		cmp	r2, #0
 4010 0552 F1D1     		bne	.L288
 4011              	.LVL398:
 4012              	.L291:
 4013              		.loc 1 1635 9 view .LVU1051
 4014              	.LBE544:
 4015              	.LBE543:
 4016              		.loc 1 1720 3 is_stmt 1 view .LVU1052
 4017              		.loc 1 1720 23 is_stmt 0 view .LVU1053
 4018 0554 7D4B     		ldr	r3, .L483+28
 4019 0556 1B78     		ldrb	r3, [r3]
 4020 0558 5BB2     		sxtb	r3, r3
 4021              		.loc 1 1720 6 view .LVU1054
 4022 055a 002B     		cmp	r3, #0
 4023 055c 0EDB     		blt	.L290
 4024              		.loc 1 1720 31 view .LVU1055
 4025 055e 8E22     		movs	r2, #142
 4026              		.loc 1 1720 28 view .LVU1056
 4027 0560 7549     		ldr	r1, .L483+8
 4028              		.loc 1 1720 31 view .LVU1057
 4029 0562 5201     		lsls	r2, r2, #5
 4030              		.loc 1 1720 28 view .LVU1058
 4031 0564 8A58     		ldr	r2, [r1, r2]
 4032 0566 9A42     		cmp	r2, r3
 4033 0568 08D0     		beq	.L290
 4034              		.loc 1 1720 91 view .LVU1059
 4035 056a 8D22     		movs	r2, #141
 4036 056c 9200     		lsls	r2, r2, #2
 4037 056e 9A18     		adds	r2, r3, r2
 4038 0570 D200     		lsls	r2, r2, #3
 4039              		.loc 1 1720 64 view .LVU1060
 4040 0572 8956     		ldrsb	r1, [r1, r2]
 4041 0574 0029     		cmp	r1, #0
 4042 0576 01D0     		beq	.LCB3925
 4043 0578 00F00BFE 		bl	.L472	@far jump
 4044              	.LCB3925:
 4045              	.LVL399:
 4046              	.L290:
 4047              		.loc 1 1739 3 is_stmt 1 view .LVU1061
ARM GAS  /tmp/ccLkBuQr.s 			page 72


 4048              	.LBB545:
 4049              	.LBI465:
 4050              		.loc 1 742 20 view .LVU1062
 4051              	.LBB471:
 4052              		.loc 1 744 3 view .LVU1063
 4053              		.loc 1 744 33 is_stmt 0 view .LVU1064
 4054 057c 189B     		ldr	r3, [sp, #96]
 4055 057e 0F2B     		cmp	r3, #15
 4056 0580 0CDC     		bgt	.L300
 4057              	.LVL400:
 4058              	.LBB470:
 4059              	.LBI467:
 4060              		.loc 1 742 20 is_stmt 1 view .LVU1065
 4061              	.LBB469:
 4062              		.loc 1 745 5 view .LVU1066
 4063              		.loc 1 745 33 is_stmt 0 view .LVU1067
 4064 0582 089A     		ldr	r2, [sp, #32]
 4065 0584 724B     		ldr	r3, .L483+32
 4066 0586 9446     		mov	ip, r2
 4067 0588 1B88     		ldrh	r3, [r3]
 4068 058a 724A     		ldr	r2, .L483+36
 4069 058c DB00     		lsls	r3, r3, #3
 4070 058e 6344     		add	r3, r3, ip
 4071 0590 5B00     		lsls	r3, r3, #1
 4072 0592 D25A     		ldrh	r2, [r2, r3]
 4073 0594 2299     		ldr	r1, [sp, #136]
 4074 0596 0A43     		orrs	r2, r1
 4075 0598 6E49     		ldr	r1, .L483+36
 4076 059a CA52     		strh	r2, [r1, r3]
 4077              	.LVL401:
 4078              	.L300:
 4079              		.loc 1 745 33 view .LVU1068
 4080              	.LBE469:
 4081              	.LBE470:
 4082              	.LBE471:
 4083              	.LBE545:
 4084              	.LBE593:
 4085              	.LBE740:
 4086              		.loc 1 1281 3 is_stmt 1 view .LVU1069
 4087 059c 8022     		movs	r2, #128
 4088 059e 644B     		ldr	r3, .L483
 4089 05a0 9201     		lsls	r2, r2, #6
 4090 05a2 5A83     		strh	r2, [r3, #26]
 4091              		.loc 1 1281 3 view .LVU1070
 4092 05a4 1A83     		strh	r2, [r3, #24]
 4093              		.loc 1 1281 8 view .LVU1071
 4094              		.loc 1 1283 3 view .LVU1072
 4095              		.loc 1 1283 6 is_stmt 0 view .LVU1073
 4096 05a6 189B     		ldr	r3, [sp, #96]
 4097 05a8 002B     		cmp	r3, #0
 4098 05aa 01D1     		bne	.LCB3992
 4099 05ac 00F051FC 		bl	.L298	@far jump
 4100              	.LCB3992:
 4101              	.L299:
 4102              		.loc 1 1286 3 is_stmt 1 view .LVU1074
 4103 05b0 5346     		mov	r3, r10
 4104 05b2 5A46     		mov	r2, fp
ARM GAS  /tmp/ccLkBuQr.s 			page 73


 4105 05b4 0499     		ldr	r1, [sp, #16]
 4106 05b6 1C98     		ldr	r0, [sp, #112]
 4107 05b8 FFF7FEFF 		bl	ili9341_bulk
 4108              	.LVL402:
 4109              		.loc 1 1287 3 view .LVU1075
 4110 05bc 6648     		ldr	r0, .L483+40
 4111 05be FFF7FEFF 		bl	chMtxUnlock
 4112              	.LVL403:
 4113              		.loc 1 1287 3 is_stmt 0 view .LVU1076
 4114 05c2 664B     		ldr	r3, .L483+44
 4115 05c4 1A68     		ldr	r2, [r3]
 4116 05c6 6BE5     		b	.L184
 4117              	.LVL404:
 4118              	.L207:
 4119              	.LBB741:
 4120              		.loc 1 1218 14 is_stmt 1 view .LVU1077
 4121              		.loc 1 1221 14 view .LVU1078
 4122              		.loc 1 1221 17 is_stmt 0 view .LVU1079
 4123 05c8 109D     		ldr	r5, [sp, #64]
 4124              		.loc 1 1215 18 view .LVU1080
 4125 05ca 0023     		movs	r3, #0
 4126              		.loc 1 1221 17 view .LVU1081
 4127 05cc 002D     		cmp	r5, #0
 4128 05ce 00D1     		bne	.LCB4024
 4129 05d0 6FE6     		b	.L210	@long jump
 4130              	.LCB4024:
 4131              		.loc 1 1222 11 is_stmt 1 view .LVU1082
 4132              	.LVL405:
 4133              	.LBB692:
 4134              	.LBI616:
 4135              		.loc 1 113 12 view .LVU1083
 4136              	.LBB637:
 4137              		.loc 1 115 3 view .LVU1084
 4138              		.loc 1 116 3 view .LVU1085
 4139              		.loc 1 119 3 view .LVU1086
 4140              		.loc 1 120 3 view .LVU1087
 4141              		.loc 1 123 3 view .LVU1088
 4142              	.LBB623:
 4143              	.LBI618:
 4144              		.loc 1 98 12 view .LVU1089
 4145              	.LBB621:
 4146              		.loc 1 100 3 view .LVU1090
 4147              		.loc 1 100 12 is_stmt 0 view .LVU1091
 4148 05d2 1300     		movs	r3, r2
 4149 05d4 5343     		muls	r3, r2
 4150              		.loc 1 100 15 view .LVU1092
 4151 05d6 9946     		mov	r9, r3
 4152              		.loc 1 100 7 view .LVU1093
 4153 05d8 614B     		ldr	r3, .L483+48
 4154              		.loc 1 100 15 view .LVU1094
 4155 05da 8144     		add	r9, r9, r0
 4156              		.loc 1 100 7 view .LVU1095
 4157 05dc 4B44     		add	r3, r3, r9
 4158              	.LVL406:
 4159              		.loc 1 101 3 is_stmt 1 view .LVU1096
 4160              		.loc 1 101 6 is_stmt 0 view .LVU1097
 4161 05de 1D00     		movs	r5, r3
ARM GAS  /tmp/ccLkBuQr.s 			page 74


 4162 05e0 7335     		adds	r5, r5, #115
 4163 05e2 00DB     		blt	.LCB4056
 4164 05e4 61E6     		b	.L461	@long jump
 4165              	.LCB4056:
 4166              	.LBE621:
 4167              	.LBE623:
 4168              		.loc 1 125 3 is_stmt 1 view .LVU1098
 4169              		.loc 1 128 3 view .LVU1099
 4170              		.loc 1 128 6 is_stmt 0 view .LVU1100
 4171 05e6 002A     		cmp	r2, #0
 4172 05e8 00D1     		bne	.LCB4062
 4173 05ea 61E6     		b	.L349	@long jump
 4174              	.LCB4062:
 4175              		.loc 1 128 14 view .LVU1101
 4176 05ec 002C     		cmp	r4, #0
 4177 05ee 00D1     		bne	.LCB4064
 4178 05f0 5EE6     		b	.L349	@long jump
 4179              	.LCB4064:
 4180              		.loc 1 131 3 is_stmt 1 view .LVU1102
 4181              	.LVL407:
 4182              	.LBB624:
 4183              	.LBI624:
 4184              		.loc 1 98 12 view .LVU1103
 4185              	.LBB625:
 4186              		.loc 1 100 3 view .LVU1104
 4187              		.loc 1 100 7 is_stmt 0 view .LVU1105
 4188 05f2 5C4B     		ldr	r3, .L483+52
 4189              	.LVL408:
 4190              		.loc 1 100 7 view .LVU1106
 4191 05f4 4B44     		add	r3, r3, r9
 4192 05f6 9B46     		mov	fp, r3
 4193              	.LVL409:
 4194              		.loc 1 101 3 is_stmt 1 view .LVU1107
 4195              		.loc 1 101 6 is_stmt 0 view .LVU1108
 4196 05f8 1633     		adds	r3, r3, #22
 4197 05fa 24DB     		blt	.L352
 4198              	.LVL410:
 4199              		.loc 1 103 3 is_stmt 1 view .LVU1109
 4200              		.loc 1 103 6 is_stmt 0 view .LVU1110
 4201 05fc 5D46     		mov	r5, fp
 4202 05fe 0B00     		movs	r3, r1
 4203 0600 172D     		cmp	r5, #23
 4204 0602 00DC     		bgt	.LCB4086
 4205 0604 55E6     		b	.L210	@long jump
 4206              	.LCB4086:
 4207              	.LBE625:
 4208              	.LBE624:
 4209              		.loc 1 133 3 is_stmt 1 view .LVU1111
 4210              		.loc 1 135 3 view .LVU1112
 4211              	.LVL411:
 4212              	.LBB626:
 4213              	.LBI626:
 4214              		.loc 1 98 12 view .LVU1113
 4215              	.LBB627:
 4216              		.loc 1 100 3 view .LVU1114
 4217              		.loc 1 100 7 is_stmt 0 view .LVU1115
 4218 0606 584B     		ldr	r3, .L483+56
ARM GAS  /tmp/ccLkBuQr.s 			page 75


 4219 0608 4B44     		add	r3, r3, r9
 4220 060a 9B46     		mov	fp, r3
 4221              	.LVL412:
 4222              		.loc 1 101 3 is_stmt 1 view .LVU1116
 4223              		.loc 1 101 6 is_stmt 0 view .LVU1117
 4224 060c 2D33     		adds	r3, r3, #45
 4225 060e 1ADB     		blt	.L352
 4226              	.LVL413:
 4227              		.loc 1 103 3 is_stmt 1 view .LVU1118
 4228              		.loc 1 103 6 is_stmt 0 view .LVU1119
 4229 0610 5D46     		mov	r5, fp
 4230              	.LVL414:
 4231              		.loc 1 103 6 view .LVU1120
 4232 0612 0B00     		movs	r3, r1
 4233 0614 2E2D     		cmp	r5, #46
 4234 0616 00DC     		bgt	.LCB4112
 4235 0618 4BE6     		b	.L210	@long jump
 4236              	.LCB4112:
 4237              	.LBE627:
 4238              	.LBE626:
 4239              		.loc 1 137 3 is_stmt 1 view .LVU1121
 4240              		.loc 1 140 3 view .LVU1122
 4241              		.loc 1 140 6 is_stmt 0 view .LVU1123
 4242 061a A242     		cmp	r2, r4
 4243 061c 00D1     		bne	.LCB4118
 4244 061e 47E6     		b	.L349	@long jump
 4245              	.LCB4118:
 4246              		.loc 1 140 14 view .LVU1124
 4247 0620 139B     		ldr	r3, [sp, #76]
 4248 0622 9A42     		cmp	r2, r3
 4249 0624 00D1     		bne	.LCB4121
 4250 0626 43E6     		b	.L349	@long jump
 4251              	.LCB4121:
 4252              		.loc 1 143 3 is_stmt 1 view .LVU1125
 4253              	.LVL415:
 4254              	.LBB628:
 4255              	.LBI628:
 4256              		.loc 1 98 12 view .LVU1126
 4257              	.LBB629:
 4258              		.loc 1 100 3 view .LVU1127
 4259              		.loc 1 100 7 is_stmt 0 view .LVU1128
 4260 0628 504B     		ldr	r3, .L483+60
 4261 062a 4B44     		add	r3, r3, r9
 4262 062c 9B46     		mov	fp, r3
 4263              	.LVL416:
 4264              		.loc 1 101 3 is_stmt 1 view .LVU1129
 4265              		.loc 1 101 6 is_stmt 0 view .LVU1130
 4266 062e 4433     		adds	r3, r3, #68
 4267 0630 09DB     		blt	.L352
 4268              	.LVL417:
 4269              		.loc 1 103 3 is_stmt 1 view .LVU1131
 4270              		.loc 1 103 6 is_stmt 0 view .LVU1132
 4271 0632 5D46     		mov	r5, fp
 4272              	.LVL418:
 4273              		.loc 1 103 6 view .LVU1133
 4274 0634 0B00     		movs	r3, r1
 4275 0636 452D     		cmp	r5, #69
ARM GAS  /tmp/ccLkBuQr.s 			page 76


 4276 0638 00DC     		bgt	.LCB4144
 4277 063a 3AE6     		b	.L210	@long jump
 4278              	.LCB4144:
 4279              	.LBE629:
 4280              	.LBE628:
 4281              		.loc 1 145 3 is_stmt 1 view .LVU1134
 4282              		.loc 1 147 3 view .LVU1135
 4283              	.LVL419:
 4284              	.LBB630:
 4285              	.LBI630:
 4286              		.loc 1 98 12 view .LVU1136
 4287              	.LBB631:
 4288              		.loc 1 100 3 view .LVU1137
 4289              		.loc 1 101 3 view .LVU1138
 4290              		.loc 1 103 3 view .LVU1139
 4291              		.loc 1 103 6 is_stmt 0 view .LVU1140
 4292 063c 4C4B     		ldr	r3, .L483+64
 4293 063e 4B44     		add	r3, r3, r9
 4294 0640 B72B     		cmp	r3, #183
 4295 0642 00D8     		bhi	.LCB4162
 4296 0644 34E6     		b	.L349	@long jump
 4297              	.LCB4162:
 4298              	.LVL420:
 4299              	.L352:
 4300              		.loc 1 103 6 view .LVU1141
 4301 0646 0023     		movs	r3, #0
 4302              	.LVL421:
 4303              		.loc 1 103 6 view .LVU1142
 4304 0648 33E6     		b	.L210
 4305              	.LVL422:
 4306              	.L208:
 4307              		.loc 1 103 6 view .LVU1143
 4308              	.LBE631:
 4309              	.LBE630:
 4310              	.LBE637:
 4311              	.LBE692:
 4312              	.LBB693:
 4313              	.LBB688:
 4314              		.loc 1 169 3 is_stmt 1 view .LVU1144
 4315              		.loc 1 173 3 view .LVU1145
 4316              		.loc 1 173 6 is_stmt 0 view .LVU1146
 4317 064a 002C     		cmp	r4, #0
 4318 064c 00D1     		bne	.LCB4211
 4319 064e 2FE6     		b	.L349	@long jump
 4320              	.LCB4211:
 4321              		.loc 1 177 3 is_stmt 1 view .LVU1147
 4322 0650 1300     		movs	r3, r2
 4323              	.LVL423:
 4324              	.LBB671:
 4325              	.LBB666:
 4326              		.loc 1 103 6 is_stmt 0 view .LVU1148
 4327 0652 484D     		ldr	r5, .L483+68
 4328 0654 743B     		subs	r3, r3, #116
 4329              	.LVL424:
 4330              		.loc 1 103 6 view .LVU1149
 4331              	.LBE666:
 4332              	.LBE671:
ARM GAS  /tmp/ccLkBuQr.s 			page 77


 4333              		.loc 1 180 3 is_stmt 1 view .LVU1150
 4334              	.LBB672:
 4335              	.LBI664:
 4336              		.loc 1 98 12 view .LVU1151
 4337              	.LBB667:
 4338              		.loc 1 100 3 view .LVU1152
 4339              		.loc 1 103 6 is_stmt 0 view .LVU1153
 4340 0656 AB46     		mov	fp, r5
 4341              		.loc 1 100 12 view .LVU1154
 4342 0658 5B43     		muls	r3, r3
 4343              	.LVL425:
 4344              		.loc 1 100 12 view .LVU1155
 4345 065a 9946     		mov	r9, r3
 4346              	.LVL426:
 4347              		.loc 1 101 3 is_stmt 1 view .LVU1156
 4348              		.loc 1 103 3 view .LVU1157
 4349              		.loc 1 100 15 is_stmt 0 view .LVU1158
 4350 065c DB19     		adds	r3, r3, r7
 4351              	.LVL427:
 4352              		.loc 1 103 6 view .LVU1159
 4353 065e 9B44     		add	fp, fp, r3
 4354 0660 5D46     		mov	r5, fp
 4355 0662 0B00     		movs	r3, r1
 4356 0664 732D     		cmp	r5, #115
 4357 0666 00D8     		bhi	.LCB4245
 4358 0668 23E6     		b	.L210	@long jump
 4359              	.LCB4245:
 4360              	.LBE667:
 4361              	.LBE672:
 4362              		.loc 1 182 3 is_stmt 1 view .LVU1160
 4363              	.LVL428:
 4364              	.LBB673:
 4365              	.LBI642:
 4366              		.loc 1 98 12 view .LVU1161
 4367              	.LBB644:
 4368              		.loc 1 100 3 view .LVU1162
 4369              		.loc 1 101 3 view .LVU1163
 4370              		.loc 1 103 3 view .LVU1164
 4371              		.loc 1 103 6 is_stmt 0 view .LVU1165
 4372 066a 424D     		ldr	r5, .L483+68
 4373              		.loc 1 100 15 view .LVU1166
 4374 066c 4B46     		mov	r3, r9
 4375              		.loc 1 103 6 view .LVU1167
 4376 066e AB46     		mov	fp, r5
 4377              		.loc 1 100 15 view .LVU1168
 4378 0670 6344     		add	r3, r3, ip
 4379              		.loc 1 103 6 view .LVU1169
 4380 0672 9B44     		add	fp, fp, r3
 4381 0674 5D46     		mov	r5, fp
 4382 0676 0B00     		movs	r3, r1
 4383 0678 732D     		cmp	r5, #115
 4384 067a 00D8     		bhi	.LCB4267
 4385 067c 19E6     		b	.L210	@long jump
 4386              	.LCB4267:
 4387              	.LBE644:
 4388              	.LBE673:
 4389              		.loc 1 186 3 is_stmt 1 view .LVU1170
ARM GAS  /tmp/ccLkBuQr.s 			page 78


 4390 067e 1300     		movs	r3, r2
 4391              	.LBB674:
 4392              	.LBB675:
 4393              		.loc 1 100 7 is_stmt 0 view .LVU1171
 4394 0680 3D4D     		ldr	r5, .L483+72
 4395 0682 573B     		subs	r3, r3, #87
 4396              	.LVL429:
 4397              		.loc 1 100 7 view .LVU1172
 4398              	.LBE675:
 4399              	.LBI674:
 4400              		.loc 1 98 12 is_stmt 1 view .LVU1173
 4401              	.LBB676:
 4402              		.loc 1 100 3 view .LVU1174
 4403              		.loc 1 100 7 is_stmt 0 view .LVU1175
 4404 0684 AB46     		mov	fp, r5
 4405              		.loc 1 100 12 view .LVU1176
 4406 0686 5B43     		muls	r3, r3
 4407              	.LVL430:
 4408              		.loc 1 100 15 view .LVU1177
 4409 0688 1B18     		adds	r3, r3, r0
 4410              		.loc 1 100 7 view .LVU1178
 4411 068a 9B44     		add	fp, fp, r3
 4412              	.LVL431:
 4413              		.loc 1 101 3 is_stmt 1 view .LVU1179
 4414              		.loc 1 101 6 is_stmt 0 view .LVU1180
 4415 068c 5B46     		mov	r3, fp
 4416 068e 1C33     		adds	r3, r3, #28
 4417 0690 D9DB     		blt	.L352
 4418              		.loc 1 103 3 is_stmt 1 view .LVU1181
 4419              		.loc 1 103 6 is_stmt 0 view .LVU1182
 4420 0692 5D46     		mov	r5, fp
 4421 0694 0B00     		movs	r3, r1
 4422 0696 1D2D     		cmp	r5, #29
 4423 0698 00DC     		bgt	.LCB4297
 4424 069a 0AE6     		b	.L210	@long jump
 4425              	.LCB4297:
 4426              	.LBE676:
 4427              	.LBE674:
 4428              		.loc 1 188 3 is_stmt 1 view .LVU1183
 4429              		.loc 1 191 3 view .LVU1184
 4430              	.LVL432:
 4431              	.LBB677:
 4432              	.LBI651:
 4433              		.loc 1 98 12 view .LVU1185
 4434              	.LBB655:
 4435              		.loc 1 100 3 view .LVU1186
 4436              		.loc 1 101 3 view .LVU1187
 4437              		.loc 1 103 3 view .LVU1188
 4438              		.loc 1 100 15 is_stmt 0 view .LVU1189
 4439 069c 0A9D     		ldr	r5, [sp, #40]
 4440 069e 4B46     		mov	r3, r9
 4441 06a0 AB46     		mov	fp, r5
 4442              	.LVL433:
 4443              		.loc 1 103 6 view .LVU1190
 4444 06a2 364D     		ldr	r5, .L483+76
 4445              		.loc 1 100 15 view .LVU1191
 4446 06a4 5B44     		add	r3, r3, fp
ARM GAS  /tmp/ccLkBuQr.s 			page 79


 4447              		.loc 1 103 6 view .LVU1192
 4448 06a6 AB46     		mov	fp, r5
 4449 06a8 9B44     		add	fp, fp, r3
 4450 06aa 5D46     		mov	r5, fp
 4451 06ac 0B00     		movs	r3, r1
 4452 06ae E72D     		cmp	r5, #231
 4453 06b0 00D8     		bhi	.LCB4323
 4454 06b2 FEE5     		b	.L210	@long jump
 4455              	.LCB4323:
 4456              	.LBE655:
 4457              	.LBE677:
 4458              		.loc 1 193 3 is_stmt 1 view .LVU1193
 4459              	.LVL434:
 4460              	.LBB678:
 4461              	.LBI645:
 4462              		.loc 1 98 12 view .LVU1194
 4463              	.LBB647:
 4464              		.loc 1 100 3 view .LVU1195
 4465              		.loc 1 101 3 view .LVU1196
 4466              		.loc 1 103 3 view .LVU1197
 4467              		.loc 1 103 6 is_stmt 0 view .LVU1198
 4468 06b4 314D     		ldr	r5, .L483+76
 4469              		.loc 1 100 15 view .LVU1199
 4470 06b6 129B     		ldr	r3, [sp, #72]
 4471              		.loc 1 103 6 view .LVU1200
 4472 06b8 AB46     		mov	fp, r5
 4473              		.loc 1 100 15 view .LVU1201
 4474 06ba 4B44     		add	r3, r3, r9
 4475              		.loc 1 103 6 view .LVU1202
 4476 06bc 9B44     		add	fp, fp, r3
 4477 06be 5D46     		mov	r5, fp
 4478 06c0 0B00     		movs	r3, r1
 4479 06c2 E72D     		cmp	r5, #231
 4480 06c4 00D8     		bhi	.LCB4345
 4481 06c6 F4E5     		b	.L210	@long jump
 4482              	.LCB4345:
 4483              	.LBE647:
 4484              	.LBE678:
 4485              		.loc 1 197 3 is_stmt 1 view .LVU1203
 4486 06c8 1300     		movs	r3, r2
 4487              	.LBB679:
 4488              	.LBB680:
 4489              		.loc 1 100 7 is_stmt 0 view .LVU1204
 4490 06ca 2D4D     		ldr	r5, .L483+80
 4491 06cc 3A3B     		subs	r3, r3, #58
 4492              	.LVL435:
 4493              		.loc 1 100 7 view .LVU1205
 4494              	.LBE680:
 4495              	.LBI679:
 4496              		.loc 1 98 12 is_stmt 1 view .LVU1206
 4497              	.LBB681:
 4498              		.loc 1 100 3 view .LVU1207
 4499              		.loc 1 100 7 is_stmt 0 view .LVU1208
 4500 06ce AB46     		mov	fp, r5
 4501              		.loc 1 100 12 view .LVU1209
 4502 06d0 5B43     		muls	r3, r3
 4503              	.LVL436:
ARM GAS  /tmp/ccLkBuQr.s 			page 80


 4504              		.loc 1 100 15 view .LVU1210
 4505 06d2 1B18     		adds	r3, r3, r0
 4506              		.loc 1 100 7 view .LVU1211
 4507 06d4 9B44     		add	fp, fp, r3
 4508              	.LVL437:
 4509              		.loc 1 101 3 is_stmt 1 view .LVU1212
 4510              		.loc 1 101 6 is_stmt 0 view .LVU1213
 4511 06d6 5B46     		mov	r3, fp
 4512 06d8 3933     		adds	r3, r3, #57
 4513 06da B4DB     		blt	.L352
 4514              		.loc 1 103 3 is_stmt 1 view .LVU1214
 4515              		.loc 1 103 6 is_stmt 0 view .LVU1215
 4516 06dc 5D46     		mov	r5, fp
 4517 06de 0B00     		movs	r3, r1
 4518 06e0 3A2D     		cmp	r5, #58
 4519 06e2 00DC     		bgt	.LCB4375
 4520 06e4 E5E5     		b	.L210	@long jump
 4521              	.LCB4375:
 4522              	.LBE681:
 4523              	.LBE679:
 4524              		.loc 1 199 3 is_stmt 1 view .LVU1216
 4525              		.loc 1 202 3 view .LVU1217
 4526              	.LVL438:
 4527              	.LBB682:
 4528              	.LBI648:
 4529              		.loc 1 98 12 view .LVU1218
 4530              	.LBB650:
 4531              		.loc 1 100 3 view .LVU1219
 4532              		.loc 1 101 3 view .LVU1220
 4533              		.loc 1 103 3 view .LVU1221
 4534              		.loc 1 103 6 is_stmt 0 view .LVU1222
 4535 06e6 274D     		ldr	r5, .L483+84
 4536              		.loc 1 100 15 view .LVU1223
 4537 06e8 149B     		ldr	r3, [sp, #80]
 4538              		.loc 1 103 6 view .LVU1224
 4539 06ea AB46     		mov	fp, r5
 4540              	.LVL439:
 4541              		.loc 1 103 6 view .LVU1225
 4542 06ec D025     		movs	r5, #208
 4543              		.loc 1 100 15 view .LVU1226
 4544 06ee 4B44     		add	r3, r3, r9
 4545              		.loc 1 103 6 view .LVU1227
 4546 06f0 9B44     		add	fp, fp, r3
 4547 06f2 FF35     		adds	r5, r5, #255
 4548 06f4 0B00     		movs	r3, r1
 4549 06f6 AB45     		cmp	fp, r5
 4550 06f8 00D8     		bhi	.LCB4400
 4551 06fa DAE5     		b	.L210	@long jump
 4552              	.LCB4400:
 4553              	.LBE650:
 4554              	.LBE682:
 4555              		.loc 1 204 3 is_stmt 1 view .LVU1228
 4556              	.LVL440:
 4557              	.LBB683:
 4558              	.LBI656:
 4559              		.loc 1 98 12 view .LVU1229
 4560              	.LBB660:
ARM GAS  /tmp/ccLkBuQr.s 			page 81


 4561              		.loc 1 100 3 view .LVU1230
 4562              		.loc 1 101 3 view .LVU1231
 4563              		.loc 1 103 3 view .LVU1232
 4564              		.loc 1 100 15 is_stmt 0 view .LVU1233
 4565 06fc 159B     		ldr	r3, [sp, #84]
 4566 06fe 9B46     		mov	fp, r3
 4567              		.loc 1 103 6 view .LVU1234
 4568 0700 204B     		ldr	r3, .L483+84
 4569              		.loc 1 100 15 view .LVU1235
 4570 0702 D944     		add	r9, r9, fp
 4571              	.LVL441:
 4572              		.loc 1 103 6 view .LVU1236
 4573 0704 9B46     		mov	fp, r3
 4574 0706 D944     		add	r9, r9, fp
 4575 0708 0B00     		movs	r3, r1
 4576 070a A945     		cmp	r9, r5
 4577 070c 00D8     		bhi	.LCB4428
 4578 070e D0E5     		b	.L210	@long jump
 4579              	.LCB4428:
 4580              	.LBE660:
 4581              	.LBE683:
 4582              		.loc 1 208 3 is_stmt 1 view .LVU1237
 4583 0710 1300     		movs	r3, r2
 4584              	.LBB684:
 4585              	.LBB685:
 4586              		.loc 1 103 6 is_stmt 0 view .LVU1238
 4587 0712 1D4D     		ldr	r5, .L483+88
 4588 0714 1D3B     		subs	r3, r3, #29
 4589              	.LVL442:
 4590              		.loc 1 103 6 view .LVU1239
 4591              	.LBE685:
 4592              	.LBI684:
 4593              		.loc 1 98 12 is_stmt 1 view .LVU1240
 4594              	.LBB686:
 4595              		.loc 1 100 3 view .LVU1241
 4596              		.loc 1 101 3 view .LVU1242
 4597              		.loc 1 103 3 view .LVU1243
 4598              		.loc 1 103 6 is_stmt 0 view .LVU1244
 4599 0716 A946     		mov	r9, r5
 4600              		.loc 1 100 12 view .LVU1245
 4601 0718 5B43     		muls	r3, r3
 4602              	.LVL443:
 4603              		.loc 1 100 15 view .LVU1246
 4604 071a 1B18     		adds	r3, r3, r0
 4605              		.loc 1 103 6 view .LVU1247
 4606 071c 4B44     		add	r3, r3, r9
 4607 071e AD2B     		cmp	r3, #173
 4608 0720 00D8     		bhi	.LCB4454
 4609 0722 C5E5     		b	.L349	@long jump
 4610              	.LCB4454:
 4611              	.LBE686:
 4612              	.LBE684:
 4613              	.LBE688:
 4614              	.LBE693:
 4615              	.LBB694:
 4616              	.LBB638:
 4617              	.LBB633:
ARM GAS  /tmp/ccLkBuQr.s 			page 82


 4618              	.LBB632:
 4619 0724 0023     		movs	r3, #0
 4620              	.LVL444:
 4621              		.loc 1 103 6 view .LVU1248
 4622 0726 C4E5     		b	.L210
 4623              	.LVL445:
 4624              	.L325:
 4625              		.loc 1 103 6 view .LVU1249
 4626              	.LBE632:
 4627              	.LBE633:
 4628              	.LBE638:
 4629              	.LBE694:
 4630              	.LBE741:
 4631              	.LBB742:
 4632              	.LBB607:
 4633              	.LBB603:
 4634              		.loc 1 369 14 view .LVU1250
 4635 0728 4046     		mov	r0, r8
 4636 072a 3BE5     		b	.L196
 4637              	.LVL446:
 4638              	.L199:
 4639              		.loc 1 369 14 view .LVU1251
 4640              	.LBE603:
 4641              	.LBE607:
 4642              	.LBE742:
 4643              	.LBB743:
 4644              	.LBB613:
 4645              	.LBB612:
 4646              		.loc 1 381 6 view .LVU1252
 4647 072c 3000     		movs	r0, r6
 4648 072e 61E5     		b	.L200
 4649              	.L484:
 4650              		.align	2
 4651              	.L483:
 4652 0730 00080048 		.word	1207961600
 4653 0734 A0110000 		.word	current_props+4512
 4654 0738 00000000 		.word	current_props
 4655 073c 6C110000 		.word	4460
 4656 0740 3C000000 		.word	.LC70
 4657 0744 FFFF0000 		.word	65535
 4658 0748 C4110000 		.word	4548
 4659 074c 00000000 		.word	previous_marker
 4660 0750 00000000 		.word	.LANCHOR0
 4661 0754 00000000 		.word	.LANCHOR1
 4662 0758 00000000 		.word	mutex_ili9341
 4663 075c 00000000 		.word	.LANCHOR4
 4664 0760 70CBFFFF 		.word	-13456
 4665 0764 EFFDFFFF 		.word	-529
 4666 0768 BCF7FFFF 		.word	-2116
 4667 076c 67EDFFFF 		.word	-4761
 4668 0770 4BDFFFFF 		.word	-8373
 4669 0774 15F3FFFF 		.word	-3307
 4670 0778 B7FCFFFF 		.word	-841
 4671 077c E3CBFFFF 		.word	-13341
 4672 0780 DCF2FFFF 		.word	-3364
 4673 0784 A72EFFFF 		.word	-53593
 4674 0788 C5E2FFFF 		.word	-7483
ARM GAS  /tmp/ccLkBuQr.s 			page 83


 4675              	.LVL447:
 4676              	.L238:
 4677              		.loc 1 381 6 view .LVU1253
 4678 078c 4246     		mov	r2, r8
 4679 078e 1A23     		movs	r3, #26
 4680 0790 5343     		muls	r3, r2
 4681 0792 1B9A     		ldr	r2, [sp, #108]
 4682              	.LBE612:
 4683              	.LBE613:
 4684              	.LBE743:
 4685              	.LBB744:
 4686              	.LBB736:
 4687              		.loc 1 1105 12 view .LVU1254
 4688 0794 0026     		movs	r6, #0
 4689 0796 9446     		mov	ip, r2
 4690 0798 6344     		add	r3, r3, ip
 4691 079a 1393     		str	r3, [sp, #76]
 4692              		.loc 1 1103 8 view .LVU1255
 4693 079c 0F9B     		ldr	r3, [sp, #60]
 4694 079e 9C46     		mov	ip, r3
 4695              	.LBB733:
 4696              		.loc 1 1111 23 view .LVU1256
 4697 07a0 4B46     		mov	r3, r9
 4698 07a2 0533     		adds	r3, r3, #5
 4699 07a4 0D93     		str	r3, [sp, #52]
 4700 07a6 6346     		mov	r3, ip
 4701 07a8 C446     		mov	ip, r8
 4702 07aa C846     		mov	r8, r9
 4703              	.LVL448:
 4704              		.loc 1 1111 23 view .LVU1257
 4705 07ac D146     		mov	r9, r10
 4706              	.LVL449:
 4707              		.loc 1 1111 23 view .LVU1258
 4708 07ae BA46     		mov	r10, r7
 4709              	.LVL450:
 4710              		.loc 1 1111 23 view .LVU1259
 4711 07b0 1F00     		movs	r7, r3
 4712              	.LVL451:
 4713              	.L242:
 4714              		.loc 1 1106 7 is_stmt 1 view .LVU1260
 4715              		.loc 1 1106 10 is_stmt 0 view .LVU1261
 4716 07b2 3B78     		ldrb	r3, [r7]
 4717 07b4 002B     		cmp	r3, #0
 4718 07b6 24D0     		beq	.L244
 4719              		.loc 1 1108 7 is_stmt 1 view .LVU1262
 4720              		.loc 1 1108 49 is_stmt 0 view .LVU1263
 4721 07b8 5346     		mov	r3, r10
 4722 07ba 0222     		movs	r2, #2
 4723 07bc 9A5E     		ldrsh	r2, [r3, r2]
 4724              		.loc 1 1108 16 view .LVU1264
 4725 07be 6523     		movs	r3, #101
 4726              		.loc 1 1109 15 view .LVU1265
 4727 07c0 F824     		movs	r4, #248
 4728 07c2 1F20     		movs	r0, #31
 4729              		.loc 1 1108 16 view .LVU1266
 4730 07c4 7343     		muls	r3, r6
 4731 07c6 9B18     		adds	r3, r3, r2
ARM GAS  /tmp/ccLkBuQr.s 			page 84


 4732 07c8 C04A     		ldr	r2, .L485
 4733 07ca 9B00     		lsls	r3, r3, #2
 4734 07cc D258     		ldr	r2, [r2, r3]
 4735              	.LVL452:
 4736              		.loc 1 1109 7 is_stmt 1 view .LVU1267
 4737              		.loc 1 1109 15 is_stmt 0 view .LVU1268
 4738 07ce A400     		lsls	r4, r4, #2
 4739 07d0 5309     		lsrs	r3, r2, #5
 4740 07d2 910D     		lsrs	r1, r2, #22
 4741 07d4 2140     		ands	r1, r4
 4742 07d6 0340     		ands	r3, r0
 4743 07d8 0B43     		orrs	r3, r1
 4744              		.loc 1 1109 11 view .LVU1269
 4745 07da 0699     		ldr	r1, [sp, #24]
 4746 07dc 5B1A     		subs	r3, r3, r1
 4747              	.LVL453:
 4748              		.loc 1 1110 7 is_stmt 1 view .LVU1270
 4749              		.loc 1 1111 7 view .LVU1271
 4750              		.loc 1 1111 10 is_stmt 0 view .LVU1272
 4751 07de 591D     		adds	r1, r3, #5
 4752 07e0 0FDB     		blt	.L244
 4753              		.loc 1 1111 18 view .LVU1273
 4754 07e2 0D99     		ldr	r1, [sp, #52]
 4755 07e4 8B42     		cmp	r3, r1
 4756 07e6 0CDC     		bgt	.L244
 4757              		.loc 1 1110 15 view .LVU1274
 4758 07e8 510C     		lsrs	r1, r2, #17
 4759              	.LVL454:
 4760              		.loc 1 1110 15 view .LVU1275
 4761 07ea 2140     		ands	r1, r4
 4762              	.LVL455:
 4763              		.loc 1 1110 15 view .LVU1276
 4764 07ec 0240     		ands	r2, r0
 4765              	.LVL456:
 4766              		.loc 1 1110 15 view .LVU1277
 4767 07ee 0A43     		orrs	r2, r1
 4768              	.LVL457:
 4769              		.loc 1 1110 11 view .LVU1278
 4770 07f0 0499     		ldr	r1, [sp, #16]
 4771 07f2 511A     		subs	r1, r2, r1
 4772 07f4 0A91     		str	r1, [sp, #40]
 4773              		.loc 1 1111 29 view .LVU1279
 4774 07f6 04D4     		bmi	.L244
 4775              		.loc 1 1111 44 view .LVU1280
 4776 07f8 4A46     		mov	r2, r9
 4777 07fa 0B32     		adds	r2, r2, #11
 4778              		.loc 1 1111 39 view .LVU1281
 4779 07fc 9142     		cmp	r1, r2
 4780 07fe 00DC     		bgt	.LCB4677
 4781 0800 7CE3     		b	.L473	@long jump
 4782              	.LCB4677:
 4783              	.LVL458:
 4784              	.L244:
 4785              		.loc 1 1111 39 view .LVU1282
 4786              	.LBE733:
 4787              		.loc 1 1105 35 view .LVU1283
 4788 0802 0136     		adds	r6, r6, #1
ARM GAS  /tmp/ccLkBuQr.s 			page 85


 4789              	.LVL459:
 4790              		.loc 1 1105 35 view .LVU1284
 4791 0804 0C37     		adds	r7, r7, #12
 4792              		.loc 1 1105 5 view .LVU1285
 4793 0806 042E     		cmp	r6, #4
 4794 0808 D3D1     		bne	.L242
 4795 080a 5746     		mov	r7, r10
 4796 080c CA46     		mov	r10, r9
 4797 080e C146     		mov	r9, r8
 4798              	.LVL460:
 4799              		.loc 1 1105 5 view .LVU1286
 4800 0810 E046     		mov	r8, ip
 4801              	.LVL461:
 4802              		.loc 1 1105 5 view .LVU1287
 4803 0812 01E6     		b	.L243
 4804              	.LVL462:
 4805              	.L323:
 4806              		.loc 1 1105 5 view .LVU1288
 4807              	.LBE736:
 4808              	.LBE744:
 4809              	.LBB745:
 4810              	.LBB608:
 4811              	.LBB604:
 4812              		.loc 1 367 6 view .LVU1289
 4813 0814 0020     		movs	r0, #0
 4814 0816 C5E4     		b	.L196
 4815              	.LVL463:
 4816              	.L452:
 4817              		.loc 1 367 6 view .LVU1290
 4818 0818 A846     		mov	r8, r5
 4819              	.LVL464:
 4820              	.L320:
 4821              		.loc 1 367 6 view .LVU1291
 4822              	.LBE604:
 4823              	.LBE608:
 4824              	.LBE745:
 4825              	.LBB746:
 4826              	.LBB701:
 4827              		.loc 1 982 9 view .LVU1292
 4828 081a 002C     		cmp	r4, #0
 4829 081c 01DC     		bgt	.LCB4749
 4830 081e 00F075FE 		bl	.L355	@far jump
 4831              	.LCB4749:
 4832              		.loc 1 982 24 view .LVU1293
 4833 0822 4246     		mov	r2, r8
 4834              	.LVL465:
 4835              		.loc 1 982 24 view .LVU1294
 4836 0824 AA4B     		ldr	r3, .L485+4
 4837 0826 E318     		adds	r3, r4, r3
 4838 0828 9B00     		lsls	r3, r3, #2
 4839 082a 9B58     		ldr	r3, [r3, r2]
 4840 082c 9B0D     		lsrs	r3, r3, #22
 4841 082e 3340     		ands	r3, r6
 4842              		.loc 1 982 16 view .LVU1295
 4843 0830 9F42     		cmp	r7, r3
 4844 0832 01D0     		beq	.LCB4759
 4845 0834 00F024FD 		bl	.L356	@far jump
ARM GAS  /tmp/ccLkBuQr.s 			page 86


 4846              	.LCB4759:
 4847              	.LVL466:
 4848              		.loc 1 982 16 view .LVU1296
 4849 0838 A64B     		ldr	r3, .L485+8
 4850 083a 2500     		movs	r5, r4
 4851 083c E218     		adds	r2, r4, r3
 4852              	.LVL467:
 4853              		.loc 1 982 16 view .LVU1297
 4854 083e 9200     		lsls	r2, r2, #2
 4855 0840 4244     		add	r2, r2, r8
 4856 0842 05E0     		b	.L229
 4857              	.LVL468:
 4858              	.L474:
 4859              		.loc 1 982 24 view .LVU1298
 4860 0844 1368     		ldr	r3, [r2]
 4861 0846 043A     		subs	r2, r2, #4
 4862 0848 9B0D     		lsrs	r3, r3, #22
 4863 084a 3340     		ands	r3, r6
 4864              		.loc 1 982 16 view .LVU1299
 4865 084c 9F42     		cmp	r7, r3
 4866 084e 02D1     		bne	.L228
 4867              	.LVL469:
 4868              	.L229:
 4869              		.loc 1 983 5 is_stmt 1 view .LVU1300
 4870              		.loc 1 983 6 is_stmt 0 view .LVU1301
 4871 0850 013D     		subs	r5, r5, #1
 4872              	.LVL470:
 4873              		.loc 1 982 9 view .LVU1302
 4874 0852 002D     		cmp	r5, #0
 4875 0854 F6D1     		bne	.L474
 4876              	.LVL471:
 4877              	.L228:
 4878              		.loc 1 986 9 view .LVU1303
 4879 0856 632C     		cmp	r4, #99
 4880 0858 18DC     		bgt	.L230
 4881              	.L227:
 4882              		.loc 1 986 26 view .LVU1304
 4883 085a 4146     		mov	r1, r8
 4884 085c 621C     		adds	r2, r4, #1
 4885 085e 9300     		lsls	r3, r2, #2
 4886 0860 5B58     		ldr	r3, [r3, r1]
 4887 0862 9B0D     		lsrs	r3, r3, #22
 4888 0864 3340     		ands	r3, r6
 4889              		.loc 1 986 18 view .LVU1305
 4890 0866 9F42     		cmp	r7, r3
 4891 0868 01D0     		beq	.LCB4808
 4892 086a 00F08BFC 		bl	.L231	@far jump
 4893              	.LCB4808:
 4894              	.LVL472:
 4895              	.L219:
 4896              		.loc 1 986 18 view .LVU1306
 4897 086e A11C     		adds	r1, r4, #2
 4898 0870 8900     		lsls	r1, r1, #2
 4899 0872 4144     		add	r1, r1, r8
 4900 0874 07E0     		b	.L232
 4901              	.LVL473:
 4902              	.L475:
ARM GAS  /tmp/ccLkBuQr.s 			page 87


 4903              		.loc 1 986 26 view .LVU1307
 4904 0876 08C9     		ldmia	r1!, {r3}
 4905 0878 0132     		adds	r2, r2, #1
 4906              	.LVL474:
 4907              		.loc 1 986 26 view .LVU1308
 4908 087a 9B0D     		lsrs	r3, r3, #22
 4909 087c 3340     		ands	r3, r6
 4910              		.loc 1 986 18 view .LVU1309
 4911 087e 9F42     		cmp	r7, r3
 4912 0880 01D0     		beq	.LCB4828
 4913 0882 00F07FFC 		bl	.L231	@far jump
 4914              	.LCB4828:
 4915              	.LVL475:
 4916              	.L232:
 4917              		.loc 1 987 5 is_stmt 1 view .LVU1310
 4918              		.loc 1 987 6 is_stmt 0 view .LVU1311
 4919 0886 1400     		movs	r4, r2
 4920              		.loc 1 986 9 view .LVU1312
 4921 0888 642A     		cmp	r2, #100
 4922 088a F4D1     		bne	.L475
 4923              	.LVL476:
 4924              	.L230:
 4925              		.loc 1 986 9 view .LVU1313
 4926              	.LBE701:
 4927              	.LBE746:
 4928              		.loc 1 1238 7 is_stmt 1 view .LVU1314
 4929              		.loc 1 1238 10 is_stmt 0 view .LVU1315
 4930 088c 002D     		cmp	r5, #0
 4931 088e 03DD     		ble	.L319
 4932              		.loc 1 1239 9 is_stmt 1 view .LVU1316
 4933              		.loc 1 1239 11 is_stmt 0 view .LVU1317
 4934 0890 013D     		subs	r5, r5, #1
 4935              	.LVL477:
 4936              		.loc 1 1240 7 is_stmt 1 view .LVU1318
 4937              	.L321:
 4938              		.loc 1 1242 7 view .LVU1319
 4939              		.loc 1 1242 7 is_stmt 0 view .LVU1320
 4940 0892 A542     		cmp	r5, r4
 4941 0894 00DB     		blt	.LCB4868
 4942 0896 8CE5     		b	.L217	@long jump
 4943              	.LCB4868:
 4944              	.LVL478:
 4945              	.L319:
 4946              		.loc 1 1242 7 view .LVU1321
 4947 0898 0A9B     		ldr	r3, [sp, #40]
 4948 089a 8C4A     		ldr	r2, .L485
 4949 089c 9C46     		mov	ip, r3
 4950 089e 6544     		add	r5, r5, ip
 4951              	.LVL479:
 4952              		.loc 1 1242 7 view .LVU1322
 4953 08a0 9446     		mov	ip, r2
 4954 08a2 AD00     		lsls	r5, r5, #2
 4955 08a4 6544     		add	r5, r5, ip
 4956 08a6 9C46     		mov	ip, r3
 4957              	.LBB747:
 4958              		.loc 1 1245 18 view .LVU1323
 4959 08a8 4346     		mov	r3, r8
ARM GAS  /tmp/ccLkBuQr.s 			page 88


 4960 08aa 9346     		mov	fp, r2
 4961 08ac 1293     		str	r3, [sp, #72]
 4962 08ae 069B     		ldr	r3, [sp, #24]
 4963 08b0 6444     		add	r4, r4, ip
 4964              	.LVL480:
 4965              		.loc 1 1245 18 view .LVU1324
 4966 08b2 A400     		lsls	r4, r4, #2
 4967 08b4 9846     		mov	r8, r3
 4968 08b6 4B46     		mov	r3, r9
 4969 08b8 A344     		add	fp, fp, r4
 4970 08ba 1F24     		movs	r4, #31
 4971 08bc B946     		mov	r9, r7
 4972 08be 049F     		ldr	r7, [sp, #16]
 4973 08c0 1393     		str	r3, [sp, #76]
 4974              	.L233:
 4975              		.loc 1 1243 9 is_stmt 1 view .LVU1325
 4976              		.loc 1 1245 18 is_stmt 0 view .LVU1326
 4977 08c2 2200     		movs	r2, r4
 4978              		.loc 1 1243 18 view .LVU1327
 4979 08c4 2868     		ldr	r0, [r5]
 4980              	.LVL481:
 4981              		.loc 1 1244 9 is_stmt 1 view .LVU1328
 4982              		.loc 1 1244 18 is_stmt 0 view .LVU1329
 4983 08c6 6968     		ldr	r1, [r5, #4]
 4984              	.LVL482:
 4985              		.loc 1 1245 9 is_stmt 1 view .LVU1330
 4986              		.loc 1 1246 9 view .LVU1331
 4987              		.loc 1 1247 9 view .LVU1332
 4988              		.loc 1 1248 9 view .LVU1333
 4989              		.loc 1 1245 18 is_stmt 0 view .LVU1334
 4990 08c8 430C     		lsrs	r3, r0, #17
 4991 08ca 0240     		ands	r2, r0
 4992 08cc 3340     		ands	r3, r6
 4993 08ce 1343     		orrs	r3, r2
 4994              		.loc 1 1248 9 view .LVU1335
 4995 08d0 DB1B     		subs	r3, r3, r7
 4996 08d2 0D93     		str	r3, [sp, #52]
 4997 08d4 4346     		mov	r3, r8
 4998              		.loc 1 1243 18 view .LVU1336
 4999 08d6 4209     		lsrs	r2, r0, #5
 5000 08d8 800D     		lsrs	r0, r0, #22
 5001              	.LVL483:
 5002              		.loc 1 1243 18 view .LVU1337
 5003 08da 3040     		ands	r0, r6
 5004 08dc 2240     		ands	r2, r4
 5005 08de 0243     		orrs	r2, r0
 5006              		.loc 1 1248 9 view .LVU1338
 5007 08e0 D21A     		subs	r2, r2, r3
 5008              		.loc 1 1247 13 view .LVU1339
 5009 08e2 079B     		ldr	r3, [sp, #28]
 5010 08e4 0435     		adds	r5, r5, #4
 5011              	.LVL484:
 5012              		.loc 1 1247 13 view .LVU1340
 5013 08e6 5889     		ldrh	r0, [r3, #10]
 5014              	.LVL485:
 5015              		.loc 1 1246 18 view .LVU1341
 5016 08e8 2300     		movs	r3, r4
ARM GAS  /tmp/ccLkBuQr.s 			page 89


 5017              		.loc 1 1247 13 view .LVU1342
 5018 08ea 0290     		str	r0, [sp, #8]
 5019              	.LVL486:
 5020              		.loc 1 1246 18 view .LVU1343
 5021 08ec 480C     		lsrs	r0, r1, #17
 5022              	.LVL487:
 5023              		.loc 1 1246 18 view .LVU1344
 5024 08ee 0B40     		ands	r3, r1
 5025 08f0 3040     		ands	r0, r6
 5026 08f2 1843     		orrs	r0, r3
 5027              		.loc 1 1248 9 view .LVU1345
 5028 08f4 4346     		mov	r3, r8
 5029 08f6 C01B     		subs	r0, r0, r7
 5030 08f8 0190     		str	r0, [sp, #4]
 5031              		.loc 1 1244 18 view .LVU1346
 5032 08fa 4809     		lsrs	r0, r1, #5
 5033 08fc 890D     		lsrs	r1, r1, #22
 5034              	.LVL488:
 5035              		.loc 1 1244 18 view .LVU1347
 5036 08fe 2040     		ands	r0, r4
 5037 0900 3140     		ands	r1, r6
 5038 0902 0143     		orrs	r1, r0
 5039              		.loc 1 1248 9 view .LVU1348
 5040 0904 C91A     		subs	r1, r1, r3
 5041 0906 0091     		str	r1, [sp]
 5042 0908 0D9B     		ldr	r3, [sp, #52]
 5043 090a 5146     		mov	r1, r10
 5044 090c 1098     		ldr	r0, [sp, #64]
 5045 090e FFF7FEFF 		bl	cell_drawline
 5046              	.LVL489:
 5047              		.loc 1 1248 9 view .LVU1349
 5048              	.LBE747:
 5049              		.loc 1 1242 7 view .LVU1350
 5050 0912 AB45     		cmp	fp, r5
 5051 0914 D5D1     		bne	.L233
 5052 0916 129B     		ldr	r3, [sp, #72]
 5053 0918 4F46     		mov	r7, r9
 5054 091a 9846     		mov	r8, r3
 5055 091c 139B     		ldr	r3, [sp, #76]
 5056 091e 9946     		mov	r9, r3
 5057 0920 47E5     		b	.L217
 5058              	.LVL490:
 5059              	.L469:
 5060              	.LBB748:
 5061              		.loc 1 1262 5 view .LVU1351
 5062 0922 6D4B     		ldr	r3, .L485+12
 5063 0924 0C22     		movs	r2, #12
 5064 0926 9B5E     		ldrsh	r3, [r3, r2]
 5065 0928 012B     		cmp	r3, #1
 5066 092a 00DC     		bgt	.LCB4995
 5067 092c 5FE5     		b	.L236	@long jump
 5068              	.LCB4995:
 5069              		.loc 1 1256 31 view .LVU1352
 5070 092e 4346     		mov	r3, r8
 5071 0930 6A4A     		ldr	r2, .L485+16
 5072 0932 5B00     		lsls	r3, r3, #1
 5073 0934 D35A     		ldrh	r3, [r2, r3]
ARM GAS  /tmp/ccLkBuQr.s 			page 90


 5074 0936 0D9C     		ldr	r4, [sp, #52]
 5075 0938 0A93     		str	r3, [sp, #40]
 5076 093a 4346     		mov	r3, r8
 5077 093c 5C43     		muls	r4, r3
 5078 093e 634B     		ldr	r3, .L485
 5079              	.LBB709:
 5080              		.loc 1 1269 16 view .LVU1353
 5081 0940 F826     		movs	r6, #248
 5082 0942 9C46     		mov	ip, r3
 5083              	.LBE709:
 5084              		.loc 1 1262 12 view .LVU1354
 5085 0944 0123     		movs	r3, #1
 5086 0946 9946     		mov	r9, r3
 5087              	.LBB710:
 5088              		.loc 1 1269 16 view .LVU1355
 5089 0948 3B00     		movs	r3, r7
 5090 094a 1F25     		movs	r5, #31
 5091 094c 4F46     		mov	r7, r9
 5092 094e 9946     		mov	r9, r3
 5093 0950 6444     		add	r4, r4, ip
 5094 0952 B600     		lsls	r6, r6, #2
 5095              	.LVL491:
 5096              	.L237:
 5097              		.loc 1 1267 7 is_stmt 1 view .LVU1356
 5098              		.loc 1 1269 16 is_stmt 0 view .LVU1357
 5099 0954 2A00     		movs	r2, r5
 5100              		.loc 1 1267 16 view .LVU1358
 5101 0956 2068     		ldr	r0, [r4]
 5102              	.LVL492:
 5103              		.loc 1 1268 7 is_stmt 1 view .LVU1359
 5104              		.loc 1 1268 16 is_stmt 0 view .LVU1360
 5105 0958 6168     		ldr	r1, [r4, #4]
 5106              	.LVL493:
 5107              		.loc 1 1269 7 is_stmt 1 view .LVU1361
 5108              		.loc 1 1270 7 view .LVU1362
 5109              		.loc 1 1271 7 view .LVU1363
 5110              		.loc 1 1269 16 is_stmt 0 view .LVU1364
 5111 095a 430C     		lsrs	r3, r0, #17
 5112 095c 0240     		ands	r2, r0
 5113 095e 3340     		ands	r3, r6
 5114 0960 1343     		orrs	r3, r2
 5115              		.loc 1 1271 7 view .LVU1365
 5116 0962 049A     		ldr	r2, [sp, #16]
 5117              	.LBE710:
 5118              		.loc 1 1262 36 view .LVU1366
 5119 0964 0137     		adds	r7, r7, #1
 5120              	.LVL494:
 5121              	.LBB711:
 5122              		.loc 1 1271 7 view .LVU1367
 5123 0966 9B1A     		subs	r3, r3, r2
 5124 0968 0793     		str	r3, [sp, #28]
 5125              	.LBE711:
 5126              		.loc 1 1256 9 view .LVU1368
 5127 096a 0A9B     		ldr	r3, [sp, #40]
 5128              	.LBB712:
 5129              		.loc 1 1267 16 view .LVU1369
 5130 096c 4209     		lsrs	r2, r0, #5
ARM GAS  /tmp/ccLkBuQr.s 			page 91


 5131              	.LBE712:
 5132              		.loc 1 1256 9 view .LVU1370
 5133 096e 0293     		str	r3, [sp, #8]
 5134              	.LBB713:
 5135              		.loc 1 1270 16 view .LVU1371
 5136 0970 2B00     		movs	r3, r5
 5137              		.loc 1 1267 16 view .LVU1372
 5138 0972 800D     		lsrs	r0, r0, #22
 5139              	.LVL495:
 5140              		.loc 1 1267 16 view .LVU1373
 5141 0974 3040     		ands	r0, r6
 5142 0976 2A40     		ands	r2, r5
 5143 0978 0243     		orrs	r2, r0
 5144              		.loc 1 1271 7 view .LVU1374
 5145 097a 0698     		ldr	r0, [sp, #24]
 5146              		.loc 1 1270 16 view .LVU1375
 5147 097c 0B40     		ands	r3, r1
 5148              		.loc 1 1271 7 view .LVU1376
 5149 097e 121A     		subs	r2, r2, r0
 5150              		.loc 1 1270 16 view .LVU1377
 5151 0980 480C     		lsrs	r0, r1, #17
 5152 0982 3040     		ands	r0, r6
 5153 0984 1843     		orrs	r0, r3
 5154              		.loc 1 1271 7 view .LVU1378
 5155 0986 049B     		ldr	r3, [sp, #16]
 5156 0988 0434     		adds	r4, r4, #4
 5157 098a C01A     		subs	r0, r0, r3
 5158 098c 0190     		str	r0, [sp, #4]
 5159              		.loc 1 1268 16 view .LVU1379
 5160 098e 4809     		lsrs	r0, r1, #5
 5161 0990 890D     		lsrs	r1, r1, #22
 5162              	.LVL496:
 5163              		.loc 1 1268 16 view .LVU1380
 5164 0992 2840     		ands	r0, r5
 5165 0994 3140     		ands	r1, r6
 5166 0996 0143     		orrs	r1, r0
 5167              		.loc 1 1271 7 view .LVU1381
 5168 0998 0698     		ldr	r0, [sp, #24]
 5169 099a 079B     		ldr	r3, [sp, #28]
 5170 099c 091A     		subs	r1, r1, r0
 5171 099e 0091     		str	r1, [sp]
 5172 09a0 5846     		mov	r0, fp
 5173 09a2 5146     		mov	r1, r10
 5174 09a4 FFF7FEFF 		bl	cell_drawline
 5175              	.LVL497:
 5176              		.loc 1 1271 7 view .LVU1382
 5177              	.LBE713:
 5178              		.loc 1 1262 21 view .LVU1383
 5179 09a8 4B4B     		ldr	r3, .L485+12
 5180 09aa 0C22     		movs	r2, #12
 5181 09ac 9B5E     		ldrsh	r3, [r3, r2]
 5182              		.loc 1 1262 5 view .LVU1384
 5183 09ae 9F42     		cmp	r7, r3
 5184 09b0 D0DB     		blt	.L237
 5185 09b2 4F46     		mov	r7, r9
 5186              	.LVL498:
 5187              		.loc 1 1262 5 view .LVU1385
ARM GAS  /tmp/ccLkBuQr.s 			page 92


 5188 09b4 1BE5     		b	.L236
 5189              	.LVL499:
 5190              	.L465:
 5191              		.loc 1 1262 5 view .LVU1386
 5192              	.LBE748:
 5193              		.loc 1 1186 7 is_stmt 1 view .LVU1387
 5194              		.loc 1 1186 17 is_stmt 0 view .LVU1388
 5195 09b6 2643     		orrs	r6, r4
 5196              	.LVL500:
 5197              		.loc 1 1186 17 view .LVU1389
 5198 09b8 FFF7B4FB 		bl	.L189	@ far jump
 5199              	.L466:
 5200              		.loc 1 1190 7 is_stmt 1 view .LVU1390
 5201              		.loc 1 1190 17 is_stmt 0 view .LVU1391
 5202 09bc 2E43     		orrs	r6, r5
 5203              	.LVL501:
 5204              		.loc 1 1190 17 view .LVU1392
 5205 09be FFF7B1FB 		bl	.L189	@ far jump
 5206              	.LVL502:
 5207              	.L313:
 5208              		.loc 1 1175 5 is_stmt 1 view .LVU1393
 5209              		.loc 1 1175 7 is_stmt 0 view .LVU1394
 5210 09c2 049B     		ldr	r3, [sp, #16]
 5211 09c4 E31A     		subs	r3, r4, r3
 5212 09c6 9A46     		mov	r10, r3
 5213              	.LVL503:
 5214              		.loc 1 1176 3 is_stmt 1 view .LVU1395
 5215              		.loc 1 1165 7 is_stmt 0 view .LVU1396
 5216 09c8 2023     		movs	r3, #32
 5217              	.LVL504:
 5218              		.loc 1 1165 7 view .LVU1397
 5219 09ca 9B46     		mov	fp, r3
 5220              	.LVL505:
 5221              	.L188:
 5222              		.loc 1 1176 14 view .LVU1398
 5223 09cc 5346     		mov	r3, r10
 5224 09ce 002B     		cmp	r3, #0
 5225 09d0 01DC     		bgt	.LCB5149
 5226 09d2 FFF765FB 		bl	.L184	@far jump
 5227              	.LCB5149:
 5228 09d6 FFF78DFB 		bl	.L187	@ far jump
 5229              	.LVL506:
 5230              	.L186:
 5231              		.loc 1 1175 5 is_stmt 1 view .LVU1399
 5232              		.loc 1 1176 3 view .LVU1400
 5233              		.loc 1 1176 6 is_stmt 0 view .LVU1401
 5234 09da 0029     		cmp	r1, #0
 5235 09dc 01DC     		bgt	.LCB5161
 5236 09de FFF75FFB 		bl	.L184	@far jump
 5237              	.LCB5161:
 5238              		.loc 1 1175 7 view .LVU1402
 5239 09e2 049B     		ldr	r3, [sp, #16]
 5240 09e4 E31A     		subs	r3, r4, r3
 5241              	.LVL507:
 5242              		.loc 1 1175 7 view .LVU1403
 5243 09e6 9A46     		mov	r10, r3
 5244 09e8 F0E7     		b	.L188
ARM GAS  /tmp/ccLkBuQr.s 			page 93


 5245              	.LVL508:
 5246              	.L470:
 5247              	.LBB749:
 5248              	.LBB594:
 5249              	.LBB546:
 5250              		.loc 1 1665 5 is_stmt 1 view .LVU1404
 5251              		.loc 1 1666 5 view .LVU1405
 5252              		.loc 1 1667 5 view .LVU1406
 5253 09ea 0125     		movs	r5, #1
 5254 09ec 0C9B     		ldr	r3, [sp, #48]
 5255              		.loc 1 1670 90 is_stmt 0 view .LVU1407
 5256 09ee 0227     		movs	r7, #2
 5257 09f0 ED1A     		subs	r5, r5, r3
 5258              	.LVL509:
 5259              		.loc 1 1668 5 is_stmt 1 view .LVU1408
 5260              		.loc 1 1669 5 view .LVU1409
 5261 09f2 4B46     		mov	r3, r9
 5262 09f4 3A4A     		ldr	r2, .L485+20
 5263 09f6 9B78     		ldrb	r3, [r3, #2]
 5264 09f8 1821     		movs	r1, #24
 5265 09fa 26A8     		add	r0, sp, #152
 5266 09fc FFF7FEFF 		bl	chsnprintf
 5267              	.LVL510:
 5268              		.loc 1 1670 5 view .LVU1410
 5269 0a00 0E9B     		ldr	r3, [sp, #56]
 5270              	.LBB517:
 5271              	.LBB518:
 5272              		.loc 1 1644 9 is_stmt 0 view .LVU1411
 5273 0a02 26AE     		add	r6, sp, #152
 5274              	.LBE518:
 5275              	.LBE517:
 5276              		.loc 1 1670 5 view .LVU1412
 5277 0a04 5B89     		ldrh	r3, [r3, #10]
 5278 0a06 9846     		mov	r8, r3
 5279              		.loc 1 1670 90 view .LVU1413
 5280 0a08 364B     		ldr	r3, .L485+24
 5281 0a0a DF57     		ldrsb	r7, [r3, r7]
 5282              		.loc 1 1670 5 view .LVU1414
 5283 0a0c 079B     		ldr	r3, [sp, #28]
 5284 0a0e FF1A     		subs	r7, r7, r3
 5285 0a10 7B42     		rsbs	r3, r7, #0
 5286 0a12 5F41     		adcs	r7, r7, r3
 5287              	.LVL511:
 5288              	.LBB520:
 5289              	.LBI517:
 5290              		.loc 1 1642 13 is_stmt 1 view .LVU1415
 5291              	.LBB519:
 5292              		.loc 1 1644 3 view .LVU1416
 5293              		.loc 1 1644 10 is_stmt 0 view .LVU1417
 5294 0a14 22AB     		add	r3, sp, #136
 5295 0a16 1A7C     		ldrb	r2, [r3, #16]
 5296              		.loc 1 1644 9 view .LVU1418
 5297 0a18 002A     		cmp	r2, #0
 5298 0a1a 19D0     		beq	.L254
 5299 0a1c 2100     		movs	r1, r4
 5300 0a1e 3B00     		movs	r3, r7
 5301 0a20 5446     		mov	r4, r10
ARM GAS  /tmp/ccLkBuQr.s 			page 94


 5302 0a22 5F46     		mov	r7, fp
 5303              	.LVL512:
 5304              		.loc 1 1644 9 view .LVU1419
 5305 0a24 8A46     		mov	r10, r1
 5306              	.LVL513:
 5307              		.loc 1 1644 9 view .LVU1420
 5308 0a26 9B46     		mov	fp, r3
 5309              	.LVL514:
 5310              	.L251:
 5311              		.loc 1 1645 5 is_stmt 1 view .LVU1421
 5312 0a28 5B46     		mov	r3, fp
 5313 0a2a 0293     		str	r3, [sp, #8]
 5314 0a2c 4346     		mov	r3, r8
 5315 0a2e 0193     		str	r3, [sp, #4]
 5316 0a30 5346     		mov	r3, r10
 5317 0a32 2100     		movs	r1, r4
 5318 0a34 0093     		str	r3, [sp]
 5319 0a36 3800     		movs	r0, r7
 5320 0a38 2B00     		movs	r3, r5
 5321              		.loc 1 1647 8 is_stmt 0 view .LVU1422
 5322 0a3a 0136     		adds	r6, r6, #1
 5323              	.LVL515:
 5324              		.loc 1 1645 5 view .LVU1423
 5325 0a3c FFF7FEFF 		bl	cell_drawchar_7x13
 5326              	.LVL516:
 5327              		.loc 1 1646 5 is_stmt 1 view .LVU1424
 5328              		.loc 1 1644 10 is_stmt 0 view .LVU1425
 5329 0a40 3278     		ldrb	r2, [r6]
 5330              		.loc 1 1646 7 view .LVU1426
 5331 0a42 0735     		adds	r5, r5, #7
 5332              	.LVL517:
 5333              		.loc 1 1647 5 is_stmt 1 view .LVU1427
 5334              		.loc 1 1644 9 is_stmt 0 view .LVU1428
 5335 0a44 002A     		cmp	r2, #0
 5336 0a46 EFD1     		bne	.L251
 5337 0a48 5346     		mov	r3, r10
 5338 0a4a BB46     		mov	fp, r7
 5339              	.LVL518:
 5340              		.loc 1 1644 9 view .LVU1429
 5341 0a4c A246     		mov	r10, r4
 5342 0a4e 1C00     		movs	r4, r3
 5343              	.LVL519:
 5344              	.L254:
 5345              		.loc 1 1644 9 view .LVU1430
 5346              	.LBE519:
 5347              	.LBE520:
 5348              		.loc 1 1671 5 is_stmt 1 view .LVU1431
 5349              		.loc 1 1672 5 is_stmt 0 view .LVU1432
 5350 0a50 1822     		movs	r2, #24
 5351 0a52 26A9     		add	r1, sp, #152
 5352 0a54 0798     		ldr	r0, [sp, #28]
 5353 0a56 0C9F     		ldr	r7, [sp, #48]
 5354 0a58 FFF7FEFF 		bl	trace_get_info
 5355              	.LVL520:
 5356              		.loc 1 1673 5 view .LVU1433
 5357 0a5c 0E9B     		ldr	r3, [sp, #56]
 5358 0a5e 1D26     		movs	r6, #29
ARM GAS  /tmp/ccLkBuQr.s 			page 95


 5359 0a60 5B89     		ldrh	r3, [r3, #10]
 5360 0a62 7725     		movs	r5, #119
 5361 0a64 0A93     		str	r3, [sp, #40]
 5362              	.LBB521:
 5363              	.LBB522:
 5364              		.loc 1 1635 10 view .LVU1434
 5365 0a66 22AB     		add	r3, sp, #136
 5366 0a68 1A7C     		ldrb	r2, [r3, #16]
 5367              		.loc 1 1636 5 view .LVU1435
 5368 0a6a 0023     		movs	r3, #0
 5369 0a6c F61B     		subs	r6, r6, r7
 5370              	.LVL521:
 5371              		.loc 1 1636 5 view .LVU1436
 5372              	.LBE522:
 5373              	.LBE521:
 5374              		.loc 1 1672 5 is_stmt 1 view .LVU1437
 5375              		.loc 1 1673 5 view .LVU1438
 5376              	.LBB524:
 5377              	.LBI521:
 5378              		.loc 1 1633 13 view .LVU1439
 5379              		.loc 1 1633 13 is_stmt 0 view .LVU1440
 5380 0a6e ED1B     		subs	r5, r5, r7
 5381              	.LBB523:
 5382              		.loc 1 1636 5 view .LVU1441
 5383 0a70 9846     		mov	r8, r3
 5384              		.loc 1 1635 9 view .LVU1442
 5385 0a72 26AF     		add	r7, sp, #152
 5386              	.LVL522:
 5387              		.loc 1 1635 9 view .LVU1443
 5388 0a74 002A     		cmp	r2, #0
 5389 0a76 00D1     		bne	.LCB5348
 5390 0a78 DFE3     		b	.L476	@long jump
 5391              	.LCB5348:
 5392 0a7a 2300     		movs	r3, r4
 5393 0a7c 5C46     		mov	r4, fp
 5394 0a7e AB46     		mov	fp, r5
 5395              	.LVL523:
 5396              		.loc 1 1635 9 view .LVU1444
 5397 0a80 5546     		mov	r5, r10
 5398 0a82 9A46     		mov	r10, r3
 5399              	.LVL524:
 5400              	.L252:
 5401              		.loc 1 1636 5 is_stmt 1 view .LVU1445
 5402 0a84 4346     		mov	r3, r8
 5403 0a86 0293     		str	r3, [sp, #8]
 5404 0a88 0A9B     		ldr	r3, [sp, #40]
 5405 0a8a 2900     		movs	r1, r5
 5406 0a8c 0193     		str	r3, [sp, #4]
 5407 0a8e 5346     		mov	r3, r10
 5408 0a90 2000     		movs	r0, r4
 5409 0a92 0093     		str	r3, [sp]
 5410              		.loc 1 1638 8 is_stmt 0 view .LVU1446
 5411 0a94 0137     		adds	r7, r7, #1
 5412              	.LVL525:
 5413              		.loc 1 1636 5 view .LVU1447
 5414 0a96 3300     		movs	r3, r6
 5415 0a98 FFF7FEFF 		bl	cell_drawchar_7x13
ARM GAS  /tmp/ccLkBuQr.s 			page 96


 5416              	.LVL526:
 5417              		.loc 1 1637 5 is_stmt 1 view .LVU1448
 5418              		.loc 1 1635 10 is_stmt 0 view .LVU1449
 5419 0a9c 3A78     		ldrb	r2, [r7]
 5420              		.loc 1 1637 7 view .LVU1450
 5421 0a9e 0736     		adds	r6, r6, #7
 5422              	.LVL527:
 5423              		.loc 1 1638 5 is_stmt 1 view .LVU1451
 5424              		.loc 1 1635 9 is_stmt 0 view .LVU1452
 5425 0aa0 002A     		cmp	r2, #0
 5426 0aa2 EFD1     		bne	.L252
 5427 0aa4 5346     		mov	r3, r10
 5428 0aa6 AA46     		mov	r10, r5
 5429 0aa8 5D46     		mov	r5, fp
 5430              	.LVL528:
 5431              		.loc 1 1635 9 view .LVU1453
 5432 0aaa A346     		mov	fp, r4
 5433 0aac 1C00     		movs	r4, r3
 5434              	.LVL529:
 5435              		.loc 1 1635 9 view .LVU1454
 5436              	.LBE523:
 5437              	.LBE524:
 5438              		.loc 1 1674 5 is_stmt 1 view .LVU1455
 5439              		.loc 1 1675 5 view .LVU1456
 5440              		.loc 1 1677 22 is_stmt 0 view .LVU1457
 5441 0aae 4B46     		mov	r3, r9
 5442 0ab0 CA26     		movs	r6, #202
 5443 0ab2 9878     		ldrb	r0, [r3, #2]
 5444 0ab4 B600     		lsls	r6, r6, #2
 5445 0ab6 4643     		muls	r6, r0
 5446              	.LBB525:
 5447              	.LBB508:
 5448              		.loc 1 662 3 view .LVU1458
 5449 0ab8 5B78     		ldrb	r3, [r3, #1]
 5450              	.LBE508:
 5451              	.LBE525:
 5452              		.loc 1 1677 22 view .LVU1459
 5453 0aba 0B48     		ldr	r0, .L485+28
 5454 0abc 3618     		adds	r6, r6, r0
 5455              	.LVL530:
 5456              	.LBB526:
 5457              	.LBI473:
 5458              		.loc 1 655 13 is_stmt 1 view .LVU1460
 5459              	.LBB509:
 5460              		.loc 1 661 3 view .LVU1461
 5461              		.loc 1 662 3 view .LVU1462
 5462 0abe 0A2B     		cmp	r3, #10
 5463 0ac0 47D8     		bhi	.L255
 5464              		.loc 1 662 3 is_stmt 0 view .LVU1463
 5465 0ac2 0A4A     		ldr	r2, .L485+32
 5466 0ac4 9B00     		lsls	r3, r3, #2
 5467 0ac6 D358     		ldr	r3, [r2, r3]
 5468 0ac8 9F46     		mov	pc, r3
 5469              		.section	.rodata.draw_all_cells,"a",%progbits
 5470              		.align	2
 5471              	.L257:
 5472 0000 9A0B0000 		.word	.L267
ARM GAS  /tmp/ccLkBuQr.s 			page 97


 5473 0004 B00D0000 		.word	.L266
 5474 0008 940D0000 		.word	.L265
 5475 000c C20C0000 		.word	.L264
 5476 0010 9C0C0000 		.word	.L263
 5477 0014 740C0000 		.word	.L262
 5478 0018 580C0000 		.word	.L261
 5479 001c 400C0000 		.word	.L260
 5480 0020 240C0000 		.word	.L259
 5481 0024 F00A0000 		.word	.L258
 5482 0028 E20B0000 		.word	.L256
 5483              		.section	.text.draw_all_cells
 5484              	.L486:
 5485 0aca C046     		.align	2
 5486              	.L485:
 5487 0acc 00000000 		.word	trace_index
 5488 0ad0 FFFFFF3F 		.word	1073741823
 5489 0ad4 FEFFFF3F 		.word	1073741822
 5490 0ad8 00000000 		.word	current_props
 5491 0adc 0A000000 		.word	config+10
 5492 0ae0 00000000 		.word	.LC52
 5493 0ae4 00000000 		.word	uistat
 5494 0ae8 00000000 		.word	measured
 5495 0aec 00000000 		.word	.L257
 5496              	.LVL531:
 5497              	.L258:
 5498              		.loc 1 696 5 is_stmt 1 view .LVU1464
 5499              		.loc 1 696 37 is_stmt 0 view .LVU1465
 5500 0af0 149B     		ldr	r3, [sp, #80]
 5501              	.LBB475:
 5502              	.LBB476:
 5503              		.loc 1 642 21 view .LVU1466
 5504 0af2 FE20     		movs	r0, #254
 5505              	.LBE476:
 5506              	.LBE475:
 5507              		.loc 1 696 37 view .LVU1467
 5508 0af4 9C46     		mov	ip, r3
 5509 0af6 6644     		add	r6, r6, ip
 5510              	.LVL532:
 5511              	.LBB478:
 5512              	.LBI475:
 5513              		.loc 1 639 13 is_stmt 1 view .LVU1468
 5514              	.LBB477:
 5515              		.loc 1 641 3 view .LVU1469
 5516              		.loc 1 642 3 view .LVU1470
 5517              		.loc 1 642 27 is_stmt 0 view .LVU1471
 5518 0af8 3368     		ldr	r3, [r6]
 5519              		.loc 1 642 21 view .LVU1472
 5520 0afa 8005     		lsls	r0, r0, #22
 5521 0afc 191C     		adds	r1, r3, #0
 5522 0afe 0A93     		str	r3, [sp, #40]
 5523 0b00 FFF7FEFF 		bl	__aeabi_fsub
 5524              	.LVL533:
 5525 0b04 071C     		adds	r7, r0, #0
 5526              		.loc 1 642 50 view .LVU1473
 5527 0b06 7068     		ldr	r0, [r6, #4]
 5528              		.loc 1 642 53 view .LVU1474
 5529 0b08 011C     		adds	r1, r0, #0
ARM GAS  /tmp/ccLkBuQr.s 			page 98


 5530 0b0a FFF7FEFF 		bl	__aeabi_fmul
 5531              	.LVL534:
 5532 0b0e 8046     		mov	r8, r0
 5533              	.LVL535:
 5534              		.loc 1 643 3 is_stmt 1 view .LVU1475
 5535              		.loc 1 644 3 view .LVU1476
 5536              		.loc 1 642 31 is_stmt 0 view .LVU1477
 5537 0b10 391C     		adds	r1, r7, #0
 5538 0b12 381C     		adds	r0, r7, #0
 5539              	.LVL536:
 5540              		.loc 1 642 31 view .LVU1478
 5541 0b14 FFF7FEFF 		bl	__aeabi_fmul
 5542              	.LVL537:
 5543              		.loc 1 642 44 view .LVU1479
 5544 0b18 4146     		mov	r1, r8
 5545 0b1a FFF7FEFF 		bl	__aeabi_fadd
 5546              	.LVL538:
 5547 0b1e 011C     		adds	r1, r0, #0
 5548              		.loc 1 642 9 view .LVU1480
 5549 0b20 E448     		ldr	r0, .L487
 5550 0b22 FFF7FEFF 		bl	__aeabi_fdiv
 5551              	.LVL539:
 5552              		.loc 1 643 17 view .LVU1481
 5553 0b26 FE21     		movs	r1, #254
 5554              		.loc 1 642 9 view .LVU1482
 5555 0b28 061C     		adds	r6, r0, #0
 5556              	.LVL540:
 5557              		.loc 1 643 17 view .LVU1483
 5558 0b2a 8905     		lsls	r1, r1, #22
 5559 0b2c 0A98     		ldr	r0, [sp, #40]
 5560 0b2e FFF7FEFF 		bl	__aeabi_fadd
 5561              	.LVL541:
 5562              		.loc 1 643 27 view .LVU1484
 5563 0b32 391C     		adds	r1, r7, #0
 5564 0b34 FFF7FEFF 		bl	__aeabi_fmul
 5565              	.LVL542:
 5566              		.loc 1 643 41 view .LVU1485
 5567 0b38 4146     		mov	r1, r8
 5568 0b3a FFF7FEFF 		bl	__aeabi_fsub
 5569              	.LVL543:
 5570 0b3e 011C     		adds	r1, r0, #0
 5571              		.loc 1 643 9 view .LVU1486
 5572 0b40 301C     		adds	r0, r6, #0
 5573              	.LVL544:
 5574              	.L458:
 5575              		.loc 1 643 9 view .LVU1487
 5576              	.LBE477:
 5577              	.LBE478:
 5578              	.LBB479:
 5579              	.LBB480:
 5580              		.loc 1 651 9 view .LVU1488
 5581 0b42 FFF7FEFF 		bl	__aeabi_fmul
 5582              	.LVL545:
 5583              		.loc 1 652 3 view .LVU1489
 5584 0b46 1E23     		movs	r3, #30
 5585              		.loc 1 651 9 view .LVU1490
 5586 0b48 021C     		adds	r2, r0, #0
ARM GAS  /tmp/ccLkBuQr.s 			page 99


 5587              		.loc 1 652 3 view .LVU1491
 5588 0b4a 1821     		movs	r1, #24
 5589 0b4c 26A8     		add	r0, sp, #152
 5590              	.LVL546:
 5591              		.loc 1 652 3 view .LVU1492
 5592 0b4e FFF7FEFF 		bl	string_value_with_prefix
 5593              	.LVL547:
 5594              	.L255:
 5595              		.loc 1 652 3 view .LVU1493
 5596              	.LBE480:
 5597              	.LBE479:
 5598              	.LBE509:
 5599              	.LBE526:
 5600              		.loc 1 1678 5 is_stmt 1 view .LVU1494
 5601 0b52 0E9B     		ldr	r3, [sp, #56]
 5602              	.LBB527:
 5603              	.LBB528:
 5604              		.loc 1 1635 9 is_stmt 0 view .LVU1495
 5605 0b54 26AE     		add	r6, sp, #152
 5606              	.LBE528:
 5607              	.LBE527:
 5608              		.loc 1 1678 5 view .LVU1496
 5609 0b56 5B89     		ldrh	r3, [r3, #10]
 5610              	.LBB531:
 5611              	.LBB529:
 5612              		.loc 1 1636 5 view .LVU1497
 5613 0b58 0027     		movs	r7, #0
 5614              	.LBE529:
 5615              	.LBE531:
 5616              		.loc 1 1678 5 view .LVU1498
 5617 0b5a 9846     		mov	r8, r3
 5618              	.LVL548:
 5619              	.LBB532:
 5620              	.LBI527:
 5621              		.loc 1 1633 13 is_stmt 1 view .LVU1499
 5622              	.LBB530:
 5623              		.loc 1 1635 10 is_stmt 0 view .LVU1500
 5624 0b5c 22AB     		add	r3, sp, #136
 5625 0b5e 1A7C     		ldrb	r2, [r3, #16]
 5626              		.loc 1 1635 9 view .LVU1501
 5627 0b60 002A     		cmp	r2, #0
 5628 0b62 12D0     		beq	.L273
 5629 0b64 2300     		movs	r3, r4
 5630 0b66 5C46     		mov	r4, fp
 5631 0b68 9B46     		mov	fp, r3
 5632              	.LVL549:
 5633              	.L272:
 5634              		.loc 1 1636 5 is_stmt 1 view .LVU1502
 5635 0b6a 4346     		mov	r3, r8
 5636 0b6c 0193     		str	r3, [sp, #4]
 5637 0b6e 5B46     		mov	r3, fp
 5638 0b70 0297     		str	r7, [sp, #8]
 5639 0b72 0093     		str	r3, [sp]
 5640 0b74 5146     		mov	r1, r10
 5641 0b76 2B00     		movs	r3, r5
 5642 0b78 2000     		movs	r0, r4
 5643              		.loc 1 1638 8 is_stmt 0 view .LVU1503
ARM GAS  /tmp/ccLkBuQr.s 			page 100


 5644 0b7a 0136     		adds	r6, r6, #1
 5645              	.LVL550:
 5646              		.loc 1 1636 5 view .LVU1504
 5647 0b7c FFF7FEFF 		bl	cell_drawchar_7x13
 5648              	.LVL551:
 5649              		.loc 1 1637 5 is_stmt 1 view .LVU1505
 5650              		.loc 1 1635 10 is_stmt 0 view .LVU1506
 5651 0b80 3278     		ldrb	r2, [r6]
 5652              		.loc 1 1637 7 view .LVU1507
 5653 0b82 0735     		adds	r5, r5, #7
 5654              	.LVL552:
 5655              		.loc 1 1638 5 is_stmt 1 view .LVU1508
 5656              		.loc 1 1635 9 is_stmt 0 view .LVU1509
 5657 0b84 002A     		cmp	r2, #0
 5658 0b86 F0D1     		bne	.L272
 5659 0b88 A346     		mov	fp, r4
 5660              	.LVL553:
 5661              	.L273:
 5662              		.loc 1 1635 9 view .LVU1510
 5663              	.LBE530:
 5664              	.LBE532:
 5665              		.loc 1 1679 5 is_stmt 1 view .LVU1511
 5666              		.loc 1 1679 6 is_stmt 0 view .LVU1512
 5667 0b8a 0D9B     		ldr	r3, [sp, #52]
 5668 0b8c 109C     		ldr	r4, [sp, #64]
 5669 0b8e 0133     		adds	r3, r3, #1
 5670              	.LVL554:
 5671              		.loc 1 1679 6 view .LVU1513
 5672 0b90 0D93     		str	r3, [sp, #52]
 5673              		.loc 1 1679 6 view .LVU1514
 5674 0b92 049B     		ldr	r3, [sp, #16]
 5675              	.LVL555:
 5676              		.loc 1 1679 6 view .LVU1515
 5677 0b94 0E34     		adds	r4, r4, #14
 5678 0b96 E41A     		subs	r4, r4, r3
 5679 0b98 7CE4     		b	.L250
 5680              	.LVL556:
 5681              	.L267:
 5682              	.LBB533:
 5683              	.LBB510:
 5684              		.loc 1 664 5 is_stmt 1 view .LVU1516
 5685              		.loc 1 664 21 is_stmt 0 view .LVU1517
 5686 0b9a 149B     		ldr	r3, [sp, #80]
 5687 0b9c 9C46     		mov	ip, r3
 5688 0b9e 6644     		add	r6, r6, ip
 5689              	.LVL557:
 5690              	.LBB483:
 5691              	.LBI483:
 5692              		.loc 1 425 14 is_stmt 1 view .LVU1518
 5693              	.LBB484:
 5694              		.loc 1 427 3 view .LVU1519
 5695              		.loc 1 427 18 is_stmt 0 view .LVU1520
 5696 0ba0 3068     		ldr	r0, [r6]
 5697              		.loc 1 427 30 view .LVU1521
 5698 0ba2 7668     		ldr	r6, [r6, #4]
 5699              	.LVL558:
 5700              		.loc 1 427 21 view .LVU1522
ARM GAS  /tmp/ccLkBuQr.s 			page 101


 5701 0ba4 011C     		adds	r1, r0, #0
 5702 0ba6 FFF7FEFF 		bl	__aeabi_fmul
 5703              	.LVL559:
 5704              		.loc 1 427 33 view .LVU1523
 5705 0baa 311C     		adds	r1, r6, #0
 5706              		.loc 1 427 21 view .LVU1524
 5707 0bac 071C     		adds	r7, r0, #0
 5708              		.loc 1 427 33 view .LVU1525
 5709 0bae 301C     		adds	r0, r6, #0
 5710 0bb0 FFF7FEFF 		bl	__aeabi_fmul
 5711              	.LVL560:
 5712 0bb4 011C     		adds	r1, r0, #0
 5713              		.loc 1 427 10 view .LVU1526
 5714 0bb6 381C     		adds	r0, r7, #0
 5715 0bb8 FFF7FEFF 		bl	__aeabi_fadd
 5716              	.LVL561:
 5717 0bbc FFF7FEFF 		bl	log10f
 5718              	.LVL562:
 5719              		.loc 1 427 40 view .LVU1527
 5720 0bc0 BD49     		ldr	r1, .L487+4
 5721 0bc2 FFF7FEFF 		bl	__aeabi_fmul
 5722              	.LVL563:
 5723              	.LBE484:
 5724              	.LBE483:
 5725              		.loc 1 665 8 view .LVU1528
 5726 0bc6 BD49     		ldr	r1, .L487+8
 5727              	.LBB486:
 5728              	.LBB485:
 5729              		.loc 1 427 40 view .LVU1529
 5730 0bc8 061C     		adds	r6, r0, #0
 5731              	.LVL564:
 5732              		.loc 1 427 40 view .LVU1530
 5733              	.LBE485:
 5734              	.LBE486:
 5735              		.loc 1 665 5 is_stmt 1 view .LVU1531
 5736              		.loc 1 665 8 is_stmt 0 view .LVU1532
 5737 0bca FFF7FEFF 		bl	__aeabi_fcmpeq
 5738              	.LVL565:
 5739              		.loc 1 665 8 view .LVU1533
 5740 0bce 0028     		cmp	r0, #0
 5741 0bd0 01D1     		bne	.LCB5709
 5742 0bd2 00F018FC 		bl	.L447	@far jump
 5743              	.LCB5709:
 5744              		.loc 1 666 7 is_stmt 1 view .LVU1534
 5745 0bd6 BA4A     		ldr	r2, .L487+12
 5746 0bd8 1821     		movs	r1, #24
 5747 0bda 26A8     		add	r0, sp, #152
 5748              	.LVL566:
 5749              		.loc 1 666 7 is_stmt 0 view .LVU1535
 5750 0bdc FFF7FEFF 		bl	chsnprintf
 5751              	.LVL567:
 5752              		.loc 1 666 7 view .LVU1536
 5753 0be0 B7E7     		b	.L255
 5754              	.LVL568:
 5755              	.L256:
 5756              		.loc 1 699 5 is_stmt 1 view .LVU1537
 5757              		.loc 1 699 36 is_stmt 0 view .LVU1538
ARM GAS  /tmp/ccLkBuQr.s 			page 102


 5758 0be2 149B     		ldr	r3, [sp, #80]
 5759              	.LBB487:
 5760              	.LBB481:
 5761              		.loc 1 650 21 view .LVU1539
 5762 0be4 FE20     		movs	r0, #254
 5763              	.LBE481:
 5764              	.LBE487:
 5765              		.loc 1 699 36 view .LVU1540
 5766 0be6 9C46     		mov	ip, r3
 5767 0be8 6644     		add	r6, r6, ip
 5768              	.LVL569:
 5769              	.LBB488:
 5770              	.LBI479:
 5771              		.loc 1 647 13 is_stmt 1 view .LVU1541
 5772              	.LBB482:
 5773              		.loc 1 649 3 view .LVU1542
 5774              		.loc 1 650 3 view .LVU1543
 5775              		.loc 1 650 21 is_stmt 0 view .LVU1544
 5776 0bea 3168     		ldr	r1, [r6]
 5777 0bec 8005     		lsls	r0, r0, #22
 5778 0bee FFF7FEFF 		bl	__aeabi_fsub
 5779              	.LVL570:
 5780              		.loc 1 650 31 view .LVU1545
 5781 0bf2 011C     		adds	r1, r0, #0
 5782 0bf4 FFF7FEFF 		bl	__aeabi_fmul
 5783              	.LVL571:
 5784              		.loc 1 650 50 view .LVU1546
 5785 0bf8 7668     		ldr	r6, [r6, #4]
 5786              	.LVL572:
 5787              		.loc 1 651 3 is_stmt 1 view .LVU1547
 5788              		.loc 1 652 3 view .LVU1548
 5789              		.loc 1 650 31 is_stmt 0 view .LVU1549
 5790 0bfa 071C     		adds	r7, r0, #0
 5791              		.loc 1 650 53 view .LVU1550
 5792 0bfc 311C     		adds	r1, r6, #0
 5793 0bfe 301C     		adds	r0, r6, #0
 5794 0c00 FFF7FEFF 		bl	__aeabi_fmul
 5795              	.LVL573:
 5796 0c04 011C     		adds	r1, r0, #0
 5797              		.loc 1 650 44 view .LVU1551
 5798 0c06 381C     		adds	r0, r7, #0
 5799 0c08 FFF7FEFF 		bl	__aeabi_fadd
 5800              	.LVL574:
 5801 0c0c 011C     		adds	r1, r0, #0
 5802              		.loc 1 650 9 view .LVU1552
 5803 0c0e A948     		ldr	r0, .L487
 5804 0c10 FFF7FEFF 		bl	__aeabi_fdiv
 5805              	.LVL575:
 5806              		.loc 1 651 15 view .LVU1553
 5807 0c14 311C     		adds	r1, r6, #0
 5808              		.loc 1 650 9 view .LVU1554
 5809 0c16 071C     		adds	r7, r0, #0
 5810              		.loc 1 651 15 view .LVU1555
 5811 0c18 301C     		adds	r0, r6, #0
 5812 0c1a FFF7FEFF 		bl	__aeabi_fadd
 5813              	.LVL576:
 5814 0c1e 011C     		adds	r1, r0, #0
ARM GAS  /tmp/ccLkBuQr.s 			page 103


 5815              		.loc 1 651 9 view .LVU1556
 5816 0c20 381C     		adds	r0, r7, #0
 5817 0c22 8EE7     		b	.L458
 5818              	.LVL577:
 5819              	.L259:
 5820              		.loc 1 651 9 view .LVU1557
 5821              	.LBE482:
 5822              	.LBE488:
 5823              		.loc 1 693 5 is_stmt 1 view .LVU1558
 5824              		.loc 1 693 43 is_stmt 0 view .LVU1559
 5825 0c24 149B     		ldr	r3, [sp, #80]
 5826 0c26 9C46     		mov	ip, r3
 5827 0c28 6644     		add	r6, r6, ip
 5828              	.LVL578:
 5829              		.loc 1 693 5 view .LVU1560
 5830 0c2a 7068     		ldr	r0, [r6, #4]
 5831 0c2c FFF7FEFF 		bl	__aeabi_f2d
 5832              	.LVL579:
 5833 0c30 A44A     		ldr	r2, .L487+16
 5834 0c32 0090     		str	r0, [sp]
 5835 0c34 0191     		str	r1, [sp, #4]
 5836 0c36 1821     		movs	r1, #24
 5837 0c38 26A8     		add	r0, sp, #152
 5838              	.LVL580:
 5839              		.loc 1 693 5 view .LVU1561
 5840 0c3a FFF7FEFF 		bl	chsnprintf
 5841              	.LVL581:
 5842              		.loc 1 694 5 is_stmt 1 view .LVU1562
 5843 0c3e 88E7     		b	.L255
 5844              	.LVL582:
 5845              	.L260:
 5846              		.loc 1 690 5 view .LVU1563
 5847 0c40 149B     		ldr	r3, [sp, #80]
 5848 0c42 F058     		ldr	r0, [r6, r3]
 5849              	.LVL583:
 5850              	.L459:
 5851              		.loc 1 690 5 is_stmt 0 view .LVU1564
 5852 0c44 FFF7FEFF 		bl	__aeabi_f2d
 5853              	.LVL584:
 5854 0c48 9F4A     		ldr	r2, .L487+20
 5855 0c4a 0090     		str	r0, [sp]
 5856 0c4c 0191     		str	r1, [sp, #4]
 5857 0c4e 1821     		movs	r1, #24
 5858 0c50 26A8     		add	r0, sp, #152
 5859              	.LVL585:
 5860              		.loc 1 690 5 view .LVU1565
 5861 0c52 FFF7FEFF 		bl	chsnprintf
 5862              	.LVL586:
 5863              		.loc 1 691 5 is_stmt 1 view .LVU1566
 5864 0c56 7CE7     		b	.L255
 5865              	.LVL587:
 5866              	.L261:
 5867              		.loc 1 683 5 view .LVU1567
 5868              		.loc 1 683 18 is_stmt 0 view .LVU1568
 5869 0c58 149B     		ldr	r3, [sp, #80]
 5870 0c5a F018     		adds	r0, r6, r3
 5871              		.loc 1 683 9 view .LVU1569
ARM GAS  /tmp/ccLkBuQr.s 			page 104


 5872 0c5c FFF7FEFF 		bl	swr
 5873              	.LVL588:
 5874              		.loc 1 684 5 is_stmt 1 view .LVU1570
 5875 0c60 FFF7FEFF 		bl	__aeabi_f2d
 5876              	.LVL589:
 5877              		.loc 1 684 5 is_stmt 0 view .LVU1571
 5878 0c64 994A     		ldr	r2, .L487+24
 5879 0c66 0090     		str	r0, [sp]
 5880 0c68 0191     		str	r1, [sp, #4]
 5881 0c6a 1821     		movs	r1, #24
 5882 0c6c 26A8     		add	r0, sp, #152
 5883              	.LVL590:
 5884              		.loc 1 684 5 view .LVU1572
 5885 0c6e FFF7FEFF 		bl	chsnprintf
 5886              	.LVL591:
 5887              		.loc 1 685 5 is_stmt 1 view .LVU1573
 5888 0c72 6EE7     		b	.L255
 5889              	.L262:
 5890              		.loc 1 679 5 view .LVU1574
 5891              		.loc 1 679 21 is_stmt 0 view .LVU1575
 5892 0c74 149B     		ldr	r3, [sp, #80]
 5893 0c76 9C46     		mov	ip, r3
 5894 0c78 6644     		add	r6, r6, ip
 5895              	.LVL592:
 5896              	.LBB489:
 5897              	.LBI489:
 5898              		.loc 1 466 14 is_stmt 1 view .LVU1576
 5899              	.LBB490:
 5900              		.loc 1 468 3 view .LVU1577
 5901              		.loc 1 468 18 is_stmt 0 view .LVU1578
 5902 0c7a 3068     		ldr	r0, [r6]
 5903              		.loc 1 468 30 view .LVU1579
 5904 0c7c 7668     		ldr	r6, [r6, #4]
 5905              	.LVL593:
 5906              		.loc 1 468 21 view .LVU1580
 5907 0c7e 011C     		adds	r1, r0, #0
 5908 0c80 FFF7FEFF 		bl	__aeabi_fmul
 5909              	.LVL594:
 5910              		.loc 1 468 33 view .LVU1581
 5911 0c84 311C     		adds	r1, r6, #0
 5912              		.loc 1 468 21 view .LVU1582
 5913 0c86 071C     		adds	r7, r0, #0
 5914              		.loc 1 468 33 view .LVU1583
 5915 0c88 301C     		adds	r0, r6, #0
 5916 0c8a FFF7FEFF 		bl	__aeabi_fmul
 5917              	.LVL595:
 5918 0c8e 011C     		adds	r1, r0, #0
 5919              		.loc 1 468 11 view .LVU1584
 5920 0c90 381C     		adds	r0, r7, #0
 5921 0c92 FFF7FEFF 		bl	__aeabi_fadd
 5922              	.LVL596:
 5923 0c96 FFF7FEFF 		bl	sqrtf
 5924              	.LVL597:
 5925              		.loc 1 468 11 view .LVU1585
 5926              	.LBE490:
 5927              	.LBE489:
 5928              		.loc 1 680 5 is_stmt 1 view .LVU1586
ARM GAS  /tmp/ccLkBuQr.s 			page 105


 5929 0c9a D3E7     		b	.L459
 5930              	.LVL598:
 5931              	.L263:
 5932              		.loc 1 703 5 view .LVU1587
 5933              		.loc 1 703 45 is_stmt 0 view .LVU1588
 5934 0c9c 149B     		ldr	r3, [sp, #80]
 5935 0c9e 9C46     		mov	ip, r3
 5936 0ca0 6644     		add	r6, r6, ip
 5937              	.LVL599:
 5938              		.loc 1 703 5 view .LVU1589
 5939 0ca2 7068     		ldr	r0, [r6, #4]
 5940 0ca4 FFF7FEFF 		bl	__aeabi_f2d
 5941              	.LVL600:
 5942 0ca8 0290     		str	r0, [sp, #8]
 5943 0caa 0391     		str	r1, [sp, #12]
 5944 0cac 3068     		ldr	r0, [r6]
 5945 0cae FFF7FEFF 		bl	__aeabi_f2d
 5946              	.LVL601:
 5947 0cb2 874A     		ldr	r2, .L487+28
 5948 0cb4 0090     		str	r0, [sp]
 5949 0cb6 0191     		str	r1, [sp, #4]
 5950 0cb8 1821     		movs	r1, #24
 5951 0cba 26A8     		add	r0, sp, #152
 5952              	.LVL602:
 5953              		.loc 1 703 5 view .LVU1590
 5954 0cbc FFF7FEFF 		bl	chsnprintf
 5955              	.LVL603:
 5956              		.loc 1 704 5 is_stmt 1 view .LVU1591
 5957 0cc0 47E7     		b	.L255
 5958              	.LVL604:
 5959              	.L264:
 5960              		.loc 1 687 5 view .LVU1592
 5961              		.loc 1 687 30 is_stmt 0 view .LVU1593
 5962 0cc2 149B     		ldr	r3, [sp, #80]
 5963              	.LBB491:
 5964              	.LBB492:
 5965              		.loc 1 622 21 view .LVU1594
 5966 0cc4 FE20     		movs	r0, #254
 5967              	.LBE492:
 5968              	.LBE491:
 5969              		.loc 1 687 30 view .LVU1595
 5970 0cc6 9C46     		mov	ip, r3
 5971              		.loc 1 687 5 view .LVU1596
 5972 0cc8 199B     		ldr	r3, [sp, #100]
 5973              		.loc 1 687 30 view .LVU1597
 5974 0cca 6644     		add	r6, r6, ip
 5975              	.LVL605:
 5976              	.LBB499:
 5977              	.LBI491:
 5978              		.loc 1 618 13 is_stmt 1 view .LVU1598
 5979              	.LBB495:
 5980              		.loc 1 621 3 view .LVU1599
 5981              		.loc 1 622 3 view .LVU1600
 5982              		.loc 1 622 27 is_stmt 0 view .LVU1601
 5983 0ccc 3268     		ldr	r2, [r6]
 5984              	.LBE495:
 5985              	.LBE499:
ARM GAS  /tmp/ccLkBuQr.s 			page 106


 5986              		.loc 1 687 5 view .LVU1602
 5987 0cce 1B68     		ldr	r3, [r3]
 5988              	.LBB500:
 5989              	.LBB496:
 5990              		.loc 1 622 21 view .LVU1603
 5991 0cd0 111C     		adds	r1, r2, #0
 5992 0cd2 8005     		lsls	r0, r0, #22
 5993              	.LBE496:
 5994              	.LBE500:
 5995              		.loc 1 687 5 view .LVU1604
 5996 0cd4 0A93     		str	r3, [sp, #40]
 5997              	.LVL606:
 5998              	.LBB501:
 5999              	.LBB497:
 6000              		.loc 1 622 21 view .LVU1605
 6001 0cd6 1D92     		str	r2, [sp, #116]
 6002 0cd8 FFF7FEFF 		bl	__aeabi_fsub
 6003              	.LVL607:
 6004              		.loc 1 622 50 view .LVU1606
 6005 0cdc 7668     		ldr	r6, [r6, #4]
 6006              	.LVL608:
 6007              		.loc 1 622 21 view .LVU1607
 6008 0cde 8046     		mov	r8, r0
 6009              		.loc 1 622 53 view .LVU1608
 6010 0ce0 311C     		adds	r1, r6, #0
 6011 0ce2 301C     		adds	r0, r6, #0
 6012 0ce4 FFF7FEFF 		bl	__aeabi_fmul
 6013              	.LVL609:
 6014              		.loc 1 622 31 view .LVU1609
 6015 0ce8 4146     		mov	r1, r8
 6016              		.loc 1 622 53 view .LVU1610
 6017 0cea 071C     		adds	r7, r0, #0
 6018              		.loc 1 622 31 view .LVU1611
 6019 0cec 4046     		mov	r0, r8
 6020 0cee FFF7FEFF 		bl	__aeabi_fmul
 6021              	.LVL610:
 6022              		.loc 1 622 44 view .LVU1612
 6023 0cf2 391C     		adds	r1, r7, #0
 6024 0cf4 2597     		str	r7, [sp, #148]
 6025 0cf6 FFF7FEFF 		bl	__aeabi_fadd
 6026              	.LVL611:
 6027 0cfa 011C     		adds	r1, r0, #0
 6028              		.loc 1 622 9 view .LVU1613
 6029 0cfc 6D48     		ldr	r0, .L487
 6030 0cfe FFF7FEFF 		bl	__aeabi_fdiv
 6031              	.LVL612:
 6032              		.loc 1 624 15 view .LVU1614
 6033 0d02 311C     		adds	r1, r6, #0
 6034              		.loc 1 622 9 view .LVU1615
 6035 0d04 071C     		adds	r7, r0, #0
 6036              	.LVL613:
 6037              		.loc 1 623 3 is_stmt 1 view .LVU1616
 6038              		.loc 1 624 3 view .LVU1617
 6039              		.loc 1 624 15 is_stmt 0 view .LVU1618
 6040 0d06 301C     		adds	r0, r6, #0
 6041              	.LVL614:
 6042              		.loc 1 624 15 view .LVU1619
ARM GAS  /tmp/ccLkBuQr.s 			page 107


 6043 0d08 FFF7FEFF 		bl	__aeabi_fadd
 6044              	.LVL615:
 6045              		.loc 1 624 9 view .LVU1620
 6046 0d0c 391C     		adds	r1, r7, #0
 6047 0d0e FFF7FEFF 		bl	__aeabi_fmul
 6048              	.LVL616:
 6049              		.loc 1 623 17 view .LVU1621
 6050 0d12 FE21     		movs	r1, #254
 6051              		.loc 1 624 9 view .LVU1622
 6052 0d14 061C     		adds	r6, r0, #0
 6053              	.LVL617:
 6054              		.loc 1 625 3 is_stmt 1 view .LVU1623
 6055              		.loc 1 627 3 view .LVU1624
 6056              		.loc 1 623 17 is_stmt 0 view .LVU1625
 6057 0d16 8905     		lsls	r1, r1, #22
 6058 0d18 1D98     		ldr	r0, [sp, #116]
 6059              	.LVL618:
 6060              		.loc 1 623 17 view .LVU1626
 6061 0d1a FFF7FEFF 		bl	__aeabi_fadd
 6062              	.LVL619:
 6063              		.loc 1 623 27 view .LVU1627
 6064 0d1e 4146     		mov	r1, r8
 6065 0d20 FFF7FEFF 		bl	__aeabi_fmul
 6066              	.LVL620:
 6067              		.loc 1 623 41 view .LVU1628
 6068 0d24 2599     		ldr	r1, [sp, #148]
 6069 0d26 FFF7FEFF 		bl	__aeabi_fsub
 6070              	.LVL621:
 6071              		.loc 1 623 9 view .LVU1629
 6072 0d2a 391C     		adds	r1, r7, #0
 6073 0d2c FFF7FEFF 		bl	__aeabi_fmul
 6074              	.LVL622:
 6075              		.loc 1 627 7 view .LVU1630
 6076 0d30 1E23     		movs	r3, #30
 6077              		.loc 1 623 9 view .LVU1631
 6078 0d32 021C     		adds	r2, r0, #0
 6079              		.loc 1 627 7 view .LVU1632
 6080 0d34 1821     		movs	r1, #24
 6081 0d36 26A8     		add	r0, sp, #152
 6082              	.LVL623:
 6083              		.loc 1 627 7 view .LVU1633
 6084 0d38 FFF7FEFF 		bl	string_value_with_prefix
 6085              	.LVL624:
 6086              		.loc 1 628 3 is_stmt 1 view .LVU1634
 6087              		.loc 1 628 12 is_stmt 0 view .LVU1635
 6088 0d3c 1021     		movs	r1, #16
 6089 0d3e 2023     		movs	r3, #32
 6090              		.loc 1 628 8 view .LVU1636
 6091 0d40 421C     		adds	r2, r0, #1
 6092 0d42 9046     		mov	r8, r2
 6093              	.LVL625:
 6094              		.loc 1 628 12 view .LVU1637
 6095 0d44 22AA     		add	r2, sp, #136
 6096              	.LVL626:
 6097              		.loc 1 628 12 view .LVU1638
 6098 0d46 5218     		adds	r2, r2, r1
 6099 0d48 1354     		strb	r3, [r2, r0]
ARM GAS  /tmp/ccLkBuQr.s 			page 108


 6100              		.loc 1 630 3 is_stmt 1 view .LVU1639
 6101              		.loc 1 630 6 is_stmt 0 view .LVU1640
 6102 0d4a 0021     		movs	r1, #0
 6103 0d4c 301C     		adds	r0, r6, #0
 6104 0d4e FFF7FEFF 		bl	__aeabi_fcmplt
 6105              	.LVL627:
 6106 0d52 0028     		cmp	r0, #0
 6107 0d54 00D0     		beq	.LCB6010
 6108 0d56 62E3     		b	.L477	@long jump
 6109              	.LCB6010:
 6110              	.LBB493:
 6111              		.loc 1 634 5 is_stmt 1 view .LVU1641
 6112              	.LVL628:
 6113              		.loc 1 635 5 view .LVU1642
 6114              		.loc 1 634 18 is_stmt 0 view .LVU1643
 6115 0d58 301C     		adds	r0, r6, #0
 6116 0d5a FFF7FEFF 		bl	__aeabi_f2d
 6117              	.LVL629:
 6118 0d5e 0600     		movs	r6, r0
 6119              	.LVL630:
 6120              		.loc 1 634 25 view .LVU1644
 6121 0d60 0A98     		ldr	r0, [sp, #40]
 6122              		.loc 1 634 18 view .LVU1645
 6123 0d62 0F00     		movs	r7, r1
 6124              	.LVL631:
 6125              		.loc 1 634 25 view .LVU1646
 6126 0d64 FFF7FEFF 		bl	__aeabi_ui2d
 6127              	.LVL632:
 6128 0d68 5A4A     		ldr	r2, .L487+32
 6129 0d6a 5B4B     		ldr	r3, .L487+36
 6130 0d6c FFF7FEFF 		bl	__aeabi_dmul
 6131              	.LVL633:
 6132 0d70 0200     		movs	r2, r0
 6133 0d72 0B00     		movs	r3, r1
 6134              		.loc 1 634 18 view .LVU1647
 6135 0d74 3000     		movs	r0, r6
 6136 0d76 3900     		movs	r1, r7
 6137 0d78 FFF7FEFF 		bl	__aeabi_ddiv
 6138              	.LVL634:
 6139              		.loc 1 634 11 view .LVU1648
 6140 0d7c FFF7FEFF 		bl	__aeabi_d2f
 6141              	.LVL635:
 6142              		.loc 1 635 5 view .LVU1649
 6143 0d80 4346     		mov	r3, r8
 6144 0d82 1821     		movs	r1, #24
 6145              		.loc 1 634 11 view .LVU1650
 6146 0d84 021C     		adds	r2, r0, #0
 6147              		.loc 1 635 5 view .LVU1651
 6148 0d86 26A8     		add	r0, sp, #152
 6149              	.LVL636:
 6150              		.loc 1 635 5 view .LVU1652
 6151 0d88 C91A     		subs	r1, r1, r3
 6152 0d8a 4044     		add	r0, r0, r8
 6153              	.LVL637:
 6154              		.loc 1 635 5 view .LVU1653
 6155 0d8c 4823     		movs	r3, #72
 6156 0d8e FFF7FEFF 		bl	string_value_with_prefix
ARM GAS  /tmp/ccLkBuQr.s 			page 109


 6157              	.LVL638:
 6158 0d92 DEE6     		b	.L255
 6159              	.LVL639:
 6160              	.L265:
 6161              		.loc 1 635 5 view .LVU1654
 6162              	.LBE493:
 6163              	.LBE497:
 6164              	.LBE501:
 6165              	.LBE510:
 6166              	.LBE533:
 6167              		.loc 1 1675 5 view .LVU1655
 6168 0d94 514B     		ldr	r3, .L487+40
 6169              	.LBB534:
 6170              	.LBB511:
 6171              		.loc 1 675 9 view .LVU1656
 6172 0d96 139A     		ldr	r2, [sp, #76]
 6173              	.LBE511:
 6174              	.LBE534:
 6175              		.loc 1 1675 5 view .LVU1657
 6176 0d98 0C21     		movs	r1, #12
 6177 0d9a 595E     		ldrsh	r1, [r3, r1]
 6178              	.LBB535:
 6179              	.LBB512:
 6180              		.loc 1 675 5 is_stmt 1 view .LVU1658
 6181              		.loc 1 675 9 is_stmt 0 view .LVU1659
 6182 0d9c 3000     		movs	r0, r6
 6183 0d9e FFF7FEFF 		bl	group_delay.constprop.11
 6184              	.LVL640:
 6185              		.loc 1 676 5 view .LVU1660
 6186 0da2 7323     		movs	r3, #115
 6187              		.loc 1 675 9 view .LVU1661
 6188 0da4 021C     		adds	r2, r0, #0
 6189              	.LVL641:
 6190              		.loc 1 676 5 is_stmt 1 view .LVU1662
 6191 0da6 1821     		movs	r1, #24
 6192 0da8 26A8     		add	r0, sp, #152
 6193              	.LVL642:
 6194              		.loc 1 676 5 is_stmt 0 view .LVU1663
 6195 0daa FFF7FEFF 		bl	string_value_with_prefix
 6196              	.LVL643:
 6197              		.loc 1 677 5 is_stmt 1 view .LVU1664
 6198 0dae D0E6     		b	.L255
 6199              	.L266:
 6200              		.loc 1 671 5 view .LVU1665
 6201              		.loc 1 671 20 is_stmt 0 view .LVU1666
 6202 0db0 149B     		ldr	r3, [sp, #80]
 6203 0db2 9C46     		mov	ip, r3
 6204 0db4 6644     		add	r6, r6, ip
 6205              	.LVL644:
 6206              	.LBB502:
 6207              	.LBI502:
 6208              		.loc 1 433 14 is_stmt 1 view .LVU1667
 6209              	.LBB503:
 6210              		.loc 1 435 3 view .LVU1668
 6211              		.loc 1 435 14 is_stmt 0 view .LVU1669
 6212 0db6 3168     		ldr	r1, [r6]
 6213 0db8 7068     		ldr	r0, [r6, #4]
ARM GAS  /tmp/ccLkBuQr.s 			page 110


 6214 0dba FFF7FEFF 		bl	atan2f
 6215              	.LVL645:
 6216              		.loc 1 435 14 view .LVU1670
 6217              	.LBE503:
 6218              	.LBE502:
 6219              		.loc 1 672 5 is_stmt 1 view .LVU1671
 6220              	.LBB505:
 6221              	.LBB504:
 6222              		.loc 1 435 12 is_stmt 0 view .LVU1672
 6223 0dbe 011C     		adds	r1, r0, #0
 6224 0dc0 FFF7FEFF 		bl	__aeabi_fadd
 6225              	.LVL646:
 6226              		.loc 1 435 12 view .LVU1673
 6227 0dc4 FFF7FEFF 		bl	__aeabi_f2d
 6228              	.LVL647:
 6229              		.loc 1 435 33 view .LVU1674
 6230 0dc8 454A     		ldr	r2, .L487+44
 6231 0dca 464B     		ldr	r3, .L487+48
 6232 0dcc FFF7FEFF 		bl	__aeabi_ddiv
 6233              	.LVL648:
 6234              		.loc 1 435 40 view .LVU1675
 6235 0dd0 0022     		movs	r2, #0
 6236 0dd2 454B     		ldr	r3, .L487+52
 6237 0dd4 FFF7FEFF 		bl	__aeabi_dmul
 6238              	.LVL649:
 6239 0dd8 FFF7FEFF 		bl	__aeabi_d2f
 6240              	.LVL650:
 6241              	.LBE504:
 6242              	.LBE505:
 6243              		.loc 1 672 5 view .LVU1676
 6244 0ddc FFF7FEFF 		bl	__aeabi_f2d
 6245              	.LVL651:
 6246 0de0 424A     		ldr	r2, .L487+56
 6247 0de2 0090     		str	r0, [sp]
 6248 0de4 0191     		str	r1, [sp, #4]
 6249 0de6 1821     		movs	r1, #24
 6250 0de8 26A8     		add	r0, sp, #152
 6251              	.LVL652:
 6252              		.loc 1 672 5 view .LVU1677
 6253 0dea FFF7FEFF 		bl	chsnprintf
 6254              	.LVL653:
 6255              		.loc 1 673 5 is_stmt 1 view .LVU1678
 6256 0dee B0E6     		b	.L255
 6257              	.LVL654:
 6258              	.L310:
 6259              		.loc 1 673 5 is_stmt 0 view .LVU1679
 6260 0df0 179B     		ldr	r3, [sp, #92]
 6261              	.LBE512:
 6262              	.LBE535:
 6263              	.LBE546:
 6264              	.LBE594:
 6265              	.LBE749:
 6266              	.LBE773:
 6267              	.LBE778:
 6268              		.loc 1 1293 40 discriminator 2 view .LVU1680
 6269 0df2 1100     		movs	r1, r2
 6270 0df4 2033     		adds	r3, r3, #32
ARM GAS  /tmp/ccLkBuQr.s 			page 111


 6271 0df6 1793     		str	r3, [sp, #92]
 6272 0df8 0C9B     		ldr	r3, [sp, #48]
 6273 0dfa 1F31     		adds	r1, r1, #31
 6274 0dfc 2033     		adds	r3, r3, #32
 6275 0dfe 0C93     		str	r3, [sp, #48]
 6276 0e00 119B     		ldr	r3, [sp, #68]
 6277              		.loc 1 1293 58 discriminator 2 view .LVU1681
 6278 0e02 189C     		ldr	r4, [sp, #96]
 6279 0e04 2033     		adds	r3, r3, #32
 6280 0e06 1193     		str	r3, [sp, #68]
 6281              		.loc 1 1293 44 discriminator 2 view .LVU1682
 6282 0e08 1F23     		movs	r3, #31
 6283 0e0a C817     		asrs	r0, r1, #31
 6284 0e0c 0340     		ands	r3, r0
 6285              		.loc 1 1293 58 discriminator 2 view .LVU1683
 6286 0e0e 0134     		adds	r4, r4, #1
 6287              		.loc 1 1293 44 discriminator 2 view .LVU1684
 6288 0e10 5B18     		adds	r3, r3, r1
 6289              		.loc 1 1293 58 discriminator 2 view .LVU1685
 6290 0e12 1894     		str	r4, [sp, #96]
 6291              	.LVL655:
 6292              		.loc 1 1293 44 discriminator 2 view .LVU1686
 6293 0e14 5B11     		asrs	r3, r3, #5
 6294              		.loc 1 1293 3 discriminator 2 view .LVU1687
 6295 0e16 A342     		cmp	r3, r4
 6296 0e18 01DD     		ble	.LCB6197
 6297 0e1a FFF70DF9 		bl	.L181	@far jump
 6298              	.LCB6197:
 6299              	.LVL656:
 6300              	.L182:
 6301              		.loc 1 1299 3 is_stmt 1 view .LVU1688
 6302              		.loc 1 1299 6 is_stmt 0 view .LVU1689
 6303 0e1e 249B     		ldr	r3, [sp, #144]
 6304 0e20 002B     		cmp	r3, #0
 6305 0e22 00D0     		beq	.LCB6203
 6306 0e24 75E3     		b	.L478	@long jump
 6307              	.LCB6203:
 6308              	.L180:
 6309              		.loc 1 1305 1 view .LVU1690
 6310 0e26 2DB0     		add	sp, sp, #180
 6311              		@ sp needed
 6312 0e28 3CBC     		pop	{r2, r3, r4, r5}
 6313 0e2a 9046     		mov	r8, r2
 6314 0e2c 9946     		mov	r9, r3
 6315 0e2e A246     		mov	r10, r4
 6316 0e30 AB46     		mov	fp, r5
 6317 0e32 F0BD     		pop	{r4, r5, r6, r7, pc}
 6318              	.LVL657:
 6319              	.L193:
 6320              	.LBB779:
 6321              	.LBB774:
 6322              		.loc 1 1210 5 is_stmt 1 view .LVU1691
 6323 0e34 8022     		movs	r2, #128
 6324 0e36 2E4B     		ldr	r3, .L487+60
 6325 0e38 1201     		lsls	r2, r2, #4
 6326 0e3a 1800     		movs	r0, r3
 6327 0e3c 0021     		movs	r1, #0
ARM GAS  /tmp/ccLkBuQr.s 			page 112


 6328 0e3e 1A93     		str	r3, [sp, #104]
 6329 0e40 FFF7FEFF 		bl	memset
 6330              	.LVL658:
 6331 0e44 2B4B     		ldr	r3, .L487+64
 6332 0e46 1993     		str	r3, [sp, #100]
 6333 0e48 5B46     		mov	r3, fp
 6334 0e4a 5B00     		lsls	r3, r3, #1
 6335 0e4c 0593     		str	r3, [sp, #20]
 6336 0e4e FFF7E4F9 		bl	.L201	@ far jump
 6337              	.LVL659:
 6338              	.L298:
 6339              		.loc 1 1210 5 is_stmt 0 view .LVU1692
 6340 0e52 059B     		ldr	r3, [sp, #20]
 6341              	.LBB750:
 6342              	.LBB751:
 6343              		.loc 1 1018 10 view .LVU1693
 6344 0e54 0024     		movs	r4, #0
 6345 0e56 043B     		subs	r3, r3, #4
 6346 0e58 9846     		mov	r8, r3
 6347 0e5a 5B46     		mov	r3, fp
 6348 0e5c 5B00     		lsls	r3, r3, #1
 6349 0e5e 5B42     		rsbs	r3, r3, #0
