ARM GAS  /tmp/cc96bPPt.s 			page 1


   1              		.cpu cortex-m0
   2              		.eabi_attribute 20, 1
   3              		.eabi_attribute 21, 1
   4              		.eabi_attribute 23, 3
   5              		.eabi_attribute 24, 1
   6              		.eabi_attribute 25, 1
   7              		.eabi_attribute 26, 1
   8              		.eabi_attribute 30, 2
   9              		.eabi_attribute 34, 0
  10              		.eabi_attribute 18, 4
  11              		.file	"si5351.c"
  12              		.text
  13              	.Ltext0:
  14              		.cfi_sections	.debug_frame
  15              		.section	.text.si5351_bulk_write,"ax",%progbits
  16              		.align	1
  17              		.p2align 4,,15
  18              		.arch armv6s-m
  19              		.syntax unified
  20              		.code	16
  21              		.thumb_func
  22              		.fpu softvfp
  23              		.type	si5351_bulk_write, %function
  24              	si5351_bulk_write:
  25              	.LVL0:
  26              	.LFB154:
  27              		.file 1 "si5351.c"
  28              		.loc 1 46 1 view -0
  29              		.cfi_startproc
  30              		@ args = 0, pretend = 0, frame = 0
  31              		@ frame_needed = 0, uses_anonymous_args = 0
  32              		.loc 1 47 3 view .LVU1
  33              		.loc 1 48 3 view .LVU2
  34              		.loc 1 46 1 is_stmt 0 view .LVU3
  35 0000 70B5     		push	{r4, r5, r6, lr}
  36              		.cfi_def_cfa_offset 16
  37              		.cfi_offset 4, -16
  38              		.cfi_offset 5, -12
  39              		.cfi_offset 6, -8
  40              		.cfi_offset 14, -4
  41              		.loc 1 48 3 view .LVU4
  42 0002 0E4D     		ldr	r5, .L3
  43              		.loc 1 46 1 view .LVU5
  44 0004 84B0     		sub	sp, sp, #16
  45              		.cfi_def_cfa_offset 32
  46              		.loc 1 46 1 view .LVU6
  47 0006 0400     		movs	r4, r0
  48              		.loc 1 48 3 view .LVU7
  49 0008 2800     		movs	r0, r5
  50              	.LVL1:
  51              		.loc 1 46 1 view .LVU8
  52 000a 0E00     		movs	r6, r1
  53              		.loc 1 48 3 view .LVU9
  54 000c FFF7FEFF 		bl	i2cAcquireBus
  55              	.LVL2:
  56              		.loc 1 49 3 is_stmt 1 view .LVU10
  57              		.loc 1 49 14 is_stmt 0 view .LVU11
ARM GAS  /tmp/cc96bPPt.s 			page 2


  58 0010 FA23     		movs	r3, #250
  59 0012 9B00     		lsls	r3, r3, #2
  60 0014 0293     		str	r3, [sp, #8]
  61 0016 0023     		movs	r3, #0
  62 0018 2200     		movs	r2, r4
  63 001a 0193     		str	r3, [sp, #4]
  64 001c 0093     		str	r3, [sp]
  65 001e 6021     		movs	r1, #96
  66 0020 3300     		movs	r3, r6
  67 0022 2800     		movs	r0, r5
  68 0024 FFF7FEFF 		bl	i2cMasterTransmitTimeout
  69              	.LVL3:
  70 0028 0400     		movs	r4, r0
  71              	.LVL4:
  72              		.loc 1 50 3 is_stmt 1 view .LVU12
  73 002a 2800     		movs	r0, r5
  74              	.LVL5:
  75              		.loc 1 50 3 is_stmt 0 view .LVU13
  76 002c FFF7FEFF 		bl	i2cReleaseBus
  77              	.LVL6:
  78              		.loc 1 51 3 is_stmt 1 view .LVU14
  79              		.loc 1 51 13 is_stmt 0 view .LVU15
  80 0030 6042     		rsbs	r0, r4, #0
  81 0032 6041     		adcs	r0, r0, r4
  82              	.LVL7:
  83              		.loc 1 51 13 view .LVU16
  84 0034 C0B2     		uxtb	r0, r0
  85              		.loc 1 52 1 view .LVU17
  86 0036 04B0     		add	sp, sp, #16
  87              		@ sp needed
  88              	.LVL8:
  89              		.loc 1 52 1 view .LVU18
  90 0038 70BD     		pop	{r4, r5, r6, pc}
  91              	.L4:
  92 003a C046     		.align	2
  93              	.L3:
  94 003c 00000000 		.word	I2CD1
  95              		.cfi_endproc
  96              	.LFE154:
  97              		.size	si5351_bulk_write, .-si5351_bulk_write
  98              		.global	__aeabi_uidivmod
  99              		.section	.text.si5351_setupPLL,"ax",%progbits
 100              		.align	1
 101              		.p2align 4,,15
 102              		.syntax unified
 103              		.code	16
 104              		.thumb_func
 105              		.fpu softvfp
 106              		.type	si5351_setupPLL, %function
 107              	si5351_setupPLL:
 108              	.LVL9:
 109              	.LFB161:
 110              		.loc 1 148 1 is_stmt 1 view -0
 111              		.cfi_startproc
 112              		@ args = 0, pretend = 0, frame = 16
 113              		@ frame_needed = 0, uses_anonymous_args = 0
 114              		.loc 1 150 3 view .LVU20
ARM GAS  /tmp/cc96bPPt.s 			page 3


 115              		.loc 1 148 1 is_stmt 0 view .LVU21
 116 0000 F0B5     		push	{r4, r5, r6, r7, lr}
 117              		.cfi_def_cfa_offset 20
 118              		.cfi_offset 4, -20
 119              		.cfi_offset 5, -16
 120              		.cfi_offset 6, -12
 121              		.cfi_offset 7, -8
 122              		.cfi_offset 14, -4
 123 0002 85B0     		sub	sp, sp, #20
 124              		.cfi_def_cfa_offset 40
 125              		.loc 1 148 1 view .LVU22
 126 0004 0C00     		movs	r4, r1
 127              		.loc 1 150 17 view .LVU23
 128 0006 6946     		mov	r1, sp
 129              	.LVL10:
 130              		.loc 1 148 1 view .LVU24
 131 0008 1E00     		movs	r6, r3
 132              		.loc 1 150 17 view .LVU25
 133 000a 1C4B     		ldr	r3, .L8
 134              	.LVL11:
 135              		.loc 1 148 1 view .LVU26
 136 000c 0500     		movs	r5, r0
 137              		.loc 1 150 17 view .LVU27
 138 000e 0B80     		strh	r3, [r1]
 139              		.loc 1 154 3 is_stmt 1 view .LVU28
 140              		.loc 1 155 3 view .LVU29
 141              		.loc 1 156 3 view .LVU30
 142              		.loc 1 169 3 view .LVU31
 143              		.loc 1 169 6 is_stmt 0 view .LVU32
 144 0010 002A     		cmp	r2, #0
 145 0012 1BD1     		bne	.L6
 146              		.loc 1 172 5 is_stmt 1 view .LVU33
 147 0014 0023     		movs	r3, #0
 148              		.loc 1 172 21 is_stmt 0 view .LVU34
 149 0016 221F     		subs	r2, r4, #4
 150              	.LVL12:
 151              		.loc 1 172 21 view .LVU35
 152 0018 0021     		movs	r1, #0
 153 001a 0026     		movs	r6, #0
 154              	.LVL13:
 155              		.loc 1 172 21 view .LVU36
 156 001c 9C46     		mov	ip, r3
 157 001e 0127     		movs	r7, #1
 158 0020 0024     		movs	r4, #0
 159 0022 D201     		lsls	r2, r2, #7
 160              	.LVL14:
 161              		.loc 1 173 5 is_stmt 1 view .LVU37
 162              		.loc 1 174 5 view .LVU38
 163              	.L7:
 164              		.loc 1 187 3 view .LVU39
 165              		.loc 1 188 3 view .LVU40
 166              		.loc 1 188 10 is_stmt 0 view .LVU41
 167 0024 6B46     		mov	r3, sp
 168 0026 5D5D     		ldrb	r5, [r3, r5]
 169              		.loc 1 194 10 view .LVU42
 170 0028 6346     		mov	r3, ip
 171              		.loc 1 188 10 view .LVU43
ARM GAS  /tmp/cc96bPPt.s 			page 4


 172 002a 01A8     		add	r0, sp, #4
 173              		.loc 1 189 10 view .LVU44
 174 002c 4470     		strb	r4, [r0, #1]
 175              		.loc 1 191 30 view .LVU45
 176 002e 9403     		lsls	r4, r2, #14
 177              		.loc 1 192 10 view .LVU46
 178 0030 52BA     		rev16	r2, r2
 179              	.LVL15:
 180              		.loc 1 191 30 view .LVU47
 181 0032 A40F     		lsrs	r4, r4, #30
 182              		.loc 1 192 10 view .LVU48
 183 0034 8280     		strh	r2, [r0, #4]
 184              		.loc 1 196 10 view .LVU49
 185 0036 0172     		strb	r1, [r0, #8]
 186              		.loc 1 197 3 view .LVU50
 187 0038 0921     		movs	r1, #9
 188              		.loc 1 188 10 view .LVU51
 189 003a 0570     		strb	r5, [r0]
 190              		.loc 1 189 3 is_stmt 1 view .LVU52
 191              		.loc 1 190 3 view .LVU53
 192              		.loc 1 190 10 is_stmt 0 view .LVU54
 193 003c 8770     		strb	r7, [r0, #2]
 194              		.loc 1 191 3 is_stmt 1 view .LVU55
 195              		.loc 1 191 10 is_stmt 0 view .LVU56
 196 003e C470     		strb	r4, [r0, #3]
 197              		.loc 1 192 3 is_stmt 1 view .LVU57
 198              		.loc 1 193 3 view .LVU58
 199              		.loc 1 194 3 view .LVU59
 200              		.loc 1 194 10 is_stmt 0 view .LVU60
 201 0040 8371     		strb	r3, [r0, #6]
 202              		.loc 1 195 3 is_stmt 1 view .LVU61
 203              		.loc 1 195 10 is_stmt 0 view .LVU62
 204 0042 C671     		strb	r6, [r0, #7]
 205              		.loc 1 196 3 is_stmt 1 view .LVU63
 206              		.loc 1 197 3 view .LVU64
 207 0044 FFF7FEFF 		bl	si5351_bulk_write
 208              	.LVL16:
 209              		.loc 1 198 1 is_stmt 0 view .LVU65
 210 0048 05B0     		add	sp, sp, #20
 211              		@ sp needed
 212 004a F0BD     		pop	{r4, r5, r6, r7, pc}
 213              	.LVL17:
 214              	.L6:
 215              		.loc 1 180 5 is_stmt 1 view .LVU66
 216              		.loc 1 180 29 is_stmt 0 view .LVU67
 217 004c D001     		lsls	r0, r2, #7
 218              	.LVL18:
 219              		.loc 1 180 29 view .LVU68
 220 004e 3100     		movs	r1, r6
 221 0050 FFF7FEFF 		bl	__aeabi_uidivmod
 222              	.LVL19:
 223              		.loc 1 180 14 view .LVU69
 224 0054 E401     		lsls	r4, r4, #7
 225              		.loc 1 180 21 view .LVU70
 226 0056 2418     		adds	r4, r4, r0
 227 0058 0F20     		movs	r0, #15
 228              		.loc 1 180 8 view .LVU71
ARM GAS  /tmp/cc96bPPt.s 			page 5


 229 005a 094B     		ldr	r3, .L8+4
 230 005c F7B2     		uxtb	r7, r6
 231 005e E218     		adds	r2, r4, r3
 232              	.LVL20:
 233              		.loc 1 182 5 is_stmt 1 view .LVU72
 234              		.loc 1 183 5 view .LVU73
 235              		.loc 1 183 5 is_stmt 0 view .LVU74
 236 0060 340A     		lsrs	r4, r6, #8
 237 0062 330B     		lsrs	r3, r6, #12
 238 0064 0E0C     		lsrs	r6, r1, #16
 239              	.LVL21:
 240              		.loc 1 183 5 view .LVU75
 241 0066 8343     		bics	r3, r0
 242 0068 3040     		ands	r0, r6
 243 006a 0343     		orrs	r3, r0
 244 006c 0E0A     		lsrs	r6, r1, #8
 245 006e DBB2     		uxtb	r3, r3
 246 0070 E4B2     		uxtb	r4, r4
 247 0072 9C46     		mov	ip, r3
 248 0074 F6B2     		uxtb	r6, r6
 249 0076 C9B2     		uxtb	r1, r1
 250              	.LVL22:
 251              		.loc 1 183 5 view .LVU76
 252 0078 D4E7     		b	.L7
 253              	.L9:
 254 007a C046     		.align	2
 255              	.L8:
 256 007c 1A220000 		.word	8730
 257 0080 00FEFFFF 		.word	-512
 258              		.cfi_endproc
 259              	.LFE161:
 260              		.size	si5351_setupPLL, .-si5351_setupPLL
 261              		.section	.text.si5351_write,"ax",%progbits
 262              		.align	1
 263              		.p2align 4,,15
 264              		.syntax unified
 265              		.code	16
 266              		.thumb_func
 267              		.fpu softvfp
 268              		.type	si5351_write, %function
 269              	si5351_write:
 270              	.LVL23:
 271              	.LFB153:
 272              		.loc 1 36 1 is_stmt 1 view -0
 273              		.cfi_startproc
 274              		@ args = 0, pretend = 0, frame = 8
 275              		@ frame_needed = 0, uses_anonymous_args = 0
 276              		.loc 1 37 3 view .LVU78
 277              		.loc 1 38 3 view .LVU79
 278              		.loc 1 36 1 is_stmt 0 view .LVU80
 279 0000 30B5     		push	{r4, r5, lr}
 280              		.cfi_def_cfa_offset 12
 281              		.cfi_offset 4, -12
 282              		.cfi_offset 5, -8
 283              		.cfi_offset 14, -4
 284              		.loc 1 39 3 view .LVU81
 285 0002 0E4D     		ldr	r5, .L11
ARM GAS  /tmp/cc96bPPt.s 			page 6


 286              		.loc 1 36 1 view .LVU82
 287 0004 87B0     		sub	sp, sp, #28
 288              		.cfi_def_cfa_offset 40
 289              		.loc 1 38 11 view .LVU83
 290 0006 05AC     		add	r4, sp, #20
 291 0008 2070     		strb	r0, [r4]
 292              		.loc 1 39 3 view .LVU84
 293 000a 2800     		movs	r0, r5
 294              	.LVL24:
 295              		.loc 1 38 11 view .LVU85
 296 000c 6170     		strb	r1, [r4, #1]
 297              		.loc 1 39 3 is_stmt 1 view .LVU86
 298 000e FFF7FEFF 		bl	i2cAcquireBus
 299              	.LVL25:
 300              		.loc 1 40 3 view .LVU87
 301              		.loc 1 40 14 is_stmt 0 view .LVU88
 302 0012 FA23     		movs	r3, #250
 303 0014 9B00     		lsls	r3, r3, #2
 304 0016 0293     		str	r3, [sp, #8]
 305 0018 0023     		movs	r3, #0
 306 001a 2200     		movs	r2, r4
 307 001c 0193     		str	r3, [sp, #4]
 308 001e 0093     		str	r3, [sp]
 309 0020 6021     		movs	r1, #96
 310 0022 0233     		adds	r3, r3, #2
 311 0024 2800     		movs	r0, r5
 312 0026 FFF7FEFF 		bl	i2cMasterTransmitTimeout
 313              	.LVL26:
 314 002a 0400     		movs	r4, r0
 315              	.LVL27:
 316              		.loc 1 41 3 is_stmt 1 view .LVU89
 317 002c 2800     		movs	r0, r5
 318              	.LVL28:
 319              		.loc 1 41 3 is_stmt 0 view .LVU90
 320 002e FFF7FEFF 		bl	i2cReleaseBus
 321              	.LVL29:
 322              		.loc 1 42 3 is_stmt 1 view .LVU91
 323              		.loc 1 42 13 is_stmt 0 view .LVU92
 324 0032 6042     		rsbs	r0, r4, #0
 325 0034 6041     		adcs	r0, r0, r4
 326              	.LVL30:
 327              		.loc 1 42 13 view .LVU93
 328 0036 C0B2     		uxtb	r0, r0
 329              		.loc 1 43 1 view .LVU94
 330 0038 07B0     		add	sp, sp, #28
 331              		@ sp needed
 332 003a 30BD     		pop	{r4, r5, pc}
 333              	.L12:
 334              		.align	2
 335              	.L11:
 336 003c 00000000 		.word	I2CD1
 337              		.cfi_endproc
 338              	.LFE153:
 339              		.size	si5351_write, .-si5351_write
 340              		.section	.text.si5351_setupMultisynth,"ax",%progbits
 341              		.align	1
 342              		.p2align 4,,15
ARM GAS  /tmp/cc96bPPt.s 			page 7


 343              		.syntax unified
 344              		.code	16
 345              		.thumb_func
 346              		.fpu softvfp
 347              		.type	si5351_setupMultisynth, %function
 348              	si5351_setupMultisynth:
 349              	.LVL31:
 350              	.LFB162:
 351              		.loc 1 208 1 is_stmt 1 view -0
 352              		.cfi_startproc
 353              		@ args = 12, pretend = 0, frame = 40
 354              		@ frame_needed = 0, uses_anonymous_args = 0
 355              		.loc 1 210 3 view .LVU96
 356              		.loc 1 208 1 is_stmt 0 view .LVU97
 357 0000 F0B5     		push	{r4, r5, r6, r7, lr}
 358              		.cfi_def_cfa_offset 20
 359              		.cfi_offset 4, -20
 360              		.cfi_offset 5, -16
 361              		.cfi_offset 6, -12
 362              		.cfi_offset 7, -8
 363              		.cfi_offset 14, -4
 364 0002 4E46     		mov	r6, r9
 365 0004 4546     		mov	r5, r8
 366 0006 5746     		mov	r7, r10
 367 0008 DE46     		mov	lr, fp
 368 000a E0B5     		push	{r5, r6, r7, lr}
 369              		.cfi_def_cfa_offset 36
 370              		.cfi_offset 8, -36
 371              		.cfi_offset 9, -32
 372              		.cfi_offset 10, -28
 373              		.cfi_offset 11, -24
 374 000c 8BB0     		sub	sp, sp, #44
 375              		.cfi_def_cfa_offset 80
 376              		.loc 1 208 1 view .LVU98
 377 000e 1F00     		movs	r7, r3
 378 0010 16AB     		add	r3, sp, #88
 379              	.LVL32:
 380              		.loc 1 208 1 view .LVU99
 381 0012 1B78     		ldrb	r3, [r3]
 382              	.LVL33:
 383              		.loc 1 210 17 view .LVU100
 384 0014 05AD     		add	r5, sp, #20
 385              		.loc 1 208 1 view .LVU101
 386 0016 0393     		str	r3, [sp, #12]
 387              		.loc 1 210 17 view .LVU102
 388 0018 454B     		ldr	r3, .L21
 389              		.loc 1 215 17 view .LVU103
 390 001a 06AC     		add	r4, sp, #24
 391              		.loc 1 210 17 view .LVU104
 392 001c 2B80     		strh	r3, [r5]
 393 001e 3A23     		movs	r3, #58
 394 0020 AB70     		strb	r3, [r5, #2]
 395              		.loc 1 215 3 is_stmt 1 view .LVU105
 396              		.loc 1 215 17 is_stmt 0 view .LVU106
 397 0022 444B     		ldr	r3, .L21+4
 398              		.loc 1 208 1 view .LVU107
 399 0024 0600     		movs	r6, r0
ARM GAS  /tmp/cc96bPPt.s 			page 8


 400              		.loc 1 215 17 view .LVU108
 401 0026 2380     		strh	r3, [r4]
 402 0028 1223     		movs	r3, #18
 403              		.loc 1 208 1 view .LVU109
 404 002a 8846     		mov	r8, r1
 405 002c 9146     		mov	r9, r2
 406              		.loc 1 215 17 view .LVU110
 407 002e A370     		strb	r3, [r4, #2]
 408              		.loc 1 220 3 is_stmt 1 view .LVU111
 409              		.loc 1 222 3 view .LVU112
 410              		.loc 1 223 3 view .LVU113
 411              		.loc 1 224 3 view .LVU114
 412              		.loc 1 225 3 view .LVU115
 413              	.LVL34:
 414              		.loc 1 237 3 view .LVU116
 415              		.loc 1 237 6 is_stmt 0 view .LVU117
 416 0030 042A     		cmp	r2, #4
 417 0032 6ED0     		beq	.L19
 418              		.loc 1 241 10 is_stmt 1 view .LVU118
 419              		.loc 1 241 13 is_stmt 0 view .LVU119
 420 0034 002F     		cmp	r7, #0
 421 0036 53D0     		beq	.L20
 422              		.loc 1 248 5 is_stmt 1 view .LVU120
 423              		.loc 1 248 28 is_stmt 0 view .LVU121
 424 0038 F801     		lsls	r0, r7, #7
 425              	.LVL35:
 426              		.loc 1 248 28 view .LVU122
 427 003a 1499     		ldr	r1, [sp, #80]
 428              	.LVL36:
 429              		.loc 1 248 28 view .LVU123
 430 003c FFF7FEFF 		bl	__aeabi_uidivmod
 431              	.LVL37:
 432              		.loc 1 248 14 view .LVU124
 433 0040 4B46     		mov	r3, r9
 434 0042 DB01     		lsls	r3, r3, #7
 435              		.loc 1 248 20 view .LVU125
 436 0044 1818     		adds	r0, r3, r0
 437              		.loc 1 248 8 view .LVU126
 438 0046 3C4B     		ldr	r3, .L21+8
 439 0048 9C46     		mov	ip, r3
 440 004a 149B     		ldr	r3, [sp, #80]
 441 004c 6044     		add	r0, r0, ip
 442              	.LVL38:
 443              		.loc 1 249 5 is_stmt 1 view .LVU127
 444              		.loc 1 250 5 view .LVU128
 445              		.loc 1 250 5 is_stmt 0 view .LVU129
 446 004e 1B0A     		lsrs	r3, r3, #8
 447              	.LVL39:
 448              		.loc 1 250 5 view .LVU130
 449 0050 DBB2     		uxtb	r3, r3
 450 0052 9946     		mov	r9, r3
 451              	.LVL40:
 452              		.loc 1 250 5 view .LVU131
 453 0054 149B     		ldr	r3, [sp, #80]
 454 0056 020A     		lsrs	r2, r0, #8
 455 0058 DBB2     		uxtb	r3, r3
 456 005a D2B2     		uxtb	r2, r2
ARM GAS  /tmp/cc96bPPt.s 			page 9


 457 005c 9B46     		mov	fp, r3
 458 005e 0192     		str	r2, [sp, #4]
 459 0060 8303     		lsls	r3, r0, #14
 460 0062 C2B2     		uxtb	r2, r0
 461 0064 0F20     		movs	r0, #15
 462              	.LVL41:
 463              		.loc 1 250 5 view .LVU132
 464 0066 0292     		str	r2, [sp, #8]
 465 0068 149A     		ldr	r2, [sp, #80]
 466 006a 9B0F     		lsrs	r3, r3, #30
 467 006c 120B     		lsrs	r2, r2, #12
 468 006e 8243     		bics	r2, r0
 469 0070 9246     		mov	r10, r2
 470 0072 0A0C     		lsrs	r2, r1, #16
 471 0074 1040     		ands	r0, r2
 472 0076 5246     		mov	r2, r10
 473 0078 0243     		orrs	r2, r0
 474 007a 080A     		lsrs	r0, r1, #8
 475 007c C0B2     		uxtb	r0, r0
 476 007e 8446     		mov	ip, r0
 477              		.loc 1 249 8 view .LVU133
 478 0080 0020     		movs	r0, #0
 479 0082 8246     		mov	r10, r0
 480 0084 D2B2     		uxtb	r2, r2
 481 0086 C9B2     		uxtb	r1, r1
 482              	.LVL42:
 483              	.L14:
 484              		.loc 1 254 3 is_stmt 1 view .LVU134
 485              		.loc 1 255 3 view .LVU135
 486              		.loc 1 255 10 is_stmt 0 view .LVU136
 487 0088 AD5D     		ldrb	r5, [r5, r6]
 488 008a 07A8     		add	r0, sp, #28
 489 008c 0570     		strb	r5, [r0]
 490              		.loc 1 256 3 is_stmt 1 view .LVU137
 491              		.loc 1 256 10 is_stmt 0 view .LVU138
 492 008e 4D46     		mov	r5, r9
 493 0090 4570     		strb	r5, [r0, #1]
 494              		.loc 1 257 3 is_stmt 1 view .LVU139
 495              		.loc 1 257 10 is_stmt 0 view .LVU140
 496 0092 5D46     		mov	r5, fp
 497 0094 8570     		strb	r5, [r0, #2]
 498              		.loc 1 258 3 is_stmt 1 view .LVU141
 499              		.loc 1 258 45 is_stmt 0 view .LVU142
 500 0096 5546     		mov	r5, r10
 501 0098 2B43     		orrs	r3, r5
 502 009a 159D     		ldr	r5, [sp, #84]
 503              		.loc 1 263 10 view .LVU143
 504 009c 0172     		strb	r1, [r0, #8]
 505              		.loc 1 258 45 view .LVU144
 506 009e 2B43     		orrs	r3, r5
 507              		.loc 1 258 10 view .LVU145
 508 00a0 C370     		strb	r3, [r0, #3]
 509              		.loc 1 259 3 is_stmt 1 view .LVU146
 510              		.loc 1 259 10 is_stmt 0 view .LVU147
 511 00a2 019B     		ldr	r3, [sp, #4]
 512              		.loc 1 264 3 view .LVU148
 513 00a4 0921     		movs	r1, #9
ARM GAS  /tmp/cc96bPPt.s 			page 10


 514              		.loc 1 259 10 view .LVU149
 515 00a6 0371     		strb	r3, [r0, #4]
 516              		.loc 1 260 3 is_stmt 1 view .LVU150
 517              		.loc 1 260 10 is_stmt 0 view .LVU151
 518 00a8 029B     		ldr	r3, [sp, #8]
 519              		.loc 1 261 10 view .LVU152
 520 00aa 8271     		strb	r2, [r0, #6]
 521              		.loc 1 260 10 view .LVU153
 522 00ac 4371     		strb	r3, [r0, #5]
 523              		.loc 1 261 3 is_stmt 1 view .LVU154
 524              		.loc 1 262 3 view .LVU155
 525              		.loc 1 262 10 is_stmt 0 view .LVU156
 526 00ae 6346     		mov	r3, ip
 527 00b0 C371     		strb	r3, [r0, #7]
 528              		.loc 1 263 3 is_stmt 1 view .LVU157
 529              		.loc 1 264 3 view .LVU158
 530 00b2 FFF7FEFF 		bl	si5351_bulk_write
 531              	.LVL43:
 532              		.loc 1 267 3 view .LVU159
 533              		.loc 1 268 3 view .LVU160
 534              		.loc 1 268 6 is_stmt 0 view .LVU161
 535 00b6 4346     		mov	r3, r8
 536 00b8 012B     		cmp	r3, #1
 537 00ba 25D0     		beq	.L16
 538              		.loc 1 267 7 view .LVU162
 539 00bc 0C21     		movs	r1, #12
 540 00be 039B     		ldr	r3, [sp, #12]
 541 00c0 0B43     		orrs	r3, r1
 542 00c2 1900     		movs	r1, r3
 543              	.LVL44:
 544              	.L17:
 545              		.loc 1 270 3 is_stmt 1 view .LVU163
 546              		.loc 1 270 6 is_stmt 0 view .LVU164
 547 00c4 002F     		cmp	r7, #0
 548 00c6 01D1     		bne	.L18
 549              		.loc 1 271 5 is_stmt 1 view .LVU165
 550              		.loc 1 271 9 is_stmt 0 view .LVU166
 551 00c8 4023     		movs	r3, #64
 552 00ca 1943     		orrs	r1, r3
 553              	.LVL45:
 554              	.L18:
 555              		.loc 1 272 3 is_stmt 1 view .LVU167
 556 00cc A05D     		ldrb	r0, [r4, r6]
 557 00ce FFF7FEFF 		bl	si5351_write
 558              	.LVL46:
 559              		.loc 1 273 1 is_stmt 0 view .LVU168
 560 00d2 0BB0     		add	sp, sp, #44
 561              		@ sp needed
 562              	.LVL47:
 563              		.loc 1 273 1 view .LVU169
 564 00d4 3CBC     		pop	{r2, r3, r4, r5}
 565 00d6 9046     		mov	r8, r2
 566 00d8 9946     		mov	r9, r3
 567 00da A246     		mov	r10, r4
 568 00dc AB46     		mov	fp, r5
 569 00de F0BD     		pop	{r4, r5, r6, r7, pc}
 570              	.LVL48:
ARM GAS  /tmp/cc96bPPt.s 			page 11


 571              	.L20:
 572              		.loc 1 243 5 is_stmt 1 view .LVU170
 573              		.loc 1 243 20 is_stmt 0 view .LVU171
 574 00e0 1648     		ldr	r0, .L21+12
 575              	.LVL49:
 576              		.loc 1 243 20 view .LVU172
 577 00e2 0021     		movs	r1, #0
 578              	.LVL50:
 579              		.loc 1 243 20 view .LVU173
 580 00e4 4844     		add	r0, r0, r9
 581              		.loc 1 243 8 view .LVU174
 582 00e6 C001     		lsls	r0, r0, #7
 583              	.LVL51:
 584              		.loc 1 244 5 is_stmt 1 view .LVU175
 585              		.loc 1 245 5 view .LVU176
 586              		.loc 1 245 5 is_stmt 0 view .LVU177
 587 00e8 020A     		lsrs	r2, r0, #8
 588              	.LVL52:
 589              		.loc 1 245 5 view .LVU178
 590 00ea D2B2     		uxtb	r2, r2
 591 00ec 8303     		lsls	r3, r0, #14
 592 00ee 0192     		str	r2, [sp, #4]
 593 00f0 C2B2     		uxtb	r2, r0
 594 00f2 0020     		movs	r0, #0
 595              	.LVL53:
 596              		.loc 1 245 5 view .LVU179
 597 00f4 8246     		mov	r10, r0
 598 00f6 0130     		adds	r0, r0, #1
 599 00f8 0292     		str	r2, [sp, #8]
 600 00fa 8346     		mov	fp, r0
 601 00fc 0022     		movs	r2, #0
 602 00fe 0020     		movs	r0, #0
 603 0100 9B0F     		lsrs	r3, r3, #30
 604 0102 9446     		mov	ip, r2
 605 0104 8146     		mov	r9, r0
 606              	.LVL54:
 607              		.loc 1 245 5 view .LVU180
 608 0106 BFE7     		b	.L14
 609              	.LVL55:
 610              	.L16:
 611              		.loc 1 269 5 is_stmt 1 view .LVU181
 612              		.loc 1 269 9 is_stmt 0 view .LVU182
 613 0108 2C21     		movs	r1, #44
 614 010a 039B     		ldr	r3, [sp, #12]
 615 010c 0B43     		orrs	r3, r1
 616 010e 1900     		movs	r1, r3
 617              	.LVL56:
 618              		.loc 1 269 9 view .LVU183
 619 0110 D8E7     		b	.L17
 620              	.LVL57:
 621              	.L19:
 622              		.loc 1 269 9 view .LVU184
 623 0112 0120     		movs	r0, #1
 624              	.LVL58:
 625              		.loc 1 269 9 view .LVU185
 626 0114 0023     		movs	r3, #0
 627 0116 8346     		mov	fp, r0
ARM GAS  /tmp/cc96bPPt.s 			page 12


 628 0118 0020     		movs	r0, #0
 629 011a 9C46     		mov	ip, r3
 630 011c 0293     		str	r3, [sp, #8]
 631 011e 0193     		str	r3, [sp, #4]
 632 0120 0C33     		adds	r3, r3, #12
 633 0122 9A46     		mov	r10, r3
 634 0124 0021     		movs	r1, #0
 635              	.LVL59:
 636              		.loc 1 269 9 view .LVU186
 637 0126 0022     		movs	r2, #0
 638              	.LVL60:
 639              		.loc 1 269 9 view .LVU187
 640 0128 0023     		movs	r3, #0
 641 012a 8146     		mov	r9, r0
 642              	.LVL61:
 643              		.loc 1 269 9 view .LVU188
 644 012c ACE7     		b	.L14
 645              	.L22:
 646 012e C046     		.align	2
 647              	.L21:
 648 0130 2A320000 		.word	12842
 649 0134 10110000 		.word	4368
 650 0138 00FEFFFF 		.word	-512
 651 013c FCFFFF01 		.word	33554428
 652              		.cfi_endproc
 653              	.LFE162:
 654              		.size	si5351_setupMultisynth, .-si5351_setupMultisynth
 655              		.global	__aeabi_idivmod
 656              		.global	__aeabi_idiv
 657              		.section	.text.si5351_set_frequency_fixedpll,"ax",%progbits
 658              		.align	1
 659              		.p2align 4,,15
 660              		.syntax unified
 661              		.code	16
 662              		.thumb_func
 663              		.fpu softvfp
 664              		.type	si5351_set_frequency_fixedpll, %function
 665              	si5351_set_frequency_fixedpll:
 666              	.LVL62:
 667              	.LFB164:
 668              		.loc 1 293 1 is_stmt 1 view -0
 669              		.cfi_startproc
 670              		@ args = 8, pretend = 0, frame = 8
 671              		@ frame_needed = 0, uses_anonymous_args = 0
 672              		.loc 1 294 5 view .LVU190
 673              		.loc 1 293 1 is_stmt 0 view .LVU191
 674 0000 F0B5     		push	{r4, r5, r6, r7, lr}
 675              		.cfi_def_cfa_offset 20
 676              		.cfi_offset 4, -20
 677              		.cfi_offset 5, -16
 678              		.cfi_offset 6, -12
 679              		.cfi_offset 7, -8
 680              		.cfi_offset 14, -4
 681 0002 DE46     		mov	lr, fp
 682 0004 5746     		mov	r7, r10
 683 0006 4E46     		mov	r6, r9
 684 0008 4546     		mov	r5, r8
ARM GAS  /tmp/cc96bPPt.s 			page 13


 685 000a E0B5     		push	{r5, r6, r7, lr}
 686              		.cfi_def_cfa_offset 36
 687              		.cfi_offset 8, -36
 688              		.cfi_offset 9, -32
 689              		.cfi_offset 10, -28
 690              		.cfi_offset 11, -24
 691 000c 1E00     		movs	r6, r3
 692 000e 87B0     		sub	sp, sp, #28
 693              		.cfi_def_cfa_offset 64
 694              		.loc 1 293 1 view .LVU192
 695 0010 10AB     		add	r3, sp, #64
 696              	.LVL63:
 697              		.loc 1 293 1 view .LVU193
 698 0012 8846     		mov	r8, r1
 699 0014 02CB     		ldmia	r3!, {r1}
 700              	.LVL64:
 701              		.loc 1 293 1 view .LVU194
 702 0016 0700     		movs	r7, r0
 703 0018 1B78     		ldrb	r3, [r3]
 704              	.LVL65:
 705              		.loc 1 293 1 view .LVU195
 706 001a 8A46     		mov	r10, r1
 707 001c 1000     		movs	r0, r2
 708              	.LVL66:
 709              		.loc 1 293 1 view .LVU196
 710 001e 3100     		movs	r1, r6
 711 0020 9B46     		mov	fp, r3
 712 0022 FFF7FEFF 		bl	__aeabi_idivmod
 713              	.LVL67:
 714              		.loc 1 298 17 view .LVU197
 715 0026 3400     		movs	r4, r6
 716 0028 8146     		mov	r9, r0
 717 002a 0D00     		movs	r5, r1
 718              	.LVL68:
 719              		.loc 1 295 5 is_stmt 1 view .LVU198
 720              		.loc 1 296 5 view .LVU199
 721              		.loc 1 298 5 view .LVU200
 722              	.LBB130:
 723              	.LBI130:
 724              		.loc 1 275 17 view .LVU201
 725              	.LBB131:
 726              		.loc 1 277 3 view .LVU202
 727              		.loc 1 278 3 view .LVU203
 728              		.loc 1 278 3 is_stmt 0 view .LVU204
 729              	.LBE131:
 730              	.LBE130:
 731              		.loc 1 298 17 view .LVU205
 732 002c 0800     		movs	r0, r1
 733              	.LVL69:
 734              	.LBB134:
 735              	.LBB132:
 736              		.loc 1 278 9 view .LVU206
 737 002e 002E     		cmp	r6, #0
 738 0030 01D1     		bne	.L25
 739 0032 2BE0     		b	.L31
 740              	.LVL70:
 741              	.L29:
ARM GAS  /tmp/cc96bPPt.s 			page 14


 742              		.loc 1 278 9 view .LVU207
 743 0034 0C00     		movs	r4, r1
 744              	.LVL71:
 745              	.L25:
 746              		.loc 1 279 5 is_stmt 1 view .LVU208
 747              		.loc 1 279 7 is_stmt 0 view .LVU209
 748 0036 2100     		movs	r1, r4
 749 0038 FFF7FEFF 		bl	__aeabi_uidivmod
 750              	.LVL72:
 751              		.loc 1 280 5 is_stmt 1 view .LVU210
 752              		.loc 1 281 5 view .LVU211
 753              		.loc 1 281 5 is_stmt 0 view .LVU212
 754 003c 2000     		movs	r0, r4
 755              		.loc 1 278 9 view .LVU213
 756 003e 0029     		cmp	r1, #0
 757 0040 F8D1     		bne	.L29
 758              	.LVL73:
 759              		.loc 1 283 3 is_stmt 1 view .LVU214
 760              		.loc 1 283 3 is_stmt 0 view .LVU215
 761              	.LBE132:
 762              	.LBE134:
 763              		.loc 1 299 5 is_stmt 1 view .LVU216
 764              		.loc 1 299 9 is_stmt 0 view .LVU217
 765 0042 2100     		movs	r1, r4
 766 0044 2800     		movs	r0, r5
 767              	.LVL74:
 768              		.loc 1 299 9 view .LVU218
 769 0046 FFF7FEFF 		bl	__aeabi_idiv
 770              	.LVL75:
 771              		.loc 1 300 11 view .LVU219
 772 004a 2100     		movs	r1, r4
 773              		.loc 1 299 9 view .LVU220
 774 004c 0590     		str	r0, [sp, #20]
 775 004e 0500     		movs	r5, r0
 776              	.LVL76:
 777              		.loc 1 300 5 is_stmt 1 view .LVU221
 778              		.loc 1 300 11 is_stmt 0 view .LVU222
 779 0050 3000     		movs	r0, r6
 780              	.LVL77:
 781              		.loc 1 300 11 view .LVU223
 782 0052 FFF7FEFF 		bl	__aeabi_idiv
 783              	.LVL78:
 784              		.loc 1 301 11 view .LVU224
 785 0056 104B     		ldr	r3, .L32
 786              		.loc 1 300 11 view .LVU225
 787 0058 0200     		movs	r2, r0
 788              	.LVL79:
 789              		.loc 1 301 5 is_stmt 1 view .LVU226
 790              		.loc 1 301 11 is_stmt 0 view .LVU227
 791 005a 9842     		cmp	r0, r3
 792 005c 19DD     		ble	.L26
 793              	.LVL80:
 794              	.L27:
 795              		.loc 1 302 7 is_stmt 1 view .LVU228
 796              		.loc 1 302 11 is_stmt 0 view .LVU229
 797 005e 6D10     		asrs	r5, r5, #1
 798              	.LVL81:
ARM GAS  /tmp/cc96bPPt.s 			page 15


 799              		.loc 1 303 7 is_stmt 1 view .LVU230
 800              		.loc 1 303 13 is_stmt 0 view .LVU231
 801 0060 5210     		asrs	r2, r2, #1
 802              	.LVL82:
 803              		.loc 1 301 11 view .LVU232
 804 0062 9A42     		cmp	r2, r3
 805 0064 FBDC     		bgt	.L27
 806 0066 2B00     		movs	r3, r5
 807              	.LVL83:
 808              	.L24:
 809              		.loc 1 305 5 is_stmt 1 view .LVU233
 810 0068 5C46     		mov	r4, fp
 811 006a 4146     		mov	r1, r8
 812 006c 0294     		str	r4, [sp, #8]
 813 006e 5446     		mov	r4, r10
 814 0070 0092     		str	r2, [sp]
 815 0072 C9B2     		uxtb	r1, r1
 816 0074 F8B2     		uxtb	r0, r7
 817 0076 0194     		str	r4, [sp, #4]
 818 0078 4A46     		mov	r2, r9
 819 007a FFF7FEFF 		bl	si5351_setupMultisynth
 820              	.LVL84:
 821              		.loc 1 306 1 is_stmt 0 view .LVU234
 822 007e 07B0     		add	sp, sp, #28
 823              		@ sp needed
 824              	.LVL85:
 825              	.LVL86:
 826              	.LVL87:
 827              	.LVL88:
 828              	.LVL89:
 829              		.loc 1 306 1 view .LVU235
 830 0080 3CBC     		pop	{r2, r3, r4, r5}
 831 0082 9046     		mov	r8, r2
 832 0084 9946     		mov	r9, r3
 833 0086 A246     		mov	r10, r4
 834 0088 AB46     		mov	fp, r5
 835 008a F0BD     		pop	{r4, r5, r6, r7, pc}
 836              	.LVL90:
 837              	.L31:
 838              	.LBB135:
 839              	.LBB133:
 840              		.loc 1 278 9 view .LVU236
 841 008c 0123     		movs	r3, #1
 842              	.LBE133:
 843              	.LBE135:
 844              		.loc 1 300 11 view .LVU237
 845 008e 0022     		movs	r2, #0
 846 0090 EAE7     		b	.L24
 847              	.LVL91:
 848              	.L26:
 849              		.loc 1 300 11 view .LVU238
 850 0092 059B     		ldr	r3, [sp, #20]
 851 0094 E8E7     		b	.L24
 852              	.L33:
 853 0096 C046     		.align	2
 854              	.L32:
 855 0098 FFFF0F00 		.word	1048575
ARM GAS  /tmp/cc96bPPt.s 			page 16


 856              		.cfi_endproc
 857              	.LFE164:
 858              		.size	si5351_set_frequency_fixedpll, .-si5351_set_frequency_fixedpll
 859              		.global	__aeabi_uidiv
 860              		.section	.text.si5351_set_frequency_fixeddiv,"ax",%progbits
 861              		.align	1
 862              		.p2align 4,,15
 863              		.syntax unified
 864              		.code	16
 865              		.thumb_func
 866              		.fpu softvfp
 867              		.type	si5351_set_frequency_fixeddiv, %function
 868              	si5351_set_frequency_fixeddiv:
 869              	.LVL92:
 870              	.LFB165:
 871              		.loc 1 311 1 is_stmt 1 view -0
 872              		.cfi_startproc
 873              		@ args = 4, pretend = 0, frame = 0
 874              		@ frame_needed = 0, uses_anonymous_args = 0
 875              		.loc 1 312 5 view .LVU240
 876              		.loc 1 311 1 is_stmt 0 view .LVU241
 877 0000 F0B5     		push	{r4, r5, r6, r7, lr}
 878              		.cfi_def_cfa_offset 20
 879              		.cfi_offset 4, -20
 880              		.cfi_offset 5, -16
 881              		.cfi_offset 6, -12
 882              		.cfi_offset 7, -8
 883              		.cfi_offset 14, -4
 884 0002 D646     		mov	lr, r10
 885 0004 4F46     		mov	r7, r9
 886 0006 4646     		mov	r6, r8
 887 0008 9846     		mov	r8, r3
 888 000a C0B5     		push	{r6, r7, lr}
 889              		.cfi_def_cfa_offset 32
 890              		.cfi_offset 8, -32
 891              		.cfi_offset 9, -28
 892              		.cfi_offset 10, -24
 893              		.loc 1 312 13 view .LVU242
 894 000c 4746     		mov	r7, r8
 895 000e 5743     		muls	r7, r2
 896              	.LVL93:
 897              		.loc 1 313 5 is_stmt 1 view .LVU243
 898              		.loc 1 311 1 is_stmt 0 view .LVU244
 899 0010 84B0     		sub	sp, sp, #16
 900              		.cfi_def_cfa_offset 48
 901              		.loc 1 311 1 view .LVU245
 902 0012 0CAB     		add	r3, sp, #48
 903              	.LVL94:
 904              		.loc 1 311 1 view .LVU246
 905 0014 1B78     		ldrb	r3, [r3]
 906              	.LVL95:
 907              		.loc 1 311 1 view .LVU247
 908 0016 8246     		mov	r10, r0
 909 0018 0E00     		movs	r6, r1
 910              		.loc 1 313 13 view .LVU248
 911 001a 3800     		movs	r0, r7
 912              	.LVL96:
ARM GAS  /tmp/cc96bPPt.s 			page 17


 913              		.loc 1 313 13 view .LVU249
 914 001c 2249     		ldr	r1, .L40
 915              	.LVL97:
 916              		.loc 1 311 1 view .LVU250
 917 001e 9946     		mov	r9, r3
 918              		.loc 1 313 13 view .LVU251
 919 0020 FFF7FEFF 		bl	__aeabi_idiv
 920              	.LVL98:
 921              		.loc 1 314 35 view .LVU252
 922 0024 4301     		lsls	r3, r0, #5
 923 0026 1B1A     		subs	r3, r3, r0
 924 0028 9B00     		lsls	r3, r3, #2
 925 002a 1B18     		adds	r3, r3, r0
 926 002c 9A00     		lsls	r2, r3, #2
 927 002e 9B18     		adds	r3, r3, r2
 928 0030 9A00     		lsls	r2, r3, #2
 929 0032 9B18     		adds	r3, r3, r2
 930 0034 9A01     		lsls	r2, r3, #6
 931 0036 9B18     		adds	r3, r3, r2
 932 0038 DB01     		lsls	r3, r3, #7
 933              		.loc 1 314 13 view .LVU253
 934 003a FF1A     		subs	r7, r7, r3
 935              	.LVL99:
 936              		.loc 1 313 13 view .LVU254
 937 003c 0500     		movs	r5, r0
 938              	.LVL100:
 939              		.loc 1 314 5 is_stmt 1 view .LVU255
 940              		.loc 1 315 5 view .LVU256
 941              		.loc 1 316 5 view .LVU257
 942              		.loc 1 316 17 is_stmt 0 view .LVU258
 943 003e 1A4C     		ldr	r4, .L40
 944 0040 3800     		movs	r0, r7
 945              	.LVL101:
 946              	.LBB136:
 947              	.LBI136:
 948              		.loc 1 275 17 is_stmt 1 view .LVU259
 949              	.LBB137:
 950              		.loc 1 277 3 view .LVU260
 951              		.loc 1 278 3 view .LVU261
 952              		.loc 1 278 3 is_stmt 0 view .LVU262
 953 0042 00E0     		b	.L35
 954              	.LVL102:
 955              	.L38:
 956              		.loc 1 278 9 view .LVU263
 957 0044 0C00     		movs	r4, r1
 958              	.LVL103:
 959              	.L35:
 960              		.loc 1 279 5 is_stmt 1 view .LVU264
 961              		.loc 1 279 7 is_stmt 0 view .LVU265
 962 0046 2100     		movs	r1, r4
 963 0048 FFF7FEFF 		bl	__aeabi_uidivmod
 964              	.LVL104:
 965              		.loc 1 280 5 is_stmt 1 view .LVU266
 966              		.loc 1 281 5 view .LVU267
 967              		.loc 1 281 5 is_stmt 0 view .LVU268
 968 004c 2000     		movs	r0, r4
 969              		.loc 1 278 9 view .LVU269
ARM GAS  /tmp/cc96bPPt.s 			page 18


 970 004e 0029     		cmp	r1, #0
 971 0050 F8D1     		bne	.L38
 972              		.loc 1 283 3 is_stmt 1 view .LVU270
 973              	.LVL105:
 974              		.loc 1 283 3 is_stmt 0 view .LVU271
 975              	.LBE137:
 976              	.LBE136:
 977              		.loc 1 317 5 is_stmt 1 view .LVU272
 978              		.loc 1 317 9 is_stmt 0 view .LVU273
 979 0052 2100     		movs	r1, r4
 980 0054 3800     		movs	r0, r7
 981 0056 FFF7FEFF 		bl	__aeabi_idiv
 982              	.LVL106:
 983              		.loc 1 318 11 view .LVU274
 984 005a 2100     		movs	r1, r4
 985              		.loc 1 317 9 view .LVU275
 986 005c 0700     		movs	r7, r0
 987              	.LVL107:
 988              		.loc 1 318 5 is_stmt 1 view .LVU276
 989              		.loc 1 318 11 is_stmt 0 view .LVU277
 990 005e 1248     		ldr	r0, .L40
 991              	.LVL108:
 992              		.loc 1 318 11 view .LVU278
 993 0060 FFF7FEFF 		bl	__aeabi_idiv
 994              	.LVL109:
 995              		.loc 1 319 11 view .LVU279
 996 0064 114A     		ldr	r2, .L40+4
 997              		.loc 1 318 11 view .LVU280
 998 0066 0300     		movs	r3, r0
 999              	.LVL110:
 1000              		.loc 1 319 5 is_stmt 1 view .LVU281
 1001              		.loc 1 319 11 is_stmt 0 view .LVU282
 1002 0068 9042     		cmp	r0, r2
 1003 006a 03DD     		ble	.L36
 1004              	.LVL111:
 1005              	.L37:
 1006              		.loc 1 320 7 is_stmt 1 view .LVU283
 1007              		.loc 1 320 11 is_stmt 0 view .LVU284
 1008 006c 7F10     		asrs	r7, r7, #1
 1009              	.LVL112:
 1010              		.loc 1 321 7 is_stmt 1 view .LVU285
 1011              		.loc 1 321 13 is_stmt 0 view .LVU286
 1012 006e 5B10     		asrs	r3, r3, #1
 1013              	.LVL113:
 1014              		.loc 1 319 11 view .LVU287
 1015 0070 9342     		cmp	r3, r2
 1016 0072 FBDC     		bgt	.L37
 1017              	.L36:
 1018              		.loc 1 323 5 is_stmt 1 view .LVU288
 1019 0074 F6B2     		uxtb	r6, r6
 1020              	.LVL114:
 1021              		.loc 1 323 5 is_stmt 0 view .LVU289
 1022 0076 E9B2     		uxtb	r1, r5
 1023 0078 3A00     		movs	r2, r7
 1024 007a 3000     		movs	r0, r6
 1025 007c FFF7FEFF 		bl	si5351_setupPLL
 1026              	.LVL115:
ARM GAS  /tmp/cc96bPPt.s 			page 19


 1027              		.loc 1 324 5 is_stmt 1 view .LVU290
 1028 0080 5346     		mov	r3, r10
 1029 0082 D8B2     		uxtb	r0, r3
 1030 0084 4B46     		mov	r3, r9
 1031 0086 0293     		str	r3, [sp, #8]
 1032 0088 0023     		movs	r3, #0
 1033 008a 0193     		str	r3, [sp, #4]
 1034 008c 0133     		adds	r3, r3, #1
 1035 008e 0093     		str	r3, [sp]
 1036 0090 4246     		mov	r2, r8
 1037 0092 0023     		movs	r3, #0
 1038 0094 3100     		movs	r1, r6
 1039 0096 FFF7FEFF 		bl	si5351_setupMultisynth
 1040              	.LVL116:
 1041              		.loc 1 325 1 is_stmt 0 view .LVU291
 1042 009a 04B0     		add	sp, sp, #16
 1043              		@ sp needed
 1044              	.LVL117:
 1045              	.LVL118:
 1046              	.LVL119:
 1047              	.LVL120:
 1048              	.LVL121:
 1049              		.loc 1 325 1 view .LVU292
 1050 009c 1CBC     		pop	{r2, r3, r4}
 1051 009e 9046     		mov	r8, r2
 1052 00a0 9946     		mov	r9, r3
 1053 00a2 A246     		mov	r10, r4
 1054 00a4 F0BD     		pop	{r4, r5, r6, r7, pc}
 1055              	.L41:
 1056 00a6 C046     		.align	2
 1057              	.L40:
 1058 00a8 80BA8C01 		.word	26000000
 1059 00ac FFFF0F00 		.word	1048575
 1060              		.cfi_endproc
 1061              	.LFE165:
 1062              		.size	si5351_set_frequency_fixeddiv, .-si5351_set_frequency_fixeddiv
 1063              		.section	.text.si5351_bulk_read.constprop.0,"ax",%progbits
 1064              		.align	1
 1065              		.p2align 4,,15
 1066              		.syntax unified
 1067              		.code	16
 1068              		.thumb_func
 1069              		.fpu softvfp
 1070              		.type	si5351_bulk_read.constprop.0, %function
 1071              	si5351_bulk_read.constprop.0:
 1072              	.LVL122:
 1073              	.LFB168:
 1074              		.loc 1 26 13 is_stmt 1 view -0
 1075              		.cfi_startproc
 1076              		@ args = 0, pretend = 0, frame = 8
 1077              		@ frame_needed = 0, uses_anonymous_args = 0
 1078              		.loc 1 26 13 is_stmt 0 view .LVU294
 1079 0000 70B5     		push	{r4, r5, r6, lr}
 1080              		.cfi_def_cfa_offset 16
 1081              		.cfi_offset 4, -16
 1082              		.cfi_offset 5, -12
 1083              		.cfi_offset 6, -8
ARM GAS  /tmp/cc96bPPt.s 			page 20


 1084              		.cfi_offset 14, -4
 1085 0002 1724     		movs	r4, #23
 1086 0004 0023     		movs	r3, #0
 1087              		.loc 1 29 5 view .LVU295
 1088 0006 0E4D     		ldr	r5, .L43
 1089              		.loc 1 26 13 view .LVU296
 1090 0008 86B0     		sub	sp, sp, #24
 1091              		.cfi_def_cfa_offset 40
 1092 000a 6C44     		add	r4, r4, sp
 1093              		.loc 1 26 13 view .LVU297
 1094 000c 0600     		movs	r6, r0
 1095              		.loc 1 29 5 view .LVU298
 1096 000e 2800     		movs	r0, r5
 1097              	.LVL123:
 1098              		.loc 1 29 5 view .LVU299
 1099 0010 2370     		strb	r3, [r4]
 1100              	.LVL124:
 1101              		.loc 1 28 5 is_stmt 1 view .LVU300
 1102              		.loc 1 29 5 view .LVU301
 1103 0012 FFF7FEFF 		bl	i2cAcquireBus
 1104              	.LVL125:
 1105              		.loc 1 30 5 view .LVU302
 1106              		.loc 1 30 16 is_stmt 0 view .LVU303
 1107 0016 FA23     		movs	r3, #250
 1108 0018 9B00     		lsls	r3, r3, #2
 1109 001a 0293     		str	r3, [sp, #8]
 1110 001c 0123     		movs	r3, #1
 1111 001e 2200     		movs	r2, r4
 1112 0020 0193     		str	r3, [sp, #4]
 1113 0022 6021     		movs	r1, #96
 1114 0024 0096     		str	r6, [sp]
 1115 0026 2800     		movs	r0, r5
 1116 0028 FFF7FEFF 		bl	i2cMasterTransmitTimeout
 1117              	.LVL126:
 1118 002c 0400     		movs	r4, r0
 1119              	.LVL127:
 1120              		.loc 1 31 5 is_stmt 1 view .LVU304
 1121 002e 2800     		movs	r0, r5
 1122              	.LVL128:
 1123              		.loc 1 31 5 is_stmt 0 view .LVU305
 1124 0030 FFF7FEFF 		bl	i2cReleaseBus
 1125              	.LVL129:
 1126              		.loc 1 32 5 is_stmt 1 view .LVU306
 1127              		.loc 1 32 15 is_stmt 0 view .LVU307
 1128 0034 6042     		rsbs	r0, r4, #0
 1129 0036 6041     		adcs	r0, r0, r4
 1130              	.LVL130:
 1131              		.loc 1 32 15 view .LVU308
 1132 0038 C0B2     		uxtb	r0, r0
 1133              		.loc 1 33 1 view .LVU309
 1134 003a 06B0     		add	sp, sp, #24
 1135              		@ sp needed
 1136              	.LVL131:
 1137              		.loc 1 33 1 view .LVU310
 1138 003c 70BD     		pop	{r4, r5, r6, pc}
 1139              	.L44:
 1140 003e C046     		.align	2
ARM GAS  /tmp/cc96bPPt.s 			page 21


 1141              	.L43:
 1142 0040 00000000 		.word	I2CD1
 1143              		.cfi_endproc
 1144              	.LFE168:
 1145              		.size	si5351_bulk_read.constprop.0, .-si5351_bulk_read.constprop.0
 1146              		.section	.text.si5351_init,"ax",%progbits
 1147              		.align	1
 1148              		.p2align 4,,15
 1149              		.global	si5351_init
 1150              		.syntax unified
 1151              		.code	16
 1152              		.thumb_func
 1153              		.fpu softvfp
 1154              		.type	si5351_init, %function
 1155              	si5351_init:
 1156              	.LFB157:
 1157              		.loc 1 108 1 is_stmt 1 view -0
 1158              		.cfi_startproc
 1159              		@ args = 0, pretend = 0, frame = 8
 1160              		@ frame_needed = 0, uses_anonymous_args = 0
 1161              		.loc 1 109 3 view .LVU312
 1162              	.LBB174:
 1163              	.LBI174:
 1164              		.loc 1 70 13 view .LVU313
 1165              	.LBB175:
 1166              		.loc 1 72 5 view .LVU314
 1167              	.LBE175:
 1168              	.LBE174:
 1169              		.loc 1 108 1 is_stmt 0 view .LVU315
 1170 0000 F0B5     		push	{r4, r5, r6, r7, lr}
 1171              		.cfi_def_cfa_offset 20
 1172              		.cfi_offset 4, -20
 1173              		.cfi_offset 5, -16
 1174              		.cfi_offset 6, -12
 1175              		.cfi_offset 7, -8
 1176              		.cfi_offset 14, -4
 1177 0002 C646     		mov	lr, r8
 1178 0004 00B5     		push	{lr}
 1179              		.cfi_def_cfa_offset 24
 1180              		.cfi_offset 8, -24
 1181 0006 82B0     		sub	sp, sp, #8
 1182              		.cfi_def_cfa_offset 32
 1183              	.LBB326:
 1184              	.LBB304:
 1185              		.loc 1 72 13 view .LVU316
 1186 0008 6B46     		mov	r3, sp
 1187 000a DC1D     		adds	r4, r3, #7
 1188 000c FF23     		movs	r3, #255
 1189 000e 2370     		strb	r3, [r4]
 1190              		.loc 1 73 5 is_stmt 1 view .LVU317
 1191              	.LBB176:
 1192              	.LBI176:
 1193              		.file 2 "ChibiOS/os/rt/include/chvt.h"
 1194              		.loc 2 247 25 view .LVU318
 1195              	.LBB177:
 1196              		.loc 2 248 3 view .LVU319
 1197              		.loc 2 250 3 view .LVU320
ARM GAS  /tmp/cc96bPPt.s 			page 22


 1198              	.LBB178:
 1199              	.LBI178:
 1200              		.file 3 "ChibiOS/os/rt/include/chsys.h"
 1201              		.loc 3 374 20 view .LVU321
 1202              	.LBE178:
 1203              	.LBE177:
 1204              	.LBE176:
 1205              	.LBE304:
 1206              	.LBE326:
 1207              		.loc 3 376 3 view .LVU322
 1208              	.LBB327:
 1209              	.LBB305:
 1210              	.LBB206:
 1211              	.LBB200:
 1212              	.LBB183:
 1213              	.LBB179:
 1214              	.LBI179:
 1215              		.file 4 "ChibiOS/os/common/ports/ARMCMx/chcore_v6m.h"
 1216              		.loc 4 371 20 view .LVU323
 1217              	.LBE179:
 1218              	.LBE183:
 1219              	.LBE200:
 1220              	.LBE206:
 1221              	.LBE305:
 1222              	.LBE327:
 1223              		.loc 4 373 3 view .LVU324
 1224              	.LBB328:
 1225              	.LBB306:
 1226              	.LBB207:
 1227              	.LBB201:
 1228              	.LBB184:
 1229              	.LBB182:
 1230              	.LBB180:
 1231              	.LBI180:
 1232              		.file 5 "ChibiOS/os/common/ext/CMSIS/include/core_cmFunc.h"
 1233              		.loc 5 342 57 view .LVU325
 1234              	.LBB181:
 1235              		.loc 5 344 3 view .LVU326
 1236              		.syntax divided
 1237              	@ 344 "ChibiOS/os/common/ext/CMSIS/include/core_cmFunc.h" 1
 1238 0010 72B6     		cpsid i
 1239              	@ 0 "" 2
 1240              		.thumb
 1241              		.syntax unified
 1242              	.LBE181:
 1243              	.LBE180:
 1244              	.LBE182:
 1245              	.LBE184:
 1246              	.LBE201:
 1247              	.LBE207:
 1248              	.LBE306:
 1249              	.LBE328:
 1250              		.loc 3 377 34 view .LVU327
 1251              		.loc 3 378 20 view .LVU328
 1252              	.LBB329:
 1253              	.LBB307:
 1254              	.LBB208:
ARM GAS  /tmp/cc96bPPt.s 			page 23


 1255              	.LBB202:
 1256              		.loc 2 251 3 view .LVU329
 1257              	.LBB185:
 1258              	.LBI185:
 1259              		.loc 2 228 25 view .LVU330
 1260              	.LBE185:
 1261              	.LBE202:
 1262              	.LBE208:
 1263              	.LBE307:
 1264              	.LBE329:
 1265              		.loc 2 233 3 view .LVU331
 1266              	.LBB330:
 1267              	.LBB308:
 1268              	.LBB209:
 1269              	.LBB203:
 1270              	.LBB190:
 1271              	.LBB186:
 1272              	.LBI186:
 1273              		.file 6 "ChibiOS/os/common/ports/ARMCMx/chcore_timer.h"
 1274              		.loc 6 105 25 view .LVU332
 1275              	.LBE186:
 1276              	.LBE190:
 1277              	.LBE203:
 1278              	.LBE209:
 1279              	.LBE308:
 1280              	.LBE330:
 1281              		.loc 6 107 3 view .LVU333
 1282              	.LBB331:
 1283              	.LBB309:
 1284              	.LBB210:
 1285              	.LBB204:
 1286              	.LBB191:
 1287              	.LBB189:
 1288              	.LBB187:
 1289              	.LBI187:
 1290              		.file 7 "ChibiOS/os/hal/ports/STM32/LLD/TIMv1/hal_st_lld.h"
 1291              		.loc 7 139 25 view .LVU334
 1292              	.LBB188:
 1293              		.loc 7 141 3 view .LVU335
 1294              		.loc 7 141 10 is_stmt 0 view .LVU336
 1295 0012 8025     		movs	r5, #128
 1296 0014 ED05     		lsls	r5, r5, #23
 1297 0016 6F6A     		ldr	r7, [r5, #36]
 1298              	.LVL132:
 1299              		.loc 7 141 10 view .LVU337
 1300              	.LBE188:
 1301              	.LBE187:
 1302              	.LBE189:
 1303              	.LBE191:
 1304              		.loc 2 252 3 is_stmt 1 view .LVU338
 1305              	.LBB192:
 1306              	.LBI192:
 1307              		.loc 3 386 20 view .LVU339
 1308              	.LBB193:
 1309              		.loc 3 388 22 view .LVU340
 1310              		.loc 3 389 33 view .LVU341
 1311              		.loc 3 395 3 view .LVU342
ARM GAS  /tmp/cc96bPPt.s 			page 24


 1312              		.loc 3 395 3 view .LVU343
 1313              		.loc 3 399 3 view .LVU344
 1314              	.LBB194:
 1315              	.LBI194:
 1316              		.loc 4 380 20 view .LVU345
 1317              	.LBE194:
 1318              	.LBE193:
 1319              	.LBE192:
 1320              	.LBE204:
 1321              	.LBE210:
 1322              	.LBE309:
 1323              	.LBE331:
 1324              		.loc 4 382 3 view .LVU346
 1325              	.LBB332:
 1326              	.LBB310:
 1327              	.LBB211:
 1328              	.LBB205:
 1329              	.LBB199:
 1330              	.LBB198:
 1331              	.LBB197:
 1332              	.LBB195:
 1333              	.LBI195:
 1334              		.loc 5 331 57 view .LVU347
 1335              	.LBB196:
 1336              		.loc 5 333 3 view .LVU348
 1337              		.syntax divided
 1338              	@ 333 "ChibiOS/os/common/ext/CMSIS/include/core_cmFunc.h" 1
 1339 0018 62B6     		cpsie i
 1340              	@ 0 "" 2
 1341              		.thumb
 1342              		.syntax unified
 1343              	.LBE196:
 1344              	.LBE195:
 1345              	.LBE197:
 1346              	.LBE198:
 1347              	.LBE199:
 1348              		.loc 2 254 3 view .LVU349
 1349              	.LVL133:
 1350              		.loc 2 254 3 is_stmt 0 view .LVU350
 1351              	.LBE205:
 1352              	.LBE211:
 1353              		.loc 1 74 5 is_stmt 1 view .LVU351
 1354              		.loc 1 75 5 view .LVU352
 1355              		.loc 1 78 20 is_stmt 0 view .LVU353
 1356 001a 9846     		mov	r8, r3
 1357              		.loc 1 75 11 view .LVU354
 1358 001c 154E     		ldr	r6, .L62
 1359              	.L46:
 1360              	.LVL134:
 1361              	.LBB212:
 1362              	.LBI212:
 1363              		.loc 2 322 20 is_stmt 1 view .LVU355
 1364              	.LBE212:
 1365              	.LBE310:
 1366              	.LBE332:
 1367              		.loc 2 324 3 view .LVU356
 1368              	.LBB333:
ARM GAS  /tmp/cc96bPPt.s 			page 25


 1369              	.LBB311:
 1370              	.LBB289:
 1371              	.LBB213:
 1372              	.LBI213:
 1373              		.loc 2 247 25 view .LVU357
 1374              	.LBB214:
 1375              		.loc 2 248 3 view .LVU358
 1376              		.loc 2 250 3 view .LVU359
 1377              	.LBB215:
 1378              	.LBI215:
 1379              		.loc 3 374 20 view .LVU360
 1380              	.LBE215:
 1381              	.LBE214:
 1382              	.LBE213:
 1383              	.LBE289:
 1384              	.LBE311:
 1385              	.LBE333:
 1386              		.loc 3 376 3 view .LVU361
 1387              	.LBB334:
 1388              	.LBB312:
 1389              	.LBB290:
 1390              	.LBB272:
 1391              	.LBB259:
 1392              	.LBB224:
 1393              	.LBB216:
 1394              	.LBI216:
 1395              		.loc 4 371 20 view .LVU362
 1396              	.LBE216:
 1397              	.LBE224:
 1398              	.LBE259:
 1399              	.LBE272:
 1400              	.LBE290:
 1401              	.LBE312:
 1402              	.LBE334:
 1403              		.loc 4 373 3 view .LVU363
 1404              	.LBB335:
 1405              	.LBB313:
 1406              	.LBB291:
 1407              	.LBB273:
 1408              	.LBB260:
 1409              	.LBB225:
 1410              	.LBB221:
 1411              	.LBB217:
 1412              	.LBI217:
 1413              		.loc 5 342 57 view .LVU364
 1414              	.LBB218:
 1415              		.loc 5 344 3 view .LVU365
 1416              		.syntax divided
 1417              	@ 344 "ChibiOS/os/common/ext/CMSIS/include/core_cmFunc.h" 1
 1418 001e 72B6     		cpsid i
 1419              	@ 0 "" 2
 1420              		.thumb
 1421              		.syntax unified
 1422              	.LBE218:
 1423              	.LBE217:
 1424              	.LBE221:
 1425              	.LBE225:
ARM GAS  /tmp/cc96bPPt.s 			page 26


 1426              	.LBE260:
 1427              	.LBE273:
 1428              	.LBE291:
 1429              	.LBE313:
 1430              	.LBE335:
 1431              		.loc 3 377 34 view .LVU366
 1432              		.loc 3 378 20 view .LVU367
 1433              	.LBB336:
 1434              	.LBB314:
 1435              	.LBB292:
 1436              	.LBB274:
 1437              	.LBB261:
 1438              		.loc 2 251 3 view .LVU368
 1439              	.LBB226:
 1440              	.LBI226:
 1441              		.loc 2 228 25 view .LVU369
 1442              	.LBE226:
 1443              	.LBE261:
 1444              	.LBE274:
 1445              	.LBE292:
 1446              	.LBE314:
 1447              	.LBE336:
 1448              		.loc 2 233 3 view .LVU370
 1449              	.LBB337:
 1450              	.LBB315:
 1451              	.LBB293:
 1452              	.LBB275:
 1453              	.LBB262:
 1454              	.LBB235:
 1455              	.LBB227:
 1456              	.LBI227:
 1457              		.loc 6 105 25 view .LVU371
 1458              	.LBE227:
 1459              	.LBE235:
 1460              	.LBE262:
 1461              	.LBE275:
 1462              	.LBE293:
 1463              	.LBE315:
 1464              	.LBE337:
 1465              		.loc 6 107 3 view .LVU372
 1466              	.LBB338:
 1467              	.LBB316:
 1468              	.LBB294:
 1469              	.LBB276:
 1470              	.LBB263:
 1471              	.LBB236:
 1472              	.LBB232:
 1473              	.LBB228:
 1474              	.LBI228:
 1475              		.loc 7 139 25 view .LVU373
 1476              	.LBB229:
 1477              		.loc 7 141 3 view .LVU374
 1478              		.loc 7 141 10 is_stmt 0 view .LVU375
 1479 0020 6B6A     		ldr	r3, [r5, #36]
 1480              	.LVL135:
 1481              		.loc 7 141 10 view .LVU376
 1482              	.LBE229:
ARM GAS  /tmp/cc96bPPt.s 			page 27


 1483              	.LBE228:
 1484              	.LBE232:
 1485              	.LBE236:
 1486              		.loc 2 252 3 is_stmt 1 view .LVU377
 1487              	.LBB237:
 1488              	.LBI237:
 1489              		.loc 3 386 20 view .LVU378
 1490              	.LBB238:
 1491              		.loc 3 388 22 view .LVU379
 1492              		.loc 3 389 33 view .LVU380
 1493              		.loc 3 395 3 view .LVU381
 1494              		.loc 3 395 3 view .LVU382
 1495              		.loc 3 399 3 view .LVU383
 1496              	.LBB239:
 1497              	.LBI239:
 1498              		.loc 4 380 20 view .LVU384
 1499              	.LBE239:
 1500              	.LBE238:
 1501              	.LBE237:
 1502              	.LBE263:
 1503              	.LBE276:
 1504              	.LBE294:
 1505              	.LBE316:
 1506              	.LBE338:
 1507              		.loc 4 382 3 view .LVU385
 1508              	.LBB339:
 1509              	.LBB317:
 1510              	.LBB295:
 1511              	.LBB277:
 1512              	.LBB264:
 1513              	.LBB250:
 1514              	.LBB247:
 1515              	.LBB244:
 1516              	.LBB240:
 1517              	.LBI240:
 1518              		.loc 5 331 57 view .LVU386
 1519              	.LBB241:
 1520              		.loc 5 333 3 view .LVU387
 1521              		.syntax divided
 1522              	@ 333 "ChibiOS/os/common/ext/CMSIS/include/core_cmFunc.h" 1
 1523 0022 62B6     		cpsie i
 1524              	@ 0 "" 2
 1525              		.thumb
 1526              		.syntax unified
 1527              	.LBE241:
 1528              	.LBE240:
 1529              	.LBE244:
 1530              	.LBE247:
 1531              	.LBE250:
 1532              		.loc 2 254 3 view .LVU388
 1533              	.LVL136:
 1534              		.loc 2 254 3 is_stmt 0 view .LVU389
 1535              	.LBE264:
 1536              	.LBE277:
 1537              	.LBB278:
 1538              	.LBI278:
 1539              		.loc 2 284 20 is_stmt 1 view .LVU390
ARM GAS  /tmp/cc96bPPt.s 			page 28


 1540              	.LBB279:
 1541              		.loc 2 288 3 view .LVU391
 1542              		.loc 2 288 34 is_stmt 0 view .LVU392
 1543 0024 DB1B     		subs	r3, r3, r7
 1544              	.LVL137:
 1545              		.loc 2 288 34 view .LVU393
 1546              	.LBE279:
 1547              	.LBE278:
 1548              	.LBE295:
 1549              		.loc 1 75 11 view .LVU394
 1550 0026 B342     		cmp	r3, r6
 1551 0028 0CD8     		bhi	.L60
 1552              	.L50:
 1553              		.loc 1 77 9 is_stmt 1 view .LVU395
 1554              		.loc 1 77 13 is_stmt 0 view .LVU396
 1555 002a 2000     		movs	r0, r4
 1556 002c FFF7FEFF 		bl	si5351_bulk_read.constprop.0
 1557              	.LVL138:
 1558              		.loc 1 77 11 view .LVU397
 1559 0030 0028     		cmp	r0, #0
 1560 0032 0CD1     		bne	.L47
 1561              		.loc 1 78 13 is_stmt 1 view .LVU398
 1562              		.loc 1 78 20 is_stmt 0 view .LVU399
 1563 0034 4346     		mov	r3, r8
 1564 0036 2370     		strb	r3, [r4]
 1565              		.loc 1 79 9 is_stmt 1 view .LVU400
 1566              	.LVL139:
 1567              	.LBB296:
 1568              		.loc 2 322 20 view .LVU401
 1569              	.LBE296:
 1570              	.LBE317:
 1571              	.LBE339:
 1572              		.loc 2 324 3 view .LVU402
 1573              	.LBB340:
 1574              	.LBB318:
 1575              	.LBB297:
 1576              	.LBB281:
 1577              		.loc 2 247 25 view .LVU403
 1578              	.LBB265:
 1579              		.loc 2 248 3 view .LVU404
 1580              		.loc 2 250 3 view .LVU405
 1581              	.LBB251:
 1582              		.loc 3 374 20 view .LVU406
 1583              	.LBE251:
 1584              	.LBE265:
 1585              	.LBE281:
 1586              	.LBE297:
 1587              	.LBE318:
 1588              	.LBE340:
 1589              		.loc 3 376 3 view .LVU407
 1590              	.LBB341:
 1591              	.LBB319:
 1592              	.LBB298:
 1593              	.LBB282:
 1594              	.LBB266:
 1595              	.LBB252:
 1596              	.LBB222:
ARM GAS  /tmp/cc96bPPt.s 			page 29


 1597              		.loc 4 371 20 view .LVU408
 1598              	.LBE222:
 1599              	.LBE252:
 1600              	.LBE266:
 1601              	.LBE282:
 1602              	.LBE298:
 1603              	.LBE319:
 1604              	.LBE341:
 1605              		.loc 4 373 3 view .LVU409
 1606              	.LBB342:
 1607              	.LBB320:
 1608              	.LBB299:
 1609              	.LBB283:
 1610              	.LBB267:
 1611              	.LBB253:
 1612              	.LBB223:
 1613              	.LBB220:
 1614              		.loc 5 342 57 view .LVU410
 1615              	.LBB219:
 1616              		.loc 5 344 3 view .LVU411
 1617              		.syntax divided
 1618              	@ 344 "ChibiOS/os/common/ext/CMSIS/include/core_cmFunc.h" 1
 1619 0038 72B6     		cpsid i
 1620              	@ 0 "" 2
 1621              		.thumb
 1622              		.syntax unified
 1623              	.LBE219:
 1624              	.LBE220:
 1625              	.LBE223:
 1626              	.LBE253:
 1627              	.LBE267:
 1628              	.LBE283:
 1629              	.LBE299:
 1630              	.LBE320:
 1631              	.LBE342:
 1632              		.loc 3 377 34 view .LVU412
 1633              		.loc 3 378 20 view .LVU413
 1634              	.LBB343:
 1635              	.LBB321:
 1636              	.LBB300:
 1637              	.LBB284:
 1638              	.LBB268:
 1639              		.loc 2 251 3 view .LVU414
 1640              	.LBB254:
 1641              		.loc 2 228 25 view .LVU415
 1642              	.LBE254:
 1643              	.LBE268:
 1644              	.LBE284:
 1645              	.LBE300:
 1646              	.LBE321:
 1647              	.LBE343:
 1648              		.loc 2 233 3 view .LVU416
 1649              	.LBB344:
 1650              	.LBB322:
 1651              	.LBB301:
 1652              	.LBB285:
 1653              	.LBB269:
ARM GAS  /tmp/cc96bPPt.s 			page 30


 1654              	.LBB255:
 1655              	.LBB233:
 1656              		.loc 6 105 25 view .LVU417
 1657              	.LBE233:
 1658              	.LBE255:
 1659              	.LBE269:
 1660              	.LBE285:
 1661              	.LBE301:
 1662              	.LBE322:
 1663              	.LBE344:
 1664              		.loc 6 107 3 view .LVU418
 1665              	.LBB345:
 1666              	.LBB323:
 1667              	.LBB302:
 1668              	.LBB286:
 1669              	.LBB270:
 1670              	.LBB256:
 1671              	.LBB234:
 1672              	.LBB231:
 1673              		.loc 7 139 25 view .LVU419
 1674              	.LBB230:
 1675              		.loc 7 141 3 view .LVU420
 1676              		.loc 7 141 10 is_stmt 0 view .LVU421
 1677 003a 6B6A     		ldr	r3, [r5, #36]
 1678              	.LVL140:
 1679              		.loc 7 141 10 view .LVU422
 1680              	.LBE230:
 1681              	.LBE231:
 1682              	.LBE234:
 1683              	.LBE256:
 1684              		.loc 2 252 3 is_stmt 1 view .LVU423
 1685              	.LBB257:
 1686              		.loc 3 386 20 view .LVU424
 1687              	.LBB248:
 1688              		.loc 3 388 22 view .LVU425
 1689              		.loc 3 389 33 view .LVU426
 1690              		.loc 3 395 3 view .LVU427
 1691              		.loc 3 395 3 view .LVU428
 1692              		.loc 3 399 3 view .LVU429
 1693              	.LBB245:
 1694              		.loc 4 380 20 view .LVU430
 1695              	.LBE245:
 1696              	.LBE248:
 1697              	.LBE257:
 1698              	.LBE270:
 1699              	.LBE286:
 1700              	.LBE302:
 1701              	.LBE323:
 1702              	.LBE345:
 1703              		.loc 4 382 3 view .LVU431
 1704              	.LBB346:
 1705              	.LBB324:
 1706              	.LBB303:
 1707              	.LBB287:
 1708              	.LBB271:
 1709              	.LBB258:
 1710              	.LBB249:
ARM GAS  /tmp/cc96bPPt.s 			page 31


 1711              	.LBB246:
 1712              	.LBB243:
 1713              		.loc 5 331 57 view .LVU432
 1714              	.LBB242:
 1715              		.loc 5 333 3 view .LVU433
 1716              		.syntax divided
 1717              	@ 333 "ChibiOS/os/common/ext/CMSIS/include/core_cmFunc.h" 1
 1718 003c 62B6     		cpsie i
 1719              	@ 0 "" 2
 1720              		.thumb
 1721              		.syntax unified
 1722              	.LBE242:
 1723              	.LBE243:
 1724              	.LBE246:
 1725              	.LBE249:
 1726              	.LBE258:
 1727              		.loc 2 254 3 view .LVU434
 1728              	.LVL141:
 1729              		.loc 2 254 3 is_stmt 0 view .LVU435
 1730              	.LBE271:
 1731              	.LBE287:
 1732              	.LBB288:
 1733              		.loc 2 284 20 is_stmt 1 view .LVU436
 1734              	.LBB280:
 1735              		.loc 2 288 3 view .LVU437
 1736              		.loc 2 288 34 is_stmt 0 view .LVU438
 1737 003e DB1B     		subs	r3, r3, r7
 1738              	.LVL142:
 1739              		.loc 2 288 34 view .LVU439
 1740              	.LBE280:
 1741              	.LBE288:
 1742              	.LBE303:
 1743              		.loc 1 75 11 view .LVU440
 1744 0040 B342     		cmp	r3, r6
 1745 0042 F2D9     		bls	.L50
 1746              	.L60:
 1747              		.loc 1 75 11 view .LVU441
 1748              	.LBE324:
 1749              	.LBE346:
 1750              		.loc 1 110 14 view .LVU442
 1751 0044 0020     		movs	r0, #0
 1752              	.L54:
 1753              		.loc 1 119 1 view .LVU443
 1754 0046 02B0     		add	sp, sp, #8
 1755              		@ sp needed
 1756              	.LVL143:
 1757              		.loc 1 119 1 view .LVU444
 1758 0048 04BC     		pop	{r2}
 1759 004a 9046     		mov	r8, r2
 1760 004c F0BD     		pop	{r4, r5, r6, r7, pc}
 1761              	.LVL144:
 1762              	.L47:
 1763              	.LBB347:
 1764              	.LBB325:
 1765              		.loc 1 79 9 is_stmt 1 view .LVU445
 1766              		.loc 1 79 12 is_stmt 0 view .LVU446
 1767 004e 2378     		ldrb	r3, [r4]
ARM GAS  /tmp/cc96bPPt.s 			page 32


 1768 0050 7F2B     		cmp	r3, #127
 1769 0052 E4D8     		bhi	.L46
 1770              	.LVL145:
 1771              		.loc 1 79 12 view .LVU447
 1772              	.LBE325:
 1773              	.LBE347:
 1774              		.loc 1 111 18 view .LVU448
 1775 0054 084C     		ldr	r4, .L62+4
 1776              		.loc 1 112 10 view .LVU449
 1777 0056 0225     		movs	r5, #2
 1778 0058 03E0     		b	.L53
 1779              	.LVL146:
 1780              	.L61:
 1781              	.LBB348:
 1782              		.loc 1 116 5 is_stmt 1 view .LVU450
 1783              		.loc 1 116 7 is_stmt 0 view .LVU451
 1784 005a 6419     		adds	r4, r4, r5
 1785              	.LVL147:
 1786              		.loc 1 116 7 view .LVU452
 1787              	.LBE348:
 1788              		.loc 1 112 10 view .LVU453
 1789 005c 2578     		ldrb	r5, [r4]
 1790              	.LVL148:
 1791              		.loc 1 112 9 view .LVU454
 1792 005e 002D     		cmp	r5, #0
 1793 0060 F1D0     		beq	.L54
 1794              	.LVL149:
 1795              	.L53:
 1796              	.LBB349:
 1797              		.loc 1 113 5 is_stmt 1 view .LVU455
 1798              		.loc 1 113 21 is_stmt 0 view .LVU456
 1799 0062 0134     		adds	r4, r4, #1
 1800              	.LVL150:
 1801              		.loc 1 114 5 is_stmt 1 view .LVU457
 1802              		.loc 1 114 10 is_stmt 0 view .LVU458
 1803 0064 2900     		movs	r1, r5
 1804 0066 2000     		movs	r0, r4
 1805 0068 FFF7FEFF 		bl	si5351_bulk_write
 1806              	.LVL151:
 1807              		.loc 1 114 8 view .LVU459
 1808 006c 0028     		cmp	r0, #0
 1809 006e F4D1     		bne	.L61
 1810 0070 E9E7     		b	.L54
 1811              	.L63:
 1812 0072 C046     		.align	2
 1813              	.L62:
 1814 0074 0F270000 		.word	9999
 1815 0078 00000000 		.word	.LANCHOR0
 1816              	.LBE349:
 1817              		.cfi_endproc
 1818              	.LFE157:
 1819              		.size	si5351_init, .-si5351_init
 1820              		.section	.text.si5351_set_frequency,"ax",%progbits
 1821              		.align	1
 1822              		.p2align 4,,15
 1823              		.global	si5351_set_frequency
 1824              		.syntax unified
ARM GAS  /tmp/cc96bPPt.s 			page 33


 1825              		.code	16
 1826              		.thumb_func
 1827              		.fpu softvfp
 1828              		.type	si5351_set_frequency, %function
 1829              	si5351_set_frequency:
 1830              	.LVL152:
 1831              	.LFB166:
 1832              		.loc 1 333 1 is_stmt 1 view -0
 1833              		.cfi_startproc
 1834              		@ args = 0, pretend = 0, frame = 0
 1835              		@ frame_needed = 0, uses_anonymous_args = 0
 1836              		.loc 1 334 3 view .LVU461
 1837              		.loc 1 333 1 is_stmt 0 view .LVU462
 1838 0000 70B5     		push	{r4, r5, r6, lr}
 1839              		.cfi_def_cfa_offset 16
 1840              		.cfi_offset 4, -16
 1841              		.cfi_offset 5, -12
 1842              		.cfi_offset 6, -8
 1843              		.cfi_offset 14, -4
 1844              		.loc 1 334 6 view .LVU463
 1845 0002 144B     		ldr	r3, .L70
 1846              		.loc 1 333 1 view .LVU464
 1847 0004 82B0     		sub	sp, sp, #8
 1848              		.cfi_def_cfa_offset 24
 1849              		.loc 1 333 1 view .LVU465
 1850 0006 0500     		movs	r5, r0
 1851 0008 0C00     		movs	r4, r1
 1852 000a 1600     		movs	r6, r2
 1853              		.loc 1 334 6 view .LVU466
 1854 000c 9942     		cmp	r1, r3
 1855 000e 10DD     		ble	.L68
 1856              		.loc 1 337 10 is_stmt 1 view .LVU467
 1857              		.loc 1 337 13 is_stmt 0 view .LVU468
 1858 0010 114B     		ldr	r3, .L70+4
 1859              		.loc 1 338 5 view .LVU469
 1860 0012 0092     		str	r2, [sp]
 1861              		.loc 1 337 13 view .LVU470
 1862 0014 9942     		cmp	r1, r3
 1863 0016 06DD     		ble	.L69
 1864              		.loc 1 340 5 is_stmt 1 view .LVU471
 1865 0018 0A00     		movs	r2, r1
 1866              	.LVL153:
 1867              		.loc 1 340 5 is_stmt 0 view .LVU472
 1868 001a 0423     		movs	r3, #4
 1869 001c 0121     		movs	r1, #1
 1870              	.LVL154:
 1871              		.loc 1 340 5 view .LVU473
 1872 001e FFF7FEFF 		bl	si5351_set_frequency_fixeddiv
 1873              	.LVL155:
 1874              	.L64:
 1875              		.loc 1 342 1 view .LVU474
 1876 0022 02B0     		add	sp, sp, #8
 1877              		@ sp needed
 1878              	.LVL156:
 1879              	.LVL157:
 1880              		.loc 1 342 1 view .LVU475
 1881 0024 70BD     		pop	{r4, r5, r6, pc}
ARM GAS  /tmp/cc96bPPt.s 			page 34


 1882              	.LVL158:
 1883              	.L69:
 1884              		.loc 1 338 5 is_stmt 1 view .LVU476
 1885 0026 0A00     		movs	r2, r1
 1886              	.LVL159:
 1887              		.loc 1 338 5 is_stmt 0 view .LVU477
 1888 0028 0623     		movs	r3, #6
 1889 002a 0121     		movs	r1, #1
 1890              	.LVL160:
 1891              		.loc 1 338 5 view .LVU478
 1892 002c FFF7FEFF 		bl	si5351_set_frequency_fixeddiv
 1893              	.LVL161:
 1894              		.loc 1 338 5 view .LVU479
 1895 0030 F7E7     		b	.L64
 1896              	.LVL162:
 1897              	.L68:
 1898              		.loc 1 335 5 is_stmt 1 view .LVU480
 1899 0032 0123     		movs	r3, #1
 1900 0034 0022     		movs	r2, #0
 1901              	.LVL163:
 1902              		.loc 1 335 5 is_stmt 0 view .LVU481
 1903 0036 2021     		movs	r1, #32
 1904              	.LVL164:
 1905              		.loc 1 335 5 view .LVU482
 1906 0038 0120     		movs	r0, #1
 1907              	.LVL165:
 1908              		.loc 1 335 5 view .LVU483
 1909 003a FFF7FEFF 		bl	si5351_setupPLL
 1910              	.LVL166:
 1911              		.loc 1 336 5 is_stmt 1 view .LVU484
 1912 003e 0023     		movs	r3, #0
 1913 0040 0196     		str	r6, [sp, #4]
 1914 0042 0093     		str	r3, [sp]
 1915 0044 054A     		ldr	r2, .L70+8
 1916 0046 2300     		movs	r3, r4
 1917 0048 0121     		movs	r1, #1
 1918 004a 2800     		movs	r0, r5
 1919 004c FFF7FEFF 		bl	si5351_set_frequency_fixedpll
 1920              	.LVL167:
 1921 0050 E7E7     		b	.L64
 1922              	.L71:
 1923 0052 C046     		.align	2
 1924              	.L70:
 1925 0054 00E1F505 		.word	100000000
 1926 0058 7FD1F008 		.word	149999999
 1927 005c 00509731 		.word	832000000
 1928              		.cfi_endproc
 1929              	.LFE166:
 1930              		.size	si5351_set_frequency, .-si5351_set_frequency
 1931              		.section	.text.si5351_set_frequency_with_offset,"ax",%progbits
 1932              		.align	1
 1933              		.p2align 4,,15
 1934              		.global	si5351_set_frequency_with_offset
 1935              		.syntax unified
 1936              		.code	16
 1937              		.thumb_func
 1938              		.fpu softvfp
ARM GAS  /tmp/cc96bPPt.s 			page 35


 1939              		.type	si5351_set_frequency_with_offset, %function
 1940              	si5351_set_frequency_with_offset:
 1941              	.LVL168:
 1942              	.LFB167:
 1943              		.loc 1 355 1 view -0
 1944              		.cfi_startproc
 1945              		@ args = 0, pretend = 0, frame = 8
 1946              		@ frame_needed = 0, uses_anonymous_args = 0
 1947              		.loc 1 356 3 view .LVU486
 1948              		.loc 1 357 3 view .LVU487
 1949              		.loc 1 358 3 view .LVU488
 1950              		.loc 1 355 1 is_stmt 0 view .LVU489
 1951 0000 F0B5     		push	{r4, r5, r6, r7, lr}
 1952              		.cfi_def_cfa_offset 20
 1953              		.cfi_offset 4, -20
 1954              		.cfi_offset 5, -16
 1955              		.cfi_offset 6, -12
 1956              		.cfi_offset 7, -8
 1957              		.cfi_offset 14, -4
 1958 0002 4F46     		mov	r7, r9
 1959 0004 D646     		mov	lr, r10
 1960 0006 4646     		mov	r6, r8
 1961              		.loc 1 364 21 view .LVU490
 1962 0008 A64B     		ldr	r3, .L123
 1963              		.loc 1 355 1 view .LVU491
 1964 000a C0B5     		push	{r6, r7, lr}
 1965              		.cfi_def_cfa_offset 32
 1966              		.cfi_offset 8, -32
 1967              		.cfi_offset 9, -28
 1968              		.cfi_offset 10, -24
 1969 000c 1700     		movs	r7, r2
 1970              		.loc 1 364 21 view .LVU492
 1971 000e DA69     		ldr	r2, [r3, #28]
 1972              	.LVL169:
 1973              		.loc 1 355 1 view .LVU493
 1974 0010 84B0     		sub	sp, sp, #16
 1975              		.cfi_def_cfa_offset 48
 1976              		.loc 1 364 46 view .LVU494
 1977 0012 5300     		lsls	r3, r2, #1
 1978 0014 9B18     		adds	r3, r3, r2
 1979              		.loc 1 355 1 view .LVU495
 1980 0016 0400     		movs	r4, r0
 1981              		.loc 1 358 12 view .LVU496
 1982 0018 0D18     		adds	r5, r1, r0
 1983              	.LVL170:
 1984              		.loc 1 359 3 is_stmt 1 view .LVU497
 1985              		.loc 1 364 4 view .LVU498
 1986              		.loc 1 364 7 is_stmt 0 view .LVU499
 1987 001a 8342     		cmp	r3, r0
 1988 001c 00D3     		bcc	.LCB1831
 1989 001e C6E0     		b	.L73	@long jump
 1990              	.LCB1831:
 1991              		.loc 1 365 5 is_stmt 1 view .LVU500
 1992              		.loc 1 365 10 is_stmt 0 view .LVU501
 1993 0020 0521     		movs	r1, #5
 1994              	.LVL171:
 1995              		.loc 1 365 10 view .LVU502
ARM GAS  /tmp/cc96bPPt.s 			page 36


 1996 0022 FFF7FEFF 		bl	__aeabi_uidiv
 1997              	.LVL172:
 1998              		.loc 1 366 11 view .LVU503
 1999 0026 0721     		movs	r1, #7
 2000              		.loc 1 365 10 view .LVU504
 2001 0028 0400     		movs	r4, r0
 2002              	.LVL173:
 2003              		.loc 1 366 5 is_stmt 1 view .LVU505
 2004              		.loc 1 366 11 is_stmt 0 view .LVU506
 2005 002a 2800     		movs	r0, r5
 2006              	.LVL174:
 2007              		.loc 1 366 11 view .LVU507
 2008 002c FFF7FEFF 		bl	__aeabi_uidiv
 2009              	.LVL175:
 2010 0030 0500     		movs	r5, r0
 2011              	.LVL176:
 2012              	.L74:
 2013              		.loc 1 371 3 is_stmt 1 view .LVU508
 2014              		.loc 1 371 6 is_stmt 0 view .LVU509
 2015 0032 9D4B     		ldr	r3, .L123+4
 2016 0034 9C42     		cmp	r4, r3
 2017 0036 46D9     		bls	.L75
 2018              		.loc 1 373 10 is_stmt 1 view .LVU510
 2019              		.loc 1 373 13 is_stmt 0 view .LVU511
 2020 0038 9C4B     		ldr	r3, .L123+8
 2021 003a 9C42     		cmp	r4, r3
 2022 003c 50D8     		bhi	.L117
 2023              	.LVL177:
 2024              		.loc 1 380 10 is_stmt 1 view .LVU512
 2025              		.loc 1 385 3 view .LVU513
 2026              		.loc 1 385 20 is_stmt 0 view .LVU514
 2027 003e 9C4E     		ldr	r6, .L123+12
 2028              		.loc 1 385 6 view .LVU515
 2029 0040 3368     		ldr	r3, [r6]
 2030 0042 012B     		cmp	r3, #1
 2031 0044 1AD0     		beq	.L96
 2032              		.loc 1 386 5 is_stmt 1 view .LVU516
 2033              	.LBB393:
 2034              	.LBI393:
 2035              		.loc 1 121 13 view .LVU517
 2036              	.LBB394:
 2037              		.loc 1 123 3 view .LVU518
 2038              		.loc 1 124 3 view .LVU519
 2039 0046 FF21     		movs	r1, #255
 2040 0048 0320     		movs	r0, #3
 2041 004a FFF7FEFF 		bl	si5351_write
 2042              	.LVL178:
 2043              		.loc 1 125 3 view .LVU520
 2044              		.loc 1 126 3 view .LVU521
 2045              		.loc 1 127 3 view .LVU522
 2046              		.loc 1 128 3 view .LVU523
 2047              		.loc 1 125 10 is_stmt 0 view .LVU524
 2048 004e 994B     		ldr	r3, .L123+16
 2049              		.loc 1 129 3 view .LVU525
 2050 0050 0421     		movs	r1, #4
 2051 0052 03A8     		add	r0, sp, #12
 2052              		.loc 1 125 10 view .LVU526
ARM GAS  /tmp/cc96bPPt.s 			page 37


 2053 0054 0393     		str	r3, [sp, #12]
 2054              		.loc 1 129 3 is_stmt 1 view .LVU527
 2055 0056 FFF7FEFF 		bl	si5351_bulk_write
 2056              	.LVL179:
 2057              	.LBE394:
 2058              	.LBE393:
 2059              		.loc 1 389 3 view .LVU528
 2060              		.loc 1 415 5 view .LVU529
 2061              		.loc 1 415 8 is_stmt 0 view .LVU530
 2062 005a 3368     		ldr	r3, [r6]
 2063 005c 022B     		cmp	r3, #2
 2064 005e 0DD1     		bne	.L96
 2065              		.loc 1 416 7 is_stmt 1 view .LVU531
 2066 0060 0623     		movs	r3, #6
 2067 0062 2A00     		movs	r2, r5
 2068 0064 0021     		movs	r1, #0
 2069 0066 0020     		movs	r0, #0
 2070 0068 0097     		str	r7, [sp]
 2071 006a FFF7FEFF 		bl	si5351_set_frequency_fixeddiv
 2072              	.LVL180:
 2073              		.loc 1 417 7 view .LVU532
 2074 006e 0097     		str	r7, [sp]
 2075 0070 0623     		movs	r3, #6
 2076 0072 2200     		movs	r2, r4
 2077 0074 0121     		movs	r1, #1
 2078 0076 0120     		movs	r0, #1
 2079 0078 FFF7FEFF 		bl	si5351_set_frequency_fixeddiv
 2080              	.LVL181:
 2081              	.L96:
 2082              		.loc 1 421 5 view .LVU533
 2083 007c 2A00     		movs	r2, r5
 2084 007e 0623     		movs	r3, #6
 2085 0080 0021     		movs	r1, #0
 2086 0082 0020     		movs	r0, #0
 2087 0084 0097     		str	r7, [sp]
 2088 0086 FFF7FEFF 		bl	si5351_set_frequency_fixeddiv
 2089              	.LVL182:
 2090              		.loc 1 422 5 view .LVU534
 2091 008a 0623     		movs	r3, #6
 2092 008c 2200     		movs	r2, r4
 2093 008e 0121     		movs	r1, #1
 2094 0090 0120     		movs	r0, #1
 2095 0092 0097     		str	r7, [sp]
 2096 0094 FFF7FEFF 		bl	si5351_set_frequency_fixeddiv
 2097              	.LVL183:
 2098              		.loc 1 423 5 view .LVU535
 2099 0098 0023     		movs	r3, #0
 2100              		.loc 1 425 5 is_stmt 0 view .LVU536
 2101 009a 0125     		movs	r5, #1
 2102              	.LVL184:
 2103              		.loc 1 423 57 view .LVU537
 2104 009c 6200     		lsls	r2, r4, #1
 2105 009e 1219     		adds	r2, r2, r4
 2106              		.loc 1 423 5 view .LVU538
 2107 00a0 0193     		str	r3, [sp, #4]
 2108 00a2 0093     		str	r3, [sp]
 2109 00a4 0220     		movs	r0, #2
ARM GAS  /tmp/cc96bPPt.s 			page 38


 2110 00a6 844B     		ldr	r3, .L123+20
 2111              		.loc 1 423 57 view .LVU539
 2112 00a8 5200     		lsls	r2, r2, #1
 2113              		.loc 1 423 5 view .LVU540
 2114 00aa 0121     		movs	r1, #1
 2115 00ac FFF7FEFF 		bl	si5351_set_frequency_fixedpll
 2116              	.LVL185:
 2117              		.loc 1 425 5 is_stmt 1 view .LVU541
 2118              		.loc 1 436 3 view .LVU542
 2119              		.loc 1 436 6 is_stmt 0 view .LVU543
 2120 00b0 3368     		ldr	r3, [r6]
 2121              		.loc 1 357 7 view .LVU544
 2122 00b2 0320     		movs	r0, #3
 2123              		.loc 1 436 6 view .LVU545
 2124 00b4 AB42     		cmp	r3, r5
 2125 00b6 34D1     		bne	.L118
 2126              	.LVL186:
 2127              	.L87:
 2128              		.loc 1 445 3 is_stmt 1 view .LVU546
 2129              		.loc 1 445 16 is_stmt 0 view .LVU547
 2130 00b8 3560     		str	r5, [r6]
 2131              		.loc 1 446 3 is_stmt 1 view .LVU548
 2132              		.loc 1 447 1 is_stmt 0 view .LVU549
 2133 00ba 04B0     		add	sp, sp, #16
 2134              		@ sp needed
 2135 00bc 1CBC     		pop	{r2, r3, r4}
 2136 00be 9046     		mov	r8, r2
 2137 00c0 9946     		mov	r9, r3
 2138 00c2 A246     		mov	r10, r4
 2139 00c4 F0BD     		pop	{r4, r5, r6, r7, pc}
 2140              	.LVL187:
 2141              	.L75:
 2142              		.loc 1 378 3 is_stmt 1 view .LVU550
 2143              		.loc 1 378 6 is_stmt 0 view .LVU551
 2144 00c6 7D4B     		ldr	r3, .L123+24
 2145 00c8 9C42     		cmp	r4, r3
 2146 00ca 00D9     		bls	.LCB1983
 2147 00cc 7CE0     		b	.L78	@long jump
 2148              	.LCB1983:
 2149              	.LVL188:
 2150              		.loc 1 385 3 is_stmt 1 view .LVU552
 2151              		.loc 1 385 20 is_stmt 0 view .LVU553
 2152 00ce 784E     		ldr	r6, .L123+12
 2153              		.loc 1 385 6 view .LVU554
 2154 00d0 3368     		ldr	r3, [r6]
 2155 00d2 002B     		cmp	r3, #0
 2156 00d4 50D1     		bne	.L119
 2157              	.LVL189:
 2158              	.L80:
 2159              		.loc 1 400 7 is_stmt 1 view .LVU555
 2160              		.loc 1 401 13 is_stmt 0 view .LVU556
 2161 00d6 6023     		movs	r3, #96
 2162              		.loc 1 400 12 view .LVU557
 2163 00d8 A401     		lsls	r4, r4, #6
 2164              	.LVL190:
 2165              		.loc 1 401 7 is_stmt 1 view .LVU558
 2166              		.loc 1 401 13 is_stmt 0 view .LVU559
ARM GAS  /tmp/cc96bPPt.s 			page 39


 2167 00da AD01     		lsls	r5, r5, #6
 2168              	.LVL191:
 2169              	.L115:
 2170              		.loc 1 401 13 view .LVU560
 2171 00dc 9846     		mov	r8, r3
 2172 00de 7EE0     		b	.L84
 2173              	.LVL192:
 2174              	.L117:
 2175              		.loc 1 380 10 is_stmt 1 view .LVU561
 2176              		.loc 1 385 3 view .LVU562
 2177              		.loc 1 385 20 is_stmt 0 view .LVU563
 2178 00e0 734E     		ldr	r6, .L123+12
 2179              		.loc 1 385 6 view .LVU564
 2180 00e2 3368     		ldr	r3, [r6]
 2181 00e4 022B     		cmp	r3, #2
 2182 00e6 00D0     		beq	.LCB2023
 2183 00e8 C1E0     		b	.L120	@long jump
 2184              	.LCB2023:
 2185              	.L98:
 2186              		.loc 1 429 5 is_stmt 1 view .LVU565
 2187 00ea 2A00     		movs	r2, r5
 2188 00ec 0423     		movs	r3, #4
 2189 00ee 0021     		movs	r1, #0
 2190 00f0 0020     		movs	r0, #0
 2191 00f2 0097     		str	r7, [sp]
 2192 00f4 FFF7FEFF 		bl	si5351_set_frequency_fixeddiv
 2193              	.LVL193:
 2194              		.loc 1 430 5 view .LVU566
 2195 00f8 0423     		movs	r3, #4
 2196 00fa 2200     		movs	r2, r4
 2197 00fc 0121     		movs	r1, #1
 2198 00fe 0120     		movs	r0, #1
 2199 0100 0097     		str	r7, [sp]
 2200 0102 FFF7FEFF 		bl	si5351_set_frequency_fixeddiv
 2201              	.LVL194:
 2202              		.loc 1 431 5 view .LVU567
 2203 0106 0023     		movs	r3, #0
 2204              		.loc 1 431 57 is_stmt 0 view .LVU568
 2205 0108 A200     		lsls	r2, r4, #2
 2206              		.loc 1 431 5 view .LVU569
 2207 010a 0193     		str	r3, [sp, #4]
 2208 010c 0093     		str	r3, [sp]
 2209 010e 0121     		movs	r1, #1
 2210 0110 694B     		ldr	r3, .L123+20
 2211 0112 0220     		movs	r0, #2
 2212 0114 FFF7FEFF 		bl	si5351_set_frequency_fixedpll
 2213              	.LVL195:
 2214              		.loc 1 433 5 is_stmt 1 view .LVU570
 2215 0118 0225     		movs	r5, #2
 2216              	.LVL196:
 2217              	.L86:
 2218              		.loc 1 436 3 view .LVU571
 2219              		.loc 1 436 6 is_stmt 0 view .LVU572
 2220 011a 3368     		ldr	r3, [r6]
 2221              		.loc 1 357 7 view .LVU573
 2222 011c 0320     		movs	r0, #3
 2223              		.loc 1 436 6 view .LVU574
ARM GAS  /tmp/cc96bPPt.s 			page 40


 2224 011e AB42     		cmp	r3, r5
 2225 0120 CAD0     		beq	.L87
 2226              	.L118:
 2227              		.loc 1 437 5 is_stmt 1 view .LVU575
 2228              	.LBB398:
 2229              	.LBI398:
 2230              		.loc 1 137 13 view .LVU576
 2231              	.LBB399:
 2232              		.loc 1 140 3 view .LVU577
 2233 0122 AC21     		movs	r1, #172
 2234 0124 AE30     		adds	r0, r0, #174
 2235 0126 FFF7FEFF 		bl	si5351_write
 2236              	.LVL197:
 2237              	.LBE399:
 2238              	.LBE398:
 2239              		.loc 1 438 5 view .LVU578
 2240              	.LBB400:
 2241              	.LBI400:
 2242              		.loc 1 86 13 view .LVU579
 2243              	.LBB401:
 2244              		.loc 1 88 5 view .LVU580
 2245              	.LBB402:
 2246              	.LBI402:
 2247              		.loc 2 247 25 view .LVU581
 2248              	.LBB403:
 2249              		.loc 2 248 3 view .LVU582
 2250              		.loc 2 250 3 view .LVU583
 2251              	.LBB404:
 2252              	.LBI404:
 2253              		.loc 3 374 20 view .LVU584
 2254              	.LBE404:
 2255              	.LBE403:
 2256              	.LBE402:
 2257              	.LBE401:
 2258              	.LBE400:
 2259              		.loc 3 376 3 view .LVU585
 2260              	.LBB508:
 2261              	.LBB491:
 2262              	.LBB432:
 2263              	.LBB426:
 2264              	.LBB409:
 2265              	.LBB405:
 2266              	.LBI405:
 2267              		.loc 4 371 20 view .LVU586
 2268              	.LBE405:
 2269              	.LBE409:
 2270              	.LBE426:
 2271              	.LBE432:
 2272              	.LBE491:
 2273              	.LBE508:
 2274              		.loc 4 373 3 view .LVU587
 2275              	.LBB509:
 2276              	.LBB492:
 2277              	.LBB433:
 2278              	.LBB427:
 2279              	.LBB410:
 2280              	.LBB408:
ARM GAS  /tmp/cc96bPPt.s 			page 41


 2281              	.LBB406:
 2282              	.LBI406:
 2283              		.loc 5 342 57 view .LVU588
 2284              	.LBB407:
 2285              		.loc 5 344 3 view .LVU589
 2286              		.syntax divided
 2287              	@ 344 "ChibiOS/os/common/ext/CMSIS/include/core_cmFunc.h" 1
 2288 012a 72B6     		cpsid i
 2289              	@ 0 "" 2
 2290              		.thumb
 2291              		.syntax unified
 2292              	.LBE407:
 2293              	.LBE406:
 2294              	.LBE408:
 2295              	.LBE410:
 2296              	.LBE427:
 2297              	.LBE433:
 2298              	.LBE492:
 2299              	.LBE509:
 2300              		.loc 3 377 34 view .LVU590
 2301              		.loc 3 378 20 view .LVU591
 2302              	.LBB510:
 2303              	.LBB493:
 2304              	.LBB434:
 2305              	.LBB428:
 2306              		.loc 2 251 3 view .LVU592
 2307              	.LBB411:
 2308              	.LBI411:
 2309              		.loc 2 228 25 view .LVU593
 2310              	.LBE411:
 2311              	.LBE428:
 2312              	.LBE434:
 2313              	.LBE493:
 2314              	.LBE510:
 2315              		.loc 2 233 3 view .LVU594
 2316              	.LBB511:
 2317              	.LBB494:
 2318              	.LBB435:
 2319              	.LBB429:
 2320              	.LBB416:
 2321              	.LBB412:
 2322              	.LBI412:
 2323              		.loc 6 105 25 view .LVU595
 2324              	.LBE412:
 2325              	.LBE416:
 2326              	.LBE429:
 2327              	.LBE435:
 2328              	.LBE494:
 2329              	.LBE511:
 2330              		.loc 6 107 3 view .LVU596
 2331              	.LBB512:
 2332              	.LBB495:
 2333              	.LBB436:
 2334              	.LBB430:
 2335              	.LBB417:
 2336              	.LBB415:
 2337              	.LBB413:
ARM GAS  /tmp/cc96bPPt.s 			page 42


 2338              	.LBI413:
 2339              		.loc 7 139 25 view .LVU597
 2340              	.LBB414:
 2341              		.loc 7 141 3 view .LVU598
 2342              		.loc 7 141 10 is_stmt 0 view .LVU599
 2343 012c 8023     		movs	r3, #128
 2344 012e DB05     		lsls	r3, r3, #23
 2345 0130 5F6A     		ldr	r7, [r3, #36]
 2346              	.LVL198:
 2347              		.loc 7 141 10 view .LVU600
 2348              	.LBE414:
 2349              	.LBE413:
 2350              	.LBE415:
 2351              	.LBE417:
 2352              		.loc 2 252 3 is_stmt 1 view .LVU601
 2353              	.LBB418:
 2354              	.LBI418:
 2355              		.loc 3 386 20 view .LVU602
 2356              	.LBB419:
 2357              		.loc 3 388 22 view .LVU603
 2358              		.loc 3 389 33 view .LVU604
 2359              		.loc 3 395 3 view .LVU605
 2360              		.loc 3 395 3 view .LVU606
 2361              		.loc 3 399 3 view .LVU607
 2362              	.LBB420:
 2363              	.LBI420:
 2364              		.loc 4 380 20 view .LVU608
 2365              	.LBE420:
 2366              	.LBE419:
 2367              	.LBE418:
 2368              	.LBE430:
 2369              	.LBE436:
 2370              	.LBE495:
 2371              	.LBE512:
 2372              		.loc 4 382 3 view .LVU609
 2373              	.LBB513:
 2374              	.LBB496:
 2375              	.LBB437:
 2376              	.LBB431:
 2377              	.LBB425:
 2378              	.LBB424:
 2379              	.LBB423:
 2380              	.LBB421:
 2381              	.LBI421:
 2382              		.loc 5 331 57 view .LVU610
 2383              	.LBB422:
 2384              		.loc 5 333 3 view .LVU611
 2385              		.syntax divided
 2386              	@ 333 "ChibiOS/os/common/ext/CMSIS/include/core_cmFunc.h" 1
 2387 0132 62B6     		cpsie i
 2388              	@ 0 "" 2
 2389              		.thumb
 2390              		.syntax unified
 2391              	.LBE422:
 2392              	.LBE421:
 2393              	.LBE423:
 2394              	.LBE424:
ARM GAS  /tmp/cc96bPPt.s 			page 43


 2395              	.LBE425:
 2396              		.loc 2 254 3 view .LVU612
 2397              	.LVL199:
 2398              		.loc 2 254 3 is_stmt 0 view .LVU613
 2399              	.LBE431:
 2400              	.LBE437:
 2401              		.loc 1 89 5 is_stmt 1 view .LVU614
 2402              		.loc 1 89 13 is_stmt 0 view .LVU615
 2403 0134 FF23     		movs	r3, #255
 2404 0136 03AC     		add	r4, sp, #12
 2405              	.LVL200:
 2406              		.loc 1 90 9 view .LVU616
 2407 0138 2000     		movs	r0, r4
 2408              		.loc 1 89 13 view .LVU617
 2409 013a 9846     		mov	r8, r3
 2410 013c 2370     		strb	r3, [r4]
 2411              		.loc 1 90 5 is_stmt 1 view .LVU618
 2412              		.loc 1 90 9 is_stmt 0 view .LVU619
 2413 013e FFF7FEFF 		bl	si5351_bulk_read.constprop.0
 2414              	.LVL201:
 2415              		.loc 1 90 7 view .LVU620
 2416 0142 0028     		cmp	r0, #0
 2417 0144 68D1     		bne	.L88
 2418              		.loc 1 91 9 is_stmt 1 view .LVU621
 2419              		.loc 1 91 16 is_stmt 0 view .LVU622
 2420 0146 4346     		mov	r3, r8
 2421 0148 2370     		strb	r3, [r4]
 2422              		.loc 1 92 5 is_stmt 1 view .LVU623
 2423              	.L89:
 2424              	.LBB438:
 2425              	.LBB439:
 2426              	.LBB440:
 2427              	.LBB441:
 2428              	.LBB442:
 2429              	.LBB443:
 2430              	.LBB444:
 2431              		.loc 7 141 10 is_stmt 0 view .LVU624
 2432 014a 8023     		movs	r3, #128
 2433 014c DB05     		lsls	r3, r3, #23
 2434 014e 9A46     		mov	r10, r3
 2435              	.LBE444:
 2436              	.LBE443:
 2437              	.LBE442:
 2438              	.LBE441:
 2439              	.LBE440:
 2440              	.LBE439:
 2441              	.LBE438:
 2442              		.loc 1 95 11 view .LVU625
 2443 0150 5B4B     		ldr	r3, .L123+28
 2444 0152 9946     		mov	r9, r3
 2445              		.loc 1 99 12 view .LVU626
 2446 0154 6023     		movs	r3, #96
 2447 0156 9846     		mov	r8, r3
 2448              	.L93:
 2449              	.LVL202:
 2450              	.LBB483:
 2451              	.LBI438:
ARM GAS  /tmp/cc96bPPt.s 			page 44


 2452              		.loc 2 322 20 is_stmt 1 view .LVU627
 2453              	.LBE483:
 2454              	.LBE496:
 2455              	.LBE513:
 2456              		.loc 2 324 3 view .LVU628
 2457              	.LBB514:
 2458              	.LBB497:
 2459              	.LBB484:
 2460              	.LBB474:
 2461              	.LBI439:
 2462              		.loc 2 247 25 view .LVU629
 2463              	.LBB467:
 2464              		.loc 2 248 3 view .LVU630
 2465              		.loc 2 250 3 view .LVU631
 2466              	.LBB449:
 2467              	.LBI449:
 2468              		.loc 3 374 20 view .LVU632
 2469              	.LBE449:
 2470              	.LBE467:
 2471              	.LBE474:
 2472              	.LBE484:
 2473              	.LBE497:
 2474              	.LBE514:
 2475              		.loc 3 376 3 view .LVU633
 2476              	.LBB515:
 2477              	.LBB498:
 2478              	.LBB485:
 2479              	.LBB475:
 2480              	.LBB468:
 2481              	.LBB454:
 2482              	.LBB450:
 2483              	.LBI450:
 2484              		.loc 4 371 20 view .LVU634
 2485              	.LBE450:
 2486              	.LBE454:
 2487              	.LBE468:
 2488              	.LBE475:
 2489              	.LBE485:
 2490              	.LBE498:
 2491              	.LBE515:
 2492              		.loc 4 373 3 view .LVU635
 2493              	.LBB516:
 2494              	.LBB499:
 2495              	.LBB486:
 2496              	.LBB476:
 2497              	.LBB469:
 2498              	.LBB455:
 2499              	.LBB453:
 2500              	.LBB451:
 2501              	.LBI451:
 2502              		.loc 5 342 57 view .LVU636
 2503              	.LBB452:
 2504              		.loc 5 344 3 view .LVU637
 2505              		.syntax divided
 2506              	@ 344 "ChibiOS/os/common/ext/CMSIS/include/core_cmFunc.h" 1
 2507 0158 72B6     		cpsid i
 2508              	@ 0 "" 2
ARM GAS  /tmp/cc96bPPt.s 			page 45


 2509              		.thumb
 2510              		.syntax unified
 2511              	.LBE452:
 2512              	.LBE451:
 2513              	.LBE453:
 2514              	.LBE455:
 2515              	.LBE469:
 2516              	.LBE476:
 2517              	.LBE486:
 2518              	.LBE499:
 2519              	.LBE516:
 2520              		.loc 3 377 34 view .LVU638
 2521              		.loc 3 378 20 view .LVU639
 2522              	.LBB517:
 2523              	.LBB500:
 2524              	.LBB487:
 2525              	.LBB477:
 2526              	.LBB470:
 2527              		.loc 2 251 3 view .LVU640
 2528              	.LBB456:
 2529              	.LBI441:
 2530              		.loc 2 228 25 view .LVU641
 2531              	.LBE456:
 2532              	.LBE470:
 2533              	.LBE477:
 2534              	.LBE487:
 2535              	.LBE500:
 2536              	.LBE517:
 2537              		.loc 2 233 3 view .LVU642
 2538              	.LBB518:
 2539              	.LBB501:
 2540              	.LBB488:
 2541              	.LBB478:
 2542              	.LBB471:
 2543              	.LBB457:
 2544              	.LBB447:
 2545              	.LBI442:
 2546              		.loc 6 105 25 view .LVU643
 2547              	.LBE447:
 2548              	.LBE457:
 2549              	.LBE471:
 2550              	.LBE478:
 2551              	.LBE488:
 2552              	.LBE501:
 2553              	.LBE518:
 2554              		.loc 6 107 3 view .LVU644
 2555              	.LBB519:
 2556              	.LBB502:
 2557              	.LBB489:
 2558              	.LBB479:
 2559              	.LBB472:
 2560              	.LBB458:
 2561              	.LBB448:
 2562              	.LBB446:
 2563              	.LBI443:
 2564              		.loc 7 139 25 view .LVU645
 2565              	.LBB445:
ARM GAS  /tmp/cc96bPPt.s 			page 46


 2566              		.loc 7 141 3 view .LVU646
 2567              		.loc 7 141 10 is_stmt 0 view .LVU647
 2568 015a 5346     		mov	r3, r10
 2569 015c 5B6A     		ldr	r3, [r3, #36]
 2570              	.LVL203:
 2571              		.loc 7 141 10 view .LVU648
 2572              	.LBE445:
 2573              	.LBE446:
 2574              	.LBE448:
 2575              	.LBE458:
 2576              		.loc 2 252 3 is_stmt 1 view .LVU649
 2577              	.LBB459:
 2578              	.LBI459:
 2579              		.loc 3 386 20 view .LVU650
 2580              	.LBB460:
 2581              		.loc 3 388 22 view .LVU651
 2582              		.loc 3 389 33 view .LVU652
 2583              		.loc 3 395 3 view .LVU653
 2584              		.loc 3 395 3 view .LVU654
 2585              		.loc 3 399 3 view .LVU655
 2586              	.LBB461:
 2587              	.LBI461:
 2588              		.loc 4 380 20 view .LVU656
 2589              	.LBE461:
 2590              	.LBE460:
 2591              	.LBE459:
 2592              	.LBE472:
 2593              	.LBE479:
 2594              	.LBE489:
 2595              	.LBE502:
 2596              	.LBE519:
 2597              		.loc 4 382 3 view .LVU657
 2598              	.LBB520:
 2599              	.LBB503:
 2600              	.LBB490:
 2601              	.LBB480:
 2602              	.LBB473:
 2603              	.LBB466:
 2604              	.LBB465:
 2605              	.LBB464:
 2606              	.LBB462:
 2607              	.LBI462:
 2608              		.loc 5 331 57 view .LVU658
 2609              	.LBB463:
 2610              		.loc 5 333 3 view .LVU659
 2611              		.syntax divided
 2612              	@ 333 "ChibiOS/os/common/ext/CMSIS/include/core_cmFunc.h" 1
 2613 015e 62B6     		cpsie i
 2614              	@ 0 "" 2
 2615              		.thumb
 2616              		.syntax unified
 2617              	.LBE463:
 2618              	.LBE462:
 2619              	.LBE464:
 2620              	.LBE465:
 2621              	.LBE466:
 2622              		.loc 2 254 3 view .LVU660
ARM GAS  /tmp/cc96bPPt.s 			page 47


 2623              	.LVL204:
 2624              		.loc 2 254 3 is_stmt 0 view .LVU661
 2625              	.LBE473:
 2626              	.LBE480:
 2627              	.LBB481:
 2628              	.LBI481:
 2629              		.loc 2 284 20 is_stmt 1 view .LVU662
 2630              	.LBB482:
 2631              		.loc 2 288 3 view .LVU663
 2632              		.loc 2 288 34 is_stmt 0 view .LVU664
 2633 0160 DB1B     		subs	r3, r3, r7
 2634              	.LVL205:
 2635              		.loc 2 288 34 view .LVU665
 2636              	.LBE482:
 2637              	.LBE481:
 2638              	.LBE490:
 2639              		.loc 1 95 11 view .LVU666
 2640 0162 4B45     		cmp	r3, r9
 2641 0164 00D9     		bls	.LCB2425
 2642 0166 8DE0     		b	.L121	@long jump
 2643              	.LCB2425:
 2644              		.loc 1 97 9 is_stmt 1 view .LVU667
 2645              		.loc 1 97 13 is_stmt 0 view .LVU668
 2646 0168 2000     		movs	r0, r4
 2647 016a FFF7FEFF 		bl	si5351_bulk_read.constprop.0
 2648              	.LVL206:
 2649              		.loc 1 97 11 view .LVU669
 2650 016e 0028     		cmp	r0, #0
 2651 0170 13D1     		bne	.L91
 2652              		.loc 1 98 13 is_stmt 1 view .LVU670
 2653              		.loc 1 98 20 is_stmt 0 view .LVU671
 2654 0172 FF23     		movs	r3, #255
 2655 0174 2370     		strb	r3, [r4]
 2656              		.loc 1 99 9 is_stmt 1 view .LVU672
 2657 0176 EFE7     		b	.L93
 2658              	.LVL207:
 2659              	.L119:
 2660              		.loc 1 99 9 is_stmt 0 view .LVU673
 2661              	.LBE503:
 2662              	.LBE520:
 2663              		.loc 1 379 10 view .LVU674
 2664 0178 6023     		movs	r3, #96
 2665 017a 9846     		mov	r8, r3
 2666              	.LVL208:
 2667              	.L79:
 2668              		.loc 1 386 5 is_stmt 1 view .LVU675
 2669              	.LBB521:
 2670              		.loc 1 121 13 view .LVU676
 2671              	.LBB395:
 2672              		.loc 1 123 3 view .LVU677
 2673              		.loc 1 124 3 view .LVU678
 2674 017c FF21     		movs	r1, #255
 2675 017e 0320     		movs	r0, #3
 2676 0180 FFF7FEFF 		bl	si5351_write
 2677              	.LVL209:
 2678              		.loc 1 125 3 view .LVU679
 2679              		.loc 1 126 3 view .LVU680
ARM GAS  /tmp/cc96bPPt.s 			page 48


 2680              		.loc 1 127 3 view .LVU681
 2681              		.loc 1 128 3 view .LVU682
 2682              		.loc 1 125 10 is_stmt 0 view .LVU683
 2683 0184 4B4B     		ldr	r3, .L123+16
 2684              		.loc 1 129 3 view .LVU684
 2685 0186 0421     		movs	r1, #4
 2686 0188 03A8     		add	r0, sp, #12
 2687              		.loc 1 125 10 view .LVU685
 2688 018a 0393     		str	r3, [sp, #12]
 2689              		.loc 1 129 3 is_stmt 1 view .LVU686
 2690 018c FFF7FEFF 		bl	si5351_bulk_write
 2691              	.LVL210:
 2692              	.LBE395:
 2693              	.LBE521:
 2694              		.loc 1 389 3 view .LVU687
 2695              		.loc 1 392 2 view .LVU688
 2696              		.loc 1 392 24 is_stmt 0 view .LVU689
 2697 0190 3368     		ldr	r3, [r6]
 2698 0192 013B     		subs	r3, r3, #1
 2699              		.loc 1 392 5 view .LVU690
 2700 0194 012B     		cmp	r3, #1
 2701 0196 59D9     		bls	.L101
 2702 0198 65E0     		b	.L85
 2703              	.LVL211:
 2704              	.L91:
 2705              	.LBB522:
 2706              	.LBB504:
 2707              		.loc 1 99 9 is_stmt 1 view .LVU691
 2708              		.loc 1 99 12 is_stmt 0 view .LVU692
 2709 019a 4246     		mov	r2, r8
 2710 019c 2378     		ldrb	r3, [r4]
 2711 019e 1A42     		tst	r2, r3
 2712 01a0 DAD1     		bne	.L93
 2713              	.LBE504:
 2714              	.LBE522:
 2715              		.loc 1 440 5 is_stmt 1 view .LVU693
 2716              	.LBB523:
 2717              	.LBI523:
 2718              		.loc 1 132 13 view .LVU694
 2719              	.LBB524:
 2720              		.loc 1 134 3 view .LVU695
 2721 01a2 0021     		movs	r1, #0
 2722 01a4 0320     		movs	r0, #3
 2723 01a6 FFF7FEFF 		bl	si5351_write
 2724              	.LVL212:
 2725              	.LBE524:
 2726              	.LBE523:
 2727              		.loc 1 442 5 view .LVU696
 2728              		.loc 1 442 11 is_stmt 0 view .LVU697
 2729 01aa 0D20     		movs	r0, #13
 2730 01ac 84E7     		b	.L87
 2731              	.LVL213:
 2732              	.L73:
 2733              		.loc 1 367 10 is_stmt 1 view .LVU698
 2734              		.loc 1 367 13 is_stmt 0 view .LVU699
 2735 01ae 8242     		cmp	r2, r0
 2736 01b0 00D3     		bcc	.LCB2529
ARM GAS  /tmp/cc96bPPt.s 			page 49


 2737 01b2 3EE7     		b	.L74	@long jump
 2738              	.LCB2529:
 2739              		.loc 1 368 5 is_stmt 1 view .LVU700
 2740              		.loc 1 368 10 is_stmt 0 view .LVU701
 2741 01b4 0321     		movs	r1, #3
 2742              	.LVL214:
 2743              		.loc 1 368 10 view .LVU702
 2744 01b6 FFF7FEFF 		bl	__aeabi_uidiv
 2745              	.LVL215:
 2746              		.loc 1 369 11 view .LVU703
 2747 01ba 0521     		movs	r1, #5
 2748              		.loc 1 368 10 view .LVU704
 2749 01bc 0400     		movs	r4, r0
 2750              	.LVL216:
 2751              		.loc 1 369 5 is_stmt 1 view .LVU705
 2752              		.loc 1 369 11 is_stmt 0 view .LVU706
 2753 01be 2800     		movs	r0, r5
 2754              	.LVL217:
 2755              		.loc 1 369 11 view .LVU707
 2756 01c0 FFF7FEFF 		bl	__aeabi_uidiv
 2757              	.LVL218:
 2758 01c4 0500     		movs	r5, r0
 2759              	.LVL219:
 2760              		.loc 1 369 11 view .LVU708
 2761 01c6 34E7     		b	.L74
 2762              	.LVL220:
 2763              	.L78:
 2764              		.loc 1 380 10 is_stmt 1 view .LVU709
 2765              		.loc 1 380 13 is_stmt 0 view .LVU710
 2766 01c8 3E4B     		ldr	r3, .L123+32
 2767              		.loc 1 385 20 view .LVU711
 2768 01ca 394E     		ldr	r6, .L123+12
 2769              		.loc 1 380 13 view .LVU712
 2770 01cc 9C42     		cmp	r4, r3
 2771 01ce 62D8     		bhi	.L81
 2772              	.LVL221:
 2773              		.loc 1 385 3 is_stmt 1 view .LVU713
 2774              		.loc 1 385 6 is_stmt 0 view .LVU714
 2775 01d0 3368     		ldr	r3, [r6]
 2776 01d2 002B     		cmp	r3, #0
 2777 01d4 2AD1     		bne	.L122
 2778              	.LVL222:
 2779              	.L83:
 2780              		.loc 1 397 7 is_stmt 1 view .LVU715
 2781 01d6 3023     		movs	r3, #48
 2782 01d8 9846     		mov	r8, r3
 2783              		.loc 1 397 12 is_stmt 0 view .LVU716
 2784 01da E400     		lsls	r4, r4, #3
 2785              	.LVL223:
 2786              		.loc 1 398 7 is_stmt 1 view .LVU717
 2787              		.loc 1 398 13 is_stmt 0 view .LVU718
 2788 01dc ED00     		lsls	r5, r5, #3
 2789              	.LVL224:
 2790              	.L84:
 2791              		.loc 1 404 5 is_stmt 1 view .LVU719
 2792 01de 4346     		mov	r3, r8
 2793 01e0 394A     		ldr	r2, .L123+36
ARM GAS  /tmp/cc96bPPt.s 			page 50


 2794 01e2 0093     		str	r3, [sp]
 2795 01e4 0021     		movs	r1, #0
 2796 01e6 2B00     		movs	r3, r5
 2797 01e8 0020     		movs	r0, #0
 2798 01ea 0197     		str	r7, [sp, #4]
 2799 01ec FFF7FEFF 		bl	si5351_set_frequency_fixedpll
 2800              	.LVL225:
 2801              		.loc 1 406 5 view .LVU720
 2802 01f0 4346     		mov	r3, r8
 2803 01f2 354A     		ldr	r2, .L123+36
 2804 01f4 0093     		str	r3, [sp]
 2805 01f6 0021     		movs	r1, #0
 2806 01f8 2300     		movs	r3, r4
 2807 01fa 0120     		movs	r0, #1
 2808 01fc 0197     		str	r7, [sp, #4]
 2809 01fe FFF7FEFF 		bl	si5351_set_frequency_fixedpll
 2810              	.LVL226:
 2811              		.loc 1 409 7 view .LVU721
 2812 0202 0023     		movs	r3, #0
 2813 0204 304A     		ldr	r2, .L123+36
 2814 0206 0193     		str	r3, [sp, #4]
 2815 0208 0093     		str	r3, [sp]
 2816 020a 0021     		movs	r1, #0
 2817 020c 2A4B     		ldr	r3, .L123+20
 2818 020e 0220     		movs	r0, #2
 2819 0210 FFF7FEFF 		bl	si5351_set_frequency_fixedpll
 2820              	.LVL227:
 2821              		.loc 1 411 5 view .LVU722
 2822 0214 0025     		movs	r5, #0
 2823              	.LVL228:
 2824              		.loc 1 411 5 is_stmt 0 view .LVU723
 2825 0216 80E7     		b	.L86
 2826              	.LVL229:
 2827              	.L88:
 2828              	.LBB528:
 2829              	.LBB505:
 2830              		.loc 1 92 5 is_stmt 1 view .LVU724
 2831              		.loc 1 92 8 is_stmt 0 view .LVU725
 2832 0218 6022     		movs	r2, #96
 2833 021a 2378     		ldrb	r3, [r4]
 2834 021c 1A42     		tst	r2, r3
 2835 021e 94D1     		bne	.L89
 2836              	.LBE505:
 2837              	.LBE528:
 2838              		.loc 1 440 5 is_stmt 1 view .LVU726
 2839              	.LBB529:
 2840              		.loc 1 132 13 view .LVU727
 2841              	.LBB525:
 2842              		.loc 1 134 3 view .LVU728
 2843 0220 0021     		movs	r1, #0
 2844 0222 0320     		movs	r0, #3
 2845 0224 FFF7FEFF 		bl	si5351_write
 2846              	.LVL230:
 2847              	.LBE525:
 2848              	.LBE529:
 2849              		.loc 1 442 5 view .LVU729
 2850              		.loc 1 442 11 is_stmt 0 view .LVU730
ARM GAS  /tmp/cc96bPPt.s 			page 51


 2851 0228 0D20     		movs	r0, #13
 2852 022a 45E7     		b	.L87
 2853              	.LVL231:
 2854              	.L122:
 2855              		.loc 1 386 5 is_stmt 1 view .LVU731
 2856              	.LBB530:
 2857              		.loc 1 121 13 view .LVU732
 2858              	.LBB396:
 2859              		.loc 1 123 3 view .LVU733
 2860              		.loc 1 124 3 view .LVU734
 2861 022c FF21     		movs	r1, #255
 2862 022e 0320     		movs	r0, #3
 2863 0230 FFF7FEFF 		bl	si5351_write
 2864              	.LVL232:
 2865              		.loc 1 125 3 view .LVU735
 2866              		.loc 1 126 3 view .LVU736
 2867              		.loc 1 127 3 view .LVU737
 2868              		.loc 1 128 3 view .LVU738
 2869              		.loc 1 125 10 is_stmt 0 view .LVU739
 2870 0234 1F4B     		ldr	r3, .L123+16
 2871              		.loc 1 129 3 view .LVU740
 2872 0236 0421     		movs	r1, #4
 2873 0238 03A8     		add	r0, sp, #12
 2874              		.loc 1 125 10 view .LVU741
 2875 023a 0393     		str	r3, [sp, #12]
 2876              		.loc 1 129 3 is_stmt 1 view .LVU742
 2877 023c FFF7FEFF 		bl	si5351_bulk_write
 2878              	.LVL233:
 2879              	.LBE396:
 2880              	.LBE530:
 2881              		.loc 1 389 3 view .LVU743
 2882              		.loc 1 392 2 view .LVU744
 2883              		.loc 1 381 10 is_stmt 0 view .LVU745
 2884 0240 3022     		movs	r2, #48
 2885              		.loc 1 392 24 view .LVU746
 2886 0242 3368     		ldr	r3, [r6]
 2887              		.loc 1 381 10 view .LVU747
 2888 0244 9046     		mov	r8, r2
 2889              		.loc 1 392 24 view .LVU748
 2890 0246 013B     		subs	r3, r3, #1
 2891              		.loc 1 392 5 view .LVU749
 2892 0248 012B     		cmp	r3, #1
 2893 024a C4D8     		bhi	.L83
 2894              	.LVL234:
 2895              	.L101:
 2896              		.loc 1 393 4 is_stmt 1 view .LVU750
 2897              	.LBB531:
 2898              	.LBI531:
 2899              		.loc 1 137 13 view .LVU751
 2900              	.LBB532:
 2901              		.loc 1 140 3 view .LVU752
 2902 024c AC21     		movs	r1, #172
 2903 024e B120     		movs	r0, #177
 2904 0250 FFF7FEFF 		bl	si5351_write
 2905              	.LVL235:
 2906              	.LBE532:
 2907              	.LBE531:
ARM GAS  /tmp/cc96bPPt.s 			page 52


 2908              		.loc 1 394 4 view .LVU753
 2909 0254 0123     		movs	r3, #1
 2910 0256 0022     		movs	r2, #0
 2911 0258 2021     		movs	r1, #32
 2912 025a 0020     		movs	r0, #0
 2913 025c FFF7FEFF 		bl	si5351_setupPLL
 2914              	.LVL236:
 2915              		.loc 1 396 5 view .LVU754
 2916              		.loc 1 396 8 is_stmt 0 view .LVU755
 2917 0260 4346     		mov	r3, r8
 2918 0262 302B     		cmp	r3, #48
 2919 0264 B7D0     		beq	.L83
 2920              	.L85:
 2921              		.loc 1 399 12 is_stmt 1 view .LVU756
 2922              		.loc 1 399 15 is_stmt 0 view .LVU757
 2923 0266 4346     		mov	r3, r8
 2924 0268 602B     		cmp	r3, #96
 2925 026a B8D1     		bne	.L84
 2926 026c 33E7     		b	.L80
 2927              	.LVL237:
 2928              	.L120:
 2929              		.loc 1 386 5 is_stmt 1 view .LVU758
 2930              	.LBB533:
 2931              		.loc 1 121 13 view .LVU759
 2932              	.LBB397:
 2933              		.loc 1 123 3 view .LVU760
 2934              		.loc 1 124 3 view .LVU761
 2935 026e FF21     		movs	r1, #255
 2936 0270 0320     		movs	r0, #3
 2937 0272 FFF7FEFF 		bl	si5351_write
 2938              	.LVL238:
 2939              		.loc 1 125 3 view .LVU762
 2940              		.loc 1 126 3 view .LVU763
 2941              		.loc 1 127 3 view .LVU764
 2942              		.loc 1 128 3 view .LVU765
 2943              		.loc 1 125 10 is_stmt 0 view .LVU766
 2944 0276 0F4B     		ldr	r3, .L123+16
 2945              		.loc 1 129 3 view .LVU767
 2946 0278 0421     		movs	r1, #4
 2947 027a 03A8     		add	r0, sp, #12
 2948              		.loc 1 125 10 view .LVU768
 2949 027c 0393     		str	r3, [sp, #12]
 2950              		.loc 1 129 3 is_stmt 1 view .LVU769
 2951 027e FFF7FEFF 		bl	si5351_bulk_write
 2952              	.LVL239:
 2953              	.LBE397:
 2954              	.LBE533:
 2955              		.loc 1 389 3 view .LVU770
 2956 0282 32E7     		b	.L98
 2957              	.LVL240:
 2958              	.L121:
 2959              	.LBB534:
 2960              	.LBB506:
 2961              		.loc 1 102 5 view .LVU771
 2962              		.loc 1 102 21 is_stmt 0 view .LVU772
 2963 0284 0122     		movs	r2, #1
 2964 0286 114B     		ldr	r3, .L123+40
ARM GAS  /tmp/cc96bPPt.s 			page 53


 2965              	.LBE506:
 2966              	.LBE534:
 2967              	.LBB535:
 2968              	.LBB526:
 2969              		.loc 1 134 3 view .LVU773
 2970 0288 0021     		movs	r1, #0
 2971 028a 0320     		movs	r0, #3
 2972              	.LBE526:
 2973              	.LBE535:
 2974              	.LBB536:
 2975              	.LBB507:
 2976              		.loc 1 102 21 view .LVU774
 2977 028c 1A70     		strb	r2, [r3]
 2978              	.LBE507:
 2979              	.LBE536:
 2980              		.loc 1 440 5 is_stmt 1 view .LVU775
 2981              	.LBB537:
 2982              		.loc 1 132 13 view .LVU776
 2983              	.LBB527:
 2984              		.loc 1 134 3 view .LVU777
 2985 028e FFF7FEFF 		bl	si5351_write
 2986              	.LVL241:
 2987              	.LBE527:
 2988              	.LBE537:
 2989              		.loc 1 442 5 view .LVU778
 2990              		.loc 1 442 11 is_stmt 0 view .LVU779
 2991 0292 0D20     		movs	r0, #13
 2992 0294 10E7     		b	.L87
 2993              	.LVL242:
 2994              	.L81:
 2995              		.loc 1 385 3 is_stmt 1 view .LVU780
 2996              		.loc 1 385 6 is_stmt 0 view .LVU781
 2997 0296 3368     		ldr	r3, [r6]
 2998 0298 002B     		cmp	r3, #0
 2999 029a 00D1     		bne	.LCB2798
 3000 029c 1EE7     		b	.L115	@long jump
 3001              	.LCB2798:
 3002              		.loc 1 359 12 view .LVU782
 3003 029e 0023     		movs	r3, #0
 3004 02a0 9846     		mov	r8, r3
 3005 02a2 6BE7     		b	.L79
 3006              	.L124:
 3007              		.align	2
 3008              	.L123:
 3009 02a4 00000000 		.word	config
 3010 02a8 00E1F505 		.word	100000000
 3011 02ac 80D1F008 		.word	150000000
 3012 02b0 00000000 		.word	.LANCHOR1
 3013 02b4 10808080 		.word	-2139062256
 3014 02b8 00127A00 		.word	8000000
 3015 02bc 20A10700 		.word	500000
 3016 02c0 E7030000 		.word	999
 3017 02c4 00093D00 		.word	4000000
 3018 02c8 00509731 		.word	832000000
 3019 02cc 00000000 		.word	pll_lock_failed
 3020              		.cfi_endproc
 3021              	.LFE167:
ARM GAS  /tmp/cc96bPPt.s 			page 54


 3022              		.size	si5351_set_frequency_with_offset, .-si5351_set_frequency_with_offset
 3023              		.section	.data.current_band,"aw"
 3024              		.align	2
 3025              		.set	.LANCHOR1,. + 0
 3026              		.type	current_band, %object
 3027              		.size	current_band, 4
 3028              	current_band:
 3029 0000 FFFFFFFF 		.word	-1
 3030              		.section	.rodata.si5351_configs,"a"
 3031              		.align	2
 3032              		.set	.LANCHOR0,. + 0
 3033              		.type	si5351_configs, %object
 3034              		.size	si5351_configs, 41
 3035              	si5351_configs:
 3036 0000 02       		.byte	2
 3037 0001 03       		.byte	3
 3038 0002 FF       		.byte	-1
 3039 0003 04       		.byte	4
 3040 0004 10       		.byte	16
 3041 0005 80       		.byte	-128
 3042 0006 80       		.byte	-128
 3043 0007 80       		.byte	-128
 3044 0008 02       		.byte	2
 3045 0009 B7       		.byte	-73
 3046 000a 80       		.byte	-128
 3047 000b 09       		.byte	9
 3048 000c 1A       		.byte	26
 3049 000d 00       		.byte	0
 3050 000e 01       		.byte	1
 3051 000f 00       		.byte	0
 3052 0010 0E       		.byte	14
 3053 0011 00       		.byte	0
 3054 0012 00       		.byte	0
 3055 0013 00       		.byte	0
 3056 0014 00       		.byte	0
 3057 0015 02       		.byte	2
 3058 0016 B1       		.byte	-79
 3059 0017 A0       		.byte	-96
 3060 0018 09       		.byte	9
 3061 0019 3A       		.byte	58
 3062 001a 00       		.byte	0
 3063 001b 01       		.byte	1
 3064 001c 00       		.byte	0
 3065 001d 32       		.byte	50
 3066 001e 00       		.byte	0
 3067 001f 00       		.byte	0
 3068 0020 00       		.byte	0
 3069 0021 00       		.byte	0
 3070 0022 02       		.byte	2
 3071 0023 12       		.byte	18
 3072 0024 4C       		.byte	76
 3073 0025 02       		.byte	2
 3074 0026 03       		.byte	3
 3075 0027 00       		.byte	0
 3076 0028 00       		.byte	0
 3077              		.text
 3078              	.Letext0:
ARM GAS  /tmp/cc96bPPt.s 			page 55


 3079              		.file 8 "/opt/nanovna/gcc-arm-none-eabi-8-2018-q4-major/lib/gcc/arm-none-eabi/8.2.1/include/stddef
 3080              		.file 9 "/opt/nanovna/gcc-arm-none-eabi-8-2018-q4-major/arm-none-eabi/include/machine/_default_typ
 3081              		.file 10 "/opt/nanovna/gcc-arm-none-eabi-8-2018-q4-major/arm-none-eabi/include/sys/_stdint.h"
 3082              		.file 11 "ChibiOS/os/common/ports/ARMCMx/compilers/GCC/chtypes.h"
 3083              		.file 12 "ChibiOS/os/rt/include/chsystypes.h"
 3084              		.file 13 "ChibiOS/os/rt/include/chschd.h"
 3085              		.file 14 "ChibiOS/os/common/ext/CMSIS/ST/STM32F0xx/stm32f072xb.h"
 3086              		.file 15 "ChibiOS/os/common/ports/ARMCMx/chcore.h"
 3087              		.file 16 "ChibiOS/os/hal/ports/STM32/LLD/TIMv1/stm32_tim.h"
 3088              		.file 17 "ChibiOS/os/rt/include/chmtx.h"
 3089              		.file 18 "ChibiOS/os/common/ext/CMSIS/ST/STM32F0xx/system_stm32f0xx.h"
 3090              		.file 19 "ChibiOS/os/rt/include/chregistry.h"
 3091              		.file 20 "ChibiOS/os/rt/include/chevents.h"
 3092              		.file 21 "ChibiOS/os/hal/ports/STM32/LLD/DMAv1/stm32_dma.h"
 3093              		.file 22 "ChibiOS/os/hal/include/hal_queues.h"
 3094              		.file 23 "ChibiOS/os/hal/ports/STM32/LLD/GPIOv2/hal_pal_lld.h"
 3095              		.file 24 "ChibiOS/os/hal/include/hal_ext.h"
 3096              		.file 25 "ChibiOS/os/hal/ports/STM32/LLD/EXTIv1/hal_ext_lld.h"
 3097              		.file 26 "ChibiOS/os/hal/include/hal_gpt.h"
 3098              		.file 27 "ChibiOS/os/hal/ports/STM32/LLD/TIMv1/hal_gpt_lld.h"
 3099              		.file 28 "ChibiOS/os/hal/include/hal_i2c.h"
 3100              		.file 29 "ChibiOS/os/hal/ports/STM32/LLD/I2Cv2/hal_i2c_lld.h"
 3101              		.file 30 "ChibiOS/os/hal/include/hal_i2s.h"
 3102              		.file 31 "ChibiOS/os/hal/ports/STM32/LLD/SPIv2/hal_i2s_lld.h"
 3103              		.file 32 "/opt/nanovna/gcc-arm-none-eabi-8-2018-q4-major/arm-none-eabi/include/sys/lock.h"
 3104              		.file 33 "/opt/nanovna/gcc-arm-none-eabi-8-2018-q4-major/arm-none-eabi/include/sys/_types.h"
 3105              		.file 34 "/opt/nanovna/gcc-arm-none-eabi-8-2018-q4-major/arm-none-eabi/include/sys/reent.h"
 3106              		.file 35 "/opt/nanovna/gcc-arm-none-eabi-8-2018-q4-major/arm-none-eabi/include/time.h"
 3107              		.file 36 "ChibiOS/os/hal/include/hal_rtc.h"
 3108              		.file 37 "ChibiOS/os/hal/ports/STM32/LLD/RTCv2/hal_rtc_lld.h"
 3109              		.file 38 "ChibiOS/os/hal/include/hal_serial.h"
 3110              		.file 39 "ChibiOS/os/hal/ports/STM32/LLD/USARTv2/hal_serial_lld.h"
 3111              		.file 40 "ChibiOS/os/hal/include/hal_spi.h"
 3112              		.file 41 "ChibiOS/os/hal/ports/STM32/LLD/SPIv2/hal_spi_lld.h"
 3113              		.file 42 "ChibiOS/os/hal/include/hal_usb.h"
 3114              		.file 43 "ChibiOS/os/hal/ports/STM32/LLD/USBv1/hal_usb_lld.h"
 3115              		.file 44 "nanovna.h"