ARM GAS  /tmp/ccsOMaZS.s 			page 1


   1              		.cpu cortex-m0
   2              		.eabi_attribute 20, 1
   3              		.eabi_attribute 21, 1
   4              		.eabi_attribute 23, 3
   5              		.eabi_attribute 24, 1
   6              		.eabi_attribute 25, 1
   7              		.eabi_attribute 26, 1
   8              		.eabi_attribute 30, 2
   9              		.eabi_attribute 34, 0
  10              		.eabi_attribute 18, 4
  11              		.file	"tlv320aic3204.c"
  12              		.text
  13              	.Ltext0:
  14              		.cfi_sections	.debug_frame
  15              		.section	.text.tlv320aic3204_bulk_write,"ax",%progbits
  16              		.align	1
  17              		.p2align 4,,15
  18              		.arch armv6s-m
  19              		.syntax unified
  20              		.code	16
  21              		.thumb_func
  22              		.fpu softvfp
  23              		.type	tlv320aic3204_bulk_write, %function
  24              	tlv320aic3204_bulk_write:
  25              	.LVL0:
  26              	.LFB152:
  27              		.file 1 "tlv320aic3204.c"
  28              		.loc 1 90 1 view -0
  29              		.cfi_startproc
  30              		@ args = 0, pretend = 0, frame = 0
  31              		@ frame_needed = 0, uses_anonymous_args = 0
  32              		.loc 1 91 3 view .LVU1
  33              		.loc 1 92 3 view .LVU2
  34              		.loc 1 90 1 is_stmt 0 view .LVU3
  35 0000 70B5     		push	{r4, r5, r6, lr}
  36              		.cfi_def_cfa_offset 16
  37              		.cfi_offset 4, -16
  38              		.cfi_offset 5, -12
  39              		.cfi_offset 6, -8
  40              		.cfi_offset 14, -4
  41              		.loc 1 92 3 view .LVU4
  42 0002 0C4C     		ldr	r4, .L3
  43              		.loc 1 90 1 view .LVU5
  44 0004 84B0     		sub	sp, sp, #16
  45              		.cfi_def_cfa_offset 32
  46              		.loc 1 90 1 view .LVU6
  47 0006 0500     		movs	r5, r0
  48              		.loc 1 92 3 view .LVU7
  49 0008 2000     		movs	r0, r4
  50              	.LVL1:
  51              		.loc 1 90 1 view .LVU8
  52 000a 0E00     		movs	r6, r1
  53              		.loc 1 92 3 view .LVU9
  54 000c FFF7FEFF 		bl	i2cAcquireBus
  55              	.LVL2:
  56              		.loc 1 93 3 is_stmt 1 view .LVU10
  57              		.loc 1 93 9 is_stmt 0 view .LVU11
ARM GAS  /tmp/ccsOMaZS.s 			page 2


  58 0010 FA23     		movs	r3, #250
  59 0012 9B00     		lsls	r3, r3, #2
  60 0014 0293     		str	r3, [sp, #8]
  61 0016 0023     		movs	r3, #0
  62 0018 2A00     		movs	r2, r5
  63 001a 0193     		str	r3, [sp, #4]
  64 001c 0093     		str	r3, [sp]
  65 001e 1821     		movs	r1, #24
  66 0020 3300     		movs	r3, r6
  67 0022 2000     		movs	r0, r4
  68 0024 FFF7FEFF 		bl	i2cMasterTransmitTimeout
  69              	.LVL3:
  70              		.loc 1 94 3 is_stmt 1 view .LVU12
  71 0028 2000     		movs	r0, r4
  72 002a FFF7FEFF 		bl	i2cReleaseBus
  73              	.LVL4:
  74              		.loc 1 95 1 is_stmt 0 view .LVU13
  75 002e 04B0     		add	sp, sp, #16
  76              		@ sp needed
  77              	.LVL5:
  78              	.LVL6:
  79              		.loc 1 95 1 view .LVU14
  80 0030 70BD     		pop	{r4, r5, r6, pc}
  81              	.L4:
  82 0032 C046     		.align	2
  83              	.L3:
  84 0034 00000000 		.word	I2CD1
  85              		.cfi_endproc
  86              	.LFE152:
  87              		.size	tlv320aic3204_bulk_write, .-tlv320aic3204_bulk_write
  88              		.section	.text.tlv320aic3204_init,"ax",%progbits
  89              		.align	1
  90              		.p2align 4,,15
  91              		.global	tlv320aic3204_init
  92              		.syntax unified
  93              		.code	16
  94              		.thumb_func
  95              		.fpu softvfp
  96              		.type	tlv320aic3204_init, %function
  97              	tlv320aic3204_init:
  98              	.LFB154:
  99              		.loc 1 120 1 is_stmt 1 view -0
 100              		.cfi_startproc
 101              		@ args = 0, pretend = 0, frame = 0
 102              		@ frame_needed = 0, uses_anonymous_args = 0
 103              		.loc 1 121 3 view .LVU16
 104              	.LVL7:
 105              	.LBB20:
 106              	.LBI20:
 107              		.loc 1 109 13 view .LVU17
 108              	.LBB21:
 109              		.loc 1 111 3 view .LVU18
 110              		.loc 1 112 3 view .LVU19
 111              		.loc 1 112 3 is_stmt 0 view .LVU20
 112              	.LBE21:
 113              	.LBE20:
 114              		.loc 1 120 1 view .LVU21
ARM GAS  /tmp/ccsOMaZS.s 			page 3


 115 0000 70B5     		push	{r4, r5, r6, lr}
 116              		.cfi_def_cfa_offset 16
 117              		.cfi_offset 4, -16
 118              		.cfi_offset 5, -12
 119              		.cfi_offset 6, -8
 120              		.cfi_offset 14, -4
 121              	.LBB24:
 122              	.LBB23:
 123              		.loc 1 112 10 view .LVU22
 124 0002 0225     		movs	r5, #2
 125              		.loc 1 111 18 view .LVU23
 126 0004 174C     		ldr	r4, .L14
 127              	.LVL8:
 128              	.L6:
 129              	.LBB22:
 130              		.loc 1 113 5 is_stmt 1 view .LVU24
 131              		.loc 1 113 21 is_stmt 0 view .LVU25
 132 0006 0134     		adds	r4, r4, #1
 133              	.LVL9:
 134              		.loc 1 114 5 is_stmt 1 view .LVU26
 135 0008 2900     		movs	r1, r5
 136 000a 2000     		movs	r0, r4
 137              		.loc 1 115 7 is_stmt 0 view .LVU27
 138 000c 6419     		adds	r4, r4, r5
 139              	.LVL10:
 140              		.loc 1 114 5 view .LVU28
 141 000e FFF7FEFF 		bl	tlv320aic3204_bulk_write
 142              	.LVL11:
 143              		.loc 1 115 5 is_stmt 1 view .LVU29
 144              		.loc 1 115 5 is_stmt 0 view .LVU30
 145              	.LBE22:
 146              		.loc 1 112 10 view .LVU31
 147 0012 2578     		ldrb	r5, [r4]
 148              	.LVL12:
 149              		.loc 1 112 9 view .LVU32
 150 0014 002D     		cmp	r5, #0
 151 0016 F6D1     		bne	.L6
 152              	.LBE23:
 153              	.LBE24:
 154              	.LBB25:
 155              	.LBB26:
 156              		.loc 1 111 18 view .LVU33
 157 0018 134C     		ldr	r4, .L14+4
 158              	.LVL13:
 159              		.loc 1 112 10 view .LVU34
 160 001a 0235     		adds	r5, r5, #2
 161              	.L7:
 162              	.LVL14:
 163              	.LBB27:
 164              		.loc 1 113 5 is_stmt 1 view .LVU35
 165              		.loc 1 113 21 is_stmt 0 view .LVU36
 166 001c 0134     		adds	r4, r4, #1
 167              	.LVL15:
 168              		.loc 1 114 5 is_stmt 1 view .LVU37
 169 001e 2900     		movs	r1, r5
 170 0020 2000     		movs	r0, r4
 171              		.loc 1 115 7 is_stmt 0 view .LVU38
ARM GAS  /tmp/ccsOMaZS.s 			page 4


 172 0022 6419     		adds	r4, r4, r5
 173              	.LVL16:
 174              		.loc 1 114 5 view .LVU39
 175 0024 FFF7FEFF 		bl	tlv320aic3204_bulk_write
 176              	.LVL17:
 177              		.loc 1 115 5 is_stmt 1 view .LVU40
 178              		.loc 1 115 5 is_stmt 0 view .LVU41
 179              	.LBE27:
 180              		.loc 1 112 10 view .LVU42
 181 0028 2578     		ldrb	r5, [r4]
 182              	.LVL18:
 183              		.loc 1 112 9 view .LVU43
 184 002a 002D     		cmp	r5, #0
 185 002c F6D1     		bne	.L7
 186              	.LBE26:
 187              	.LBE25:
 188              	.LBB28:
 189              	.LBB29:
 190              		.loc 1 111 18 view .LVU44
 191 002e 0F4C     		ldr	r4, .L14+8
 192              	.LVL19:
 193              		.loc 1 112 10 view .LVU45
 194 0030 0235     		adds	r5, r5, #2
 195              	.L8:
 196              	.LVL20:
 197              	.LBB30:
 198              		.loc 1 113 5 is_stmt 1 view .LVU46
 199              		.loc 1 113 21 is_stmt 0 view .LVU47
 200 0032 0134     		adds	r4, r4, #1
 201              	.LVL21:
 202              		.loc 1 114 5 is_stmt 1 view .LVU48
 203 0034 2900     		movs	r1, r5
 204 0036 2000     		movs	r0, r4
 205              		.loc 1 115 7 is_stmt 0 view .LVU49
 206 0038 6419     		adds	r4, r4, r5
 207              	.LVL22:
 208              		.loc 1 114 5 view .LVU50
 209 003a FFF7FEFF 		bl	tlv320aic3204_bulk_write
 210              	.LVL23:
 211              		.loc 1 115 5 is_stmt 1 view .LVU51
 212              		.loc 1 115 5 is_stmt 0 view .LVU52
 213              	.LBE30:
 214              		.loc 1 112 10 view .LVU53
 215 003e 2578     		ldrb	r5, [r4]
 216              	.LVL24:
 217              		.loc 1 112 9 view .LVU54
 218 0040 002D     		cmp	r5, #0
 219 0042 F6D1     		bne	.L8
 220              	.LVL25:
 221              		.loc 1 112 9 view .LVU55
 222              	.LBE29:
 223              	.LBE28:
 224              		.loc 1 124 3 is_stmt 1 view .LVU56
 225 0044 C820     		movs	r0, #200
 226 0046 4000     		lsls	r0, r0, #1
 227 0048 FFF7FEFF 		bl	chThdSleep
 228              	.LVL26:
ARM GAS  /tmp/ccsOMaZS.s 			page 5


 229              		.loc 1 125 3 view .LVU57
 230              	.LBB31:
 231              	.LBI31:
 232              		.loc 1 109 13 view .LVU58
 233              	.LBB32:
 234              		.loc 1 111 18 is_stmt 0 view .LVU59
 235 004c 084C     		ldr	r4, .L14+12
 236              		.loc 1 112 10 view .LVU60
 237 004e 0235     		adds	r5, r5, #2
 238              	.LVL27:
 239              	.L9:
 240              	.LBB33:
 241              		.loc 1 113 5 is_stmt 1 view .LVU61
 242              		.loc 1 113 21 is_stmt 0 view .LVU62
 243 0050 0134     		adds	r4, r4, #1
 244              	.LVL28:
 245              		.loc 1 114 5 is_stmt 1 view .LVU63
 246 0052 2900     		movs	r1, r5
 247 0054 2000     		movs	r0, r4
 248              		.loc 1 115 7 is_stmt 0 view .LVU64
 249 0056 6419     		adds	r4, r4, r5
 250              	.LVL29:
 251              		.loc 1 114 5 view .LVU65
 252 0058 FFF7FEFF 		bl	tlv320aic3204_bulk_write
 253              	.LVL30:
 254              		.loc 1 115 5 is_stmt 1 view .LVU66
 255              		.loc 1 115 5 is_stmt 0 view .LVU67
 256              	.LBE33:
 257              		.loc 1 112 10 view .LVU68
 258 005c 2578     		ldrb	r5, [r4]
 259              	.LVL31:
 260              		.loc 1 112 9 view .LVU69
 261 005e 002D     		cmp	r5, #0
 262 0060 F6D1     		bne	.L9
 263              	.LBE32:
 264              	.LBE31:
 265              		.loc 1 126 1 view .LVU70
 266              		@ sp needed
 267              	.LVL32:
 268              		.loc 1 126 1 view .LVU71
 269 0062 70BD     		pop	{r4, r5, r6, pc}
 270              	.L15:
 271              		.align	2
 272              	.L14:
 273 0064 00000000 		.word	.LANCHOR0
 274 0068 00000000 		.word	.LANCHOR1
 275 006c 00000000 		.word	.LANCHOR2
 276 0070 00000000 		.word	.LANCHOR3
 277              		.cfi_endproc
 278              	.LFE154:
 279              		.size	tlv320aic3204_init, .-tlv320aic3204_init
 280              		.section	.text.tlv320aic3204_select,"ax",%progbits
 281              		.align	1
 282              		.p2align 4,,15
 283              		.global	tlv320aic3204_select
 284              		.syntax unified
 285              		.code	16
ARM GAS  /tmp/ccsOMaZS.s 			page 6


 286              		.thumb_func
 287              		.fpu softvfp
 288              		.type	tlv320aic3204_select, %function
 289              	tlv320aic3204_select:
 290              	.LVL33:
 291              	.LFB155:
 292              		.loc 1 129 1 is_stmt 1 view -0
 293              		.cfi_startproc
 294              		@ args = 0, pretend = 0, frame = 24
 295              		@ frame_needed = 0, uses_anonymous_args = 0
 296              		.loc 1 130 5 view .LVU73
 297              		.loc 1 129 1 is_stmt 0 view .LVU74
 298 0000 70B5     		push	{r4, r5, r6, lr}
 299              		.cfi_def_cfa_offset 16
 300              		.cfi_offset 4, -16
 301              		.cfi_offset 5, -12
 302              		.cfi_offset 6, -8
 303              		.cfi_offset 14, -4
 304 0002 86B0     		sub	sp, sp, #24
 305              		.cfi_def_cfa_offset 40
 306              		.loc 1 130 19 view .LVU75
 307 0004 6946     		mov	r1, sp
 308 0006 0F4A     		ldr	r2, .L26
 309 0008 0B00     		movs	r3, r1
 310 000a 1400     		movs	r4, r2
 311 000c 60CC     		ldmia	r4!, {r5, r6}
 312 000e 60C3     		stmia	r3!, {r5, r6}
 313 0010 2488     		ldrh	r4, [r4]
 314              		.loc 1 136 19 view .LVU76
 315 0012 0C32     		adds	r2, r2, #12
 316              		.loc 1 130 19 view .LVU77
 317 0014 1C80     		strh	r4, [r3]
 318              		.loc 1 136 5 is_stmt 1 view .LVU78
 319              		.loc 1 136 19 is_stmt 0 view .LVU79
 320 0016 03AB     		add	r3, sp, #12
 321 0018 1C00     		movs	r4, r3
 322 001a 60CA     		ldmia	r2!, {r5, r6}
 323 001c 60C4     		stmia	r4!, {r5, r6}
 324 001e 1288     		ldrh	r2, [r2]
 325 0020 2280     		strh	r2, [r4]
 326              		.loc 1 142 5 is_stmt 1 view .LVU80
 327 0022 1C00     		movs	r4, r3
 328 0024 0028     		cmp	r0, #0
 329 0026 07D1     		bne	.L25
 330 0028 0C00     		movs	r4, r1
 331              	.LVL34:
 332              		.loc 1 142 5 is_stmt 0 view .LVU81
 333 002a 05E0     		b	.L25
 334              	.LVL35:
 335              	.L19:
 336              	.LBB34:
 337              	.LBB35:
 338              	.LBB36:
 339              		.loc 1 113 5 is_stmt 1 view .LVU82
 340              		.loc 1 113 21 is_stmt 0 view .LVU83
 341 002c 0134     		adds	r4, r4, #1
 342              	.LVL36:
ARM GAS  /tmp/ccsOMaZS.s 			page 7


 343              		.loc 1 114 5 is_stmt 1 view .LVU84
 344 002e 2000     		movs	r0, r4
 345 0030 2900     		movs	r1, r5
 346 0032 FFF7FEFF 		bl	tlv320aic3204_bulk_write
 347              	.LVL37:
 348              		.loc 1 115 5 view .LVU85
 349              		.loc 1 115 7 is_stmt 0 view .LVU86
 350 0036 6419     		adds	r4, r4, r5
 351              	.LVL38:
 352              	.L25:
 353              		.loc 1 115 7 view .LVU87
 354              	.LBE36:
 355              		.loc 1 112 10 view .LVU88
 356 0038 2578     		ldrb	r5, [r4]
 357              		.loc 1 112 9 view .LVU89
 358 003a 002D     		cmp	r5, #0
 359 003c F6D1     		bne	.L19
 360              	.LBE35:
 361              	.LBE34:
 362              		.loc 1 143 1 view .LVU90
 363 003e 06B0     		add	sp, sp, #24
 364              		@ sp needed
 365              	.LVL39:
 366              		.loc 1 143 1 view .LVU91
 367 0040 70BD     		pop	{r4, r5, r6, pc}
 368              	.L27:
 369 0042 C046     		.align	2
 370              	.L26:
 371 0044 00000000 		.word	.LANCHOR4
 372              		.cfi_endproc
 373              	.LFE155:
 374              		.size	tlv320aic3204_select, .-tlv320aic3204_select
 375              		.section	.text.tlv320aic3204_set_gain,"ax",%progbits
 376              		.align	1
 377              		.p2align 4,,15
 378              		.global	tlv320aic3204_set_gain
 379              		.syntax unified
 380              		.code	16
 381              		.thumb_func
 382              		.fpu softvfp
 383              		.type	tlv320aic3204_set_gain, %function
 384              	tlv320aic3204_set_gain:
 385              	.LVL40:
 386              	.LFB156:
 387              		.loc 1 146 1 is_stmt 1 view -0
 388              		.cfi_startproc
 389              		@ args = 0, pretend = 0, frame = 16
 390              		@ frame_needed = 0, uses_anonymous_args = 0
 391              		.loc 1 147 5 view .LVU93
 392              		.loc 1 147 13 is_stmt 0 view .LVU94
 393 0000 3B22     		movs	r2, #59
 394              		.loc 1 146 1 view .LVU95
 395 0002 30B5     		push	{r4, r5, lr}
 396              		.cfi_def_cfa_offset 12
 397              		.cfi_offset 4, -12
 398              		.cfi_offset 5, -8
 399              		.cfi_offset 14, -4
ARM GAS  /tmp/ccsOMaZS.s 			page 8


 400              		.loc 1 147 13 view .LVU96
 401 0004 0B4B     		ldr	r3, .L31
 402              		.loc 1 146 1 view .LVU97
 403 0006 85B0     		sub	sp, sp, #20
 404              		.cfi_def_cfa_offset 32
 405              		.loc 1 147 13 view .LVU98
 406 0008 0193     		str	r3, [sp, #4]
 407 000a 01AB     		add	r3, sp, #4
 408 000c 1A71     		strb	r2, [r3, #4]
 409 000e 0A4A     		ldr	r2, .L31+4
 410              	.LBB37:
 411              	.LBB38:
 412              		.loc 1 112 10 view .LVU99
 413 0010 0225     		movs	r5, #2
 414              	.LBE38:
 415              	.LBE37:
 416              		.loc 1 147 13 view .LVU100
 417 0012 DA80     		strh	r2, [r3, #6]
 418 0014 0022     		movs	r2, #0
 419              	.LBB42:
 420              	.LBB40:
 421              		.loc 1 111 18 view .LVU101
 422 0016 1C00     		movs	r4, r3
 423              	.LBE40:
 424              	.LBE42:
 425              		.loc 1 147 13 view .LVU102
 426 0018 5871     		strb	r0, [r3, #5]
 427 001a 1972     		strb	r1, [r3, #8]
 428 001c 5A72     		strb	r2, [r3, #9]
 429              		.loc 1 153 5 is_stmt 1 view .LVU103
 430              	.LVL41:
 431              	.LBB43:
 432              	.LBI37:
 433              		.loc 1 109 13 view .LVU104
 434              	.LBB41:
 435              		.loc 1 111 3 view .LVU105
 436              		.loc 1 112 3 view .LVU106
 437              	.L29:
 438              	.LBB39:
 439              		.loc 1 113 5 view .LVU107
 440              		.loc 1 113 21 is_stmt 0 view .LVU108
 441 001e 0134     		adds	r4, r4, #1
 442              	.LVL42:
 443              		.loc 1 114 5 is_stmt 1 view .LVU109
 444 0020 2900     		movs	r1, r5
 445 0022 2000     		movs	r0, r4
 446              		.loc 1 115 7 is_stmt 0 view .LVU110
 447 0024 6419     		adds	r4, r4, r5
 448              	.LVL43:
 449              		.loc 1 114 5 view .LVU111
 450 0026 FFF7FEFF 		bl	tlv320aic3204_bulk_write
 451              	.LVL44:
 452              		.loc 1 115 5 is_stmt 1 view .LVU112
 453              		.loc 1 115 5 is_stmt 0 view .LVU113
 454              	.LBE39:
 455              		.loc 1 112 10 view .LVU114
 456 002a 2578     		ldrb	r5, [r4]
ARM GAS  /tmp/ccsOMaZS.s 			page 9


 457              	.LVL45:
 458              		.loc 1 112 9 view .LVU115
 459 002c 002D     		cmp	r5, #0
 460 002e F6D1     		bne	.L29
 461              	.LBE41:
 462              	.LBE43:
 463              		.loc 1 154 1 view .LVU116
 464 0030 05B0     		add	sp, sp, #20
 465              		@ sp needed
 466              	.LVL46:
 467              		.loc 1 154 1 view .LVU117
 468 0032 30BD     		pop	{r4, r5, pc}
 469              	.L32:
 470              		.align	2
 471              	.L31:
 472 0034 02000102 		.word	33619970
 473 0038 023C0000 		.word	15362
 474              		.cfi_endproc
 475              	.LFE156:
 476              		.size	tlv320aic3204_set_gain, .-tlv320aic3204_set_gain
 477              		.section	.rodata
 478              		.align	2
 479              		.set	.LANCHOR4,. + 0
 480              	.LC0:
 481 0000 02       		.byte	2
 482 0001 00       		.byte	0
 483 0002 01       		.byte	1
 484 0003 02       		.byte	2
 485 0004 37       		.byte	55
 486 0005 04       		.byte	4
 487 0006 02       		.byte	2
 488 0007 39       		.byte	57
 489 0008 04       		.byte	4
 490 0009 00       		.byte	0
 491 000a 0000     		.space	2
 492              	.LC1:
 493 000c 02       		.byte	2
 494 000d 00       		.byte	0
 495 000e 01       		.byte	1
 496 000f 02       		.byte	2
 497 0010 37       		.byte	55
 498 0011 40       		.byte	64
 499 0012 02       		.byte	2
 500 0013 39       		.byte	57
 501 0014 10       		.byte	16
 502 0015 00       		.byte	0
 503              		.section	.rodata.conf_data_clk,"a"
 504              		.align	2
 505              		.set	.LANCHOR1,. + 0
 506              		.type	conf_data_clk, %object
 507              		.size	conf_data_clk, 37
 508              	conf_data_clk:
 509 0000 02       		.byte	2
 510 0001 0B       		.byte	11
 511 0002 82       		.byte	-126
 512 0003 02       		.byte	2
 513 0004 0C       		.byte	12
ARM GAS  /tmp/ccsOMaZS.s 			page 10


 514 0005 87       		.byte	-121
 515 0006 02       		.byte	2
 516 0007 0D       		.byte	13
 517 0008 00       		.byte	0
 518 0009 02       		.byte	2
 519 000a 0E       		.byte	14
 520 000b 80       		.byte	-128
 521 000c 02       		.byte	2
 522 000d 3C       		.byte	60
 523 000e 08       		.byte	8
 524 000f 02       		.byte	2
 525 0010 1B       		.byte	27
 526 0011 0C       		.byte	12
 527 0012 02       		.byte	2
 528 0013 1E       		.byte	30
 529 0014 9C       		.byte	-100
 530 0015 02       		.byte	2
 531 0016 25       		.byte	37
 532 0017 EE       		.byte	-18
 533 0018 02       		.byte	2
 534 0019 12       		.byte	18
 535 001a 82       		.byte	-126
 536 001b 02       		.byte	2
 537 001c 13       		.byte	19
 538 001d 87       		.byte	-121
 539 001e 02       		.byte	2
 540 001f 14       		.byte	20
 541 0020 80       		.byte	-128
 542 0021 02       		.byte	2
 543 0022 3D       		.byte	61
 544 0023 01       		.byte	1
 545 0024 00       		.byte	0
 546              		.section	.rodata.conf_data_pll,"a"
 547              		.align	2
 548              		.set	.LANCHOR0,. + 0
 549              		.type	conf_data_pll, %object
 550              		.size	conf_data_pll, 22
 551              	conf_data_pll:
 552 0000 02       		.byte	2
 553 0001 00       		.byte	0
 554 0002 00       		.byte	0
 555 0003 02       		.byte	2
 556 0004 01       		.byte	1
 557 0005 01       		.byte	1
 558 0006 02       		.byte	2
 559 0007 04       		.byte	4
 560 0008 43       		.byte	67
 561 0009 02       		.byte	2
 562 000a 05       		.byte	5
 563 000b 91       		.byte	-111
 564 000c 02       		.byte	2
 565 000d 06       		.byte	6
 566 000e 0A       		.byte	10
 567 000f 02       		.byte	2
 568 0010 07       		.byte	7
 569 0011 1D       		.byte	29
 570 0012 02       		.byte	2
ARM GAS  /tmp/ccsOMaZS.s 			page 11


 571 0013 08       		.byte	8
 572 0014 60       		.byte	96
 573 0015 00       		.byte	0
 574              		.section	.rodata.conf_data_routing,"a"
 575              		.align	2
 576              		.set	.LANCHOR2,. + 0
 577              		.type	conf_data_routing, %object
 578              		.size	conf_data_routing, 46
 579              	conf_data_routing:
 580 0000 02       		.byte	2
 581 0001 00       		.byte	0
 582 0002 01       		.byte	1
 583 0003 02       		.byte	2
 584 0004 01       		.byte	1
 585 0005 08       		.byte	8
 586 0006 02       		.byte	2
 587 0007 02       		.byte	2
 588 0008 01       		.byte	1
 589 0009 02       		.byte	2
 590 000a 7B       		.byte	123
 591 000b 01       		.byte	1
 592 000c 02       		.byte	2
 593 000d 14       		.byte	20
 594 000e 25       		.byte	37
 595 000f 02       		.byte	2
 596 0010 0A       		.byte	10
 597 0011 33       		.byte	51
 598 0012 02       		.byte	2
 599 0013 3D       		.byte	61
 600 0014 00       		.byte	0
 601 0015 02       		.byte	2
 602 0016 47       		.byte	71
 603 0017 32       		.byte	50
 604 0018 02       		.byte	2
 605 0019 7B       		.byte	123
 606 001a 01       		.byte	1
 607 001b 02       		.byte	2
 608 001c 34       		.byte	52
 609 001d 10       		.byte	16
 610 001e 02       		.byte	2
 611 001f 36       		.byte	54
 612 0020 10       		.byte	16
 613 0021 02       		.byte	2
 614 0022 37       		.byte	55
 615 0023 04       		.byte	4
 616 0024 02       		.byte	2
 617 0025 39       		.byte	57
 618 0026 04       		.byte	4
 619 0027 02       		.byte	2
 620 0028 3B       		.byte	59
 621 0029 00       		.byte	0
 622 002a 02       		.byte	2
 623 002b 3C       		.byte	60
 624 002c 00       		.byte	0
 625 002d 00       		.byte	0
 626              		.section	.rodata.conf_data_unmute,"a"
 627              		.align	2
ARM GAS  /tmp/ccsOMaZS.s 			page 12


 628              		.set	.LANCHOR3,. + 0
 629              		.type	conf_data_unmute, %object
 630              		.size	conf_data_unmute, 10
 631              	conf_data_unmute:
 632 0000 02       		.byte	2
 633 0001 00       		.byte	0
 634 0002 00       		.byte	0
 635 0003 02       		.byte	2
 636 0004 51       		.byte	81
 637 0005 C0       		.byte	-64
 638 0006 02       		.byte	2
 639 0007 52       		.byte	82
 640 0008 00       		.byte	0
 641 0009 00       		.byte	0
 642              		.text
 643              	.Letext0:
 644              		.file 2 "/opt/nanovna/gcc-arm-none-eabi-8-2018-q4-major/lib/gcc/arm-none-eabi/8.2.1/include/stddef
 645              		.file 3 "/opt/nanovna/gcc-arm-none-eabi-8-2018-q4-major/arm-none-eabi/include/machine/_default_typ
 646              		.file 4 "/opt/nanovna/gcc-arm-none-eabi-8-2018-q4-major/arm-none-eabi/include/sys/_stdint.h"
 647              		.file 5 "ChibiOS/os/common/ports/ARMCMx/compilers/GCC/chtypes.h"
 648              		.file 6 "ChibiOS/os/rt/include/chsystypes.h"
 649              		.file 7 "ChibiOS/os/rt/include/chschd.h"
 650              		.file 8 "ChibiOS/os/common/ext/CMSIS/ST/STM32F0xx/stm32f072xb.h"
 651              		.file 9 "ChibiOS/os/common/ports/ARMCMx/chcore.h"
 652              		.file 10 "ChibiOS/os/common/ports/ARMCMx/chcore_v6m.h"
 653              		.file 11 "ChibiOS/os/hal/ports/STM32/LLD/TIMv1/stm32_tim.h"
 654              		.file 12 "ChibiOS/os/rt/include/chmtx.h"
 655              		.file 13 "ChibiOS/os/common/ext/CMSIS/ST/STM32F0xx/system_stm32f0xx.h"
 656              		.file 14 "ChibiOS/os/rt/include/chsys.h"
 657              		.file 15 "ChibiOS/os/rt/include/chregistry.h"
 658              		.file 16 "ChibiOS/os/rt/include/chevents.h"
 659              		.file 17 "ChibiOS/os/hal/ports/STM32/LLD/DMAv1/stm32_dma.h"
 660              		.file 18 "ChibiOS/os/hal/include/hal_queues.h"
 661              		.file 19 "ChibiOS/os/hal/ports/STM32/LLD/GPIOv2/hal_pal_lld.h"
 662              		.file 20 "ChibiOS/os/hal/include/hal_ext.h"
 663              		.file 21 "ChibiOS/os/hal/ports/STM32/LLD/EXTIv1/hal_ext_lld.h"
 664              		.file 22 "ChibiOS/os/hal/include/hal_gpt.h"
 665              		.file 23 "ChibiOS/os/hal/ports/STM32/LLD/TIMv1/hal_gpt_lld.h"
 666              		.file 24 "ChibiOS/os/hal/include/hal_i2c.h"
 667              		.file 25 "ChibiOS/os/hal/ports/STM32/LLD/I2Cv2/hal_i2c_lld.h"
 668              		.file 26 "ChibiOS/os/hal/include/hal_i2s.h"
 669              		.file 27 "ChibiOS/os/hal/ports/STM32/LLD/SPIv2/hal_i2s_lld.h"
 670              		.file 28 "/opt/nanovna/gcc-arm-none-eabi-8-2018-q4-major/arm-none-eabi/include/sys/lock.h"
 671              		.file 29 "/opt/nanovna/gcc-arm-none-eabi-8-2018-q4-major/arm-none-eabi/include/sys/_types.h"
 672              		.file 30 "/opt/nanovna/gcc-arm-none-eabi-8-2018-q4-major/arm-none-eabi/include/sys/reent.h"
 673              		.file 31 "/opt/nanovna/gcc-arm-none-eabi-8-2018-q4-major/arm-none-eabi/include/time.h"
 674              		.file 32 "ChibiOS/os/hal/include/hal_rtc.h"
 675              		.file 33 "ChibiOS/os/hal/ports/STM32/LLD/RTCv2/hal_rtc_lld.h"
 676              		.file 34 "ChibiOS/os/hal/include/hal_serial.h"
 677              		.file 35 "ChibiOS/os/hal/ports/STM32/LLD/USARTv2/hal_serial_lld.h"
 678              		.file 36 "ChibiOS/os/hal/include/hal_spi.h"
 679              		.file 37 "ChibiOS/os/hal/ports/STM32/LLD/SPIv2/hal_spi_lld.h"
 680              		.file 38 "ChibiOS/os/hal/include/hal_usb.h"
 681              		.file 39 "ChibiOS/os/hal/ports/STM32/LLD/USBv1/hal_usb_lld.h"
 682              		.file 40 "nanovna.h"
 683              		.file 41 "ChibiOS/os/rt/include/chthreads.h"