ARM GAS  /tmp/ccihmmVG.s 			page 1


   1              		.cpu cortex-m0
   2              		.eabi_attribute 20, 1
   3              		.eabi_attribute 21, 1
   4              		.eabi_attribute 23, 3
   5              		.eabi_attribute 24, 1
   6              		.eabi_attribute 25, 1
   7              		.eabi_attribute 26, 1
   8              		.eabi_attribute 30, 2
   9              		.eabi_attribute 34, 0
  10              		.eabi_attribute 18, 4
  11              		.file	"usbcfg.c"
  12              		.text
  13              	.Ltext0:
  14              		.cfi_sections	.debug_frame
  15              		.section	.text.get_descriptor,"ax",%progbits
  16              		.align	1
  17              		.p2align 4,,15
  18              		.arch armv6s-m
  19              		.syntax unified
  20              		.code	16
  21              		.thumb_func
  22              		.fpu softvfp
  23              		.type	get_descriptor, %function
  24              	get_descriptor:
  25              	.LVL0:
  26              	.LFB151:
  27              		.file 1 "usbcfg.c"
  28              		.loc 1 200 59 view -0
  29              		.cfi_startproc
  30              		@ args = 0, pretend = 0, frame = 0
  31              		@ frame_needed = 0, uses_anonymous_args = 0
  32              		@ link register save eliminated.
  33              		.loc 1 202 3 view .LVU1
  34              		.loc 1 203 3 view .LVU2
  35              		.loc 1 204 3 view .LVU3
  36 0000 0229     		cmp	r1, #2
  37 0002 0ED0     		beq	.L4
  38 0004 0329     		cmp	r1, #3
  39 0006 05D0     		beq	.L3
  40 0008 0129     		cmp	r1, #1
  41 000a 01D0     		beq	.L5
  42              		.loc 1 213 10 is_stmt 0 view .LVU4
  43 000c 0020     		movs	r0, #0
  44              	.LVL1:
  45              	.L1:
  46              		.loc 1 214 1 view .LVU5
  47              		@ sp needed
  48 000e 7047     		bx	lr
  49              	.LVL2:
  50              	.L5:
  51              		.loc 1 206 12 view .LVU6
  52 0010 0548     		ldr	r0, .L8
  53              	.LVL3:
  54              		.loc 1 206 12 view .LVU7
  55 0012 FCE7     		b	.L1
  56              	.LVL4:
  57              	.L3:
ARM GAS  /tmp/ccihmmVG.s 			page 2


  58              		.loc 1 210 5 is_stmt 1 view .LVU8
  59              		.loc 1 213 10 is_stmt 0 view .LVU9
  60 0014 0020     		movs	r0, #0
  61              	.LVL5:
  62              		.loc 1 210 8 view .LVU10
  63 0016 032A     		cmp	r2, #3
  64 0018 F9D8     		bhi	.L1
  65              		.loc 1 211 7 is_stmt 1 view .LVU11
  66              		.loc 1 211 14 is_stmt 0 view .LVU12
  67 001a 0448     		ldr	r0, .L8+4
  68 001c D200     		lsls	r2, r2, #3
  69              	.LVL6:
  70              		.loc 1 211 14 view .LVU13
  71 001e 8018     		adds	r0, r0, r2
  72 0020 F5E7     		b	.L1
  73              	.LVL7:
  74              	.L4:
  75              		.loc 1 208 12 view .LVU14
  76 0022 0348     		ldr	r0, .L8+8
  77              	.LVL8:
  78              		.loc 1 208 12 view .LVU15
  79 0024 F3E7     		b	.L1
  80              	.L9:
  81 0026 C046     		.align	2
  82              	.L8:
  83 0028 00000000 		.word	.LANCHOR1
  84 002c 00000000 		.word	.LANCHOR2
  85 0030 00000000 		.word	.LANCHOR0
  86              		.cfi_endproc
  87              	.LFE151:
  88              		.size	get_descriptor, .-get_descriptor
  89              		.section	.text.sof_handler,"ax",%progbits
  90              		.align	1
  91              		.p2align 4,,15
  92              		.syntax unified
  93              		.code	16
  94              		.thumb_func
  95              		.fpu softvfp
  96              		.type	sof_handler, %function
  97              	sof_handler:
  98              	.LVL9:
  99              	.LFB153:
 100              		.loc 1 307 42 is_stmt 1 view -0
 101              		.cfi_startproc
 102              		@ args = 0, pretend = 0, frame = 0
 103              		@ frame_needed = 0, uses_anonymous_args = 0
 104              		.loc 1 309 3 view .LVU17
 105              		.loc 1 311 3 view .LVU18
 106              	.LBB94:
 107              	.LBI94:
 108              		.file 2 "ChibiOS/os/hal/osal/rt/osal.h"
 109              		.loc 2 513 20 view .LVU19
 110              	.LBE94:
 111              		.loc 2 515 3 view .LVU20
 112              	.LBB111:
 113              	.LBB95:
 114              	.LBI95:
ARM GAS  /tmp/ccihmmVG.s 			page 3


 115              		.file 3 "ChibiOS/os/rt/include/chsys.h"
 116              		.loc 3 414 20 view .LVU21
 117              	.LBE95:
 118              	.LBE111:
 119              		.loc 3 416 3 view .LVU22
 120              	.LBB112:
 121              	.LBB107:
 122              	.LBB96:
 123              	.LBI96:
 124              		.file 4 "ChibiOS/os/common/ports/ARMCMx/chcore_v6m.h"
 125              		.loc 4 390 20 view .LVU23
 126              	.LBE96:
 127              	.LBE107:
 128              	.LBE112:
 129              		.loc 4 392 3 view .LVU24
 130              	.LBB113:
 131              	.LBB108:
 132              	.LBB104:
 133              	.LBB97:
 134              	.LBI97:
 135              		.loc 4 371 20 view .LVU25
 136              	.LBE97:
 137              	.LBE104:
 138              	.LBE108:
 139              	.LBE113:
 140              		.loc 4 373 3 view .LVU26
 141              	.LBB114:
 142              	.LBB109:
 143              	.LBB105:
 144              	.LBB102:
 145              	.LBB98:
 146              	.LBI98:
 147              		.file 5 "ChibiOS/os/common/ext/CMSIS/include/core_cmFunc.h"
 148              		.loc 5 342 57 view .LVU27
 149              	.LBB99:
 150              		.loc 5 344 3 view .LVU28
 151              	.LBE99:
 152              	.LBE98:
 153              	.LBE102:
 154              	.LBE105:
 155              	.LBE109:
 156              	.LBE114:
 157              		.loc 1 307 42 is_stmt 0 view .LVU29
 158 0000 10B5     		push	{r4, lr}
 159              		.cfi_def_cfa_offset 8
 160              		.cfi_offset 4, -8
 161              		.cfi_offset 14, -4
 162              	.LBB115:
 163              	.LBB110:
 164              	.LBB106:
 165              	.LBB103:
 166              	.LBB101:
 167              	.LBB100:
 168              		.loc 5 344 3 view .LVU30
 169              		.syntax divided
 170              	@ 344 "ChibiOS/os/common/ext/CMSIS/include/core_cmFunc.h" 1
 171 0002 72B6     		cpsid i
ARM GAS  /tmp/ccihmmVG.s 			page 4


 172              	@ 0 "" 2
 173              		.thumb
 174              		.syntax unified
 175              	.LBE100:
 176              	.LBE101:
 177              	.LBE103:
 178              	.LBE106:
 179              	.LBE110:
 180              	.LBE115:
 181              		.loc 3 417 34 is_stmt 1 view .LVU31
 182              		.loc 3 418 29 view .LVU32
 183              		.loc 1 312 3 view .LVU33
 184 0004 0248     		ldr	r0, .L11
 185              	.LVL10:
 186              		.loc 1 312 3 is_stmt 0 view .LVU34
 187 0006 FFF7FEFF 		bl	sduSOFHookI
 188              	.LVL11:
 189              		.loc 1 313 3 is_stmt 1 view .LVU35
 190              	.LBB116:
 191              	.LBI116:
 192              		.loc 2 524 20 view .LVU36
 193              	.LBE116:
 194              		.loc 2 526 3 view .LVU37
 195              	.LBB128:
 196              	.LBB117:
 197              	.LBI117:
 198              		.loc 3 434 20 view .LVU38
 199              	.LBE117:
 200              	.LBE128:
 201              		.loc 3 436 31 view .LVU39
 202              		.loc 3 437 33 view .LVU40
 203              		.loc 3 438 3 view .LVU41
 204              	.LBB129:
 205              	.LBB125:
 206              	.LBB118:
 207              	.LBI118:
 208              		.loc 4 400 20 view .LVU42
 209              	.LBE118:
 210              	.LBE125:
 211              	.LBE129:
 212              		.loc 4 402 3 view .LVU43
 213              	.LBB130:
 214              	.LBB126:
 215              	.LBB123:
 216              	.LBB119:
 217              	.LBI119:
 218              		.loc 4 380 20 view .LVU44
 219              	.LBE119:
 220              	.LBE123:
 221              	.LBE126:
 222              	.LBE130:
 223              		.loc 4 382 3 view .LVU45
 224              	.LBB131:
 225              	.LBB127:
 226              	.LBB124:
 227              	.LBB122:
 228              	.LBB120:
ARM GAS  /tmp/ccihmmVG.s 			page 5


 229              	.LBI120:
 230              		.loc 5 331 57 view .LVU46
 231              	.LBB121:
 232              		.loc 5 333 3 view .LVU47
 233              		.syntax divided
 234              	@ 333 "ChibiOS/os/common/ext/CMSIS/include/core_cmFunc.h" 1
 235 000a 62B6     		cpsie i
 236              	@ 0 "" 2
 237              		.thumb
 238              		.syntax unified
 239              	.LBE121:
 240              	.LBE120:
 241              	.LBE122:
 242              	.LBE124:
 243              	.LBE127:
 244              	.LBE131:
 245              		.loc 1 314 1 is_stmt 0 view .LVU48
 246              		@ sp needed
 247 000c 10BD     		pop	{r4, pc}
 248              	.L12:
 249 000e C046     		.align	2
 250              	.L11:
 251 0010 00000000 		.word	SDU1
 252              		.cfi_endproc
 253              	.LFE153:
 254              		.size	sof_handler, .-sof_handler
 255              		.section	.text.usb_event,"ax",%progbits
 256              		.align	1
 257              		.p2align 4,,15
 258              		.syntax unified
 259              		.code	16
 260              		.thumb_func
 261              		.fpu softvfp
 262              		.type	usb_event, %function
 263              	usb_event:
 264              	.LVL12:
 265              	.LFB152:
 266              		.loc 1 266 58 is_stmt 1 view -0
 267              		.cfi_startproc
 268              		@ args = 0, pretend = 0, frame = 0
 269              		@ frame_needed = 0, uses_anonymous_args = 0
 270              		.loc 1 267 3 view .LVU50
 271              		.loc 1 269 3 view .LVU51
 272              		.loc 1 266 58 is_stmt 0 view .LVU52
 273 0000 10B5     		push	{r4, lr}
 274              		.cfi_def_cfa_offset 8
 275              		.cfi_offset 4, -8
 276              		.cfi_offset 14, -4
 277              		.loc 1 266 58 view .LVU53
 278 0002 0400     		movs	r4, r0
 279              		.loc 1 269 3 view .LVU54
 280 0004 0229     		cmp	r1, #2
 281 0006 07D0     		beq	.L14
 282 0008 0329     		cmp	r1, #3
 283 000a 04D1     		bne	.L13
 284              		.loc 1 289 5 is_stmt 1 view .LVU55
 285              	.LBB164:
ARM GAS  /tmp/ccihmmVG.s 			page 6


 286              	.LBI164:
 287              		.loc 3 414 20 view .LVU56
 288              	.LBE164:
 289              		.loc 3 416 3 view .LVU57
 290              	.LBB172:
 291              	.LBB165:
 292              	.LBI165:
 293              		.loc 4 390 20 view .LVU58
 294              	.LBE165:
 295              	.LBE172:
 296              		.loc 4 392 3 view .LVU59
 297              	.LBB173:
 298              	.LBB170:
 299              	.LBB166:
 300              	.LBI166:
 301              		.loc 4 371 20 view .LVU60
 302              	.LBE166:
 303              	.LBE170:
 304              	.LBE173:
 305              		.loc 4 373 3 view .LVU61
 306              	.LBB174:
 307              	.LBB171:
 308              	.LBB169:
 309              	.LBB167:
 310              	.LBI167:
 311              		.loc 5 342 57 view .LVU62
 312              	.LBB168:
 313              		.loc 5 344 3 view .LVU63
 314              		.syntax divided
 315              	@ 344 "ChibiOS/os/common/ext/CMSIS/include/core_cmFunc.h" 1
 316 000c 72B6     		cpsid i
 317              	@ 0 "" 2
 318              		.thumb
 319              		.syntax unified
 320              	.LBE168:
 321              	.LBE167:
 322              	.LBE169:
 323              	.LBE171:
 324              	.LBE174:
 325              		.loc 3 417 34 view .LVU64
 326              		.loc 3 418 29 view .LVU65
 327              		.loc 1 292 5 view .LVU66
 328 000e 0A48     		ldr	r0, .L17
 329              	.LVL13:
 330              		.loc 1 292 5 is_stmt 0 view .LVU67
 331 0010 FFF7FEFF 		bl	sduDisconnectI
 332              	.LVL14:
 333              		.loc 1 294 5 is_stmt 1 view .LVU68
 334              	.LBB175:
 335              	.LBI175:
 336              		.loc 3 434 20 view .LVU69
 337              	.LBE175:
 338              		.loc 3 436 31 view .LVU70
 339              		.loc 3 437 33 view .LVU71
 340              		.loc 3 438 3 view .LVU72
 341              	.LBB183:
 342              	.LBB176:
ARM GAS  /tmp/ccihmmVG.s 			page 7


 343              	.LBI176:
 344              		.loc 4 400 20 view .LVU73
 345              	.LBE176:
 346              	.LBE183:
 347              		.loc 4 402 3 view .LVU74
 348              	.LBB184:
 349              	.LBB181:
 350              	.LBB177:
 351              	.LBI177:
 352              		.loc 4 380 20 view .LVU75
 353              	.LBE177:
 354              	.LBE181:
 355              	.LBE184:
 356              		.loc 4 382 3 view .LVU76
 357              	.LBB185:
 358              	.LBB182:
 359              	.LBB180:
 360              	.LBB178:
 361              	.LBI178:
 362              		.loc 5 331 57 view .LVU77
 363              	.LBB179:
 364              		.loc 5 333 3 view .LVU78
 365              		.syntax divided
 366              	@ 333 "ChibiOS/os/common/ext/CMSIS/include/core_cmFunc.h" 1
 367 0014 62B6     		cpsie i
 368              	@ 0 "" 2
 369              		.thumb
 370              		.syntax unified
 371              	.L13:
 372              	.LBE179:
 373              	.LBE178:
 374              	.LBE180:
 375              	.LBE182:
 376              	.LBE185:
 377              		.loc 1 302 1 is_stmt 0 view .LVU79
 378              		@ sp needed
 379              	.LVL15:
 380              		.loc 1 302 1 view .LVU80
 381 0016 10BD     		pop	{r4, pc}
 382              	.LVL16:
 383              	.L14:
 384              	.LBB186:
 385              	.LBI186:
 386              		.loc 1 266 13 is_stmt 1 view .LVU81
 387              	.LBB187:
 388              		.loc 1 275 5 view .LVU82
 389              	.LBB188:
 390              	.LBI188:
 391              		.loc 3 414 20 view .LVU83
 392              	.LBE188:
 393              	.LBE187:
 394              	.LBE186:
 395              		.loc 3 416 3 view .LVU84
 396              	.LBB217:
 397              	.LBB210:
 398              	.LBB196:
 399              	.LBB189:
ARM GAS  /tmp/ccihmmVG.s 			page 8


 400              	.LBI189:
 401              		.loc 4 390 20 view .LVU85
 402              	.LBE189:
 403              	.LBE196:
 404              	.LBE210:
 405              	.LBE217:
 406              		.loc 4 392 3 view .LVU86
 407              	.LBB218:
 408              	.LBB211:
 409              	.LBB197:
 410              	.LBB194:
 411              	.LBB190:
 412              	.LBI190:
 413              		.loc 4 371 20 view .LVU87
 414              	.LBE190:
 415              	.LBE194:
 416              	.LBE197:
 417              	.LBE211:
 418              	.LBE218:
 419              		.loc 4 373 3 view .LVU88
 420              	.LBB219:
 421              	.LBB212:
 422              	.LBB198:
 423              	.LBB195:
 424              	.LBB193:
 425              	.LBB191:
 426              	.LBI191:
 427              		.loc 5 342 57 view .LVU89
 428              	.LBB192:
 429              		.loc 5 344 3 view .LVU90
 430              		.syntax divided
 431              	@ 344 "ChibiOS/os/common/ext/CMSIS/include/core_cmFunc.h" 1
 432 0018 72B6     		cpsid i
 433              	@ 0 "" 2
 434              		.thumb
 435              		.syntax unified
 436              	.LBE192:
 437              	.LBE191:
 438              	.LBE193:
 439              	.LBE195:
 440              	.LBE198:
 441              	.LBE212:
 442              	.LBE219:
 443              		.loc 3 417 34 view .LVU91
 444              		.loc 3 418 29 view .LVU92
 445              	.LBB220:
 446              	.LBB213:
 447              		.loc 1 280 5 view .LVU93
 448 001a 084A     		ldr	r2, .L17+4
 449 001c 0121     		movs	r1, #1
 450              	.LVL17:
 451              		.loc 1 280 5 is_stmt 0 view .LVU94
 452 001e FFF7FEFF 		bl	usbInitEndpointI
 453              	.LVL18:
 454              		.loc 1 281 5 is_stmt 1 view .LVU95
 455 0022 074A     		ldr	r2, .L17+8
 456 0024 0221     		movs	r1, #2
ARM GAS  /tmp/ccihmmVG.s 			page 9


 457 0026 2000     		movs	r0, r4
 458 0028 FFF7FEFF 		bl	usbInitEndpointI
 459              	.LVL19:
 460              		.loc 1 284 5 view .LVU96
 461 002c 0248     		ldr	r0, .L17
 462 002e FFF7FEFF 		bl	sduConfigureHookI
 463              	.LVL20:
 464              		.loc 1 286 5 view .LVU97
 465              	.LBB199:
 466              	.LBI199:
 467              		.loc 3 434 20 view .LVU98
 468              	.LBE199:
 469              	.LBE213:
 470              	.LBE220:
 471              		.loc 3 436 31 view .LVU99
 472              		.loc 3 437 33 view .LVU100
 473              		.loc 3 438 3 view .LVU101
 474              	.LBB221:
 475              	.LBB214:
 476              	.LBB207:
 477              	.LBB200:
 478              	.LBI200:
 479              		.loc 4 400 20 view .LVU102
 480              	.LBE200:
 481              	.LBE207:
 482              	.LBE214:
 483              	.LBE221:
 484              		.loc 4 402 3 view .LVU103
 485              	.LBB222:
 486              	.LBB215:
 487              	.LBB208:
 488              	.LBB205:
 489              	.LBB201:
 490              	.LBI201:
 491              		.loc 4 380 20 view .LVU104
 492              	.LBE201:
 493              	.LBE205:
 494              	.LBE208:
 495              	.LBE215:
 496              	.LBE222:
 497              		.loc 4 382 3 view .LVU105
 498              	.LBB223:
 499              	.LBB216:
 500              	.LBB209:
 501              	.LBB206:
 502              	.LBB204:
 503              	.LBB202:
 504              	.LBI202:
 505              		.loc 5 331 57 view .LVU106
 506              	.LBB203:
 507              		.loc 5 333 3 view .LVU107
 508              		.syntax divided
 509              	@ 333 "ChibiOS/os/common/ext/CMSIS/include/core_cmFunc.h" 1
 510 0032 62B6     		cpsie i
 511              	@ 0 "" 2
 512              		.thumb
 513              		.syntax unified
ARM GAS  /tmp/ccihmmVG.s 			page 10


 514 0034 EFE7     		b	.L13
 515              	.L18:
 516 0036 C046     		.align	2
 517              	.L17:
 518 0038 00000000 		.word	SDU1
 519 003c 00000000 		.word	.LANCHOR3
 520 0040 00000000 		.word	.LANCHOR4
 521              	.LBE203:
 522              	.LBE202:
 523              	.LBE204:
 524              	.LBE206:
 525              	.LBE209:
 526              	.LBE216:
 527              	.LBE223:
 528              		.cfi_endproc
 529              	.LFE152:
 530              		.size	usb_event, .-usb_event
 531              		.global	serusbcfg
 532              		.global	usbcfg
 533              		.global	SDU1
 534              		.section	.bss.SDU1,"aw",%nobits
 535              		.align	2
 536              		.type	SDU1, %object
 537              		.size	SDU1, 384
 538              	SDU1:
 539 0000 00000000 		.space	384
 539      00000000 
 539      00000000 
 539      00000000 
 539      00000000 
 540              		.section	.bss.ep1instate,"aw",%nobits
 541              		.align	2
 542              		.type	ep1instate, %object
 543              		.size	ep1instate, 16
 544              	ep1instate:
 545 0000 00000000 		.space	16
 545      00000000 
 545      00000000 
 545      00000000 
 546              		.section	.bss.ep1outstate,"aw",%nobits
 547              		.align	2
 548              		.type	ep1outstate, %object
 549              		.size	ep1outstate, 16
 550              	ep1outstate:
 551 0000 00000000 		.space	16
 551      00000000 
 551      00000000 
 551      00000000 
 552              		.section	.bss.ep2instate,"aw",%nobits
 553              		.align	2
 554              		.type	ep2instate, %object
 555              		.size	ep2instate, 16
 556              	ep2instate:
 557 0000 00000000 		.space	16
 557      00000000 
 557      00000000 
 557      00000000 
ARM GAS  /tmp/ccihmmVG.s 			page 11


 558              		.section	.rodata.ep1config,"a"
 559              		.align	2
 560              		.set	.LANCHOR3,. + 0
 561              		.type	ep1config, %object
 562              		.size	ep1config, 36
 563              	ep1config:
 564 0000 02000000 		.word	2
 565 0004 00000000 		.word	0
 566 0008 00000000 		.word	sduDataTransmitted
 567 000c 00000000 		.word	sduDataReceived
 568 0010 4000     		.short	64
 569 0012 4000     		.short	64
 570 0014 00000000 		.word	ep1instate
 571 0018 00000000 		.word	ep1outstate
 572 001c 0200     		.short	2
 573 001e 0000     		.space	2
 574 0020 00000000 		.word	0
 575              		.section	.rodata.ep2config,"a"
 576              		.align	2
 577              		.set	.LANCHOR4,. + 0
 578              		.type	ep2config, %object
 579              		.size	ep2config, 36
 580              	ep2config:
 581 0000 03000000 		.word	3
 582 0004 00000000 		.word	0
 583 0008 00000000 		.word	sduInterruptTransmitted
 584 000c 00000000 		.word	0
 585 0010 1000     		.short	16
 586 0012 0000     		.short	0
 587 0014 00000000 		.word	ep2instate
 588 0018 00000000 		.word	0
 589 001c 0100     		.short	1
 590 001e 0000     		.space	2
 591 0020 00000000 		.word	0
 592              		.section	.rodata.serusbcfg,"a"
 593              		.align	2
 594              		.type	serusbcfg, %object
 595              		.size	serusbcfg, 8
 596              	serusbcfg:
 597 0000 00000000 		.word	USBD1
 598 0004 01       		.byte	1
 599 0005 01       		.byte	1
 600 0006 02       		.byte	2
 601 0007 00       		.space	1
 602              		.section	.rodata.usbcfg,"a"
 603              		.align	2
 604              		.type	usbcfg, %object
 605              		.size	usbcfg, 16
 606              	usbcfg:
 607 0000 00000000 		.word	usb_event
 608 0004 00000000 		.word	get_descriptor
 609 0008 00000000 		.word	sduRequestsHook
 610 000c 00000000 		.word	sof_handler
 611              		.section	.rodata.vcom_configuration_descriptor,"a"
 612              		.align	2
 613              		.set	.LANCHOR0,. + 0
 614              		.type	vcom_configuration_descriptor, %object
ARM GAS  /tmp/ccihmmVG.s 			page 12


 615              		.size	vcom_configuration_descriptor, 8
 616              	vcom_configuration_descriptor:
 617 0000 43000000 		.word	67
 618 0004 00000000 		.word	vcom_configuration_descriptor_data
 619              		.section	.rodata.vcom_configuration_descriptor_data,"a"
 620              		.align	2
 621              		.type	vcom_configuration_descriptor_data, %object
 622              		.size	vcom_configuration_descriptor_data, 67
 623              	vcom_configuration_descriptor_data:
 624 0000 09       		.byte	9
 625 0001 02       		.byte	2
 626 0002 43       		.byte	67
 627 0003 00       		.byte	0
 628 0004 02       		.byte	2
 629 0005 01       		.byte	1
 630 0006 00       		.byte	0
 631 0007 C0       		.byte	-64
 632 0008 32       		.byte	50
 633 0009 09       		.byte	9
 634 000a 04       		.byte	4
 635 000b 00       		.byte	0
 636 000c 00       		.byte	0
 637 000d 01       		.byte	1
 638 000e 02       		.byte	2
 639 000f 02       		.byte	2
 640 0010 01       		.byte	1
 641 0011 00       		.byte	0
 642 0012 05       		.byte	5
 643 0013 24       		.byte	36
 644 0014 00       		.byte	0
 645 0015 10       		.byte	16
 646 0016 01       		.byte	1
 647 0017 05       		.byte	5
 648 0018 24       		.byte	36
 649 0019 01       		.byte	1
 650 001a 00       		.byte	0
 651 001b 01       		.byte	1
 652 001c 04       		.byte	4
 653 001d 24       		.byte	36
 654 001e 02       		.byte	2
 655 001f 02       		.byte	2
 656 0020 05       		.byte	5
 657 0021 24       		.byte	36
 658 0022 06       		.byte	6
 659 0023 00       		.byte	0
 660 0024 01       		.byte	1
 661 0025 07       		.byte	7
 662 0026 05       		.byte	5
 663 0027 82       		.byte	-126
 664 0028 03       		.byte	3
 665 0029 08       		.byte	8
 666 002a 00       		.byte	0
 667 002b FF       		.byte	-1
 668 002c 09       		.byte	9
 669 002d 04       		.byte	4
 670 002e 01       		.byte	1
 671 002f 00       		.byte	0
ARM GAS  /tmp/ccihmmVG.s 			page 13


 672 0030 02       		.byte	2
 673 0031 0A       		.byte	10
 674 0032 00       		.byte	0
 675 0033 00       		.byte	0
 676 0034 00       		.byte	0
 677 0035 07       		.byte	7
 678 0036 05       		.byte	5
 679 0037 01       		.byte	1
 680 0038 02       		.byte	2
 681 0039 40       		.byte	64
 682 003a 00       		.byte	0
 683 003b 00       		.byte	0
 684 003c 07       		.byte	7
 685 003d 05       		.byte	5
 686 003e 81       		.byte	-127
 687 003f 02       		.byte	2
 688 0040 40       		.byte	64
 689 0041 00       		.byte	0
 690 0042 00       		.byte	0
 691              		.section	.rodata.vcom_device_descriptor,"a"
 692              		.align	2
 693              		.set	.LANCHOR1,. + 0
 694              		.type	vcom_device_descriptor, %object
 695              		.size	vcom_device_descriptor, 8
 696              	vcom_device_descriptor:
 697 0000 12000000 		.word	18
 698 0004 00000000 		.word	vcom_device_descriptor_data
 699              		.section	.rodata.vcom_device_descriptor_data,"a"
 700              		.align	2
 701              		.type	vcom_device_descriptor_data, %object
 702              		.size	vcom_device_descriptor_data, 18
 703              	vcom_device_descriptor_data:
 704 0000 12       		.byte	18
 705 0001 01       		.byte	1
 706 0002 10       		.byte	16
 707 0003 01       		.byte	1
 708 0004 02       		.byte	2
 709 0005 00       		.byte	0
 710 0006 00       		.byte	0
 711 0007 40       		.byte	64
 712 0008 83       		.byte	-125
 713 0009 04       		.byte	4
 714 000a 40       		.byte	64
 715 000b 57       		.byte	87
 716 000c 00       		.byte	0
 717 000d 02       		.byte	2
 718 000e 01       		.byte	1
 719 000f 02       		.byte	2
 720 0010 03       		.byte	3
 721 0011 01       		.byte	1
 722              		.section	.rodata.vcom_string0,"a"
 723              		.align	2
 724              		.type	vcom_string0, %object
 725              		.size	vcom_string0, 4
 726              	vcom_string0:
 727 0000 04       		.byte	4
 728 0001 03       		.byte	3
ARM GAS  /tmp/ccihmmVG.s 			page 14


 729 0002 09       		.byte	9
 730 0003 04       		.byte	4
 731              		.section	.rodata.vcom_string1,"a"
 732              		.align	2
 733              		.type	vcom_string1, %object
 734              		.size	vcom_string1, 38
 735              	vcom_string1:
 736 0000 26       		.byte	38
 737 0001 03       		.byte	3
 738 0002 53       		.byte	83
 739 0003 00       		.byte	0
 740 0004 54       		.byte	84
 741 0005 00       		.byte	0
 742 0006 4D       		.byte	77
 743 0007 00       		.byte	0
 744 0008 69       		.byte	105
 745 0009 00       		.byte	0
 746 000a 63       		.byte	99
 747 000b 00       		.byte	0
 748 000c 72       		.byte	114
 749 000d 00       		.byte	0
 750 000e 6F       		.byte	111
 751 000f 00       		.byte	0
 752 0010 65       		.byte	101
 753 0011 00       		.byte	0
 754 0012 6C       		.byte	108
 755 0013 00       		.byte	0
 756 0014 65       		.byte	101
 757 0015 00       		.byte	0
 758 0016 63       		.byte	99
 759 0017 00       		.byte	0
 760 0018 74       		.byte	116
 761 0019 00       		.byte	0
 762 001a 72       		.byte	114
 763 001b 00       		.byte	0
 764 001c 6F       		.byte	111
 765 001d 00       		.byte	0
 766 001e 6E       		.byte	110
 767 001f 00       		.byte	0
 768 0020 69       		.byte	105
 769 0021 00       		.byte	0
 770 0022 63       		.byte	99
 771 0023 00       		.byte	0
 772 0024 73       		.byte	115
 773 0025 00       		.byte	0
 774              		.section	.rodata.vcom_string2,"a"
 775              		.align	2
 776              		.type	vcom_string2, %object
 777              		.size	vcom_string2, 56
 778              	vcom_string2:
 779 0000 38       		.byte	56
 780 0001 03       		.byte	3
 781 0002 43       		.byte	67
 782 0003 00       		.byte	0
 783 0004 68       		.byte	104
 784 0005 00       		.byte	0
 785 0006 69       		.byte	105
ARM GAS  /tmp/ccihmmVG.s 			page 15


 786 0007 00       		.byte	0
 787 0008 62       		.byte	98
 788 0009 00       		.byte	0
 789 000a 69       		.byte	105
 790 000b 00       		.byte	0
 791 000c 4F       		.byte	79
 792 000d 00       		.byte	0
 793 000e 53       		.byte	83
 794 000f 00       		.byte	0
 795 0010 2F       		.byte	47
 796 0011 00       		.byte	0
 797 0012 52       		.byte	82
 798 0013 00       		.byte	0
 799 0014 54       		.byte	84
 800 0015 00       		.byte	0
 801 0016 20       		.byte	32
 802 0017 00       		.byte	0
 803 0018 56       		.byte	86
 804 0019 00       		.byte	0
 805 001a 69       		.byte	105
 806 001b 00       		.byte	0
 807 001c 72       		.byte	114
 808 001d 00       		.byte	0
 809 001e 74       		.byte	116
 810 001f 00       		.byte	0
 811 0020 75       		.byte	117
 812 0021 00       		.byte	0
 813 0022 61       		.byte	97
 814 0023 00       		.byte	0
 815 0024 6C       		.byte	108
 816 0025 00       		.byte	0
 817 0026 20       		.byte	32
 818 0027 00       		.byte	0
 819 0028 43       		.byte	67
 820 0029 00       		.byte	0
 821 002a 4F       		.byte	79
 822 002b 00       		.byte	0
 823 002c 4D       		.byte	77
 824 002d 00       		.byte	0
 825 002e 20       		.byte	32
 826 002f 00       		.byte	0
 827 0030 50       		.byte	80
 828 0031 00       		.byte	0
 829 0032 6F       		.byte	111
 830 0033 00       		.byte	0
 831 0034 72       		.byte	114
 832 0035 00       		.byte	0
 833 0036 74       		.byte	116
 834 0037 00       		.byte	0
 835              		.section	.rodata.vcom_string3,"a"
 836              		.align	2
 837              		.type	vcom_string3, %object
 838              		.size	vcom_string3, 8
 839              	vcom_string3:
 840 0000 08       		.byte	8
 841 0001 03       		.byte	3
 842 0002 34       		.byte	52
ARM GAS  /tmp/ccihmmVG.s 			page 16


 843 0003 00       		.byte	0
 844 0004 30       		.byte	48
 845 0005 00       		.byte	0
 846 0006 30       		.byte	48
 847 0007 00       		.byte	0
 848              		.section	.rodata.vcom_strings,"a"
 849              		.align	2
 850              		.set	.LANCHOR2,. + 0
 851              		.type	vcom_strings, %object
 852              		.size	vcom_strings, 32
 853              	vcom_strings:
 854 0000 04000000 		.word	4
 855 0004 00000000 		.word	vcom_string0
 856 0008 26000000 		.word	38
 857 000c 00000000 		.word	vcom_string1
 858 0010 38000000 		.word	56
 859 0014 00000000 		.word	vcom_string2
 860 0018 08000000 		.word	8
 861 001c 00000000 		.word	vcom_string3
 862              		.text
 863              	.Letext0:
 864              		.file 6 "/opt/nanovna/gcc-arm-none-eabi-8-2018-q4-major/lib/gcc/arm-none-eabi/8.2.1/include/stddef
 865              		.file 7 "/opt/nanovna/gcc-arm-none-eabi-8-2018-q4-major/arm-none-eabi/include/machine/_default_typ
 866              		.file 8 "/opt/nanovna/gcc-arm-none-eabi-8-2018-q4-major/arm-none-eabi/include/sys/_stdint.h"
 867              		.file 9 "ChibiOS/os/common/ports/ARMCMx/compilers/GCC/chtypes.h"
 868              		.file 10 "ChibiOS/os/rt/include/chsystypes.h"
 869              		.file 11 "ChibiOS/os/rt/include/chschd.h"
 870              		.file 12 "ChibiOS/os/common/ext/CMSIS/ST/STM32F0xx/stm32f072xb.h"
 871              		.file 13 "ChibiOS/os/common/ports/ARMCMx/chcore.h"
 872              		.file 14 "ChibiOS/os/hal/ports/STM32/LLD/TIMv1/stm32_tim.h"
 873              		.file 15 "ChibiOS/os/rt/include/chmtx.h"
 874              		.file 16 "ChibiOS/os/common/ext/CMSIS/ST/STM32F0xx/system_stm32f0xx.h"
 875              		.file 17 "ChibiOS/os/rt/include/chregistry.h"
 876              		.file 18 "ChibiOS/os/rt/include/chevents.h"
 877              		.file 19 "ChibiOS/os/hal/ports/STM32/LLD/DMAv1/stm32_dma.h"
 878              		.file 20 "ChibiOS/os/hal/include/hal_buffers.h"
 879              		.file 21 "ChibiOS/os/hal/include/hal_queues.h"
 880              		.file 22 "ChibiOS/os/hal/ports/STM32/LLD/GPIOv2/hal_pal_lld.h"
 881              		.file 23 "ChibiOS/os/hal/include/hal_ext.h"
 882              		.file 24 "ChibiOS/os/hal/ports/STM32/LLD/EXTIv1/hal_ext_lld.h"
 883              		.file 25 "ChibiOS/os/hal/include/hal_gpt.h"
 884              		.file 26 "ChibiOS/os/hal/ports/STM32/LLD/TIMv1/hal_gpt_lld.h"
 885              		.file 27 "ChibiOS/os/hal/include/hal_i2c.h"
 886              		.file 28 "ChibiOS/os/hal/ports/STM32/LLD/I2Cv2/hal_i2c_lld.h"
 887              		.file 29 "ChibiOS/os/hal/include/hal_i2s.h"
 888              		.file 30 "ChibiOS/os/hal/ports/STM32/LLD/SPIv2/hal_i2s_lld.h"
 889              		.file 31 "/opt/nanovna/gcc-arm-none-eabi-8-2018-q4-major/arm-none-eabi/include/sys/lock.h"
 890              		.file 32 "/opt/nanovna/gcc-arm-none-eabi-8-2018-q4-major/arm-none-eabi/include/sys/_types.h"
 891              		.file 33 "/opt/nanovna/gcc-arm-none-eabi-8-2018-q4-major/arm-none-eabi/include/sys/reent.h"
 892              		.file 34 "/opt/nanovna/gcc-arm-none-eabi-8-2018-q4-major/arm-none-eabi/include/time.h"
 893              		.file 35 "ChibiOS/os/hal/include/hal_rtc.h"
 894              		.file 36 "ChibiOS/os/hal/ports/STM32/LLD/RTCv2/hal_rtc_lld.h"
 895              		.file 37 "ChibiOS/os/hal/include/hal_serial.h"
 896              		.file 38 "ChibiOS/os/hal/ports/STM32/LLD/USARTv2/hal_serial_lld.h"
 897              		.file 39 "ChibiOS/os/hal/include/hal_spi.h"
 898              		.file 40 "ChibiOS/os/hal/ports/STM32/LLD/SPIv2/hal_spi_lld.h"
 899              		.file 41 "ChibiOS/os/hal/include/hal_usb.h"
ARM GAS  /tmp/ccihmmVG.s 			page 17


 900              		.file 42 "ChibiOS/os/hal/ports/STM32/LLD/USBv1/hal_usb_lld.h"
 901              		.file 43 "ChibiOS/os/hal/include/hal_serial_usb.h"